
kernel2:     file format elf32-i386


Disassembly of section .text:

00100000 <MultiBootHeader>:
  100000:	02 b0 ad 1b 06 00    	add    0x61bad(%eax),%dh
  100006:	00 00                	add    %al,(%eax)
  100008:	f8                   	clc    
  100009:	4f                   	dec    %edi
  10000a:	52                   	push   %edx
  10000b:	e4 00                	in     $0x0,%al
	...
  100021:	00 00                	add    %al,(%eax)
  100023:	00 50 00             	add    %dl,0x0(%eax)
  100026:	00 00                	add    %al,(%eax)
  100028:	19 00                	sbb    %eax,(%eax)
  10002a:	00 00                	add    %al,(%eax)
  10002c:	00 00                	add    %al,(%eax)
	...

00100030 <_start>:
  100030:	bc 54 f9 10 00       	mov    $0x10f954,%esp
  100035:	50                   	push   %eax
  100036:	53                   	push   %ebx
  100037:	e8 78 25 00 00       	call   1025b4 <main>
  10003c:	81 c4 08 00 00 00    	add    $0x8,%esp
  100042:	fa                   	cli    
  100043:	f4                   	hlt    

00100044 <init_stacksize>:
  100044:	00 10 00 00                                         ....

00100048 <biosint_init>:
#include <procm.h>

#define IVT_GET_IP(i) (((uint16_t*)IVT_ADDRESS)[i*2])
#define IVT_GET_CS(i) (((uint16_t*)IVT_ADDRESS)[i*2+1])

int biosint_init() {
  100048:	55                   	push   %ebp
  100049:	89 e5                	mov    %esp,%ebp
  10004b:	83 ec 18             	sub    $0x18,%esp
  if (syscall_create(SYSCALL_MISC_BIOSINT,biosint_call,10)==-1) return -1;
  10004e:	c7 44 24 08 0a 00 00 	movl   $0xa,0x8(%esp)
  100055:	00 
  100056:	c7 44 24 04 84 00 10 	movl   $0x100084,0x4(%esp)
  10005d:	00 
  10005e:	c7 04 24 4e 00 00 00 	movl   $0x4e,(%esp)
  100065:	e8 d0 9d 00 00       	call   109e3a <syscall_create>
  10006a:	83 f8 ff             	cmp    $0xffffffff,%eax
  10006d:	75 09                	jne    100078 <biosint_init+0x30>
  10006f:	c7 45 fc ff ff ff ff 	movl   $0xffffffff,-0x4(%ebp)
  100076:	eb 07                	jmp    10007f <biosint_init+0x37>
  return 0;
  100078:	c7 45 fc 00 00 00 00 	movl   $0x0,-0x4(%ebp)
  10007f:	8b 45 fc             	mov    -0x4(%ebp),%eax
}
  100082:	c9                   	leave  
  100083:	c3                   	ret    

00100084 <biosint_call>:

uint16_t biosint_call(unsigned int *meminfo,size_t meminfo_count,uint16_t ax,uint16_t bx,uint16_t cx,uint16_t dx,uint16_t si,uint16_t di,uint16_t ds,uint16_t es) {
  100084:	55                   	push   %ebp
  100085:	89 e5                	mov    %esp,%ebp
  100087:	57                   	push   %edi
  100088:	56                   	push   %esi
  100089:	53                   	push   %ebx
  10008a:	83 ec 4c             	sub    $0x4c,%esp
  10008d:	8b 45 10             	mov    0x10(%ebp),%eax
  100090:	89 45 b8             	mov    %eax,-0x48(%ebp)
  100093:	8b 55 14             	mov    0x14(%ebp),%edx
  100096:	8b 4d 18             	mov    0x18(%ebp),%ecx
  100099:	8b 5d 1c             	mov    0x1c(%ebp),%ebx
  10009c:	8b 75 20             	mov    0x20(%ebp),%esi
  10009f:	8b 7d 24             	mov    0x24(%ebp),%edi
  1000a2:	8b 45 28             	mov    0x28(%ebp),%eax
  1000a5:	89 45 c0             	mov    %eax,-0x40(%ebp)
  1000a8:	8b 45 2c             	mov    0x2c(%ebp),%eax
  1000ab:	89 45 bc             	mov    %eax,-0x44(%ebp)
  1000ae:	0f b7 45 b8          	movzwl -0x48(%ebp),%eax
  1000b2:	66 89 45 e0          	mov    %ax,-0x20(%ebp)
  1000b6:	66 89 55 dc          	mov    %dx,-0x24(%ebp)
  1000ba:	66 89 4d d8          	mov    %cx,-0x28(%ebp)
  1000be:	66 89 5d d4          	mov    %bx,-0x2c(%ebp)
  1000c2:	66 89 75 d0          	mov    %si,-0x30(%ebp)
  1000c6:	66 89 7d cc          	mov    %di,-0x34(%ebp)
  1000ca:	0f b7 45 c0          	movzwl -0x40(%ebp),%eax
  1000ce:	66 89 45 c8          	mov    %ax,-0x38(%ebp)
  1000d2:	0f b7 45 bc          	movzwl -0x44(%ebp),%eax
  1000d6:	66 89 45 c4          	mov    %ax,-0x3c(%ebp)
  size_t i;
  proc_t *proc = vm86_proc_create("bios_int",proc_current->uid,proc_current->gid,proc_current);
  1000da:	8b 15 a0 e1 10 00    	mov    0x10e1a0,%edx
  1000e0:	a1 a0 e1 10 00       	mov    0x10e1a0,%eax
  1000e5:	8b 48 10             	mov    0x10(%eax),%ecx
  1000e8:	a1 a0 e1 10 00       	mov    0x10e1a0,%eax
  1000ed:	8b 40 04             	mov    0x4(%eax),%eax
  1000f0:	89 54 24 0c          	mov    %edx,0xc(%esp)
  1000f4:	89 4c 24 08          	mov    %ecx,0x8(%esp)
  1000f8:	89 44 24 04          	mov    %eax,0x4(%esp)
  1000fc:	c7 04 24 00 d0 10 00 	movl   $0x10d000,(%esp)
  100103:	e8 dc a2 00 00       	call   10a3e4 <vm86_proc_create>
  100108:	89 45 f0             	mov    %eax,-0x10(%ebp)

  proc->registers.eax = ax;
  10010b:	0f b7 55 e0          	movzwl -0x20(%ebp),%edx
  10010f:	8b 45 f0             	mov    -0x10(%ebp),%eax
  100112:	89 50 2c             	mov    %edx,0x2c(%eax)
  proc->registers.ebx = bx;
  100115:	0f b7 55 dc          	movzwl -0x24(%ebp),%edx
  100119:	8b 45 f0             	mov    -0x10(%ebp),%eax
  10011c:	89 50 30             	mov    %edx,0x30(%eax)
  proc->registers.ecx = cx;
  10011f:	0f b7 55 d8          	movzwl -0x28(%ebp),%edx
  100123:	8b 45 f0             	mov    -0x10(%ebp),%eax
  100126:	89 50 34             	mov    %edx,0x34(%eax)
  proc->registers.edx = dx;
  100129:	0f b7 55 d4          	movzwl -0x2c(%ebp),%edx
  10012d:	8b 45 f0             	mov    -0x10(%ebp),%eax
  100130:	89 50 38             	mov    %edx,0x38(%eax)
  proc->registers.esi = si;
  100133:	0f b7 55 d0          	movzwl -0x30(%ebp),%edx
  100137:	8b 45 f0             	mov    -0x10(%ebp),%eax
  10013a:	89 50 3c             	mov    %edx,0x3c(%eax)
  proc->registers.edi = di;
  10013d:	0f b7 55 cc          	movzwl -0x34(%ebp),%edx
  100141:	8b 45 f0             	mov    -0x10(%ebp),%eax
  100144:	89 50 40             	mov    %edx,0x40(%eax)
  proc->registers.ds = ds;
  100147:	0f b7 55 c8          	movzwl -0x38(%ebp),%edx
  10014b:	8b 45 f0             	mov    -0x10(%ebp),%eax
  10014e:	89 50 58             	mov    %edx,0x58(%eax)
  proc->registers.es = es;
  100151:	0f b7 55 c4          	movzwl -0x3c(%ebp),%edx
  100155:	8b 45 f0             	mov    -0x10(%ebp),%eax
  100158:	89 50 5c             	mov    %edx,0x5c(%eax)

  proc->registers.eip = IVT_GET_IP(0x10);
  10015b:	b8 40 00 00 00       	mov    $0x40,%eax
  100160:	0f b7 00             	movzwl (%eax),%eax
  100163:	0f b7 d0             	movzwl %ax,%edx
  100166:	8b 45 f0             	mov    -0x10(%ebp),%eax
  100169:	89 50 4c             	mov    %edx,0x4c(%eax)
  proc->registers.cs = IVT_GET_CS(0x10);
  10016c:	b8 42 00 00 00       	mov    $0x42,%eax
  100171:	0f b7 00             	movzwl (%eax),%eax
  100174:	0f b7 d0             	movzwl %ax,%edx
  100177:	8b 45 f0             	mov    -0x10(%ebp),%eax
  10017a:	89 50 54             	mov    %edx,0x54(%eax)

  kprintf("Process: %s\n",proc_current->name);
  10017d:	a1 a0 e1 10 00       	mov    0x10e1a0,%eax
  100182:	8b 40 20             	mov    0x20(%eax),%eax
  100185:	89 44 24 04          	mov    %eax,0x4(%esp)
  100189:	c7 04 24 09 d0 10 00 	movl   $0x10d009,(%esp)
  100190:	e8 06 22 00 00       	call   10239b <kprintf>
  kprintf("AX: 0x%x\n",proc->registers.eax);
  100195:	8b 45 f0             	mov    -0x10(%ebp),%eax
  100198:	8b 40 2c             	mov    0x2c(%eax),%eax
  10019b:	89 44 24 04          	mov    %eax,0x4(%esp)
  10019f:	c7 04 24 16 d0 10 00 	movl   $0x10d016,(%esp)
  1001a6:	e8 f0 21 00 00       	call   10239b <kprintf>
  kprintf("BX: 0x%x\n",proc->registers.ebx);
  1001ab:	8b 45 f0             	mov    -0x10(%ebp),%eax
  1001ae:	8b 40 30             	mov    0x30(%eax),%eax
  1001b1:	89 44 24 04          	mov    %eax,0x4(%esp)
  1001b5:	c7 04 24 20 d0 10 00 	movl   $0x10d020,(%esp)
  1001bc:	e8 da 21 00 00       	call   10239b <kprintf>
  kprintf("CX: 0x%x\n",proc->registers.ecx);
  1001c1:	8b 45 f0             	mov    -0x10(%ebp),%eax
  1001c4:	8b 40 34             	mov    0x34(%eax),%eax
  1001c7:	89 44 24 04          	mov    %eax,0x4(%esp)
  1001cb:	c7 04 24 2a d0 10 00 	movl   $0x10d02a,(%esp)
  1001d2:	e8 c4 21 00 00       	call   10239b <kprintf>
  kprintf("DX: 0x%x\n",proc->registers.edx);
  1001d7:	8b 45 f0             	mov    -0x10(%ebp),%eax
  1001da:	8b 40 38             	mov    0x38(%eax),%eax
  1001dd:	89 44 24 04          	mov    %eax,0x4(%esp)
  1001e1:	c7 04 24 34 d0 10 00 	movl   $0x10d034,(%esp)
  1001e8:	e8 ae 21 00 00       	call   10239b <kprintf>
  kprintf("SI: 0x%x\n",proc->registers.esi);
  1001ed:	8b 45 f0             	mov    -0x10(%ebp),%eax
  1001f0:	8b 40 3c             	mov    0x3c(%eax),%eax
  1001f3:	89 44 24 04          	mov    %eax,0x4(%esp)
  1001f7:	c7 04 24 3e d0 10 00 	movl   $0x10d03e,(%esp)
  1001fe:	e8 98 21 00 00       	call   10239b <kprintf>
  kprintf("DI: 0x%x\n",proc->registers.edi);
  100203:	8b 45 f0             	mov    -0x10(%ebp),%eax
  100206:	8b 40 40             	mov    0x40(%eax),%eax
  100209:	89 44 24 04          	mov    %eax,0x4(%esp)
  10020d:	c7 04 24 48 d0 10 00 	movl   $0x10d048,(%esp)
  100214:	e8 82 21 00 00       	call   10239b <kprintf>
  kprintf("DS: 0x%x\n",proc->registers.ds);
  100219:	8b 45 f0             	mov    -0x10(%ebp),%eax
  10021c:	8b 40 58             	mov    0x58(%eax),%eax
  10021f:	89 44 24 04          	mov    %eax,0x4(%esp)
  100223:	c7 04 24 52 d0 10 00 	movl   $0x10d052,(%esp)
  10022a:	e8 6c 21 00 00       	call   10239b <kprintf>
  kprintf("ES: 0x%x\n",proc->registers.es);
  10022f:	8b 45 f0             	mov    -0x10(%ebp),%eax
  100232:	8b 40 5c             	mov    0x5c(%eax),%eax
  100235:	89 44 24 04          	mov    %eax,0x4(%esp)
  100239:	c7 04 24 5c d0 10 00 	movl   $0x10d05c,(%esp)
  100240:	e8 56 21 00 00       	call   10239b <kprintf>
  kprintf("IP: 0x%x\n",proc->registers.eip);
  100245:	8b 45 f0             	mov    -0x10(%ebp),%eax
  100248:	8b 40 4c             	mov    0x4c(%eax),%eax
  10024b:	89 44 24 04          	mov    %eax,0x4(%esp)
  10024f:	c7 04 24 66 d0 10 00 	movl   $0x10d066,(%esp)
  100256:	e8 40 21 00 00       	call   10239b <kprintf>
  kprintf("CS: 0x%x\n",proc->registers.cs);
  10025b:	8b 45 f0             	mov    -0x10(%ebp),%eax
  10025e:	8b 40 54             	mov    0x54(%eax),%eax
  100261:	89 44 24 04          	mov    %eax,0x4(%esp)
  100265:	c7 04 24 70 d0 10 00 	movl   $0x10d070,(%esp)
  10026c:	e8 2a 21 00 00       	call   10239b <kprintf>

  for (i=0;i<meminfo_count*3;i+=3) {
  100271:	c7 45 ec 00 00 00 00 	movl   $0x0,-0x14(%ebp)
  100278:	eb 5b                	jmp    1002d5 <biosint_call+0x251>
    kprintf("Dest: 0x%x\n",meminfo[i]);
  10027a:	8b 45 ec             	mov    -0x14(%ebp),%eax
  10027d:	c1 e0 02             	shl    $0x2,%eax
  100280:	03 45 08             	add    0x8(%ebp),%eax
  100283:	8b 00                	mov    (%eax),%eax
  100285:	89 44 24 04          	mov    %eax,0x4(%esp)
  100289:	c7 04 24 7a d0 10 00 	movl   $0x10d07a,(%esp)
  100290:	e8 06 21 00 00       	call   10239b <kprintf>
    kprintf("Src:  0x%x\n",meminfo[i+1]);
  100295:	8b 45 ec             	mov    -0x14(%ebp),%eax
  100298:	83 c0 01             	add    $0x1,%eax
  10029b:	c1 e0 02             	shl    $0x2,%eax
  10029e:	03 45 08             	add    0x8(%ebp),%eax
  1002a1:	8b 00                	mov    (%eax),%eax
  1002a3:	89 44 24 04          	mov    %eax,0x4(%esp)
  1002a7:	c7 04 24 86 d0 10 00 	movl   $0x10d086,(%esp)
  1002ae:	e8 e8 20 00 00       	call   10239b <kprintf>
    kprintf("Size: 0x%x\n",meminfo[i+2]);
  1002b3:	8b 45 ec             	mov    -0x14(%ebp),%eax
  1002b6:	83 c0 02             	add    $0x2,%eax
  1002b9:	c1 e0 02             	shl    $0x2,%eax
  1002bc:	03 45 08             	add    0x8(%ebp),%eax
  1002bf:	8b 00                	mov    (%eax),%eax
  1002c1:	89 44 24 04          	mov    %eax,0x4(%esp)
  1002c5:	c7 04 24 92 d0 10 00 	movl   $0x10d092,(%esp)
  1002cc:	e8 ca 20 00 00       	call   10239b <kprintf>
  kprintf("DS: 0x%x\n",proc->registers.ds);
  kprintf("ES: 0x%x\n",proc->registers.es);
  kprintf("IP: 0x%x\n",proc->registers.eip);
  kprintf("CS: 0x%x\n",proc->registers.cs);

  for (i=0;i<meminfo_count*3;i+=3) {
  1002d1:	83 45 ec 03          	addl   $0x3,-0x14(%ebp)
  1002d5:	8b 45 0c             	mov    0xc(%ebp),%eax
  1002d8:	89 c2                	mov    %eax,%edx
  1002da:	01 d2                	add    %edx,%edx
  1002dc:	8d 04 02             	lea    (%edx,%eax,1),%eax
  1002df:	3b 45 ec             	cmp    -0x14(%ebp),%eax
  1002e2:	77 96                	ja     10027a <biosint_call+0x1f6>
    kprintf("Dest: 0x%x\n",meminfo[i]);
    kprintf("Src:  0x%x\n",meminfo[i+1]);
    kprintf("Size: 0x%x\n",meminfo[i+2]);
  }

  proc_sleep(proc_current);
  1002e4:	a1 a0 e1 10 00       	mov    0x10e1a0,%eax
  1002e9:	89 04 24             	mov    %eax,(%esp)
  1002ec:	e8 30 63 00 00       	call   106621 <proc_sleep>

  return -1;
  1002f1:	b8 ff ff ff ff       	mov    $0xffffffff,%eax
  1002f6:	83 c4 4c             	add    $0x4c,%esp
  1002f9:	5b                   	pop    %ebx
  1002fa:	5e                   	pop    %esi
  1002fb:	5f                   	pop    %edi
  1002fc:	5d                   	pop    %ebp
  1002fd:	c3                   	ret    
	...

00100300 <cpu_init>:

/**
 * Initializes CPUs
 *  @return 0=Success; -1=Failure
 */
int cpu_init() {
  100300:	55                   	push   %ebp
  100301:	89 e5                	mov    %esp,%ebp
  100303:	83 ec 28             	sub    $0x28,%esp
  if ((cpus = llist_create())==NULL) return -1;
  100306:	e8 c9 a5 00 00       	call   10a8d4 <llist_create>
  10030b:	a3 54 e4 10 00       	mov    %eax,0x10e454
  100310:	a1 54 e4 10 00       	mov    0x10e454,%eax
  100315:	85 c0                	test   %eax,%eax
  100317:	75 09                	jne    100322 <cpu_init+0x22>
  100319:	c7 45 ec ff ff ff ff 	movl   $0xffffffff,-0x14(%ebp)
  100320:	eb 57                	jmp    100379 <cpu_init+0x79>
  cpu_t *cpu = malloc(sizeof(cpu_t));
  100322:	c7 04 24 60 00 00 00 	movl   $0x60,(%esp)
  100329:	e8 3b 2c 00 00       	call   102f69 <malloc>
  10032e:	89 45 fc             	mov    %eax,-0x4(%ebp)
  if (cpu==NULL) return -1;
  100331:	83 7d fc 00          	cmpl   $0x0,-0x4(%ebp)
  100335:	75 09                	jne    100340 <cpu_init+0x40>
  100337:	c7 45 ec ff ff ff ff 	movl   $0xffffffff,-0x14(%ebp)
  10033e:	eb 39                	jmp    100379 <cpu_init+0x79>
  cpu->enabled = 1;
  100340:	8b 45 fc             	mov    -0x4(%ebp),%eax
  100343:	c7 40 04 01 00 00 00 	movl   $0x1,0x4(%eax)
  cpu_stack_create(cpu,PAGE_SIZE);
  10034a:	c7 44 24 04 00 10 00 	movl   $0x1000,0x4(%esp)
  100351:	00 
  100352:	8b 45 fc             	mov    -0x4(%ebp),%eax
  100355:	89 04 24             	mov    %eax,(%esp)
  100358:	e8 21 00 00 00       	call   10037e <cpu_stack_create>
  llist_push(cpus,cpu);
  10035d:	8b 15 54 e4 10 00    	mov    0x10e454,%edx
  100363:	8b 45 fc             	mov    -0x4(%ebp),%eax
  100366:	89 44 24 04          	mov    %eax,0x4(%esp)
  10036a:	89 14 24             	mov    %edx,(%esp)
  10036d:	e8 dd a5 00 00       	call   10a94f <llist_push>
  return 0;
  100372:	c7 45 ec 00 00 00 00 	movl   $0x0,-0x14(%ebp)
  100379:	8b 45 ec             	mov    -0x14(%ebp),%eax
}
  10037c:	c9                   	leave  
  10037d:	c3                   	ret    

0010037e <cpu_stack_create>:
 * Creates stack
 *  @param cpu CPU to create stack for
 *  @param size Stack size
 *  @return 0=Success; -1=Failure
 */
int cpu_stack_create(cpu_t *cpu,size_t size) {
  10037e:	55                   	push   %ebp
  10037f:	89 e5                	mov    %esp,%ebp
  100381:	83 ec 08             	sub    $0x8,%esp
  if ((cpu->stack = memkernel_alloc((size_t)PAGEUP(size)))==NULL) return -1;
  100384:	8b 45 0c             	mov    0xc(%ebp),%eax
  100387:	83 e8 01             	sub    $0x1,%eax
  10038a:	c1 e8 0c             	shr    $0xc,%eax
  10038d:	83 c0 01             	add    $0x1,%eax
  100390:	c1 e0 0c             	shl    $0xc,%eax
  100393:	89 04 24             	mov    %eax,(%esp)
  100396:	e8 03 2f 00 00       	call   10329e <memkernel_alloc>
  10039b:	89 c2                	mov    %eax,%edx
  10039d:	8b 45 08             	mov    0x8(%ebp),%eax
  1003a0:	89 50 08             	mov    %edx,0x8(%eax)
  1003a3:	8b 45 08             	mov    0x8(%ebp),%eax
  1003a6:	8b 40 08             	mov    0x8(%eax),%eax
  1003a9:	85 c0                	test   %eax,%eax
  1003ab:	75 09                	jne    1003b6 <cpu_stack_create+0x38>
  1003ad:	c7 45 fc ff ff ff ff 	movl   $0xffffffff,-0x4(%ebp)
  1003b4:	eb 10                	jmp    1003c6 <cpu_stack_create+0x48>
  cpu->stacksize = size;
  1003b6:	8b 55 08             	mov    0x8(%ebp),%edx
  1003b9:	8b 45 0c             	mov    0xc(%ebp),%eax
  1003bc:	89 42 0c             	mov    %eax,0xc(%edx)
  return 0;
  1003bf:	c7 45 fc 00 00 00 00 	movl   $0x0,-0x4(%ebp)
  1003c6:	8b 45 fc             	mov    -0x4(%ebp),%eax
}
  1003c9:	c9                   	leave  
  1003ca:	c3                   	ret    

001003cb <cpu_id>:

void cpu_id(uint32_t seax,uint32_t *deax,uint32_t *debx,uint32_t *decx,uint32_t *dedx) {
  1003cb:	55                   	push   %ebp
  1003cc:	89 e5                	mov    %esp,%ebp
  1003ce:	53                   	push   %ebx
  1003cf:	83 ec 10             	sub    $0x10,%esp
  uint32_t eax,ebx,ecx,edx;
  asm("cpuid":"=a"(eax),"=b"(ebx),"=c"(ecx),"=d"(edx):"a"(seax));
  1003d2:	8b 45 08             	mov    0x8(%ebp),%eax
  1003d5:	0f a2                	cpuid  
  1003d7:	89 45 ec             	mov    %eax,-0x14(%ebp)
  1003da:	89 5d f0             	mov    %ebx,-0x10(%ebp)
  1003dd:	89 4d f4             	mov    %ecx,-0xc(%ebp)
  1003e0:	89 55 f8             	mov    %edx,-0x8(%ebp)
  if (deax!=NULL) *deax = eax;
  1003e3:	83 7d 0c 00          	cmpl   $0x0,0xc(%ebp)
  1003e7:	74 08                	je     1003f1 <cpu_id+0x26>
  1003e9:	8b 55 0c             	mov    0xc(%ebp),%edx
  1003ec:	8b 45 ec             	mov    -0x14(%ebp),%eax
  1003ef:	89 02                	mov    %eax,(%edx)
  if (debx!=NULL) *debx = ebx;
  1003f1:	83 7d 10 00          	cmpl   $0x0,0x10(%ebp)
  1003f5:	74 08                	je     1003ff <cpu_id+0x34>
  1003f7:	8b 55 10             	mov    0x10(%ebp),%edx
  1003fa:	8b 45 f0             	mov    -0x10(%ebp),%eax
  1003fd:	89 02                	mov    %eax,(%edx)
  if (decx!=NULL) *decx = ecx;
  1003ff:	83 7d 14 00          	cmpl   $0x0,0x14(%ebp)
  100403:	74 08                	je     10040d <cpu_id+0x42>
  100405:	8b 55 14             	mov    0x14(%ebp),%edx
  100408:	8b 45 f4             	mov    -0xc(%ebp),%eax
  10040b:	89 02                	mov    %eax,(%edx)
  if (dedx!=NULL) *dedx = edx;
  10040d:	83 7d 18 00          	cmpl   $0x0,0x18(%ebp)
  100411:	74 08                	je     10041b <cpu_id+0x50>
  100413:	8b 55 18             	mov    0x18(%ebp),%edx
  100416:	8b 45 f8             	mov    -0x8(%ebp),%eax
  100419:	89 02                	mov    %eax,(%edx)
}
  10041b:	83 c4 10             	add    $0x10,%esp
  10041e:	5b                   	pop    %ebx
  10041f:	5d                   	pop    %ebp
  100420:	c3                   	ret    

00100421 <cpu_shutdown>:

/**
 * Shuts down computer
 */
void cpu_shutdown() {
  100421:	55                   	push   %ebp
  100422:	89 e5                	mov    %esp,%ebp
  100424:	83 ec 08             	sub    $0x8,%esp
  //vga_text_clear();
  kprintf("Please turn off the computer\n");
  100427:	c7 04 24 9e d0 10 00 	movl   $0x10d09e,(%esp)
  10042e:	e8 68 1f 00 00       	call   10239b <kprintf>
  interrupt_enable(0);
  100433:	c7 04 24 00 00 00 00 	movl   $0x0,(%esp)
  10043a:	e8 8c 0b 00 00       	call   100fcb <interrupt_enable>
  cpu_halt();
  10043f:	e8 02 00 00 00       	call   100446 <cpu_halt>
}
  100444:	c9                   	leave  
  100445:	c3                   	ret    

00100446 <cpu_halt>:
  clock_t ticks;
} cpu_t;

llist_t cpus;

static inline void cpu_halt() {
  100446:	55                   	push   %ebp
  100447:	89 e5                	mov    %esp,%ebp
  asm("hlt");
  100449:	f4                   	hlt    
}
  10044a:	5d                   	pop    %ebp
  10044b:	c3                   	ret    

0010044c <cpu_restart>:

/**
 * Resets computer
 */
void cpu_restart() {
  10044c:	55                   	push   %ebp
  10044d:	89 e5                	mov    %esp,%ebp
  10044f:	83 ec 10             	sub    $0x10,%esp
  idtsel_t idtsel = {
    .size = 0,
    .offset = 0
  };
  100452:	66 c7 45 fa 00 00    	movw   $0x0,-0x6(%ebp)
  100458:	c7 45 fc 00 00 00 00 	movl   $0x0,-0x4(%ebp)
  asm("lidt (%0)"::"r"(&idtsel));
  10045f:	8d 45 fa             	lea    -0x6(%ebp),%eax
  100462:	0f 01 18             	lidtl  (%eax)
}
  100465:	c9                   	leave  
  100466:	c3                   	ret    
	...

00100468 <elf_validate>:
#include <memmap.h>
#include <string.h>
#include <debug.h>
#include <cpu.h>

int elf_validate(elf_header_t *header) {
  100468:	55                   	push   %ebp
  100469:	89 e5                	mov    %esp,%ebp
  10046b:	83 ec 04             	sub    $0x4,%esp
  if (header->ident[EI_MAG0]!=ELFMAG0 || header->ident[EI_MAG1]!=ELFMAG1 || header->ident[EI_MAG2]!=ELFMAG2 || header->ident[EI_MAG3]!=ELFMAG3) return -1;
  10046e:	8b 45 08             	mov    0x8(%ebp),%eax
  100471:	0f b6 00             	movzbl (%eax),%eax
  100474:	3c 7f                	cmp    $0x7f,%al
  100476:	75 21                	jne    100499 <elf_validate+0x31>
  100478:	8b 45 08             	mov    0x8(%ebp),%eax
  10047b:	0f b6 40 01          	movzbl 0x1(%eax),%eax
  10047f:	3c 45                	cmp    $0x45,%al
  100481:	75 16                	jne    100499 <elf_validate+0x31>
  100483:	8b 45 08             	mov    0x8(%ebp),%eax
  100486:	0f b6 40 02          	movzbl 0x2(%eax),%eax
  10048a:	3c 4c                	cmp    $0x4c,%al
  10048c:	75 0b                	jne    100499 <elf_validate+0x31>
  10048e:	8b 45 08             	mov    0x8(%ebp),%eax
  100491:	0f b6 40 03          	movzbl 0x3(%eax),%eax
  100495:	3c 46                	cmp    $0x46,%al
  100497:	74 09                	je     1004a2 <elf_validate+0x3a>
  100499:	c7 45 fc ff ff ff ff 	movl   $0xffffffff,-0x4(%ebp)
  1004a0:	eb 62                	jmp    100504 <elf_validate+0x9c>
  if (header->machine!=EM_386) return -1;
  1004a2:	8b 45 08             	mov    0x8(%ebp),%eax
  1004a5:	0f b7 40 12          	movzwl 0x12(%eax),%eax
  1004a9:	66 83 f8 03          	cmp    $0x3,%ax
  1004ad:	74 09                	je     1004b8 <elf_validate+0x50>
  1004af:	c7 45 fc ff ff ff ff 	movl   $0xffffffff,-0x4(%ebp)
  1004b6:	eb 4c                	jmp    100504 <elf_validate+0x9c>
  if (header->ident[EI_CLASS]!=ELFCLASS32) return -1;
  1004b8:	8b 45 08             	mov    0x8(%ebp),%eax
  1004bb:	0f b6 40 04          	movzbl 0x4(%eax),%eax
  1004bf:	3c 01                	cmp    $0x1,%al
  1004c1:	74 09                	je     1004cc <elf_validate+0x64>
  1004c3:	c7 45 fc ff ff ff ff 	movl   $0xffffffff,-0x4(%ebp)
  1004ca:	eb 38                	jmp    100504 <elf_validate+0x9c>
  if (header->ident[EI_DATA]!=ELFDATA2LSB) return -1;
  1004cc:	8b 45 08             	mov    0x8(%ebp),%eax
  1004cf:	0f b6 40 05          	movzbl 0x5(%eax),%eax
  1004d3:	3c 01                	cmp    $0x1,%al
  1004d5:	74 09                	je     1004e0 <elf_validate+0x78>
  1004d7:	c7 45 fc ff ff ff ff 	movl   $0xffffffff,-0x4(%ebp)
  1004de:	eb 24                	jmp    100504 <elf_validate+0x9c>
  if (header->ident[EI_VERSION]!=header->version) return -1;
  1004e0:	8b 45 08             	mov    0x8(%ebp),%eax
  1004e3:	0f b6 40 06          	movzbl 0x6(%eax),%eax
  1004e7:	0f b6 d0             	movzbl %al,%edx
  1004ea:	8b 45 08             	mov    0x8(%ebp),%eax
  1004ed:	8b 40 14             	mov    0x14(%eax),%eax
  1004f0:	39 c2                	cmp    %eax,%edx
  1004f2:	74 09                	je     1004fd <elf_validate+0x95>
  1004f4:	c7 45 fc ff ff ff ff 	movl   $0xffffffff,-0x4(%ebp)
  1004fb:	eb 07                	jmp    100504 <elf_validate+0x9c>
  return 0;
  1004fd:	c7 45 fc 00 00 00 00 	movl   $0x0,-0x4(%ebp)
  100504:	8b 45 fc             	mov    -0x4(%ebp),%eax
}
  100507:	c9                   	leave  
  100508:	c3                   	ret    

00100509 <elf_loadseg>:
 *  @param fileaddr Source address in file (absolute)
 *  @param filesize Size in file
 *  @param addrspace User address space
 *  @param writable If segment is writeable
 */
int elf_loadseg(void *memaddr,size_t memsize,void *fileaddr,size_t filesize,addrspace_t *addrspace,int writable) {
  100509:	55                   	push   %ebp
  10050a:	89 e5                	mov    %esp,%ebp
  10050c:	83 ec 28             	sub    $0x28,%esp
  size_t i;

  if (memaddr<(void*)USERDATA_ADDRESS) return -1;
  10050f:	81 7d 08 ff ff ff 3f 	cmpl   $0x3fffffff,0x8(%ebp)
  100516:	77 0c                	ja     100524 <elf_loadseg+0x1b>
  100518:	c7 45 e8 ff ff ff ff 	movl   $0xffffffff,-0x18(%ebp)
  10051f:	e9 c1 00 00 00       	jmp    1005e5 <elf_loadseg+0xdc>
  if (memuser_load_addrspace(addrspace)==-1) return -1;
  100524:	8b 45 18             	mov    0x18(%ebp),%eax
  100527:	89 04 24             	mov    %eax,(%esp)
  10052a:	e8 ec 36 00 00       	call   103c1b <memuser_load_addrspace>
  10052f:	83 f8 ff             	cmp    $0xffffffff,%eax
  100532:	75 0c                	jne    100540 <elf_loadseg+0x37>
  100534:	c7 45 e8 ff ff ff ff 	movl   $0xffffffff,-0x18(%ebp)
  10053b:	e9 a5 00 00 00       	jmp    1005e5 <elf_loadseg+0xdc>
  for (i=0;i<memsize;i+=PAGE_SIZE) {
  100540:	c7 45 fc 00 00 00 00 	movl   $0x0,-0x4(%ebp)
  100547:	eb 5f                	jmp    1005a8 <elf_loadseg+0x9f>
    if (memuser_alloc_at(addrspace,memaddr+i,i<filesize?paging_getphysaddr(fileaddr+i):NULL,writable)==-1) return -1;
  100549:	8b 45 fc             	mov    -0x4(%ebp),%eax
  10054c:	3b 45 14             	cmp    0x14(%ebp),%eax
  10054f:	73 15                	jae    100566 <elf_loadseg+0x5d>
  100551:	8b 55 fc             	mov    -0x4(%ebp),%edx
  100554:	8b 45 10             	mov    0x10(%ebp),%eax
  100557:	01 d0                	add    %edx,%eax
  100559:	89 04 24             	mov    %eax,(%esp)
  10055c:	e8 61 55 00 00       	call   105ac2 <paging_getphysaddr>
  100561:	89 45 ec             	mov    %eax,-0x14(%ebp)
  100564:	eb 07                	jmp    10056d <elf_loadseg+0x64>
  100566:	c7 45 ec 00 00 00 00 	movl   $0x0,-0x14(%ebp)
  10056d:	8b 55 fc             	mov    -0x4(%ebp),%edx
  100570:	8b 45 08             	mov    0x8(%ebp),%eax
  100573:	8d 14 10             	lea    (%eax,%edx,1),%edx
  100576:	8b 45 1c             	mov    0x1c(%ebp),%eax
  100579:	89 44 24 0c          	mov    %eax,0xc(%esp)
  10057d:	8b 45 ec             	mov    -0x14(%ebp),%eax
  100580:	89 44 24 08          	mov    %eax,0x8(%esp)
  100584:	89 54 24 04          	mov    %edx,0x4(%esp)
  100588:	8b 45 18             	mov    0x18(%ebp),%eax
  10058b:	89 04 24             	mov    %eax,(%esp)
  10058e:	e8 87 3c 00 00       	call   10421a <memuser_alloc_at>
  100593:	83 f8 ff             	cmp    $0xffffffff,%eax
  100596:	75 09                	jne    1005a1 <elf_loadseg+0x98>
  100598:	c7 45 e8 ff ff ff ff 	movl   $0xffffffff,-0x18(%ebp)
  10059f:	eb 44                	jmp    1005e5 <elf_loadseg+0xdc>
int elf_loadseg(void *memaddr,size_t memsize,void *fileaddr,size_t filesize,addrspace_t *addrspace,int writable) {
  size_t i;

  if (memaddr<(void*)USERDATA_ADDRESS) return -1;
  if (memuser_load_addrspace(addrspace)==-1) return -1;
  for (i=0;i<memsize;i+=PAGE_SIZE) {
  1005a1:	81 45 fc 00 10 00 00 	addl   $0x1000,-0x4(%ebp)
  1005a8:	8b 45 fc             	mov    -0x4(%ebp),%eax
  1005ab:	3b 45 0c             	cmp    0xc(%ebp),%eax
  1005ae:	72 99                	jb     100549 <elf_loadseg+0x40>
    if (memuser_alloc_at(addrspace,memaddr+i,i<filesize?paging_getphysaddr(fileaddr+i):NULL,writable)==-1) return -1;
  }
  if (filesize<memsize) memset(memaddr+filesize,0,memsize-filesize);
  1005b0:	8b 45 14             	mov    0x14(%ebp),%eax
  1005b3:	3b 45 0c             	cmp    0xc(%ebp),%eax
  1005b6:	73 26                	jae    1005de <elf_loadseg+0xd5>
  1005b8:	8b 55 14             	mov    0x14(%ebp),%edx
  1005bb:	8b 45 0c             	mov    0xc(%ebp),%eax
  1005be:	89 c1                	mov    %eax,%ecx
  1005c0:	29 d1                	sub    %edx,%ecx
  1005c2:	8b 55 14             	mov    0x14(%ebp),%edx
  1005c5:	8b 45 08             	mov    0x8(%ebp),%eax
  1005c8:	01 d0                	add    %edx,%eax
  1005ca:	89 4c 24 08          	mov    %ecx,0x8(%esp)
  1005ce:	c7 44 24 04 00 00 00 	movl   $0x0,0x4(%esp)
  1005d5:	00 
  1005d6:	89 04 24             	mov    %eax,(%esp)
  1005d9:	e8 83 b7 00 00       	call   10bd61 <memset>
  return 0;
  1005de:	c7 45 e8 00 00 00 00 	movl   $0x0,-0x18(%ebp)
  1005e5:	8b 45 e8             	mov    -0x18(%ebp),%eax
}
  1005e8:	c9                   	leave  
  1005e9:	c3                   	ret    

001005ea <elf_load>:
 *  @param addrspace Address space
 *  @param file Pointer to ELF file
 *  @param filesize Size of ELF file
 *  @return Entrypoint
 */
void *elf_load(addrspace_t *addrspace,void *file,size_t filesize) {
  1005ea:	55                   	push   %ebp
  1005eb:	89 e5                	mov    %esp,%ebp
  1005ed:	57                   	push   %edi
  1005ee:	56                   	push   %esi
  1005ef:	53                   	push   %ebx
  1005f0:	83 ec 2c             	sub    $0x2c,%esp
  elf_header_t *header = file;
  1005f3:	8b 45 0c             	mov    0xc(%ebp),%eax
  1005f6:	89 45 e4             	mov    %eax,-0x1c(%ebp)
  elf_progheader_t *progheader;
  void *entrypoint;
  size_t i;

  if (elf_validate(header)==-1) return NULL;
  1005f9:	8b 45 e4             	mov    -0x1c(%ebp),%eax
  1005fc:	89 04 24             	mov    %eax,(%esp)
  1005ff:	e8 64 fe ff ff       	call   100468 <elf_validate>
  100604:	83 f8 ff             	cmp    $0xffffffff,%eax
  100607:	75 0c                	jne    100615 <elf_load+0x2b>
  100609:	c7 45 e0 00 00 00 00 	movl   $0x0,-0x20(%ebp)
  100610:	e9 cc 00 00 00       	jmp    1006e1 <elf_load+0xf7>

  entrypoint = (void*)(header->entry);
  100615:	8b 45 e4             	mov    -0x1c(%ebp),%eax
  100618:	8b 40 18             	mov    0x18(%eax),%eax
  10061b:	89 45 ec             	mov    %eax,-0x14(%ebp)
  progheader = file+header->phoff;
  10061e:	8b 55 0c             	mov    0xc(%ebp),%edx
  100621:	8b 45 e4             	mov    -0x1c(%ebp),%eax
  100624:	8b 40 1c             	mov    0x1c(%eax),%eax
  100627:	8d 04 02             	lea    (%edx,%eax,1),%eax
  10062a:	89 45 e8             	mov    %eax,-0x18(%ebp)

  for (i=0;i<header->phnum;i++) {
  10062d:	c7 45 f0 00 00 00 00 	movl   $0x0,-0x10(%ebp)
  100634:	e9 8f 00 00 00       	jmp    1006c8 <elf_load+0xde>
    if (progheader[i].type==PT_LOAD) {
  100639:	8b 45 f0             	mov    -0x10(%ebp),%eax
  10063c:	c1 e0 05             	shl    $0x5,%eax
  10063f:	03 45 e8             	add    -0x18(%ebp),%eax
  100642:	8b 00                	mov    (%eax),%eax
  100644:	83 f8 01             	cmp    $0x1,%eax
  100647:	75 7b                	jne    1006c4 <elf_load+0xda>
      if (elf_loadseg((void*)(progheader[i].vaddr),progheader[i].memsz,file+progheader[i].offset,progheader[i].filesz,addrspace,(progheader[i].flags&PF_W)==PF_W?1:0)==-1) return NULL;
  100649:	8b 45 f0             	mov    -0x10(%ebp),%eax
  10064c:	c1 e0 05             	shl    $0x5,%eax
  10064f:	03 45 e8             	add    -0x18(%ebp),%eax
  100652:	8b 40 18             	mov    0x18(%eax),%eax
  100655:	83 e0 02             	and    $0x2,%eax
  100658:	85 c0                	test   %eax,%eax
  10065a:	0f 95 c0             	setne  %al
  10065d:	0f b6 c8             	movzbl %al,%ecx
  100660:	8b 45 f0             	mov    -0x10(%ebp),%eax
  100663:	c1 e0 05             	shl    $0x5,%eax
  100666:	03 45 e8             	add    -0x18(%ebp),%eax
  100669:	8b 58 10             	mov    0x10(%eax),%ebx
  10066c:	8b 45 f0             	mov    -0x10(%ebp),%eax
  10066f:	c1 e0 05             	shl    $0x5,%eax
  100672:	03 45 e8             	add    -0x18(%ebp),%eax
  100675:	8b 40 04             	mov    0x4(%eax),%eax
  100678:	89 c6                	mov    %eax,%esi
  10067a:	03 75 0c             	add    0xc(%ebp),%esi
  10067d:	8b 45 f0             	mov    -0x10(%ebp),%eax
  100680:	c1 e0 05             	shl    $0x5,%eax
  100683:	03 45 e8             	add    -0x18(%ebp),%eax
  100686:	8b 78 14             	mov    0x14(%eax),%edi
  100689:	8b 45 f0             	mov    -0x10(%ebp),%eax
  10068c:	c1 e0 05             	shl    $0x5,%eax
  10068f:	03 45 e8             	add    -0x18(%ebp),%eax
  100692:	8b 40 08             	mov    0x8(%eax),%eax
  100695:	89 c2                	mov    %eax,%edx
  100697:	89 4c 24 14          	mov    %ecx,0x14(%esp)
  10069b:	8b 45 08             	mov    0x8(%ebp),%eax
  10069e:	89 44 24 10          	mov    %eax,0x10(%esp)
  1006a2:	89 5c 24 0c          	mov    %ebx,0xc(%esp)
  1006a6:	89 74 24 08          	mov    %esi,0x8(%esp)
  1006aa:	89 7c 24 04          	mov    %edi,0x4(%esp)
  1006ae:	89 14 24             	mov    %edx,(%esp)
  1006b1:	e8 53 fe ff ff       	call   100509 <elf_loadseg>
  1006b6:	83 f8 ff             	cmp    $0xffffffff,%eax
  1006b9:	75 09                	jne    1006c4 <elf_load+0xda>
  1006bb:	c7 45 e0 00 00 00 00 	movl   $0x0,-0x20(%ebp)
  1006c2:	eb 1d                	jmp    1006e1 <elf_load+0xf7>
  if (elf_validate(header)==-1) return NULL;

  entrypoint = (void*)(header->entry);
  progheader = file+header->phoff;

  for (i=0;i<header->phnum;i++) {
  1006c4:	83 45 f0 01          	addl   $0x1,-0x10(%ebp)
  1006c8:	8b 45 e4             	mov    -0x1c(%ebp),%eax
  1006cb:	0f b7 40 2c          	movzwl 0x2c(%eax),%eax
  1006cf:	0f b7 c0             	movzwl %ax,%eax
  1006d2:	3b 45 f0             	cmp    -0x10(%ebp),%eax
  1006d5:	0f 87 5e ff ff ff    	ja     100639 <elf_load+0x4f>
    if (progheader[i].type==PT_LOAD) {
      if (elf_loadseg((void*)(progheader[i].vaddr),progheader[i].memsz,file+progheader[i].offset,progheader[i].filesz,addrspace,(progheader[i].flags&PF_W)==PF_W?1:0)==-1) return NULL;
    }
  }

  return entrypoint;
  1006db:	8b 45 ec             	mov    -0x14(%ebp),%eax
  1006de:	89 45 e0             	mov    %eax,-0x20(%ebp)
  1006e1:	8b 45 e0             	mov    -0x20(%ebp),%eax
}
  1006e4:	83 c4 2c             	add    $0x2c,%esp
  1006e7:	5b                   	pop    %ebx
  1006e8:	5e                   	pop    %esi
  1006e9:	5f                   	pop    %edi
  1006ea:	5d                   	pop    %ebp
  1006eb:	c3                   	ret    

001006ec <gdt_reloadsregs>:
#include <gdt.h>
#include <malloc.h>
#include <string.h>
#include <debug.h>

void gdt_reloadsregs() {
  1006ec:	55                   	push   %ebp
  1006ed:	89 e5                	mov    %esp,%ebp
  1006ef:	83 ec 10             	sub    $0x10,%esp
  };*/
  const selector_t dsel = {
    .index = 2,
    .ti = 0,
    .priv = PRIV_KERNEL
  };
  1006f2:	0f b6 45 fe          	movzbl -0x2(%ebp),%eax
  1006f6:	83 e0 fc             	and    $0xfffffffc,%eax
  1006f9:	88 45 fe             	mov    %al,-0x2(%ebp)
  1006fc:	0f b6 45 fe          	movzbl -0x2(%ebp),%eax
  100700:	83 e0 fb             	and    $0xfffffffb,%eax
  100703:	88 45 fe             	mov    %al,-0x2(%ebp)
  100706:	0f b7 45 fe          	movzwl -0x2(%ebp),%eax
  10070a:	83 e0 07             	and    $0x7,%eax
  10070d:	83 c8 10             	or     $0x10,%eax
  100710:	66 89 45 fe          	mov    %ax,-0x2(%ebp)
  /*asm("mov %0,%%ds;"
      "ljmp %1,$gdt_reloadregs_fi;"
      "gdt_reloadregs_fi:"
      ::"r"((uint16_t)16),"i"((uint16_t)8));*/

  asm("ljmpl $0x08, $1f;"
  100714:	0f b7 55 fe          	movzwl -0x2(%ebp),%edx
  100718:	ea 1f 07 10 00 08 00 	ljmp   $0x8,$0x10071f
  10071f:	8e da                	mov    %edx,%ds
  100721:	8e c2                	mov    %edx,%es
  100723:	8e e2                	mov    %edx,%fs
  100725:	8e ea                	mov    %edx,%gs
  100727:	8e d2                	mov    %edx,%ss
      "mov %0, %%fs;"
      "mov %0, %%gs;"
      "mov %0, %%ss;"
      ::"r"(dsel):"eax");
  return;
}
  100729:	c9                   	leave  
  10072a:	c3                   	ret    

0010072b <gdt_init>:

/**
 * Initializes GDT
 *  @return 0=Success; -1=Failure
 */
int gdt_init() {
  10072b:	55                   	push   %ebp
  10072c:	89 e5                	mov    %esp,%ebp
  10072e:	83 ec 28             	sub    $0x28,%esp
  //gdt = calloc(GDT_MAXDESC,sizeof(gdtdesc_t));
  memset(gdt,0,GDT_MAXDESC*sizeof(gdtdesc_t));
  100731:	c7 44 24 08 00 02 00 	movl   $0x200,0x8(%esp)
  100738:	00 
  100739:	c7 44 24 04 00 00 00 	movl   $0x0,0x4(%esp)
  100740:	00 
  100741:	c7 04 24 a0 e4 10 00 	movl   $0x10e4a0,(%esp)
  100748:	e8 14 b6 00 00       	call   10bd61 <memset>

  // Ring 0
  gdt_set_descriptor(1,0x000FFFFF,0x00000000,GDT_SEGMENT|GDT_PRESENT|GDT_CODESEG,PRIV_KERNEL);
  10074d:	c7 44 24 10 00 00 00 	movl   $0x0,0x10(%esp)
  100754:	00 
  100755:	c7 44 24 0c 9a 00 00 	movl   $0x9a,0xc(%esp)
  10075c:	00 
  10075d:	c7 44 24 08 00 00 00 	movl   $0x0,0x8(%esp)
  100764:	00 
  100765:	c7 44 24 04 ff ff 0f 	movl   $0xfffff,0x4(%esp)
  10076c:	00 
  10076d:	c7 04 24 01 00 00 00 	movl   $0x1,(%esp)
  100774:	e8 a4 00 00 00       	call   10081d <gdt_set_descriptor>
  gdt_set_descriptor(2,0x000FFFFF,0x00000000,GDT_SEGMENT|GDT_PRESENT|GDT_DATASEG,PRIV_KERNEL);
  100779:	c7 44 24 10 00 00 00 	movl   $0x0,0x10(%esp)
  100780:	00 
  100781:	c7 44 24 0c 92 00 00 	movl   $0x92,0xc(%esp)
  100788:	00 
  100789:	c7 44 24 08 00 00 00 	movl   $0x0,0x8(%esp)
  100790:	00 
  100791:	c7 44 24 04 ff ff 0f 	movl   $0xfffff,0x4(%esp)
  100798:	00 
  100799:	c7 04 24 02 00 00 00 	movl   $0x2,(%esp)
  1007a0:	e8 78 00 00 00       	call   10081d <gdt_set_descriptor>

  // Ring 3
  gdt_set_descriptor(3,0x000FFFFF,0x00000000,GDT_SEGMENT|GDT_PRESENT|GDT_CODESEG,PRIV_USER);
  1007a5:	c7 44 24 10 03 00 00 	movl   $0x3,0x10(%esp)
  1007ac:	00 
  1007ad:	c7 44 24 0c 9a 00 00 	movl   $0x9a,0xc(%esp)
  1007b4:	00 
  1007b5:	c7 44 24 08 00 00 00 	movl   $0x0,0x8(%esp)
  1007bc:	00 
  1007bd:	c7 44 24 04 ff ff 0f 	movl   $0xfffff,0x4(%esp)
  1007c4:	00 
  1007c5:	c7 04 24 03 00 00 00 	movl   $0x3,(%esp)
  1007cc:	e8 4c 00 00 00       	call   10081d <gdt_set_descriptor>
  gdt_set_descriptor(4,0x000FFFFF,0x00000000,GDT_SEGMENT|GDT_PRESENT|GDT_DATASEG,PRIV_USER);
  1007d1:	c7 44 24 10 03 00 00 	movl   $0x3,0x10(%esp)
  1007d8:	00 
  1007d9:	c7 44 24 0c 92 00 00 	movl   $0x92,0xc(%esp)
  1007e0:	00 
  1007e1:	c7 44 24 08 00 00 00 	movl   $0x0,0x8(%esp)
  1007e8:	00 
  1007e9:	c7 44 24 04 ff ff 0f 	movl   $0xfffff,0x4(%esp)
  1007f0:	00 
  1007f1:	c7 04 24 04 00 00 00 	movl   $0x4,(%esp)
  1007f8:	e8 20 00 00 00       	call   10081d <gdt_set_descriptor>

  gdtsel_t selector = {
    .size = GDT_MAXDESC*sizeof(gdtdesc_t)-1,
    .offset = (uint32_t)&gdt
  };
  1007fd:	66 c7 45 fa ff 01    	movw   $0x1ff,-0x6(%ebp)
  100803:	b8 a0 e4 10 00       	mov    $0x10e4a0,%eax
  100808:	89 45 fc             	mov    %eax,-0x4(%ebp)
  asm("lgdt (%0)"::"r"(&selector));
  10080b:	8d 45 fa             	lea    -0x6(%ebp),%eax
  10080e:	0f 01 10             	lgdtl  (%eax)
  gdt_reloadsregs();
  100811:	e8 d6 fe ff ff       	call   1006ec <gdt_reloadsregs>

  return 0;
  100816:	b8 00 00 00 00       	mov    $0x0,%eax
}
  10081b:	c9                   	leave  
  10081c:	c3                   	ret    

0010081d <gdt_set_descriptor>:

void gdt_set_descriptor(int segment,size_t size,void *vdbase,int access,priv_t priv) {
  10081d:	55                   	push   %ebp
  10081e:	89 e5                	mov    %esp,%ebp
  100820:	83 ec 10             	sub    $0x10,%esp
  uint32_t base = (uint32_t)vdbase;
  100823:	8b 45 10             	mov    0x10(%ebp),%eax
  100826:	89 45 fc             	mov    %eax,-0x4(%ebp)
  gdt[segment].size0_15 = size&0xFFFF;
  100829:	8b 55 08             	mov    0x8(%ebp),%edx
  10082c:	8b 45 0c             	mov    0xc(%ebp),%eax
  10082f:	66 89 04 d5 a0 e4 10 	mov    %ax,0x10e4a0(,%edx,8)
  100836:	00 
  gdt[segment].flags = ((size>>16)&0x0F)|0xC0;
  100837:	8b 55 08             	mov    0x8(%ebp),%edx
  10083a:	8b 45 0c             	mov    0xc(%ebp),%eax
  10083d:	c1 e8 10             	shr    $0x10,%eax
  100840:	83 e0 0f             	and    $0xf,%eax
  100843:	83 c8 c0             	or     $0xffffffc0,%eax
  100846:	88 04 d5 a6 e4 10 00 	mov    %al,0x10e4a6(,%edx,8)
  gdt[segment].base0_15 = base&0xFFFF;
  10084d:	8b 55 08             	mov    0x8(%ebp),%edx
  100850:	8b 45 fc             	mov    -0x4(%ebp),%eax
  100853:	66 89 04 d5 a2 e4 10 	mov    %ax,0x10e4a2(,%edx,8)
  10085a:	00 
  gdt[segment].base16_23 = (base>>16)&0xFF;
  10085b:	8b 55 08             	mov    0x8(%ebp),%edx
  10085e:	8b 45 fc             	mov    -0x4(%ebp),%eax
  100861:	c1 e8 10             	shr    $0x10,%eax
  100864:	88 04 d5 a4 e4 10 00 	mov    %al,0x10e4a4(,%edx,8)
  gdt[segment].base24_31 = ((base>>24)&0xFF);
  10086b:	8b 55 08             	mov    0x8(%ebp),%edx
  10086e:	8b 45 fc             	mov    -0x4(%ebp),%eax
  100871:	c1 e8 18             	shr    $0x18,%eax
  100874:	88 04 d5 a7 e4 10 00 	mov    %al,0x10e4a7(,%edx,8)
  gdt[segment].access = access|((priv&3)<<5);
  10087b:	8b 4d 08             	mov    0x8(%ebp),%ecx
  10087e:	8b 45 18             	mov    0x18(%ebp),%eax
  100881:	83 e0 03             	and    $0x3,%eax
  100884:	89 c2                	mov    %eax,%edx
  100886:	c1 e2 05             	shl    $0x5,%edx
  100889:	8b 45 14             	mov    0x14(%ebp),%eax
  10088c:	09 d0                	or     %edx,%eax
  10088e:	88 04 cd a5 e4 10 00 	mov    %al,0x10e4a5(,%ecx,8)
}
  100895:	c9                   	leave  
  100896:	c3                   	ret    
	...

00100898 <idt_init>:

/**
 * Initializes IDT
 *  @return 0=Success; -1=Failure
 */
int idt_init() {
  100898:	55                   	push   %ebp
  100899:	89 e5                	mov    %esp,%ebp
  10089b:	83 ec 28             	sub    $0x28,%esp
  int i;
  //idt = calloc(ISR_NUM,sizeof(idtdesc_t));
  memset(idt,0,ISR_NUM*sizeof(idtdesc_t));
  10089e:	c7 44 24 08 c0 01 00 	movl   $0x1c0,0x8(%esp)
  1008a5:	00 
  1008a6:	c7 44 24 04 00 00 00 	movl   $0x0,0x4(%esp)
  1008ad:	00 
  1008ae:	c7 04 24 60 e7 10 00 	movl   $0x10e760,(%esp)
  1008b5:	e8 a7 b4 00 00       	call   10bd61 <memset>

  selector_t selector = {
    .index = 1,
    .ti = 0,
    .priv = PRIV_KERNEL
  };
  1008ba:	0f b6 45 fa          	movzbl -0x6(%ebp),%eax
  1008be:	83 e0 fc             	and    $0xfffffffc,%eax
  1008c1:	88 45 fa             	mov    %al,-0x6(%ebp)
  1008c4:	0f b6 45 fa          	movzbl -0x6(%ebp),%eax
  1008c8:	83 e0 fb             	and    $0xfffffffb,%eax
  1008cb:	88 45 fa             	mov    %al,-0x6(%ebp)
  1008ce:	0f b7 45 fa          	movzwl -0x6(%ebp),%eax
  1008d2:	83 e0 07             	and    $0x7,%eax
  1008d5:	83 c8 08             	or     $0x8,%eax
  1008d8:	66 89 45 fa          	mov    %ax,-0x6(%ebp)
  for (i=0;i<ISR_NUM;i++) {
  1008dc:	c7 45 fc 00 00 00 00 	movl   $0x0,-0x4(%ebp)
  1008e3:	eb 52                	jmp    100937 <idt_init+0x9f>
    idt_set_descriptor(i,isr[i],selector,i==SYSCALL_INT?PRIV_USER:PRIV_KERNEL,IDT_INTGATE32|IDT_PRESENT);
  1008e5:	83 7d fc 37          	cmpl   $0x37,-0x4(%ebp)
  1008e9:	75 09                	jne    1008f4 <idt_init+0x5c>
  1008eb:	c7 45 ec 03 00 00 00 	movl   $0x3,-0x14(%ebp)
  1008f2:	eb 07                	jmp    1008fb <idt_init+0x63>
  1008f4:	c7 45 ec 00 00 00 00 	movl   $0x0,-0x14(%ebp)
  1008fb:	8b 15 9e 15 10 00    	mov    0x10159e,%edx
  100901:	8b 45 fc             	mov    -0x4(%ebp),%eax
  100904:	c1 e0 02             	shl    $0x2,%eax
  100907:	8d 04 02             	lea    (%edx,%eax,1),%eax
  10090a:	8b 10                	mov    (%eax),%edx
  10090c:	c7 44 24 10 8e 00 00 	movl   $0x8e,0x10(%esp)
  100913:	00 
  100914:	8b 45 ec             	mov    -0x14(%ebp),%eax
  100917:	89 44 24 0c          	mov    %eax,0xc(%esp)
  10091b:	0f b7 45 fa          	movzwl -0x6(%ebp),%eax
  10091f:	66 89 44 24 08       	mov    %ax,0x8(%esp)
  100924:	89 54 24 04          	mov    %edx,0x4(%esp)
  100928:	8b 45 fc             	mov    -0x4(%ebp),%eax
  10092b:	89 04 24             	mov    %eax,(%esp)
  10092e:	e8 25 00 00 00       	call   100958 <idt_set_descriptor>
  selector_t selector = {
    .index = 1,
    .ti = 0,
    .priv = PRIV_KERNEL
  };
  for (i=0;i<ISR_NUM;i++) {
  100933:	83 45 fc 01          	addl   $0x1,-0x4(%ebp)
  100937:	83 7d fc 37          	cmpl   $0x37,-0x4(%ebp)
  10093b:	7e a8                	jle    1008e5 <idt_init+0x4d>
  }

  idtsel_t idtsel = {
    .size = ISR_NUM*sizeof(idtdesc_t)-1,
    .offset = (uint32_t)&idt
  };
  10093d:	66 c7 45 f4 bf 01    	movw   $0x1bf,-0xc(%ebp)
  100943:	b8 60 e7 10 00       	mov    $0x10e760,%eax
  100948:	89 45 f6             	mov    %eax,-0xa(%ebp)
  asm("lidt (%0)"::"r"(&idtsel));
  10094b:	8d 45 f4             	lea    -0xc(%ebp),%eax
  10094e:	0f 01 18             	lidtl  (%eax)

  return 0;
  100951:	b8 00 00 00 00       	mov    $0x0,%eax
}
  100956:	c9                   	leave  
  100957:	c3                   	ret    

00100958 <idt_set_descriptor>:

void idt_set_descriptor(int i,void *addr,selector_t selector,priv_t priv,int type) {
  100958:	55                   	push   %ebp
  100959:	89 e5                	mov    %esp,%ebp
  idt[i].zero = 0;
  10095b:	8b 45 08             	mov    0x8(%ebp),%eax
  10095e:	c6 04 c5 64 e7 10 00 	movb   $0x0,0x10e764(,%eax,8)
  100965:	00 
  idt[i].address0_15 = ((unsigned int)addr)&0xFFFF;
  100966:	8b 55 08             	mov    0x8(%ebp),%edx
  100969:	8b 45 0c             	mov    0xc(%ebp),%eax
  10096c:	66 89 04 d5 60 e7 10 	mov    %ax,0x10e760(,%edx,8)
  100973:	00 
  idt[i].address16_31 = (((unsigned int)addr)>>16)&0xFFFF;
  100974:	8b 55 08             	mov    0x8(%ebp),%edx
  100977:	8b 45 0c             	mov    0xc(%ebp),%eax
  10097a:	c1 e8 10             	shr    $0x10,%eax
  10097d:	66 89 04 d5 66 e7 10 	mov    %ax,0x10e766(,%edx,8)
  100984:	00 
  idt[i].selector = selector;
  100985:	8b 55 08             	mov    0x8(%ebp),%edx
  100988:	0f b7 45 10          	movzwl 0x10(%ebp),%eax
  10098c:	66 89 04 d5 62 e7 10 	mov    %ax,0x10e762(,%edx,8)
  100993:	00 
  idt[i].type = type|((priv&3)<<5);
  100994:	8b 4d 08             	mov    0x8(%ebp),%ecx
  100997:	8b 45 14             	mov    0x14(%ebp),%eax
  10099a:	83 e0 03             	and    $0x3,%eax
  10099d:	89 c2                	mov    %eax,%edx
  10099f:	c1 e2 05             	shl    $0x5,%edx
  1009a2:	8b 45 18             	mov    0x18(%ebp),%eax
  1009a5:	09 d0                	or     %edx,%eax
  1009a7:	88 04 cd 65 e7 10 00 	mov    %al,0x10e765(,%ecx,8)
}
  1009ae:	5d                   	pop    %ebp
  1009af:	c3                   	ret    

001009b0 <interrupt_init>:

/**
 * Initializes Interrupts
 *  @return 0=Success; -1=Failure
 */
int interrupt_init() {
  1009b0:	55                   	push   %ebp
  1009b1:	89 e5                	mov    %esp,%ebp
  1009b3:	53                   	push   %ebx
  1009b4:	83 ec 24             	sub    $0x24,%esp
  size_t i;
  interrupt_enabled = 0;
  1009b7:	c7 05 0c e7 10 00 00 	movl   $0x0,0x10e70c
  1009be:	00 00 00 
  interrupt_sleep = llist_create();
  1009c1:	e8 0e 9f 00 00       	call   10a8d4 <llist_create>
  1009c6:	a3 80 e4 10 00       	mov    %eax,0x10e480
  for (i=0;i<16;i++) interrupt_irq[i] = llist_create();
  1009cb:	c7 45 f8 00 00 00 00 	movl   $0x0,-0x8(%ebp)
  1009d2:	eb 13                	jmp    1009e7 <interrupt_init+0x37>
  1009d4:	8b 5d f8             	mov    -0x8(%ebp),%ebx
  1009d7:	e8 f8 9e 00 00       	call   10a8d4 <llist_create>
  1009dc:	89 04 9d c0 e6 10 00 	mov    %eax,0x10e6c0(,%ebx,4)
  1009e3:	83 45 f8 01          	addl   $0x1,-0x8(%ebp)
  1009e7:	83 7d f8 0f          	cmpl   $0xf,-0x8(%ebp)
  1009eb:	76 e7                	jbe    1009d4 <interrupt_init+0x24>
  if (syscall_create(SYSCALL_IRQ_HANDLER,interrupt_irq_reghandler,2)==-1) return -1;
  1009ed:	c7 44 24 08 02 00 00 	movl   $0x2,0x8(%esp)
  1009f4:	00 
  1009f5:	c7 44 24 04 e2 0f 10 	movl   $0x100fe2,0x4(%esp)
  1009fc:	00 
  1009fd:	c7 04 24 4a 00 00 00 	movl   $0x4a,(%esp)
  100a04:	e8 31 94 00 00       	call   109e3a <syscall_create>
  100a09:	83 f8 ff             	cmp    $0xffffffff,%eax
  100a0c:	75 0c                	jne    100a1a <interrupt_init+0x6a>
  100a0e:	c7 45 e8 ff ff ff ff 	movl   $0xffffffff,-0x18(%ebp)
  100a15:	e9 b2 00 00 00       	jmp    100acc <interrupt_init+0x11c>
  if (syscall_create(SYSCALL_IRQ_SLEEP,interrupt_irq_sleep,1)==-1) return -1;
  100a1a:	c7 44 24 08 01 00 00 	movl   $0x1,0x8(%esp)
  100a21:	00 
  100a22:	c7 44 24 04 49 10 10 	movl   $0x101049,0x4(%esp)
  100a29:	00 
  100a2a:	c7 04 24 4b 00 00 00 	movl   $0x4b,(%esp)
  100a31:	e8 04 94 00 00       	call   109e3a <syscall_create>
  100a36:	83 f8 ff             	cmp    $0xffffffff,%eax
  100a39:	75 0c                	jne    100a47 <interrupt_init+0x97>
  100a3b:	c7 45 e8 ff ff ff ff 	movl   $0xffffffff,-0x18(%ebp)
  100a42:	e9 85 00 00 00       	jmp    100acc <interrupt_init+0x11c>
  if (syscall_create(SYSCALL_TIME_SLEEP,interrupt_time_sleep,1)==-1) return -1;
  100a47:	c7 44 24 08 01 00 00 	movl   $0x1,0x8(%esp)
  100a4e:	00 
  100a4f:	c7 44 24 04 4a 11 10 	movl   $0x10114a,0x4(%esp)
  100a56:	00 
  100a57:	c7 04 24 47 00 00 00 	movl   $0x47,(%esp)
  100a5e:	e8 d7 93 00 00       	call   109e3a <syscall_create>
  100a63:	83 f8 ff             	cmp    $0xffffffff,%eax
  100a66:	75 09                	jne    100a71 <interrupt_init+0xc1>
  100a68:	c7 45 e8 ff ff ff ff 	movl   $0xffffffff,-0x18(%ebp)
  100a6f:	eb 5b                	jmp    100acc <interrupt_init+0x11c>
  if (syscall_create(SYSCALL_TIME_USLEEP,interrupt_time_usleep,1)==-1) return -1;
  100a71:	c7 44 24 08 01 00 00 	movl   $0x1,0x8(%esp)
  100a78:	00 
  100a79:	c7 44 24 04 b4 11 10 	movl   $0x1011b4,0x4(%esp)
  100a80:	00 
  100a81:	c7 04 24 48 00 00 00 	movl   $0x48,(%esp)
  100a88:	e8 ad 93 00 00       	call   109e3a <syscall_create>
  100a8d:	83 f8 ff             	cmp    $0xffffffff,%eax
  100a90:	75 09                	jne    100a9b <interrupt_init+0xeb>
  100a92:	c7 45 e8 ff ff ff ff 	movl   $0xffffffff,-0x18(%ebp)
  100a99:	eb 31                	jmp    100acc <interrupt_init+0x11c>
  if (syscall_create(SYSCALL_TIME_GETTICKS,interrupt_time_getticks,0)==-1) return -1;
  100a9b:	c7 44 24 08 00 00 00 	movl   $0x0,0x8(%esp)
  100aa2:	00 
  100aa3:	c7 44 24 04 e7 12 10 	movl   $0x1012e7,0x4(%esp)
  100aaa:	00 
  100aab:	c7 04 24 49 00 00 00 	movl   $0x49,(%esp)
  100ab2:	e8 83 93 00 00       	call   109e3a <syscall_create>
  100ab7:	83 f8 ff             	cmp    $0xffffffff,%eax
  100aba:	75 09                	jne    100ac5 <interrupt_init+0x115>
  100abc:	c7 45 e8 ff ff ff ff 	movl   $0xffffffff,-0x18(%ebp)
  100ac3:	eb 07                	jmp    100acc <interrupt_init+0x11c>
  return 0;
  100ac5:	c7 45 e8 00 00 00 00 	movl   $0x0,-0x18(%ebp)
  100acc:	8b 45 e8             	mov    -0x18(%ebp),%eax
}
  100acf:	83 c4 24             	add    $0x24,%esp
  100ad2:	5b                   	pop    %ebx
  100ad3:	5d                   	pop    %ebp
  100ad4:	c3                   	ret    

00100ad5 <interrupt_handler>:

/**
 * Interrupt handler
 *  @param interrupt Interrupt number
 */
void interrupt_handler(unsigned int interrupt,uint32_t *stack) {
  100ad5:	55                   	push   %ebp
  100ad6:	89 e5                	mov    %esp,%ebp
  100ad8:	83 ec 18             	sub    $0x18,%esp
  asm("mov %%ss,%0; mov %0,%%ds"::"r"(0));
  100adb:	b8 00 00 00 00       	mov    $0x0,%eax
  100ae0:	8c d0                	mov    %ss,%eax
  100ae2:	8e d8                	mov    %eax,%ds
  cpu_t *cpu = cpu_this;
  100ae4:	a1 54 e4 10 00       	mov    0x10e454,%eax
  100ae9:	c7 44 24 04 00 00 00 	movl   $0x0,0x4(%esp)
  100af0:	00 
  100af1:	89 04 24             	mov    %eax,(%esp)
  100af4:	e8 8e 9f 00 00       	call   10aa87 <llist_get>
  100af9:	89 45 fc             	mov    %eax,-0x4(%ebp)

  uint32_t errorcode = 0;
  100afc:	c7 45 f8 00 00 00 00 	movl   $0x0,-0x8(%ebp)
  interrupt_save_stack(stack,&errorcode);
  100b03:	8d 45 f8             	lea    -0x8(%ebp),%eax
  100b06:	89 44 24 04          	mov    %eax,0x4(%esp)
  100b0a:	8b 45 0c             	mov    0xc(%ebp),%eax
  100b0d:	89 04 24             	mov    %eax,(%esp)
  100b10:	e8 f2 07 00 00       	call   101307 <interrupt_save_stack>

  // Exceptions
  if (interrupt<0x20 && interrupt!=0x0F) interrupt_exception_handler(interrupt,errorcode);
  100b15:	83 7d 08 1f          	cmpl   $0x1f,0x8(%ebp)
  100b19:	77 18                	ja     100b33 <interrupt_handler+0x5e>
  100b1b:	83 7d 08 0f          	cmpl   $0xf,0x8(%ebp)
  100b1f:	74 12                	je     100b33 <interrupt_handler+0x5e>
  100b21:	8b 45 f8             	mov    -0x8(%ebp),%eax
  100b24:	89 44 24 04          	mov    %eax,0x4(%esp)
  100b28:	8b 45 08             	mov    0x8(%ebp),%eax
  100b2b:	89 04 24             	mov    %eax,(%esp)
  100b2e:	e8 01 01 00 00       	call   100c34 <interrupt_exception_handler>

  // IRQs
  if (interrupt>0x1F && interrupt<0x30) interrupt_irq_handler(interrupt-0x20);
  100b33:	83 7d 08 1f          	cmpl   $0x1f,0x8(%ebp)
  100b37:	76 14                	jbe    100b4d <interrupt_handler+0x78>
  100b39:	83 7d 08 2f          	cmpl   $0x2f,0x8(%ebp)
  100b3d:	77 0e                	ja     100b4d <interrupt_handler+0x78>
  100b3f:	8b 45 08             	mov    0x8(%ebp),%eax
  100b42:	83 e8 20             	sub    $0x20,%eax
  100b45:	89 04 24             	mov    %eax,(%esp)
  100b48:	e8 bc 00 00 00       	call   100c09 <interrupt_irq_handler>
  if (!cpu->uselapic && interrupt==0x30) interrupt_irq_handler(0);
  100b4d:	8b 45 fc             	mov    -0x4(%ebp),%eax
  100b50:	8b 40 54             	mov    0x54(%eax),%eax
  100b53:	85 c0                	test   %eax,%eax
  100b55:	75 12                	jne    100b69 <interrupt_handler+0x94>
  100b57:	83 7d 08 30          	cmpl   $0x30,0x8(%ebp)
  100b5b:	75 0c                	jne    100b69 <interrupt_handler+0x94>
  100b5d:	c7 04 24 00 00 00 00 	movl   $0x0,(%esp)
  100b64:	e8 a0 00 00 00       	call   100c09 <interrupt_irq_handler>

  // LAPIC
  if (cpu->uselapic && interrupt>0x2F && interrupt<0x37 && interrupt==0x0F) interrupt_lapic_handler(interrupt);
  100b69:	8b 45 fc             	mov    -0x4(%ebp),%eax
  100b6c:	8b 40 54             	mov    0x54(%eax),%eax
  100b6f:	85 c0                	test   %eax,%eax
  100b71:	74 1d                	je     100b90 <interrupt_handler+0xbb>
  100b73:	83 7d 08 2f          	cmpl   $0x2f,0x8(%ebp)
  100b77:	76 17                	jbe    100b90 <interrupt_handler+0xbb>
  100b79:	83 7d 08 36          	cmpl   $0x36,0x8(%ebp)
  100b7d:	77 11                	ja     100b90 <interrupt_handler+0xbb>
  100b7f:	83 7d 08 0f          	cmpl   $0xf,0x8(%ebp)
  100b83:	75 0b                	jne    100b90 <interrupt_handler+0xbb>
  100b85:	8b 45 08             	mov    0x8(%ebp),%eax
  100b88:	89 04 24             	mov    %eax,(%esp)
  100b8b:	e8 61 00 00 00       	call   100bf1 <interrupt_lapic_handler>

  asm("mov %%es,%0; mov %0,%%ds"::"r"(0));
  100b90:	b8 00 00 00 00       	mov    $0x0,%eax
  100b95:	8c c0                	mov    %es,%eax
  100b97:	8e d8                	mov    %eax,%ds

  if (proc_current==NULL) proc_shedule();
  100b99:	a1 a0 e1 10 00       	mov    0x10e1a0,%eax
  100b9e:	85 c0                	test   %eax,%eax
  100ba0:	75 05                	jne    100ba7 <interrupt_handler+0xd2>
  100ba2:	e8 3d 5d 00 00       	call   1068e4 <proc_shedule>
}
  100ba7:	c9                   	leave  
  100ba8:	c3                   	ret    

00100ba9 <interrupt_timer>:

/**
 * Timer (PIC or LAPIC)
 */
void interrupt_timer() {
  100ba9:	55                   	push   %ebp
  100baa:	89 e5                	mov    %esp,%ebp
  100bac:	83 ec 18             	sub    $0x18,%esp
  cpu_t *cpu = cpu_this;
  100baf:	a1 54 e4 10 00       	mov    0x10e454,%eax
  100bb4:	c7 44 24 04 00 00 00 	movl   $0x0,0x4(%esp)
  100bbb:	00 
  100bbc:	89 04 24             	mov    %eax,(%esp)
  100bbf:	e8 c3 9e 00 00       	call   10aa87 <llist_get>
  100bc4:	89 45 fc             	mov    %eax,-0x4(%ebp)
  cpu->ticks++;
  100bc7:	8b 45 fc             	mov    -0x4(%ebp),%eax
  100bca:	8b 40 5c             	mov    0x5c(%eax),%eax
  100bcd:	8d 50 01             	lea    0x1(%eax),%edx
  100bd0:	8b 45 fc             	mov    -0x4(%ebp),%eax
  100bd3:	89 50 5c             	mov    %edx,0x5c(%eax)
  interrupt_time_check(cpu->interval*1000);
  100bd6:	8b 45 fc             	mov    -0x4(%ebp),%eax
  100bd9:	8b 40 58             	mov    0x58(%eax),%eax
  100bdc:	69 c0 e8 03 00 00    	imul   $0x3e8,%eax,%eax
  100be2:	89 04 24             	mov    %eax,(%esp)
  100be5:	e8 2e 06 00 00       	call   101218 <interrupt_time_check>
  proc_shedule();
  100bea:	e8 f5 5c 00 00       	call   1068e4 <proc_shedule>
}
  100bef:	c9                   	leave  
  100bf0:	c3                   	ret    

00100bf1 <interrupt_lapic_handler>:

/**
 * LAPIC interrupt handler
 *  @param interrupt Interrupt
 */
void interrupt_lapic_handler(unsigned int interrupt) {
  100bf1:	55                   	push   %ebp
  100bf2:	89 e5                	mov    %esp,%ebp
  100bf4:	83 ec 08             	sub    $0x8,%esp
  lapic_eoi();
  100bf7:	e8 a0 18 00 00       	call   10249c <lapic_eoi>
  if (interrupt==0x30) interrupt_timer();
  100bfc:	83 7d 08 30          	cmpl   $0x30,0x8(%ebp)
  100c00:	75 05                	jne    100c07 <interrupt_lapic_handler+0x16>
  100c02:	e8 a2 ff ff ff       	call   100ba9 <interrupt_timer>
}
  100c07:	c9                   	leave  
  100c08:	c3                   	ret    

00100c09 <interrupt_irq_handler>:

/**
 * IRQ handler
 *  @param irq IRQ
 */
void interrupt_irq_handler(unsigned int irq) {
  100c09:	55                   	push   %ebp
  100c0a:	89 e5                	mov    %esp,%ebp
  100c0c:	83 ec 08             	sub    $0x8,%esp
  pic_eoi(irq);
  100c0f:	8b 45 08             	mov    0x8(%ebp),%eax
  100c12:	89 04 24             	mov    %eax,(%esp)
  100c15:	e8 af 50 00 00       	call   105cc9 <pic_eoi>
  if (irq==0) interrupt_timer();
  100c1a:	83 7d 08 00          	cmpl   $0x0,0x8(%ebp)
  100c1e:	75 07                	jne    100c27 <interrupt_irq_handler+0x1e>
  100c20:	e8 84 ff ff ff       	call   100ba9 <interrupt_timer>
  100c25:	eb 0b                	jmp    100c32 <interrupt_irq_handler+0x29>
  else interrupt_irq_check(irq);
  100c27:	8b 45 08             	mov    0x8(%ebp),%eax
  100c2a:	89 04 24             	mov    %eax,(%esp)
  100c2d:	e8 75 04 00 00       	call   1010a7 <interrupt_irq_check>
}
  100c32:	c9                   	leave  
  100c33:	c3                   	ret    

00100c34 <interrupt_exception_handler>:

/**
 * Exception handler
 *  @param exception Exception number
 */
void interrupt_exception_handler(unsigned int exception,uint32_t errcode) {
  100c34:	55                   	push   %ebp
  100c35:	89 e5                	mov    %esp,%ebp
  100c37:	57                   	push   %edi
  100c38:	56                   	push   %esi
  100c39:	53                   	push   %ebx
  100c3a:	81 ec 9c 00 00 00    	sub    $0x9c,%esp
    "Stack Exception",
    "General Protection Fault",
    "Page Fault",
    "Intel reserved",
    "Coprocessor Error"
  };
  100c40:	8d 45 a8             	lea    -0x58(%ebp),%eax
  100c43:	89 85 78 ff ff ff    	mov    %eax,-0x88(%ebp)
  100c49:	c7 85 74 ff ff ff e0 	movl   $0x10d1e0,-0x8c(%ebp)
  100c50:	d1 10 00 
  100c53:	c7 85 70 ff ff ff 11 	movl   $0x11,-0x90(%ebp)
  100c5a:	00 00 00 
  100c5d:	8b bd 78 ff ff ff    	mov    -0x88(%ebp),%edi
  100c63:	8b b5 74 ff ff ff    	mov    -0x8c(%ebp),%esi
  100c69:	8b 8d 70 ff ff ff    	mov    -0x90(%ebp),%ecx
  100c6f:	f3 a5                	rep movsl %ds:(%esi),%es:(%edi)

  uint32_t cr2;
  asm("mov %%cr2,%0":"=a"(cr2));
  100c71:	0f 20 d0             	mov    %cr2,%eax
  100c74:	89 45 ec             	mov    %eax,-0x14(%ebp)
  errcode &= 0xFFFF;
  100c77:	81 65 0c ff ff 00 00 	andl   $0xffff,0xc(%ebp)

  if (exception==INTERRUPT_EXCEPTION_PAGE_FAULT) {
  100c7e:	83 7d 08 0e          	cmpl   $0xe,0x8(%ebp)
  100c82:	75 13                	jne    100c97 <interrupt_exception_handler+0x63>
    if (memuser_pagefault((void*)cr2)==0) return;
  100c84:	8b 45 ec             	mov    -0x14(%ebp),%eax
  100c87:	89 04 24             	mov    %eax,(%esp)
  100c8a:	e8 60 33 00 00       	call   103fef <memuser_pagefault>
  100c8f:	85 c0                	test   %eax,%eax
  100c91:	0f 84 23 03 00 00    	je     100fba <interrupt_exception_handler+0x386>
  }
  vga_text_cursor.color = VGA_TEXT_COLOR_RED_BLACK;
  100c97:	c7 05 08 e7 10 00 0c 	movl   $0xc,0x10e708
  100c9e:	00 00 00 
  kprintf(" **EXCEPTION[0x%x]: %s from %s (by EIP)\n",exception,exception<0x10?exceptions[exception]:"Unknown",*interrupt_curregs.eip<USERDATA_ADDRESS?"Kernel":"Userland");
  100ca1:	a1 40 e7 10 00       	mov    0x10e740,%eax
  100ca6:	8b 00                	mov    (%eax),%eax
  100ca8:	3d ff ff ff 3f       	cmp    $0x3fffffff,%eax
  100cad:	77 0c                	ja     100cbb <interrupt_exception_handler+0x87>
  100caf:	c7 85 7c ff ff ff 24 	movl   $0x10d224,-0x84(%ebp)
  100cb6:	d2 10 00 
  100cb9:	eb 0a                	jmp    100cc5 <interrupt_exception_handler+0x91>
  100cbb:	c7 85 7c ff ff ff 2b 	movl   $0x10d22b,-0x84(%ebp)
  100cc2:	d2 10 00 
  100cc5:	83 7d 08 0f          	cmpl   $0xf,0x8(%ebp)
  100cc9:	77 0c                	ja     100cd7 <interrupt_exception_handler+0xa3>
  100ccb:	8b 45 08             	mov    0x8(%ebp),%eax
  100cce:	8b 44 85 a8          	mov    -0x58(%ebp,%eax,4),%eax
  100cd2:	89 45 80             	mov    %eax,-0x80(%ebp)
  100cd5:	eb 07                	jmp    100cde <interrupt_exception_handler+0xaa>
  100cd7:	c7 45 80 34 d2 10 00 	movl   $0x10d234,-0x80(%ebp)
  100cde:	8b 85 7c ff ff ff    	mov    -0x84(%ebp),%eax
  100ce4:	89 44 24 0c          	mov    %eax,0xc(%esp)
  100ce8:	8b 55 80             	mov    -0x80(%ebp),%edx
  100ceb:	89 54 24 08          	mov    %edx,0x8(%esp)
  100cef:	8b 45 08             	mov    0x8(%ebp),%eax
  100cf2:	89 44 24 04          	mov    %eax,0x4(%esp)
  100cf6:	c7 04 24 3c d2 10 00 	movl   $0x10d23c,(%esp)
  100cfd:	e8 99 16 00 00       	call   10239b <kprintf>
  if (proc_current!=NULL) kprintf("Process: #%d %s\n",proc_current->pid,proc_current->name);
  100d02:	a1 a0 e1 10 00       	mov    0x10e1a0,%eax
  100d07:	85 c0                	test   %eax,%eax
  100d09:	74 25                	je     100d30 <interrupt_exception_handler+0xfc>
  100d0b:	a1 a0 e1 10 00       	mov    0x10e1a0,%eax
  100d10:	8b 50 20             	mov    0x20(%eax),%edx
  100d13:	a1 a0 e1 10 00       	mov    0x10e1a0,%eax
  100d18:	8b 00                	mov    (%eax),%eax
  100d1a:	89 54 24 08          	mov    %edx,0x8(%esp)
  100d1e:	89 44 24 04          	mov    %eax,0x4(%esp)
  100d22:	c7 04 24 65 d2 10 00 	movl   $0x10d265,(%esp)
  100d29:	e8 6d 16 00 00       	call   10239b <kprintf>
  100d2e:	eb 0c                	jmp    100d3c <interrupt_exception_handler+0x108>
  else kprintf("Process: none\n");
  100d30:	c7 04 24 76 d2 10 00 	movl   $0x10d276,(%esp)
  100d37:	e8 5f 16 00 00       	call   10239b <kprintf>
  vga_text_cursor.color = VGA_TEXT_COLOR_DEFAULT;
  100d3c:	c7 05 08 e7 10 00 07 	movl   $0x7,0x10e708
  100d43:	00 00 00 
  kprintf("EAX: 0x%x\tEBX: 0x%x\tECX: 0x%x\tEDX: 0x%x\n",*interrupt_curregs.eax,*interrupt_curregs.ebx,*interrupt_curregs.ecx,*interrupt_curregs.edx);
  100d46:	a1 2c e7 10 00       	mov    0x10e72c,%eax
  100d4b:	8b 08                	mov    (%eax),%ecx
  100d4d:	a1 28 e7 10 00       	mov    0x10e728,%eax
  100d52:	8b 18                	mov    (%eax),%ebx
  100d54:	a1 24 e7 10 00       	mov    0x10e724,%eax
  100d59:	8b 10                	mov    (%eax),%edx
  100d5b:	a1 20 e7 10 00       	mov    0x10e720,%eax
  100d60:	8b 00                	mov    (%eax),%eax
  100d62:	89 4c 24 10          	mov    %ecx,0x10(%esp)
  100d66:	89 5c 24 0c          	mov    %ebx,0xc(%esp)
  100d6a:	89 54 24 08          	mov    %edx,0x8(%esp)
  100d6e:	89 44 24 04          	mov    %eax,0x4(%esp)
  100d72:	c7 04 24 88 d2 10 00 	movl   $0x10d288,(%esp)
  100d79:	e8 1d 16 00 00       	call   10239b <kprintf>
  kprintf("EIP: 0x%x\tEFL: 0x%x\tEBP: 0x%x\tESP: 0x%x\n",*interrupt_curregs.eip,*interrupt_curregs.efl,*interrupt_curregs.ebp,*interrupt_curregs.esp);
  100d7e:	a1 3c e7 10 00       	mov    0x10e73c,%eax
  100d83:	8b 08                	mov    (%eax),%ecx
  100d85:	a1 38 e7 10 00       	mov    0x10e738,%eax
  100d8a:	8b 18                	mov    (%eax),%ebx
  100d8c:	a1 44 e7 10 00       	mov    0x10e744,%eax
  100d91:	8b 10                	mov    (%eax),%edx
  100d93:	a1 40 e7 10 00       	mov    0x10e740,%eax
  100d98:	8b 00                	mov    (%eax),%eax
  100d9a:	89 4c 24 10          	mov    %ecx,0x10(%esp)
  100d9e:	89 5c 24 0c          	mov    %ebx,0xc(%esp)
  100da2:	89 54 24 08          	mov    %edx,0x8(%esp)
  100da6:	89 44 24 04          	mov    %eax,0x4(%esp)
  100daa:	c7 04 24 b4 d2 10 00 	movl   $0x10d2b4,(%esp)
  100db1:	e8 e5 15 00 00       	call   10239b <kprintf>
  kprintf("EDI: 0x%x\tESI: 0x%x\n",*interrupt_curregs.edi,*interrupt_curregs.esi);
  100db6:	a1 30 e7 10 00       	mov    0x10e730,%eax
  100dbb:	8b 10                	mov    (%eax),%edx
  100dbd:	a1 34 e7 10 00       	mov    0x10e734,%eax
  100dc2:	8b 00                	mov    (%eax),%eax
  100dc4:	89 54 24 08          	mov    %edx,0x8(%esp)
  100dc8:	89 44 24 04          	mov    %eax,0x4(%esp)
  100dcc:	c7 04 24 dd d2 10 00 	movl   $0x10d2dd,(%esp)
  100dd3:	e8 c3 15 00 00       	call   10239b <kprintf>
  kprintf("CS:  0x%x\tDS:  0x%x\tES:  0x%x\tFS:  0x%x\n",*interrupt_curregs.cs,*interrupt_curregs.ds,*interrupt_curregs.es,*interrupt_curregs.fs);
  100dd8:	a1 54 e7 10 00       	mov    0x10e754,%eax
  100ddd:	8b 08                	mov    (%eax),%ecx
  100ddf:	a1 50 e7 10 00       	mov    0x10e750,%eax
  100de4:	8b 18                	mov    (%eax),%ebx
  100de6:	a1 4c e7 10 00       	mov    0x10e74c,%eax
  100deb:	8b 10                	mov    (%eax),%edx
  100ded:	a1 48 e7 10 00       	mov    0x10e748,%eax
  100df2:	8b 00                	mov    (%eax),%eax
  100df4:	89 4c 24 10          	mov    %ecx,0x10(%esp)
  100df8:	89 5c 24 0c          	mov    %ebx,0xc(%esp)
  100dfc:	89 54 24 08          	mov    %edx,0x8(%esp)
  100e00:	89 44 24 04          	mov    %eax,0x4(%esp)
  100e04:	c7 04 24 f4 d2 10 00 	movl   $0x10d2f4,(%esp)
  100e0b:	e8 8b 15 00 00       	call   10239b <kprintf>
  kprintf("GS:  0x%x\tSS:  0x%x\n",interrupt_curregs.gs,interrupt_curregs.ss);
  100e10:	a1 5c e7 10 00       	mov    0x10e75c,%eax
  100e15:	8b 15 58 e7 10 00    	mov    0x10e758,%edx
  100e1b:	89 44 24 08          	mov    %eax,0x8(%esp)
  100e1f:	89 54 24 04          	mov    %edx,0x4(%esp)
  100e23:	c7 04 24 1d d3 10 00 	movl   $0x10d31d,(%esp)
  100e2a:	e8 6c 15 00 00       	call   10239b <kprintf>
  if (exception==INTERRUPT_EXCEPTION_PAGE_FAULT) {
  100e2f:	83 7d 08 0e          	cmpl   $0xe,0x8(%ebp)
  100e33:	0f 85 a4 00 00 00    	jne    100edd <interrupt_exception_handler+0x2a9>
    kprintf("Pagefault at: 0x%x\n",cr2);
  100e39:	8b 45 ec             	mov    -0x14(%ebp),%eax
  100e3c:	89 44 24 04          	mov    %eax,0x4(%esp)
  100e40:	c7 04 24 32 d3 10 00 	movl   $0x10d332,(%esp)
  100e47:	e8 4f 15 00 00       	call   10239b <kprintf>
    kprintf("%s by %s from %s\n",(errcode&1)?"Rights violation":"Accessing a not present page",(errcode&8)?"instruction fetch":((errcode&2)?"writing":"reading"),(errcode&4)?proc_current->name:"Kernel");
  100e4c:	8b 45 0c             	mov    0xc(%ebp),%eax
  100e4f:	83 e0 04             	and    $0x4,%eax
  100e52:	85 c0                	test   %eax,%eax
  100e54:	74 0d                	je     100e63 <interrupt_exception_handler+0x22f>
  100e56:	a1 a0 e1 10 00       	mov    0x10e1a0,%eax
  100e5b:	8b 40 20             	mov    0x20(%eax),%eax
  100e5e:	89 45 84             	mov    %eax,-0x7c(%ebp)
  100e61:	eb 07                	jmp    100e6a <interrupt_exception_handler+0x236>
  100e63:	c7 45 84 24 d2 10 00 	movl   $0x10d224,-0x7c(%ebp)
  100e6a:	8b 45 0c             	mov    0xc(%ebp),%eax
  100e6d:	83 e0 08             	and    $0x8,%eax
  100e70:	85 c0                	test   %eax,%eax
  100e72:	75 22                	jne    100e96 <interrupt_exception_handler+0x262>
  100e74:	8b 45 0c             	mov    0xc(%ebp),%eax
  100e77:	83 e0 02             	and    $0x2,%eax
  100e7a:	85 c0                	test   %eax,%eax
  100e7c:	74 09                	je     100e87 <interrupt_exception_handler+0x253>
  100e7e:	c7 45 8c 46 d3 10 00 	movl   $0x10d346,-0x74(%ebp)
  100e85:	eb 07                	jmp    100e8e <interrupt_exception_handler+0x25a>
  100e87:	c7 45 8c 4e d3 10 00 	movl   $0x10d34e,-0x74(%ebp)
  100e8e:	8b 4d 8c             	mov    -0x74(%ebp),%ecx
  100e91:	89 4d 88             	mov    %ecx,-0x78(%ebp)
  100e94:	eb 07                	jmp    100e9d <interrupt_exception_handler+0x269>
  100e96:	c7 45 88 56 d3 10 00 	movl   $0x10d356,-0x78(%ebp)
  100e9d:	8b 45 0c             	mov    0xc(%ebp),%eax
  100ea0:	83 e0 01             	and    $0x1,%eax
  100ea3:	84 c0                	test   %al,%al
  100ea5:	74 09                	je     100eb0 <interrupt_exception_handler+0x27c>
  100ea7:	c7 45 90 68 d3 10 00 	movl   $0x10d368,-0x70(%ebp)
  100eae:	eb 07                	jmp    100eb7 <interrupt_exception_handler+0x283>
  100eb0:	c7 45 90 79 d3 10 00 	movl   $0x10d379,-0x70(%ebp)
  100eb7:	8b 75 84             	mov    -0x7c(%ebp),%esi
  100eba:	89 74 24 0c          	mov    %esi,0xc(%esp)
  100ebe:	8b 7d 88             	mov    -0x78(%ebp),%edi
  100ec1:	89 7c 24 08          	mov    %edi,0x8(%esp)
  100ec5:	8b 45 90             	mov    -0x70(%ebp),%eax
  100ec8:	89 44 24 04          	mov    %eax,0x4(%esp)
  100ecc:	c7 04 24 96 d3 10 00 	movl   $0x10d396,(%esp)
  100ed3:	e8 c3 14 00 00       	call   10239b <kprintf>
  100ed8:	e9 84 00 00 00       	jmp    100f61 <interrupt_exception_handler+0x32d>
  }
  else if (errcode!=0) {
  100edd:	83 7d 0c 00          	cmpl   $0x0,0xc(%ebp)
  100ee1:	74 7e                	je     100f61 <interrupt_exception_handler+0x32d>
    kprintf("%s error in %s at index 0x%x\n",(errcode&1)?"External":"Internal",(errcode&2)?"IDT":((errcode&4)?"LDT":"GDT"),(errcode&0xFFF8)>>3);
  100ee3:	8b 45 0c             	mov    0xc(%ebp),%eax
  100ee6:	25 f8 ff 00 00       	and    $0xfff8,%eax
  100eeb:	89 c2                	mov    %eax,%edx
  100eed:	c1 ea 03             	shr    $0x3,%edx
  100ef0:	89 55 94             	mov    %edx,-0x6c(%ebp)
  100ef3:	8b 45 0c             	mov    0xc(%ebp),%eax
  100ef6:	83 e0 02             	and    $0x2,%eax
  100ef9:	85 c0                	test   %eax,%eax
  100efb:	75 22                	jne    100f1f <interrupt_exception_handler+0x2eb>
  100efd:	8b 45 0c             	mov    0xc(%ebp),%eax
  100f00:	83 e0 04             	and    $0x4,%eax
  100f03:	85 c0                	test   %eax,%eax
  100f05:	74 09                	je     100f10 <interrupt_exception_handler+0x2dc>
  100f07:	c7 45 9c a8 d3 10 00 	movl   $0x10d3a8,-0x64(%ebp)
  100f0e:	eb 07                	jmp    100f17 <interrupt_exception_handler+0x2e3>
  100f10:	c7 45 9c ac d3 10 00 	movl   $0x10d3ac,-0x64(%ebp)
  100f17:	8b 4d 9c             	mov    -0x64(%ebp),%ecx
  100f1a:	89 4d 98             	mov    %ecx,-0x68(%ebp)
  100f1d:	eb 07                	jmp    100f26 <interrupt_exception_handler+0x2f2>
  100f1f:	c7 45 98 b0 d3 10 00 	movl   $0x10d3b0,-0x68(%ebp)
  100f26:	8b 45 0c             	mov    0xc(%ebp),%eax
  100f29:	83 e0 01             	and    $0x1,%eax
  100f2c:	84 c0                	test   %al,%al
  100f2e:	74 09                	je     100f39 <interrupt_exception_handler+0x305>
  100f30:	c7 45 a0 b4 d3 10 00 	movl   $0x10d3b4,-0x60(%ebp)
  100f37:	eb 07                	jmp    100f40 <interrupt_exception_handler+0x30c>
  100f39:	c7 45 a0 bd d3 10 00 	movl   $0x10d3bd,-0x60(%ebp)
  100f40:	8b 75 94             	mov    -0x6c(%ebp),%esi
  100f43:	89 74 24 0c          	mov    %esi,0xc(%esp)
  100f47:	8b 7d 98             	mov    -0x68(%ebp),%edi
  100f4a:	89 7c 24 08          	mov    %edi,0x8(%esp)
  100f4e:	8b 45 a0             	mov    -0x60(%ebp),%eax
  100f51:	89 44 24 04          	mov    %eax,0x4(%esp)
  100f55:	c7 04 24 c6 d3 10 00 	movl   $0x10d3c6,(%esp)
  100f5c:	e8 3a 14 00 00       	call   10239b <kprintf>
  if (*interrupt_curregs.esp>=0x4000000 && *interrupt_curregs.esp<0x40001000 && 0) {
    int *i;
    kprintf("Stack:\n");
    for (i=(int*)*interrupt_curregs.esp;i<(int*)0x40001000;i++) kprintf("0x%x:\t0x%x\n",i,*i);
  }
  cpu_halt();
  100f61:	e8 5f 00 00 00       	call   100fc5 <cpu_halt>

  if (exception==INTERRUPT_EXCEPTION_PAGE_FAULT) kill(proc_current,SIGSEGV);
  100f66:	83 7d 08 0e          	cmpl   $0xe,0x8(%ebp)
  100f6a:	75 17                	jne    100f83 <interrupt_exception_handler+0x34f>
  100f6c:	a1 a0 e1 10 00       	mov    0x10e1a0,%eax
  100f71:	c7 44 24 04 0b 00 00 	movl   $0xb,0x4(%esp)
  100f78:	00 
  100f79:	89 04 24             	mov    %eax,(%esp)
  100f7c:	e8 51 8a 00 00       	call   1099d2 <signal_send>
  100f81:	eb 32                	jmp    100fb5 <interrupt_exception_handler+0x381>
  else if (exception==INTERRUPT_EXCEPTION_INVALID_OPCODE) kill(proc_current,SIGILL);
  100f83:	83 7d 08 06          	cmpl   $0x6,0x8(%ebp)
  100f87:	75 17                	jne    100fa0 <interrupt_exception_handler+0x36c>
  100f89:	a1 a0 e1 10 00       	mov    0x10e1a0,%eax
  100f8e:	c7 44 24 04 04 00 00 	movl   $0x4,0x4(%esp)
  100f95:	00 
  100f96:	89 04 24             	mov    %eax,(%esp)
  100f99:	e8 34 8a 00 00       	call   1099d2 <signal_send>
  100f9e:	eb 15                	jmp    100fb5 <interrupt_exception_handler+0x381>
  else kill(proc_current,SIGKILL);
  100fa0:	a1 a0 e1 10 00       	mov    0x10e1a0,%eax
  100fa5:	c7 44 24 04 09 00 00 	movl   $0x9,0x4(%esp)
  100fac:	00 
  100fad:	89 04 24             	mov    %eax,(%esp)
  100fb0:	e8 1d 8a 00 00       	call   1099d2 <signal_send>

  proc_idle();
  100fb5:	e8 66 61 00 00       	call   107120 <proc_idle>
}
  100fba:	81 c4 9c 00 00 00    	add    $0x9c,%esp
  100fc0:	5b                   	pop    %ebx
  100fc1:	5e                   	pop    %esi
  100fc2:	5f                   	pop    %edi
  100fc3:	5d                   	pop    %ebp
  100fc4:	c3                   	ret    

00100fc5 <cpu_halt>:
  clock_t ticks;
} cpu_t;

llist_t cpus;

static inline void cpu_halt() {
  100fc5:	55                   	push   %ebp
  100fc6:	89 e5                	mov    %esp,%ebp
  asm("hlt");
  100fc8:	f4                   	hlt    
}
  100fc9:	5d                   	pop    %ebp
  100fca:	c3                   	ret    

00100fcb <interrupt_enable>:

/**
 * Enables/Disables interrupts
 *  @param enable Whether to enable or disable interrupts
 */
void interrupt_enable(int enable) {
  100fcb:	55                   	push   %ebp
  100fcc:	89 e5                	mov    %esp,%ebp
  interrupt_enabled = enable;
  100fce:	8b 45 08             	mov    0x8(%ebp),%eax
  100fd1:	a3 0c e7 10 00       	mov    %eax,0x10e70c
  if (enable) asm("sti");
  100fd6:	83 7d 08 00          	cmpl   $0x0,0x8(%ebp)
  100fda:	74 03                	je     100fdf <interrupt_enable+0x14>
  100fdc:	fb                   	sti    
  100fdd:	eb 01                	jmp    100fe0 <interrupt_enable+0x15>
  else asm("cli");
  100fdf:	fa                   	cli    
}
  100fe0:	5d                   	pop    %ebp
  100fe1:	c3                   	ret    

00100fe2 <interrupt_irq_reghandler>:
/**
 * Registers an IRQ handler (Syscall)
 *  @param irq IRQ
 *  @param func Function
 */
int interrupt_irq_reghandler(unsigned int irq,void *func) {
  100fe2:	55                   	push   %ebp
  100fe3:	89 e5                	mov    %esp,%ebp
  100fe5:	83 ec 28             	sub    $0x28,%esp
  if (irq<16) {
  100fe8:	83 7d 08 0f          	cmpl   $0xf,0x8(%ebp)
  100fec:	77 4f                	ja     10103d <interrupt_irq_reghandler+0x5b>
    interrupt_irq_t *new = malloc(sizeof(interrupt_irq_t));
  100fee:	c7 04 24 0c 00 00 00 	movl   $0xc,(%esp)
  100ff5:	e8 6f 1f 00 00       	call   102f69 <malloc>
  100ffa:	89 45 fc             	mov    %eax,-0x4(%ebp)
    new->func = func;
  100ffd:	8b 55 fc             	mov    -0x4(%ebp),%edx
  101000:	8b 45 0c             	mov    0xc(%ebp),%eax
  101003:	89 42 08             	mov    %eax,0x8(%edx)
    new->proc = proc_current;
  101006:	8b 15 a0 e1 10 00    	mov    0x10e1a0,%edx
  10100c:	8b 45 fc             	mov    -0x4(%ebp),%eax
  10100f:	89 50 04             	mov    %edx,0x4(%eax)
    new->type = IRQ_HANDLER;
  101012:	8b 45 fc             	mov    -0x4(%ebp),%eax
  101015:	c7 00 01 00 00 00    	movl   $0x1,(%eax)
    llist_push(interrupt_irq[irq],new);
  10101b:	8b 45 08             	mov    0x8(%ebp),%eax
  10101e:	8b 14 85 c0 e6 10 00 	mov    0x10e6c0(,%eax,4),%edx
  101025:	8b 45 fc             	mov    -0x4(%ebp),%eax
  101028:	89 44 24 04          	mov    %eax,0x4(%esp)
  10102c:	89 14 24             	mov    %edx,(%esp)
  10102f:	e8 1b 99 00 00       	call   10a94f <llist_push>
    return 0;
  101034:	c7 45 ec 00 00 00 00 	movl   $0x0,-0x14(%ebp)
  10103b:	eb 07                	jmp    101044 <interrupt_irq_reghandler+0x62>
  }
  else return -1;
  10103d:	c7 45 ec ff ff ff ff 	movl   $0xffffffff,-0x14(%ebp)
  101044:	8b 45 ec             	mov    -0x14(%ebp),%eax
}
  101047:	c9                   	leave  
  101048:	c3                   	ret    

00101049 <interrupt_irq_sleep>:

/**
 * Sleeps until an IRQ is fired (Syscall)
 *  @param irq IRQ
 */
int interrupt_irq_sleep(unsigned int irq) {
  101049:	55                   	push   %ebp
  10104a:	89 e5                	mov    %esp,%ebp
  10104c:	83 ec 28             	sub    $0x28,%esp
  if (irq<16) {
  10104f:	83 7d 08 0f          	cmpl   $0xf,0x8(%ebp)
  101053:	77 46                	ja     10109b <interrupt_irq_sleep+0x52>
    interrupt_irq_t *new = malloc(sizeof(interrupt_irq_t));
  101055:	c7 04 24 0c 00 00 00 	movl   $0xc,(%esp)
  10105c:	e8 08 1f 00 00       	call   102f69 <malloc>
  101061:	89 45 fc             	mov    %eax,-0x4(%ebp)
    new->proc = proc_current;
  101064:	8b 15 a0 e1 10 00    	mov    0x10e1a0,%edx
  10106a:	8b 45 fc             	mov    -0x4(%ebp),%eax
  10106d:	89 50 04             	mov    %edx,0x4(%eax)
    new->type = IRQ_SLEEP;
  101070:	8b 45 fc             	mov    -0x4(%ebp),%eax
  101073:	c7 00 00 00 00 00    	movl   $0x0,(%eax)
    llist_push(interrupt_irq[irq],new);
  101079:	8b 45 08             	mov    0x8(%ebp),%eax
  10107c:	8b 14 85 c0 e6 10 00 	mov    0x10e6c0(,%eax,4),%edx
  101083:	8b 45 fc             	mov    -0x4(%ebp),%eax
  101086:	89 44 24 04          	mov    %eax,0x4(%esp)
  10108a:	89 14 24             	mov    %edx,(%esp)
  10108d:	e8 bd 98 00 00       	call   10a94f <llist_push>
    return 0;
  101092:	c7 45 ec 00 00 00 00 	movl   $0x0,-0x14(%ebp)
  101099:	eb 07                	jmp    1010a2 <interrupt_irq_sleep+0x59>
  }
  else return -1;
  10109b:	c7 45 ec ff ff ff ff 	movl   $0xffffffff,-0x14(%ebp)
  1010a2:	8b 45 ec             	mov    -0x14(%ebp),%eax
}
  1010a5:	c9                   	leave  
  1010a6:	c3                   	ret    

001010a7 <interrupt_irq_check>:

/**
 * Checks for IRQ events
 *  @param irq IRQ
 */
void interrupt_irq_check(unsigned int irq) {
  1010a7:	55                   	push   %ebp
  1010a8:	89 e5                	mov    %esp,%ebp
  1010aa:	83 ec 28             	sub    $0x28,%esp
  interrupt_irq_t *irqo;
  size_t i;
  for (i=0;(irqo = llist_get(interrupt_irq[irq],i));i++) {
  1010ad:	c7 45 fc 00 00 00 00 	movl   $0x0,-0x4(%ebp)
  1010b4:	eb 6c                	jmp    101122 <interrupt_irq_check+0x7b>
    if (irqo->type==IRQ_SLEEP) {
  1010b6:	8b 45 f8             	mov    -0x8(%ebp),%eax
  1010b9:	8b 00                	mov    (%eax),%eax
  1010bb:	85 c0                	test   %eax,%eax
  1010bd:	75 38                	jne    1010f7 <interrupt_irq_check+0x50>
      proc_wake(irqo->proc);
  1010bf:	8b 45 f8             	mov    -0x8(%ebp),%eax
  1010c2:	8b 40 04             	mov    0x4(%eax),%eax
  1010c5:	89 04 24             	mov    %eax,(%esp)
  1010c8:	e8 c0 55 00 00       	call   10668d <proc_wake>
      free(irqo);
  1010cd:	8b 45 f8             	mov    -0x8(%ebp),%eax
  1010d0:	89 04 24             	mov    %eax,(%esp)
  1010d3:	e8 c5 1e 00 00       	call   102f9d <free>
      llist_remove(interrupt_irq[irq],i);
  1010d8:	8b 45 08             	mov    0x8(%ebp),%eax
  1010db:	8b 14 85 c0 e6 10 00 	mov    0x10e6c0(,%eax,4),%edx
  1010e2:	8b 45 fc             	mov    -0x4(%ebp),%eax
  1010e5:	89 44 24 04          	mov    %eax,0x4(%esp)
  1010e9:	89 14 24             	mov    %edx,(%esp)
  1010ec:	e8 68 9a 00 00       	call   10ab59 <llist_remove>
      i--;
  1010f1:	83 6d fc 01          	subl   $0x1,-0x4(%ebp)
  1010f5:	eb 27                	jmp    10111e <interrupt_irq_check+0x77>
    }
    else proc_call(irqo->proc,irqo->func,1,irq);
  1010f7:	8b 45 f8             	mov    -0x8(%ebp),%eax
  1010fa:	8b 48 08             	mov    0x8(%eax),%ecx
  1010fd:	8b 45 f8             	mov    -0x8(%ebp),%eax
  101100:	8b 50 04             	mov    0x4(%eax),%edx
  101103:	8b 45 08             	mov    0x8(%ebp),%eax
  101106:	89 44 24 0c          	mov    %eax,0xc(%esp)
  10110a:	c7 44 24 08 01 00 00 	movl   $0x1,0x8(%esp)
  101111:	00 
  101112:	89 4c 24 04          	mov    %ecx,0x4(%esp)
  101116:	89 14 24             	mov    %edx,(%esp)
  101119:	e8 a0 5e 00 00       	call   106fbe <proc_call>
 *  @param irq IRQ
 */
void interrupt_irq_check(unsigned int irq) {
  interrupt_irq_t *irqo;
  size_t i;
  for (i=0;(irqo = llist_get(interrupt_irq[irq],i));i++) {
  10111e:	83 45 fc 01          	addl   $0x1,-0x4(%ebp)
  101122:	8b 45 08             	mov    0x8(%ebp),%eax
  101125:	8b 14 85 c0 e6 10 00 	mov    0x10e6c0(,%eax,4),%edx
  10112c:	8b 45 fc             	mov    -0x4(%ebp),%eax
  10112f:	89 44 24 04          	mov    %eax,0x4(%esp)
  101133:	89 14 24             	mov    %edx,(%esp)
  101136:	e8 4c 99 00 00       	call   10aa87 <llist_get>
  10113b:	89 45 f8             	mov    %eax,-0x8(%ebp)
  10113e:	83 7d f8 00          	cmpl   $0x0,-0x8(%ebp)
  101142:	0f 85 6e ff ff ff    	jne    1010b6 <interrupt_irq_check+0xf>
      llist_remove(interrupt_irq[irq],i);
      i--;
    }
    else proc_call(irqo->proc,irqo->func,1,irq);
  }
}
  101148:	c9                   	leave  
  101149:	c3                   	ret    

0010114a <interrupt_time_sleep>:

/**
 * Sleeps until an time elapsed (Syscall)
 *  @param sec Seconds
 */
int interrupt_time_sleep(unsigned int sec) {
  10114a:	55                   	push   %ebp
  10114b:	89 e5                	mov    %esp,%ebp
  10114d:	83 ec 18             	sub    $0x18,%esp
  interrupt_sleep_t *new = malloc(sizeof(interrupt_sleep_t));
  101150:	c7 04 24 10 00 00 00 	movl   $0x10,(%esp)
  101157:	e8 0d 1e 00 00       	call   102f69 <malloc>
  10115c:	89 45 fc             	mov    %eax,-0x4(%ebp)
  new->type = TIME_SLEEP;
  10115f:	8b 45 fc             	mov    -0x4(%ebp),%eax
  101162:	c7 00 00 00 00 00    	movl   $0x0,(%eax)
  new->usec = sec*1000000;
  101168:	8b 45 08             	mov    0x8(%ebp),%eax
  10116b:	69 c0 40 42 0f 00    	imul   $0xf4240,%eax,%eax
  101171:	ba 00 00 00 00       	mov    $0x0,%edx
  101176:	8b 4d fc             	mov    -0x4(%ebp),%ecx
  101179:	89 41 04             	mov    %eax,0x4(%ecx)
  10117c:	89 51 08             	mov    %edx,0x8(%ecx)
  new->proc = proc_current;
  10117f:	8b 15 a0 e1 10 00    	mov    0x10e1a0,%edx
  101185:	8b 45 fc             	mov    -0x4(%ebp),%eax
  101188:	89 50 0c             	mov    %edx,0xc(%eax)
  llist_push(interrupt_sleep,new);
  10118b:	8b 15 80 e4 10 00    	mov    0x10e480,%edx
  101191:	8b 45 fc             	mov    -0x4(%ebp),%eax
  101194:	89 44 24 04          	mov    %eax,0x4(%esp)
  101198:	89 14 24             	mov    %edx,(%esp)
  10119b:	e8 af 97 00 00       	call   10a94f <llist_push>
  proc_sleep(proc_current);
  1011a0:	a1 a0 e1 10 00       	mov    0x10e1a0,%eax
  1011a5:	89 04 24             	mov    %eax,(%esp)
  1011a8:	e8 74 54 00 00       	call   106621 <proc_sleep>
  return 0;
  1011ad:	b8 00 00 00 00       	mov    $0x0,%eax
}
  1011b2:	c9                   	leave  
  1011b3:	c3                   	ret    

001011b4 <interrupt_time_usleep>:

/**
 * Sleeps until an time elapsed (Syscall)
 *  @param sec Microseconds
 */
int interrupt_time_usleep(unsigned int usec) {
  1011b4:	55                   	push   %ebp
  1011b5:	89 e5                	mov    %esp,%ebp
  1011b7:	83 ec 18             	sub    $0x18,%esp
  interrupt_sleep_t *new = malloc(sizeof(interrupt_sleep_t));
  1011ba:	c7 04 24 10 00 00 00 	movl   $0x10,(%esp)
  1011c1:	e8 a3 1d 00 00       	call   102f69 <malloc>
  1011c6:	89 45 fc             	mov    %eax,-0x4(%ebp)
  new->type = TIME_SLEEP;
  1011c9:	8b 45 fc             	mov    -0x4(%ebp),%eax
  1011cc:	c7 00 00 00 00 00    	movl   $0x0,(%eax)
  new->usec = usec;
  1011d2:	8b 45 08             	mov    0x8(%ebp),%eax
  1011d5:	ba 00 00 00 00       	mov    $0x0,%edx
  1011da:	8b 4d fc             	mov    -0x4(%ebp),%ecx
  1011dd:	89 41 04             	mov    %eax,0x4(%ecx)
  1011e0:	89 51 08             	mov    %edx,0x8(%ecx)
  new->proc = proc_current;
  1011e3:	8b 15 a0 e1 10 00    	mov    0x10e1a0,%edx
  1011e9:	8b 45 fc             	mov    -0x4(%ebp),%eax
  1011ec:	89 50 0c             	mov    %edx,0xc(%eax)
  llist_push(interrupt_sleep,new);
  1011ef:	8b 15 80 e4 10 00    	mov    0x10e480,%edx
  1011f5:	8b 45 fc             	mov    -0x4(%ebp),%eax
  1011f8:	89 44 24 04          	mov    %eax,0x4(%esp)
  1011fc:	89 14 24             	mov    %edx,(%esp)
  1011ff:	e8 4b 97 00 00       	call   10a94f <llist_push>
  proc_sleep(proc_current);
  101204:	a1 a0 e1 10 00       	mov    0x10e1a0,%eax
  101209:	89 04 24             	mov    %eax,(%esp)
  10120c:	e8 10 54 00 00       	call   106621 <proc_sleep>
  return 0;
  101211:	b8 00 00 00 00       	mov    $0x0,%eax
}
  101216:	c9                   	leave  
  101217:	c3                   	ret    

00101218 <interrupt_time_check>:

/**
 * Checks for ending sleeps
 *  @param usec Time since last check
 */
void interrupt_time_check(unsigned int usec) {
  101218:	55                   	push   %ebp
  101219:	89 e5                	mov    %esp,%ebp
  10121b:	57                   	push   %edi
  10121c:	56                   	push   %esi
  10121d:	53                   	push   %ebx
  10121e:	83 ec 2c             	sub    $0x2c,%esp
  interrupt_sleep_t *sleep;
  size_t i;
  for (i=0;(sleep = llist_get(interrupt_sleep,i));i++) {
  101221:	c7 45 ec 00 00 00 00 	movl   $0x0,-0x14(%ebp)
  101228:	e9 91 00 00 00       	jmp    1012be <interrupt_time_check+0xa6>
    if (sleep->usec<=usec) {
  10122d:	8b 45 e8             	mov    -0x18(%ebp),%eax
  101230:	8b 50 04             	mov    0x4(%eax),%edx
  101233:	8b 48 08             	mov    0x8(%eax),%ecx
  101236:	89 55 d0             	mov    %edx,-0x30(%ebp)
  101239:	89 4d d4             	mov    %ecx,-0x2c(%ebp)
  10123c:	8b 75 08             	mov    0x8(%ebp),%esi
  10123f:	bf 00 00 00 00       	mov    $0x0,%edi
  101244:	89 75 d8             	mov    %esi,-0x28(%ebp)
  101247:	89 7d dc             	mov    %edi,-0x24(%ebp)
  10124a:	8b 7d dc             	mov    -0x24(%ebp),%edi
  10124d:	39 7d d4             	cmp    %edi,-0x2c(%ebp)
  101250:	77 42                	ja     101294 <interrupt_time_check+0x7c>
  101252:	8b 45 dc             	mov    -0x24(%ebp),%eax
  101255:	39 45 d4             	cmp    %eax,-0x2c(%ebp)
  101258:	72 08                	jb     101262 <interrupt_time_check+0x4a>
  10125a:	8b 55 d8             	mov    -0x28(%ebp),%edx
  10125d:	39 55 d0             	cmp    %edx,-0x30(%ebp)
  101260:	77 32                	ja     101294 <interrupt_time_check+0x7c>
      if (sleep->type==TIME_SLEEP) proc_wake(sleep->proc);
  101262:	8b 45 e8             	mov    -0x18(%ebp),%eax
  101265:	8b 00                	mov    (%eax),%eax
  101267:	85 c0                	test   %eax,%eax
  101269:	75 0e                	jne    101279 <interrupt_time_check+0x61>
  10126b:	8b 45 e8             	mov    -0x18(%ebp),%eax
  10126e:	8b 40 0c             	mov    0xc(%eax),%eax
  101271:	89 04 24             	mov    %eax,(%esp)
  101274:	e8 14 54 00 00       	call   10668d <proc_wake>
      llist_remove(interrupt_sleep,i);
  101279:	8b 15 80 e4 10 00    	mov    0x10e480,%edx
  10127f:	8b 45 ec             	mov    -0x14(%ebp),%eax
  101282:	89 44 24 04          	mov    %eax,0x4(%esp)
  101286:	89 14 24             	mov    %edx,(%esp)
  101289:	e8 cb 98 00 00       	call   10ab59 <llist_remove>
      i--;
  10128e:	83 6d ec 01          	subl   $0x1,-0x14(%ebp)
  101292:	eb 26                	jmp    1012ba <interrupt_time_check+0xa2>
    }
    else sleep->usec -= usec;
  101294:	8b 45 e8             	mov    -0x18(%ebp),%eax
  101297:	8b 48 04             	mov    0x4(%eax),%ecx
  10129a:	8b 58 08             	mov    0x8(%eax),%ebx
  10129d:	8b 45 08             	mov    0x8(%ebp),%eax
  1012a0:	ba 00 00 00 00       	mov    $0x0,%edx
  1012a5:	89 ce                	mov    %ecx,%esi
  1012a7:	89 df                	mov    %ebx,%edi
  1012a9:	29 c6                	sub    %eax,%esi
  1012ab:	19 d7                	sbb    %edx,%edi
  1012ad:	89 f0                	mov    %esi,%eax
  1012af:	89 fa                	mov    %edi,%edx
  1012b1:	8b 4d e8             	mov    -0x18(%ebp),%ecx
  1012b4:	89 41 04             	mov    %eax,0x4(%ecx)
  1012b7:	89 51 08             	mov    %edx,0x8(%ecx)
 *  @param usec Time since last check
 */
void interrupt_time_check(unsigned int usec) {
  interrupt_sleep_t *sleep;
  size_t i;
  for (i=0;(sleep = llist_get(interrupt_sleep,i));i++) {
  1012ba:	83 45 ec 01          	addl   $0x1,-0x14(%ebp)
  1012be:	a1 80 e4 10 00       	mov    0x10e480,%eax
  1012c3:	8b 55 ec             	mov    -0x14(%ebp),%edx
  1012c6:	89 54 24 04          	mov    %edx,0x4(%esp)
  1012ca:	89 04 24             	mov    %eax,(%esp)
  1012cd:	e8 b5 97 00 00       	call   10aa87 <llist_get>
  1012d2:	89 45 e8             	mov    %eax,-0x18(%ebp)
  1012d5:	83 7d e8 00          	cmpl   $0x0,-0x18(%ebp)
  1012d9:	0f 85 4e ff ff ff    	jne    10122d <interrupt_time_check+0x15>
      llist_remove(interrupt_sleep,i);
      i--;
    }
    else sleep->usec -= usec;
  }
}
  1012df:	83 c4 2c             	add    $0x2c,%esp
  1012e2:	5b                   	pop    %ebx
  1012e3:	5e                   	pop    %esi
  1012e4:	5f                   	pop    %edi
  1012e5:	5d                   	pop    %ebp
  1012e6:	c3                   	ret    

001012e7 <interrupt_time_getticks>:

/**
 * Gets number of ticks since boot
 *  @return Number of ticks
 */
clock_t interrupt_time_getticks() {
  1012e7:	55                   	push   %ebp
  1012e8:	89 e5                	mov    %esp,%ebp
  1012ea:	83 ec 08             	sub    $0x8,%esp
  return cpu_this->ticks;
  1012ed:	a1 54 e4 10 00       	mov    0x10e454,%eax
  1012f2:	c7 44 24 04 00 00 00 	movl   $0x0,0x4(%esp)
  1012f9:	00 
  1012fa:	89 04 24             	mov    %eax,(%esp)
  1012fd:	e8 85 97 00 00       	call   10aa87 <llist_get>
  101302:	8b 40 5c             	mov    0x5c(%eax),%eax
}
  101305:	c9                   	leave  
  101306:	c3                   	ret    

00101307 <interrupt_save_stack>:

uint32_t *interrupt_save_stack(uint32_t *stack,uint32_t *errorcode) {
  101307:	55                   	push   %ebp
  101308:	89 e5                	mov    %esp,%ebp
  interrupt_curregs.edi = stack++;
  10130a:	8b 45 08             	mov    0x8(%ebp),%eax
  10130d:	a3 34 e7 10 00       	mov    %eax,0x10e734
  101312:	83 45 08 04          	addl   $0x4,0x8(%ebp)
  interrupt_curregs.esi = stack++;
  101316:	8b 45 08             	mov    0x8(%ebp),%eax
  101319:	a3 30 e7 10 00       	mov    %eax,0x10e730
  10131e:	83 45 08 04          	addl   $0x4,0x8(%ebp)
  interrupt_curregs.ebp = stack++;
  101322:	8b 45 08             	mov    0x8(%ebp),%eax
  101325:	a3 38 e7 10 00       	mov    %eax,0x10e738
  10132a:	83 45 08 04          	addl   $0x4,0x8(%ebp)
  stack++; // esp
  10132e:	83 45 08 04          	addl   $0x4,0x8(%ebp)
  interrupt_curregs.ebx = stack++;
  101332:	8b 45 08             	mov    0x8(%ebp),%eax
  101335:	a3 24 e7 10 00       	mov    %eax,0x10e724
  10133a:	83 45 08 04          	addl   $0x4,0x8(%ebp)
  interrupt_curregs.edx = stack++;
  10133e:	8b 45 08             	mov    0x8(%ebp),%eax
  101341:	a3 2c e7 10 00       	mov    %eax,0x10e72c
  101346:	83 45 08 04          	addl   $0x4,0x8(%ebp)
  interrupt_curregs.ecx = stack++;
  10134a:	8b 45 08             	mov    0x8(%ebp),%eax
  10134d:	a3 28 e7 10 00       	mov    %eax,0x10e728
  101352:	83 45 08 04          	addl   $0x4,0x8(%ebp)
  interrupt_curregs.eax = stack++;
  101356:	8b 45 08             	mov    0x8(%ebp),%eax
  101359:	a3 20 e7 10 00       	mov    %eax,0x10e720
  10135e:	83 45 08 04          	addl   $0x4,0x8(%ebp)
  interrupt_curregs.ds = stack++;
  101362:	8b 45 08             	mov    0x8(%ebp),%eax
  101365:	a3 4c e7 10 00       	mov    %eax,0x10e74c
  10136a:	83 45 08 04          	addl   $0x4,0x8(%ebp)
  interrupt_curregs.es = stack++;
  10136e:	8b 45 08             	mov    0x8(%ebp),%eax
  101371:	a3 50 e7 10 00       	mov    %eax,0x10e750
  101376:	83 45 08 04          	addl   $0x4,0x8(%ebp)
  interrupt_curregs.fs = stack++;
  10137a:	8b 45 08             	mov    0x8(%ebp),%eax
  10137d:	a3 54 e7 10 00       	mov    %eax,0x10e754
  101382:	83 45 08 04          	addl   $0x4,0x8(%ebp)
  interrupt_curregs.gs = stack++;
  101386:	8b 45 08             	mov    0x8(%ebp),%eax
  101389:	a3 58 e7 10 00       	mov    %eax,0x10e758
  10138e:	83 45 08 04          	addl   $0x4,0x8(%ebp)
  if (errorcode!=NULL) *errorcode = *stack++; // error code
  101392:	83 7d 0c 00          	cmpl   $0x0,0xc(%ebp)
  101396:	74 10                	je     1013a8 <interrupt_save_stack+0xa1>
  101398:	8b 45 08             	mov    0x8(%ebp),%eax
  10139b:	8b 10                	mov    (%eax),%edx
  10139d:	8b 45 0c             	mov    0xc(%ebp),%eax
  1013a0:	89 10                	mov    %edx,(%eax)
  1013a2:	83 45 08 04          	addl   $0x4,0x8(%ebp)
  1013a6:	eb 04                	jmp    1013ac <interrupt_save_stack+0xa5>
  else stack++;
  1013a8:	83 45 08 04          	addl   $0x4,0x8(%ebp)
  interrupt_curregs.eip = stack++;
  1013ac:	8b 45 08             	mov    0x8(%ebp),%eax
  1013af:	a3 40 e7 10 00       	mov    %eax,0x10e740
  1013b4:	83 45 08 04          	addl   $0x4,0x8(%ebp)
  interrupt_curregs.cs = stack++;
  1013b8:	8b 45 08             	mov    0x8(%ebp),%eax
  1013bb:	a3 48 e7 10 00       	mov    %eax,0x10e748
  1013c0:	83 45 08 04          	addl   $0x4,0x8(%ebp)
  interrupt_curregs.efl = stack++;
  1013c4:	8b 45 08             	mov    0x8(%ebp),%eax
  1013c7:	a3 44 e7 10 00       	mov    %eax,0x10e744
  1013cc:	83 45 08 04          	addl   $0x4,0x8(%ebp)
  interrupt_curregs.esp = stack++;
  1013d0:	8b 45 08             	mov    0x8(%ebp),%eax
  1013d3:	a3 3c e7 10 00       	mov    %eax,0x10e73c
  1013d8:	83 45 08 04          	addl   $0x4,0x8(%ebp)
  interrupt_curregs.ss = stack++;
  1013dc:	8b 45 08             	mov    0x8(%ebp),%eax
  1013df:	a3 5c e7 10 00       	mov    %eax,0x10e75c
  1013e4:	83 45 08 04          	addl   $0x4,0x8(%ebp)
  vm86_curregs.es = stack++;
  1013e8:	8b 45 08             	mov    0x8(%ebp),%eax
  1013eb:	a3 a4 e1 10 00       	mov    %eax,0x10e1a4
  1013f0:	83 45 08 04          	addl   $0x4,0x8(%ebp)
  vm86_curregs.ds = stack++;
  1013f4:	8b 45 08             	mov    0x8(%ebp),%eax
  1013f7:	a3 a8 e1 10 00       	mov    %eax,0x10e1a8
  1013fc:	83 45 08 04          	addl   $0x4,0x8(%ebp)
  vm86_curregs.fs = stack++;
  101400:	8b 45 08             	mov    0x8(%ebp),%eax
  101403:	a3 ac e1 10 00       	mov    %eax,0x10e1ac
  101408:	83 45 08 04          	addl   $0x4,0x8(%ebp)
  vm86_curregs.gs = stack++;
  10140c:	8b 45 08             	mov    0x8(%ebp),%eax
  10140f:	a3 b0 e1 10 00       	mov    %eax,0x10e1b0
  101414:	83 45 08 04          	addl   $0x4,0x8(%ebp)
kprintf("ES:  0x%x\n",*interrupt_curregs.es);
kprintf("FS:  0x%x\n",*interrupt_curregs.fs);
kprintf("GS:  0x%x\n",*interrupt_curregs.gs);
kprintf("SS:  0x%x\n",*interrupt_curregs.ss);*/

  return stack;
  101418:	8b 45 08             	mov    0x8(%ebp),%eax
}
  10141b:	5d                   	pop    %ebp
  10141c:	c3                   	ret    
  10141d:	00 00                	add    %al,(%eax)
	...

00101420 <ioport_init>:

#include <sys/types.h>
#include <ioport.h>
#include <syscall.h>

int ioport_init() {
  101420:	55                   	push   %ebp
  101421:	89 e5                	mov    %esp,%ebp
  101423:	83 ec 18             	sub    $0x18,%esp
  iopb_general = malloc(IOPORT_MAXNUM/sizeof(*iopb_general));
  101426:	c7 04 24 00 40 00 00 	movl   $0x4000,(%esp)
  10142d:	e8 37 1b 00 00       	call   102f69 <malloc>
  101432:	a3 24 e9 10 00       	mov    %eax,0x10e924
  if (syscall_create(SYSCALL_IO_REG,ioport_reg,1)==-1) return -1;
  101437:	c7 44 24 08 01 00 00 	movl   $0x1,0x8(%esp)
  10143e:	00 
  10143f:	c7 44 24 04 97 14 10 	movl   $0x101497,0x4(%esp)
  101446:	00 
  101447:	c7 04 24 44 00 00 00 	movl   $0x44,(%esp)
  10144e:	e8 e7 89 00 00       	call   109e3a <syscall_create>
  101453:	83 f8 ff             	cmp    $0xffffffff,%eax
  101456:	75 09                	jne    101461 <ioport_init+0x41>
  101458:	c7 45 fc ff ff ff ff 	movl   $0xffffffff,-0x4(%ebp)
  10145f:	eb 31                	jmp    101492 <ioport_init+0x72>
  if (syscall_create(SYSCALL_IO_UNREG,ioport_unreg,1)==-1) return -1;
  101461:	c7 44 24 08 01 00 00 	movl   $0x1,0x8(%esp)
  101468:	00 
  101469:	c7 44 24 04 a1 14 10 	movl   $0x1014a1,0x4(%esp)
  101470:	00 
  101471:	c7 04 24 45 00 00 00 	movl   $0x45,(%esp)
  101478:	e8 bd 89 00 00       	call   109e3a <syscall_create>
  10147d:	83 f8 ff             	cmp    $0xffffffff,%eax
  101480:	75 09                	jne    10148b <ioport_init+0x6b>
  101482:	c7 45 fc ff ff ff ff 	movl   $0xffffffff,-0x4(%ebp)
  101489:	eb 07                	jmp    101492 <ioport_init+0x72>
  return 0;
  10148b:	c7 45 fc 00 00 00 00 	movl   $0x0,-0x4(%ebp)
  101492:	8b 45 fc             	mov    -0x4(%ebp),%eax
}
  101495:	c9                   	leave  
  101496:	c3                   	ret    

00101497 <ioport_reg>:

int ioport_reg(unsigned int port) {
  101497:	55                   	push   %ebp
  101498:	89 e5                	mov    %esp,%ebp
  if (proc_current->iopb==NULL) return -EPERM;
  if (IOPORT_ISREG(iopb_general,port)) return -EEXIST;

  IOPORT_REG(iopb_general,port);
  IOPORT_REG(proc_current->iopb,port);*/
  return 0;
  10149a:	b8 00 00 00 00       	mov    $0x0,%eax
}
  10149f:	5d                   	pop    %ebp
  1014a0:	c3                   	ret    

001014a1 <ioport_unreg>:

int ioport_unreg(unsigned int port) {
  1014a1:	55                   	push   %ebp
  1014a2:	89 e5                	mov    %esp,%ebp
  if (proc_current->iopb==NULL) return -EPERM;
  if (!IOPORT_ISREG(proc_current->iopb,port)) return -EPERM;

  IOPORT_UNREG(iopb_general,port);
  IOPORT_UNREG(proc_current->iopb,port);*/
  return 0;
  1014a4:	b8 00 00 00 00       	mov    $0x0,%eax
}
  1014a9:	5d                   	pop    %ebp
  1014aa:	c3                   	ret    
	...

001014ac <ipc_init>:

/**
 * Initializes IPC
 *  @return Success?
 */
int ipc_init() {
  1014ac:	55                   	push   %ebp
  1014ad:	89 e5                	mov    %esp,%ebp
  1014af:	83 ec 08             	sub    $0x8,%esp
  ipc_objects = llist_create();
  1014b2:	e8 1d 94 00 00       	call   10a8d4 <llist_create>
  1014b7:	a3 90 e1 10 00       	mov    %eax,0x10e190
  ipc_lastid = 0;
  1014bc:	c7 05 98 e1 10 00 00 	movl   $0x0,0x10e198
  1014c3:	00 00 00 
  if (ipc_msg_init()==-1) return -1;
  1014c6:	e8 69 30 00 00       	call   104534 <ipc_msg_init>
  1014cb:	83 f8 ff             	cmp    $0xffffffff,%eax
  1014ce:	75 09                	jne    1014d9 <ipc_init+0x2d>
  1014d0:	c7 45 fc ff ff ff ff 	movl   $0xffffffff,-0x4(%ebp)
  1014d7:	eb 2d                	jmp    101506 <ipc_init+0x5a>
  if (ipc_sem_init()==-1) return -1;
  1014d9:	e8 06 6b 00 00       	call   107fe4 <ipc_sem_init>
  1014de:	83 f8 ff             	cmp    $0xffffffff,%eax
  1014e1:	75 09                	jne    1014ec <ipc_init+0x40>
  1014e3:	c7 45 fc ff ff ff ff 	movl   $0xffffffff,-0x4(%ebp)
  1014ea:	eb 1a                	jmp    101506 <ipc_init+0x5a>
  if (ipc_shm_init()==-1) return -1;
  1014ec:	e8 6b 7b 00 00       	call   10905c <ipc_shm_init>
  1014f1:	83 f8 ff             	cmp    $0xffffffff,%eax
  1014f4:	75 09                	jne    1014ff <ipc_init+0x53>
  1014f6:	c7 45 fc ff ff ff ff 	movl   $0xffffffff,-0x4(%ebp)
  1014fd:	eb 07                	jmp    101506 <ipc_init+0x5a>
  return 0;
  1014ff:	c7 45 fc 00 00 00 00 	movl   $0x0,-0x4(%ebp)
  101506:	8b 45 fc             	mov    -0x4(%ebp),%eax
}
  101509:	c9                   	leave  
  10150a:	c3                   	ret    

0010150b <ipc_find>:
 * Finds an IPC object
 *  @param key IPC Key
 *  @param id IPC object's ID
 *  @return IPC object
 */
void *ipc_find(key_t key,id_t id,int type) {
  10150b:	55                   	push   %ebp
  10150c:	89 e5                	mov    %esp,%ebp
  10150e:	83 ec 28             	sub    $0x28,%esp
  size_t i;
  ipc_obj_t *ipc;
  for (i=0;(ipc = llist_get(ipc_objects,i));i++) {
  101511:	c7 45 f8 00 00 00 00 	movl   $0x0,-0x8(%ebp)
  101518:	eb 38                	jmp    101552 <ipc_find+0x47>
    if (ipc->type==type) {
  10151a:	8b 45 fc             	mov    -0x4(%ebp),%eax
  10151d:	8b 00                	mov    (%eax),%eax
  10151f:	3b 45 10             	cmp    0x10(%ebp),%eax
  101522:	75 2a                	jne    10154e <ipc_find+0x43>
      if ((ipc->key==key || key==-1) && (ipc->id==id || id==-1)) return ipc;
  101524:	8b 45 fc             	mov    -0x4(%ebp),%eax
  101527:	8b 40 08             	mov    0x8(%eax),%eax
  10152a:	3b 45 08             	cmp    0x8(%ebp),%eax
  10152d:	74 06                	je     101535 <ipc_find+0x2a>
  10152f:	83 7d 08 ff          	cmpl   $0xffffffff,0x8(%ebp)
  101533:	75 19                	jne    10154e <ipc_find+0x43>
  101535:	8b 45 fc             	mov    -0x4(%ebp),%eax
  101538:	8b 40 04             	mov    0x4(%eax),%eax
  10153b:	3b 45 0c             	cmp    0xc(%ebp),%eax
  10153e:	74 06                	je     101546 <ipc_find+0x3b>
  101540:	83 7d 0c ff          	cmpl   $0xffffffff,0xc(%ebp)
  101544:	75 08                	jne    10154e <ipc_find+0x43>
  101546:	8b 45 fc             	mov    -0x4(%ebp),%eax
  101549:	89 45 ec             	mov    %eax,-0x14(%ebp)
  10154c:	eb 28                	jmp    101576 <ipc_find+0x6b>
 *  @return IPC object
 */
void *ipc_find(key_t key,id_t id,int type) {
  size_t i;
  ipc_obj_t *ipc;
  for (i=0;(ipc = llist_get(ipc_objects,i));i++) {
  10154e:	83 45 f8 01          	addl   $0x1,-0x8(%ebp)
  101552:	a1 90 e1 10 00       	mov    0x10e190,%eax
  101557:	8b 55 f8             	mov    -0x8(%ebp),%edx
  10155a:	89 54 24 04          	mov    %edx,0x4(%esp)
  10155e:	89 04 24             	mov    %eax,(%esp)
  101561:	e8 21 95 00 00       	call   10aa87 <llist_get>
  101566:	89 45 fc             	mov    %eax,-0x4(%ebp)
  101569:	83 7d fc 00          	cmpl   $0x0,-0x4(%ebp)
  10156d:	75 ab                	jne    10151a <ipc_find+0xf>
    if (ipc->type==type) {
      if ((ipc->key==key || key==-1) && (ipc->id==id || id==-1)) return ipc;
    }
  }
  return NULL;
  10156f:	c7 45 ec 00 00 00 00 	movl   $0x0,-0x14(%ebp)
  101576:	8b 45 ec             	mov    -0x14(%ebp),%eax
}
  101579:	c9                   	leave  
  10157a:	c3                   	ret    
  10157b:	00 00                	add    %al,(%eax)
  10157d:	00 00                	add    %al,(%eax)
	...

00101580 <reg_eax>:
  101580:	00 00                	add    %al,(%eax)
	...

00101584 <reg_eip>:
  101584:	00 00                	add    %al,(%eax)
	...

00101588 <reg_esp>:
  101588:	00 00                	add    %al,(%eax)
	...

0010158c <reg_efl>:
  10158c:	00 00                	add    %al,(%eax)
	...

00101590 <reg_cs>:
	...

00101592 <reg_ds>:
	...

00101594 <reg_ss>:
	...

00101596 <reg_kernelesp>:
  101596:	00 00                	add    %al,(%eax)
	...

0010159a <isr_uselapic>:
  10159a:	00 00 00 00                                         ....

0010159e <isr>:
  10159e:	a2 15 10 00                                         ....

001015a2 <isr_table>:
  1015a2:	82                   	(bad)  
  1015a3:	16                   	push   %ss
  1015a4:	10 00                	adc    %al,(%eax)
  1015a6:	ad                   	lods   %ds:(%esi),%eax
  1015a7:	16                   	push   %ss
  1015a8:	10 00                	adc    %al,(%eax)
  1015aa:	d8 16                	fcoms  (%esi)
  1015ac:	10 00                	adc    %al,(%eax)
  1015ae:	03 17                	add    (%edi),%edx
  1015b0:	10 00                	adc    %al,(%eax)
  1015b2:	2e                   	cs
  1015b3:	17                   	pop    %ss
  1015b4:	10 00                	adc    %al,(%eax)
  1015b6:	59                   	pop    %ecx
  1015b7:	17                   	pop    %ss
  1015b8:	10 00                	adc    %al,(%eax)
  1015ba:	84 17                	test   %dl,(%edi)
  1015bc:	10 00                	adc    %al,(%eax)
  1015be:	af                   	scas   %es:(%edi),%eax
  1015bf:	17                   	pop    %ss
  1015c0:	10 00                	adc    %al,(%eax)
  1015c2:	da 17                	ficoml (%edi)
  1015c4:	10 00                	adc    %al,(%eax)
  1015c6:	00 18                	add    %bl,(%eax)
  1015c8:	10 00                	adc    %al,(%eax)
  1015ca:	2b 18                	sub    (%eax),%ebx
  1015cc:	10 00                	adc    %al,(%eax)
  1015ce:	51                   	push   %ecx
  1015cf:	18 10                	sbb    %dl,(%eax)
  1015d1:	00 77 18             	add    %dh,0x18(%edi)
  1015d4:	10 00                	adc    %al,(%eax)
  1015d6:	9d                   	popf   
  1015d7:	18 10                	sbb    %dl,(%eax)
  1015d9:	00 c3                	add    %al,%bl
  1015db:	18 10                	sbb    %dl,(%eax)
  1015dd:	00 e9                	add    %ch,%cl
  1015df:	18 10                	sbb    %dl,(%eax)
  1015e1:	00 14 19             	add    %dl,(%ecx,%ebx,1)
  1015e4:	10 00                	adc    %al,(%eax)
  1015e6:	3f                   	aas    
  1015e7:	19 10                	sbb    %edx,(%eax)
  1015e9:	00 6a 19             	add    %ch,0x19(%edx)
  1015ec:	10 00                	adc    %al,(%eax)
  1015ee:	95                   	xchg   %eax,%ebp
  1015ef:	19 10                	sbb    %edx,(%eax)
  1015f1:	00 c0                	add    %al,%al
  1015f3:	19 10                	sbb    %edx,(%eax)
  1015f5:	00 eb                	add    %ch,%bl
  1015f7:	19 10                	sbb    %edx,(%eax)
  1015f9:	00 16                	add    %dl,(%esi)
  1015fb:	1a 10                	sbb    (%eax),%dl
  1015fd:	00 41 1a             	add    %al,0x1a(%ecx)
  101600:	10 00                	adc    %al,(%eax)
  101602:	6c                   	insb   (%dx),%es:(%edi)
  101603:	1a 10                	sbb    (%eax),%dl
  101605:	00 97 1a 10 00 c2    	add    %dl,-0x3dffefe6(%edi)
  10160b:	1a 10                	sbb    (%eax),%dl
  10160d:	00 ed                	add    %ch,%ch
  10160f:	1a 10                	sbb    (%eax),%dl
  101611:	00 18                	add    %bl,(%eax)
  101613:	1b 10                	sbb    (%eax),%edx
  101615:	00 43 1b             	add    %al,0x1b(%ebx)
  101618:	10 00                	adc    %al,(%eax)
  10161a:	6e                   	outsb  %ds:(%esi),(%dx)
  10161b:	1b 10                	sbb    (%eax),%edx
  10161d:	00 99 1b 10 00 c4    	add    %bl,-0x3bffefe5(%ecx)
  101623:	1b 10                	sbb    (%eax),%edx
  101625:	00 db                	add    %bl,%bl
  101627:	1b 10                	sbb    (%eax),%edx
  101629:	00 06                	add    %al,(%esi)
  10162b:	1c 10                	sbb    $0x10,%al
  10162d:	00 31                	add    %dh,(%ecx)
  10162f:	1c 10                	sbb    $0x10,%al
  101631:	00 5c 1c 10          	add    %bl,0x10(%esp,%ebx,1)
  101635:	00 87 1c 10 00 b2    	add    %al,-0x4dffefe4(%edi)
  10163b:	1c 10                	sbb    $0x10,%al
  10163d:	00 dd                	add    %bl,%ch
  10163f:	1c 10                	sbb    $0x10,%al
  101641:	00 08                	add    %cl,(%eax)
  101643:	1d 10 00 33 1d       	sbb    $0x1d330010,%eax
  101648:	10 00                	adc    %al,(%eax)
  10164a:	5e                   	pop    %esi
  10164b:	1d 10 00 89 1d       	sbb    $0x1d890010,%eax
  101650:	10 00                	adc    %al,(%eax)
  101652:	b4 1d                	mov    $0x1d,%ah
  101654:	10 00                	adc    %al,(%eax)
  101656:	df 1d 10 00 0a 1e    	fistp  0x1e0a0010
  10165c:	10 00                	adc    %al,(%eax)
  10165e:	35 1e 10 00 60       	xor    $0x6000101e,%eax
  101663:	1e                   	push   %ds
  101664:	10 00                	adc    %al,(%eax)
  101666:	8b 1e                	mov    (%esi),%ebx
  101668:	10 00                	adc    %al,(%eax)
  10166a:	b6 1e                	mov    $0x1e,%dh
  10166c:	10 00                	adc    %al,(%eax)
  10166e:	e1 1e                	loope  10168e <isr00+0xc>
  101670:	10 00                	adc    %al,(%eax)
  101672:	0c 1f                	or     $0x1f,%al
  101674:	10 00                	adc    %al,(%eax)
  101676:	37                   	aaa    
  101677:	1f                   	pop    %ds
  101678:	10 00                	adc    %al,(%eax)
  10167a:	62 1f                	bound  %ebx,(%edi)
  10167c:	10 00                	adc    %al,(%eax)
  10167e:	8d 1f                	lea    (%edi),%ebx
  101680:	10 00                	adc    %al,(%eax)

00101682 <isr00>:
  101682:	68 00 00 00 00       	push   $0x0
  101687:	1e                   	push   %ds
  101688:	06                   	push   %es
  101689:	0f a0                	push   %fs
  10168b:	0f a8                	push   %gs
  10168d:	60                   	pusha  
  10168e:	54                   	push   %esp
  10168f:	68 00 00 00 00       	push   $0x0
  101694:	e8 3c f4 ff ff       	call   100ad5 <interrupt_handler>
  101699:	81 c4 08 00 00 00    	add    $0x8,%esp
  10169f:	61                   	popa   
  1016a0:	1f                   	pop    %ds
  1016a1:	07                   	pop    %es
  1016a2:	0f a1                	pop    %fs
  1016a4:	0f a9                	pop    %gs
  1016a6:	81 c4 04 00 00 00    	add    $0x4,%esp
  1016ac:	cf                   	iret   

001016ad <isr01>:
  1016ad:	68 00 00 00 00       	push   $0x0
  1016b2:	1e                   	push   %ds
  1016b3:	06                   	push   %es
  1016b4:	0f a0                	push   %fs
  1016b6:	0f a8                	push   %gs
  1016b8:	60                   	pusha  
  1016b9:	54                   	push   %esp
  1016ba:	68 01 00 00 00       	push   $0x1
  1016bf:	e8 11 f4 ff ff       	call   100ad5 <interrupt_handler>
  1016c4:	81 c4 08 00 00 00    	add    $0x8,%esp
  1016ca:	61                   	popa   
  1016cb:	1f                   	pop    %ds
  1016cc:	07                   	pop    %es
  1016cd:	0f a1                	pop    %fs
  1016cf:	0f a9                	pop    %gs
  1016d1:	81 c4 04 00 00 00    	add    $0x4,%esp
  1016d7:	cf                   	iret   

001016d8 <isr02>:
  1016d8:	68 00 00 00 00       	push   $0x0
  1016dd:	1e                   	push   %ds
  1016de:	06                   	push   %es
  1016df:	0f a0                	push   %fs
  1016e1:	0f a8                	push   %gs
  1016e3:	60                   	pusha  
  1016e4:	54                   	push   %esp
  1016e5:	68 02 00 00 00       	push   $0x2
  1016ea:	e8 e6 f3 ff ff       	call   100ad5 <interrupt_handler>
  1016ef:	81 c4 08 00 00 00    	add    $0x8,%esp
  1016f5:	61                   	popa   
  1016f6:	1f                   	pop    %ds
  1016f7:	07                   	pop    %es
  1016f8:	0f a1                	pop    %fs
  1016fa:	0f a9                	pop    %gs
  1016fc:	81 c4 04 00 00 00    	add    $0x4,%esp
  101702:	cf                   	iret   

00101703 <isr03>:
  101703:	68 00 00 00 00       	push   $0x0
  101708:	1e                   	push   %ds
  101709:	06                   	push   %es
  10170a:	0f a0                	push   %fs
  10170c:	0f a8                	push   %gs
  10170e:	60                   	pusha  
  10170f:	54                   	push   %esp
  101710:	68 03 00 00 00       	push   $0x3
  101715:	e8 bb f3 ff ff       	call   100ad5 <interrupt_handler>
  10171a:	81 c4 08 00 00 00    	add    $0x8,%esp
  101720:	61                   	popa   
  101721:	1f                   	pop    %ds
  101722:	07                   	pop    %es
  101723:	0f a1                	pop    %fs
  101725:	0f a9                	pop    %gs
  101727:	81 c4 04 00 00 00    	add    $0x4,%esp
  10172d:	cf                   	iret   

0010172e <isr04>:
  10172e:	68 00 00 00 00       	push   $0x0
  101733:	1e                   	push   %ds
  101734:	06                   	push   %es
  101735:	0f a0                	push   %fs
  101737:	0f a8                	push   %gs
  101739:	60                   	pusha  
  10173a:	54                   	push   %esp
  10173b:	68 04 00 00 00       	push   $0x4
  101740:	e8 90 f3 ff ff       	call   100ad5 <interrupt_handler>
  101745:	81 c4 08 00 00 00    	add    $0x8,%esp
  10174b:	61                   	popa   
  10174c:	1f                   	pop    %ds
  10174d:	07                   	pop    %es
  10174e:	0f a1                	pop    %fs
  101750:	0f a9                	pop    %gs
  101752:	81 c4 04 00 00 00    	add    $0x4,%esp
  101758:	cf                   	iret   

00101759 <isr05>:
  101759:	68 00 00 00 00       	push   $0x0
  10175e:	1e                   	push   %ds
  10175f:	06                   	push   %es
  101760:	0f a0                	push   %fs
  101762:	0f a8                	push   %gs
  101764:	60                   	pusha  
  101765:	54                   	push   %esp
  101766:	68 05 00 00 00       	push   $0x5
  10176b:	e8 65 f3 ff ff       	call   100ad5 <interrupt_handler>
  101770:	81 c4 08 00 00 00    	add    $0x8,%esp
  101776:	61                   	popa   
  101777:	1f                   	pop    %ds
  101778:	07                   	pop    %es
  101779:	0f a1                	pop    %fs
  10177b:	0f a9                	pop    %gs
  10177d:	81 c4 04 00 00 00    	add    $0x4,%esp
  101783:	cf                   	iret   

00101784 <isr06>:
  101784:	68 00 00 00 00       	push   $0x0
  101789:	1e                   	push   %ds
  10178a:	06                   	push   %es
  10178b:	0f a0                	push   %fs
  10178d:	0f a8                	push   %gs
  10178f:	60                   	pusha  
  101790:	54                   	push   %esp
  101791:	68 06 00 00 00       	push   $0x6
  101796:	e8 3a f3 ff ff       	call   100ad5 <interrupt_handler>
  10179b:	81 c4 08 00 00 00    	add    $0x8,%esp
  1017a1:	61                   	popa   
  1017a2:	1f                   	pop    %ds
  1017a3:	07                   	pop    %es
  1017a4:	0f a1                	pop    %fs
  1017a6:	0f a9                	pop    %gs
  1017a8:	81 c4 04 00 00 00    	add    $0x4,%esp
  1017ae:	cf                   	iret   

001017af <isr07>:
  1017af:	68 00 00 00 00       	push   $0x0
  1017b4:	1e                   	push   %ds
  1017b5:	06                   	push   %es
  1017b6:	0f a0                	push   %fs
  1017b8:	0f a8                	push   %gs
  1017ba:	60                   	pusha  
  1017bb:	54                   	push   %esp
  1017bc:	68 07 00 00 00       	push   $0x7
  1017c1:	e8 0f f3 ff ff       	call   100ad5 <interrupt_handler>
  1017c6:	81 c4 08 00 00 00    	add    $0x8,%esp
  1017cc:	61                   	popa   
  1017cd:	1f                   	pop    %ds
  1017ce:	07                   	pop    %es
  1017cf:	0f a1                	pop    %fs
  1017d1:	0f a9                	pop    %gs
  1017d3:	81 c4 04 00 00 00    	add    $0x4,%esp
  1017d9:	cf                   	iret   

001017da <isr08>:
  1017da:	1e                   	push   %ds
  1017db:	06                   	push   %es
  1017dc:	0f a0                	push   %fs
  1017de:	0f a8                	push   %gs
  1017e0:	60                   	pusha  
  1017e1:	54                   	push   %esp
  1017e2:	68 08 00 00 00       	push   $0x8
  1017e7:	e8 e9 f2 ff ff       	call   100ad5 <interrupt_handler>
  1017ec:	81 c4 08 00 00 00    	add    $0x8,%esp
  1017f2:	61                   	popa   
  1017f3:	1f                   	pop    %ds
  1017f4:	07                   	pop    %es
  1017f5:	0f a1                	pop    %fs
  1017f7:	0f a9                	pop    %gs
  1017f9:	81 c4 04 00 00 00    	add    $0x4,%esp
  1017ff:	cf                   	iret   

00101800 <isr09>:
  101800:	68 00 00 00 00       	push   $0x0
  101805:	1e                   	push   %ds
  101806:	06                   	push   %es
  101807:	0f a0                	push   %fs
  101809:	0f a8                	push   %gs
  10180b:	60                   	pusha  
  10180c:	54                   	push   %esp
  10180d:	68 09 00 00 00       	push   $0x9
  101812:	e8 be f2 ff ff       	call   100ad5 <interrupt_handler>
  101817:	81 c4 08 00 00 00    	add    $0x8,%esp
  10181d:	61                   	popa   
  10181e:	1f                   	pop    %ds
  10181f:	07                   	pop    %es
  101820:	0f a1                	pop    %fs
  101822:	0f a9                	pop    %gs
  101824:	81 c4 04 00 00 00    	add    $0x4,%esp
  10182a:	cf                   	iret   

0010182b <isr0A>:
  10182b:	1e                   	push   %ds
  10182c:	06                   	push   %es
  10182d:	0f a0                	push   %fs
  10182f:	0f a8                	push   %gs
  101831:	60                   	pusha  
  101832:	54                   	push   %esp
  101833:	68 0a 00 00 00       	push   $0xa
  101838:	e8 98 f2 ff ff       	call   100ad5 <interrupt_handler>
  10183d:	81 c4 08 00 00 00    	add    $0x8,%esp
  101843:	61                   	popa   
  101844:	1f                   	pop    %ds
  101845:	07                   	pop    %es
  101846:	0f a1                	pop    %fs
  101848:	0f a9                	pop    %gs
  10184a:	81 c4 04 00 00 00    	add    $0x4,%esp
  101850:	cf                   	iret   

00101851 <isr0B>:
  101851:	1e                   	push   %ds
  101852:	06                   	push   %es
  101853:	0f a0                	push   %fs
  101855:	0f a8                	push   %gs
  101857:	60                   	pusha  
  101858:	54                   	push   %esp
  101859:	68 0b 00 00 00       	push   $0xb
  10185e:	e8 72 f2 ff ff       	call   100ad5 <interrupt_handler>
  101863:	81 c4 08 00 00 00    	add    $0x8,%esp
  101869:	61                   	popa   
  10186a:	1f                   	pop    %ds
  10186b:	07                   	pop    %es
  10186c:	0f a1                	pop    %fs
  10186e:	0f a9                	pop    %gs
  101870:	81 c4 04 00 00 00    	add    $0x4,%esp
  101876:	cf                   	iret   

00101877 <isr0C>:
  101877:	1e                   	push   %ds
  101878:	06                   	push   %es
  101879:	0f a0                	push   %fs
  10187b:	0f a8                	push   %gs
  10187d:	60                   	pusha  
  10187e:	54                   	push   %esp
  10187f:	68 0c 00 00 00       	push   $0xc
  101884:	e8 4c f2 ff ff       	call   100ad5 <interrupt_handler>
  101889:	81 c4 08 00 00 00    	add    $0x8,%esp
  10188f:	61                   	popa   
  101890:	1f                   	pop    %ds
  101891:	07                   	pop    %es
  101892:	0f a1                	pop    %fs
  101894:	0f a9                	pop    %gs
  101896:	81 c4 04 00 00 00    	add    $0x4,%esp
  10189c:	cf                   	iret   

0010189d <isr0D>:
  10189d:	1e                   	push   %ds
  10189e:	06                   	push   %es
  10189f:	0f a0                	push   %fs
  1018a1:	0f a8                	push   %gs
  1018a3:	60                   	pusha  
  1018a4:	54                   	push   %esp
  1018a5:	68 0d 00 00 00       	push   $0xd
  1018aa:	e8 26 f2 ff ff       	call   100ad5 <interrupt_handler>
  1018af:	81 c4 08 00 00 00    	add    $0x8,%esp
  1018b5:	61                   	popa   
  1018b6:	1f                   	pop    %ds
  1018b7:	07                   	pop    %es
  1018b8:	0f a1                	pop    %fs
  1018ba:	0f a9                	pop    %gs
  1018bc:	81 c4 04 00 00 00    	add    $0x4,%esp
  1018c2:	cf                   	iret   

001018c3 <isr0E>:
  1018c3:	1e                   	push   %ds
  1018c4:	06                   	push   %es
  1018c5:	0f a0                	push   %fs
  1018c7:	0f a8                	push   %gs
  1018c9:	60                   	pusha  
  1018ca:	54                   	push   %esp
  1018cb:	68 0e 00 00 00       	push   $0xe
  1018d0:	e8 00 f2 ff ff       	call   100ad5 <interrupt_handler>
  1018d5:	81 c4 08 00 00 00    	add    $0x8,%esp
  1018db:	61                   	popa   
  1018dc:	1f                   	pop    %ds
  1018dd:	07                   	pop    %es
  1018de:	0f a1                	pop    %fs
  1018e0:	0f a9                	pop    %gs
  1018e2:	81 c4 04 00 00 00    	add    $0x4,%esp
  1018e8:	cf                   	iret   

001018e9 <isr0F>:
  1018e9:	68 00 00 00 00       	push   $0x0
  1018ee:	1e                   	push   %ds
  1018ef:	06                   	push   %es
  1018f0:	0f a0                	push   %fs
  1018f2:	0f a8                	push   %gs
  1018f4:	60                   	pusha  
  1018f5:	54                   	push   %esp
  1018f6:	68 0f 00 00 00       	push   $0xf
  1018fb:	e8 d5 f1 ff ff       	call   100ad5 <interrupt_handler>
  101900:	81 c4 08 00 00 00    	add    $0x8,%esp
  101906:	61                   	popa   
  101907:	1f                   	pop    %ds
  101908:	07                   	pop    %es
  101909:	0f a1                	pop    %fs
  10190b:	0f a9                	pop    %gs
  10190d:	81 c4 04 00 00 00    	add    $0x4,%esp
  101913:	cf                   	iret   

00101914 <isr10>:
  101914:	68 00 00 00 00       	push   $0x0
  101919:	1e                   	push   %ds
  10191a:	06                   	push   %es
  10191b:	0f a0                	push   %fs
  10191d:	0f a8                	push   %gs
  10191f:	60                   	pusha  
  101920:	54                   	push   %esp
  101921:	68 10 00 00 00       	push   $0x10
  101926:	e8 aa f1 ff ff       	call   100ad5 <interrupt_handler>
  10192b:	81 c4 08 00 00 00    	add    $0x8,%esp
  101931:	61                   	popa   
  101932:	1f                   	pop    %ds
  101933:	07                   	pop    %es
  101934:	0f a1                	pop    %fs
  101936:	0f a9                	pop    %gs
  101938:	81 c4 04 00 00 00    	add    $0x4,%esp
  10193e:	cf                   	iret   

0010193f <isr11>:
  10193f:	68 00 00 00 00       	push   $0x0
  101944:	1e                   	push   %ds
  101945:	06                   	push   %es
  101946:	0f a0                	push   %fs
  101948:	0f a8                	push   %gs
  10194a:	60                   	pusha  
  10194b:	54                   	push   %esp
  10194c:	68 11 00 00 00       	push   $0x11
  101951:	e8 7f f1 ff ff       	call   100ad5 <interrupt_handler>
  101956:	81 c4 08 00 00 00    	add    $0x8,%esp
  10195c:	61                   	popa   
  10195d:	1f                   	pop    %ds
  10195e:	07                   	pop    %es
  10195f:	0f a1                	pop    %fs
  101961:	0f a9                	pop    %gs
  101963:	81 c4 04 00 00 00    	add    $0x4,%esp
  101969:	cf                   	iret   

0010196a <isr12>:
  10196a:	68 00 00 00 00       	push   $0x0
  10196f:	1e                   	push   %ds
  101970:	06                   	push   %es
  101971:	0f a0                	push   %fs
  101973:	0f a8                	push   %gs
  101975:	60                   	pusha  
  101976:	54                   	push   %esp
  101977:	68 12 00 00 00       	push   $0x12
  10197c:	e8 54 f1 ff ff       	call   100ad5 <interrupt_handler>
  101981:	81 c4 08 00 00 00    	add    $0x8,%esp
  101987:	61                   	popa   
  101988:	1f                   	pop    %ds
  101989:	07                   	pop    %es
  10198a:	0f a1                	pop    %fs
  10198c:	0f a9                	pop    %gs
  10198e:	81 c4 04 00 00 00    	add    $0x4,%esp
  101994:	cf                   	iret   

00101995 <isr13>:
  101995:	68 00 00 00 00       	push   $0x0
  10199a:	1e                   	push   %ds
  10199b:	06                   	push   %es
  10199c:	0f a0                	push   %fs
  10199e:	0f a8                	push   %gs
  1019a0:	60                   	pusha  
  1019a1:	54                   	push   %esp
  1019a2:	68 13 00 00 00       	push   $0x13
  1019a7:	e8 29 f1 ff ff       	call   100ad5 <interrupt_handler>
  1019ac:	81 c4 08 00 00 00    	add    $0x8,%esp
  1019b2:	61                   	popa   
  1019b3:	1f                   	pop    %ds
  1019b4:	07                   	pop    %es
  1019b5:	0f a1                	pop    %fs
  1019b7:	0f a9                	pop    %gs
  1019b9:	81 c4 04 00 00 00    	add    $0x4,%esp
  1019bf:	cf                   	iret   

001019c0 <isr14>:
  1019c0:	68 00 00 00 00       	push   $0x0
  1019c5:	1e                   	push   %ds
  1019c6:	06                   	push   %es
  1019c7:	0f a0                	push   %fs
  1019c9:	0f a8                	push   %gs
  1019cb:	60                   	pusha  
  1019cc:	54                   	push   %esp
  1019cd:	68 14 00 00 00       	push   $0x14
  1019d2:	e8 fe f0 ff ff       	call   100ad5 <interrupt_handler>
  1019d7:	81 c4 08 00 00 00    	add    $0x8,%esp
  1019dd:	61                   	popa   
  1019de:	1f                   	pop    %ds
  1019df:	07                   	pop    %es
  1019e0:	0f a1                	pop    %fs
  1019e2:	0f a9                	pop    %gs
  1019e4:	81 c4 04 00 00 00    	add    $0x4,%esp
  1019ea:	cf                   	iret   

001019eb <isr15>:
  1019eb:	68 00 00 00 00       	push   $0x0
  1019f0:	1e                   	push   %ds
  1019f1:	06                   	push   %es
  1019f2:	0f a0                	push   %fs
  1019f4:	0f a8                	push   %gs
  1019f6:	60                   	pusha  
  1019f7:	54                   	push   %esp
  1019f8:	68 15 00 00 00       	push   $0x15
  1019fd:	e8 d3 f0 ff ff       	call   100ad5 <interrupt_handler>
  101a02:	81 c4 08 00 00 00    	add    $0x8,%esp
  101a08:	61                   	popa   
  101a09:	1f                   	pop    %ds
  101a0a:	07                   	pop    %es
  101a0b:	0f a1                	pop    %fs
  101a0d:	0f a9                	pop    %gs
  101a0f:	81 c4 04 00 00 00    	add    $0x4,%esp
  101a15:	cf                   	iret   

00101a16 <isr16>:
  101a16:	68 00 00 00 00       	push   $0x0
  101a1b:	1e                   	push   %ds
  101a1c:	06                   	push   %es
  101a1d:	0f a0                	push   %fs
  101a1f:	0f a8                	push   %gs
  101a21:	60                   	pusha  
  101a22:	54                   	push   %esp
  101a23:	68 16 00 00 00       	push   $0x16
  101a28:	e8 a8 f0 ff ff       	call   100ad5 <interrupt_handler>
  101a2d:	81 c4 08 00 00 00    	add    $0x8,%esp
  101a33:	61                   	popa   
  101a34:	1f                   	pop    %ds
  101a35:	07                   	pop    %es
  101a36:	0f a1                	pop    %fs
  101a38:	0f a9                	pop    %gs
  101a3a:	81 c4 04 00 00 00    	add    $0x4,%esp
  101a40:	cf                   	iret   

00101a41 <isr17>:
  101a41:	68 00 00 00 00       	push   $0x0
  101a46:	1e                   	push   %ds
  101a47:	06                   	push   %es
  101a48:	0f a0                	push   %fs
  101a4a:	0f a8                	push   %gs
  101a4c:	60                   	pusha  
  101a4d:	54                   	push   %esp
  101a4e:	68 17 00 00 00       	push   $0x17
  101a53:	e8 7d f0 ff ff       	call   100ad5 <interrupt_handler>
  101a58:	81 c4 08 00 00 00    	add    $0x8,%esp
  101a5e:	61                   	popa   
  101a5f:	1f                   	pop    %ds
  101a60:	07                   	pop    %es
  101a61:	0f a1                	pop    %fs
  101a63:	0f a9                	pop    %gs
  101a65:	81 c4 04 00 00 00    	add    $0x4,%esp
  101a6b:	cf                   	iret   

00101a6c <isr18>:
  101a6c:	68 00 00 00 00       	push   $0x0
  101a71:	1e                   	push   %ds
  101a72:	06                   	push   %es
  101a73:	0f a0                	push   %fs
  101a75:	0f a8                	push   %gs
  101a77:	60                   	pusha  
  101a78:	54                   	push   %esp
  101a79:	68 18 00 00 00       	push   $0x18
  101a7e:	e8 52 f0 ff ff       	call   100ad5 <interrupt_handler>
  101a83:	81 c4 08 00 00 00    	add    $0x8,%esp
  101a89:	61                   	popa   
  101a8a:	1f                   	pop    %ds
  101a8b:	07                   	pop    %es
  101a8c:	0f a1                	pop    %fs
  101a8e:	0f a9                	pop    %gs
  101a90:	81 c4 04 00 00 00    	add    $0x4,%esp
  101a96:	cf                   	iret   

00101a97 <isr19>:
  101a97:	68 00 00 00 00       	push   $0x0
  101a9c:	1e                   	push   %ds
  101a9d:	06                   	push   %es
  101a9e:	0f a0                	push   %fs
  101aa0:	0f a8                	push   %gs
  101aa2:	60                   	pusha  
  101aa3:	54                   	push   %esp
  101aa4:	68 19 00 00 00       	push   $0x19
  101aa9:	e8 27 f0 ff ff       	call   100ad5 <interrupt_handler>
  101aae:	81 c4 08 00 00 00    	add    $0x8,%esp
  101ab4:	61                   	popa   
  101ab5:	1f                   	pop    %ds
  101ab6:	07                   	pop    %es
  101ab7:	0f a1                	pop    %fs
  101ab9:	0f a9                	pop    %gs
  101abb:	81 c4 04 00 00 00    	add    $0x4,%esp
  101ac1:	cf                   	iret   

00101ac2 <isr1A>:
  101ac2:	68 00 00 00 00       	push   $0x0
  101ac7:	1e                   	push   %ds
  101ac8:	06                   	push   %es
  101ac9:	0f a0                	push   %fs
  101acb:	0f a8                	push   %gs
  101acd:	60                   	pusha  
  101ace:	54                   	push   %esp
  101acf:	68 1a 00 00 00       	push   $0x1a
  101ad4:	e8 fc ef ff ff       	call   100ad5 <interrupt_handler>
  101ad9:	81 c4 08 00 00 00    	add    $0x8,%esp
  101adf:	61                   	popa   
  101ae0:	1f                   	pop    %ds
  101ae1:	07                   	pop    %es
  101ae2:	0f a1                	pop    %fs
  101ae4:	0f a9                	pop    %gs
  101ae6:	81 c4 04 00 00 00    	add    $0x4,%esp
  101aec:	cf                   	iret   

00101aed <isr1B>:
  101aed:	68 00 00 00 00       	push   $0x0
  101af2:	1e                   	push   %ds
  101af3:	06                   	push   %es
  101af4:	0f a0                	push   %fs
  101af6:	0f a8                	push   %gs
  101af8:	60                   	pusha  
  101af9:	54                   	push   %esp
  101afa:	68 1b 00 00 00       	push   $0x1b
  101aff:	e8 d1 ef ff ff       	call   100ad5 <interrupt_handler>
  101b04:	81 c4 08 00 00 00    	add    $0x8,%esp
  101b0a:	61                   	popa   
  101b0b:	1f                   	pop    %ds
  101b0c:	07                   	pop    %es
  101b0d:	0f a1                	pop    %fs
  101b0f:	0f a9                	pop    %gs
  101b11:	81 c4 04 00 00 00    	add    $0x4,%esp
  101b17:	cf                   	iret   

00101b18 <isr1C>:
  101b18:	68 00 00 00 00       	push   $0x0
  101b1d:	1e                   	push   %ds
  101b1e:	06                   	push   %es
  101b1f:	0f a0                	push   %fs
  101b21:	0f a8                	push   %gs
  101b23:	60                   	pusha  
  101b24:	54                   	push   %esp
  101b25:	68 1c 00 00 00       	push   $0x1c
  101b2a:	e8 a6 ef ff ff       	call   100ad5 <interrupt_handler>
  101b2f:	81 c4 08 00 00 00    	add    $0x8,%esp
  101b35:	61                   	popa   
  101b36:	1f                   	pop    %ds
  101b37:	07                   	pop    %es
  101b38:	0f a1                	pop    %fs
  101b3a:	0f a9                	pop    %gs
  101b3c:	81 c4 04 00 00 00    	add    $0x4,%esp
  101b42:	cf                   	iret   

00101b43 <isr1D>:
  101b43:	68 00 00 00 00       	push   $0x0
  101b48:	1e                   	push   %ds
  101b49:	06                   	push   %es
  101b4a:	0f a0                	push   %fs
  101b4c:	0f a8                	push   %gs
  101b4e:	60                   	pusha  
  101b4f:	54                   	push   %esp
  101b50:	68 1d 00 00 00       	push   $0x1d
  101b55:	e8 7b ef ff ff       	call   100ad5 <interrupt_handler>
  101b5a:	81 c4 08 00 00 00    	add    $0x8,%esp
  101b60:	61                   	popa   
  101b61:	1f                   	pop    %ds
  101b62:	07                   	pop    %es
  101b63:	0f a1                	pop    %fs
  101b65:	0f a9                	pop    %gs
  101b67:	81 c4 04 00 00 00    	add    $0x4,%esp
  101b6d:	cf                   	iret   

00101b6e <isr1E>:
  101b6e:	68 00 00 00 00       	push   $0x0
  101b73:	1e                   	push   %ds
  101b74:	06                   	push   %es
  101b75:	0f a0                	push   %fs
  101b77:	0f a8                	push   %gs
  101b79:	60                   	pusha  
  101b7a:	54                   	push   %esp
  101b7b:	68 1e 00 00 00       	push   $0x1e
  101b80:	e8 50 ef ff ff       	call   100ad5 <interrupt_handler>
  101b85:	81 c4 08 00 00 00    	add    $0x8,%esp
  101b8b:	61                   	popa   
  101b8c:	1f                   	pop    %ds
  101b8d:	07                   	pop    %es
  101b8e:	0f a1                	pop    %fs
  101b90:	0f a9                	pop    %gs
  101b92:	81 c4 04 00 00 00    	add    $0x4,%esp
  101b98:	cf                   	iret   

00101b99 <isr1F>:
  101b99:	68 00 00 00 00       	push   $0x0
  101b9e:	1e                   	push   %ds
  101b9f:	06                   	push   %es
  101ba0:	0f a0                	push   %fs
  101ba2:	0f a8                	push   %gs
  101ba4:	60                   	pusha  
  101ba5:	54                   	push   %esp
  101ba6:	68 1f 00 00 00       	push   $0x1f
  101bab:	e8 25 ef ff ff       	call   100ad5 <interrupt_handler>
  101bb0:	81 c4 08 00 00 00    	add    $0x8,%esp
  101bb6:	61                   	popa   
  101bb7:	1f                   	pop    %ds
  101bb8:	07                   	pop    %es
  101bb9:	0f a1                	pop    %fs
  101bbb:	0f a9                	pop    %gs
  101bbd:	81 c4 04 00 00 00    	add    $0x4,%esp
  101bc3:	cf                   	iret   

00101bc4 <isr20>:
  101bc4:	60                   	pusha  
  101bc5:	a1 9a 15 10 00       	mov    0x10159a,%eax
  101bca:	85 c0                	test   %eax,%eax
  101bcc:	74 07                	je     101bd5 <isr20.usepic>
  101bce:	e8 dd 08 00 00       	call   1024b0 <lapic_timer_calibrate>
  101bd3:	61                   	popa   
  101bd4:	cf                   	iret   

00101bd5 <isr20.usepic>:
  101bd5:	61                   	popa   
  101bd6:	e9 85 02 00 00       	jmp    101e60 <isr30>

00101bdb <isr21>:
  101bdb:	68 00 00 00 00       	push   $0x0
  101be0:	1e                   	push   %ds
  101be1:	06                   	push   %es
  101be2:	0f a0                	push   %fs
  101be4:	0f a8                	push   %gs
  101be6:	60                   	pusha  
  101be7:	54                   	push   %esp
  101be8:	68 21 00 00 00       	push   $0x21
  101bed:	e8 e3 ee ff ff       	call   100ad5 <interrupt_handler>
  101bf2:	81 c4 08 00 00 00    	add    $0x8,%esp
  101bf8:	61                   	popa   
  101bf9:	1f                   	pop    %ds
  101bfa:	07                   	pop    %es
  101bfb:	0f a1                	pop    %fs
  101bfd:	0f a9                	pop    %gs
  101bff:	81 c4 04 00 00 00    	add    $0x4,%esp
  101c05:	cf                   	iret   

00101c06 <isr22>:
  101c06:	68 00 00 00 00       	push   $0x0
  101c0b:	1e                   	push   %ds
  101c0c:	06                   	push   %es
  101c0d:	0f a0                	push   %fs
  101c0f:	0f a8                	push   %gs
  101c11:	60                   	pusha  
  101c12:	54                   	push   %esp
  101c13:	68 22 00 00 00       	push   $0x22
  101c18:	e8 b8 ee ff ff       	call   100ad5 <interrupt_handler>
  101c1d:	81 c4 08 00 00 00    	add    $0x8,%esp
  101c23:	61                   	popa   
  101c24:	1f                   	pop    %ds
  101c25:	07                   	pop    %es
  101c26:	0f a1                	pop    %fs
  101c28:	0f a9                	pop    %gs
  101c2a:	81 c4 04 00 00 00    	add    $0x4,%esp
  101c30:	cf                   	iret   

00101c31 <isr23>:
  101c31:	68 00 00 00 00       	push   $0x0
  101c36:	1e                   	push   %ds
  101c37:	06                   	push   %es
  101c38:	0f a0                	push   %fs
  101c3a:	0f a8                	push   %gs
  101c3c:	60                   	pusha  
  101c3d:	54                   	push   %esp
  101c3e:	68 23 00 00 00       	push   $0x23
  101c43:	e8 8d ee ff ff       	call   100ad5 <interrupt_handler>
  101c48:	81 c4 08 00 00 00    	add    $0x8,%esp
  101c4e:	61                   	popa   
  101c4f:	1f                   	pop    %ds
  101c50:	07                   	pop    %es
  101c51:	0f a1                	pop    %fs
  101c53:	0f a9                	pop    %gs
  101c55:	81 c4 04 00 00 00    	add    $0x4,%esp
  101c5b:	cf                   	iret   

00101c5c <isr24>:
  101c5c:	68 00 00 00 00       	push   $0x0
  101c61:	1e                   	push   %ds
  101c62:	06                   	push   %es
  101c63:	0f a0                	push   %fs
  101c65:	0f a8                	push   %gs
  101c67:	60                   	pusha  
  101c68:	54                   	push   %esp
  101c69:	68 24 00 00 00       	push   $0x24
  101c6e:	e8 62 ee ff ff       	call   100ad5 <interrupt_handler>
  101c73:	81 c4 08 00 00 00    	add    $0x8,%esp
  101c79:	61                   	popa   
  101c7a:	1f                   	pop    %ds
  101c7b:	07                   	pop    %es
  101c7c:	0f a1                	pop    %fs
  101c7e:	0f a9                	pop    %gs
  101c80:	81 c4 04 00 00 00    	add    $0x4,%esp
  101c86:	cf                   	iret   

00101c87 <isr25>:
  101c87:	68 00 00 00 00       	push   $0x0
  101c8c:	1e                   	push   %ds
  101c8d:	06                   	push   %es
  101c8e:	0f a0                	push   %fs
  101c90:	0f a8                	push   %gs
  101c92:	60                   	pusha  
  101c93:	54                   	push   %esp
  101c94:	68 25 00 00 00       	push   $0x25
  101c99:	e8 37 ee ff ff       	call   100ad5 <interrupt_handler>
  101c9e:	81 c4 08 00 00 00    	add    $0x8,%esp
  101ca4:	61                   	popa   
  101ca5:	1f                   	pop    %ds
  101ca6:	07                   	pop    %es
  101ca7:	0f a1                	pop    %fs
  101ca9:	0f a9                	pop    %gs
  101cab:	81 c4 04 00 00 00    	add    $0x4,%esp
  101cb1:	cf                   	iret   

00101cb2 <isr26>:
  101cb2:	68 00 00 00 00       	push   $0x0
  101cb7:	1e                   	push   %ds
  101cb8:	06                   	push   %es
  101cb9:	0f a0                	push   %fs
  101cbb:	0f a8                	push   %gs
  101cbd:	60                   	pusha  
  101cbe:	54                   	push   %esp
  101cbf:	68 26 00 00 00       	push   $0x26
  101cc4:	e8 0c ee ff ff       	call   100ad5 <interrupt_handler>
  101cc9:	81 c4 08 00 00 00    	add    $0x8,%esp
  101ccf:	61                   	popa   
  101cd0:	1f                   	pop    %ds
  101cd1:	07                   	pop    %es
  101cd2:	0f a1                	pop    %fs
  101cd4:	0f a9                	pop    %gs
  101cd6:	81 c4 04 00 00 00    	add    $0x4,%esp
  101cdc:	cf                   	iret   

00101cdd <isr27>:
  101cdd:	68 00 00 00 00       	push   $0x0
  101ce2:	1e                   	push   %ds
  101ce3:	06                   	push   %es
  101ce4:	0f a0                	push   %fs
  101ce6:	0f a8                	push   %gs
  101ce8:	60                   	pusha  
  101ce9:	54                   	push   %esp
  101cea:	68 27 00 00 00       	push   $0x27
  101cef:	e8 e1 ed ff ff       	call   100ad5 <interrupt_handler>
  101cf4:	81 c4 08 00 00 00    	add    $0x8,%esp
  101cfa:	61                   	popa   
  101cfb:	1f                   	pop    %ds
  101cfc:	07                   	pop    %es
  101cfd:	0f a1                	pop    %fs
  101cff:	0f a9                	pop    %gs
  101d01:	81 c4 04 00 00 00    	add    $0x4,%esp
  101d07:	cf                   	iret   

00101d08 <isr28>:
  101d08:	68 00 00 00 00       	push   $0x0
  101d0d:	1e                   	push   %ds
  101d0e:	06                   	push   %es
  101d0f:	0f a0                	push   %fs
  101d11:	0f a8                	push   %gs
  101d13:	60                   	pusha  
  101d14:	54                   	push   %esp
  101d15:	68 28 00 00 00       	push   $0x28
  101d1a:	e8 b6 ed ff ff       	call   100ad5 <interrupt_handler>
  101d1f:	81 c4 08 00 00 00    	add    $0x8,%esp
  101d25:	61                   	popa   
  101d26:	1f                   	pop    %ds
  101d27:	07                   	pop    %es
  101d28:	0f a1                	pop    %fs
  101d2a:	0f a9                	pop    %gs
  101d2c:	81 c4 04 00 00 00    	add    $0x4,%esp
  101d32:	cf                   	iret   

00101d33 <isr29>:
  101d33:	68 00 00 00 00       	push   $0x0
  101d38:	1e                   	push   %ds
  101d39:	06                   	push   %es
  101d3a:	0f a0                	push   %fs
  101d3c:	0f a8                	push   %gs
  101d3e:	60                   	pusha  
  101d3f:	54                   	push   %esp
  101d40:	68 29 00 00 00       	push   $0x29
  101d45:	e8 8b ed ff ff       	call   100ad5 <interrupt_handler>
  101d4a:	81 c4 08 00 00 00    	add    $0x8,%esp
  101d50:	61                   	popa   
  101d51:	1f                   	pop    %ds
  101d52:	07                   	pop    %es
  101d53:	0f a1                	pop    %fs
  101d55:	0f a9                	pop    %gs
  101d57:	81 c4 04 00 00 00    	add    $0x4,%esp
  101d5d:	cf                   	iret   

00101d5e <isr2A>:
  101d5e:	68 00 00 00 00       	push   $0x0
  101d63:	1e                   	push   %ds
  101d64:	06                   	push   %es
  101d65:	0f a0                	push   %fs
  101d67:	0f a8                	push   %gs
  101d69:	60                   	pusha  
  101d6a:	54                   	push   %esp
  101d6b:	68 2a 00 00 00       	push   $0x2a
  101d70:	e8 60 ed ff ff       	call   100ad5 <interrupt_handler>
  101d75:	81 c4 08 00 00 00    	add    $0x8,%esp
  101d7b:	61                   	popa   
  101d7c:	1f                   	pop    %ds
  101d7d:	07                   	pop    %es
  101d7e:	0f a1                	pop    %fs
  101d80:	0f a9                	pop    %gs
  101d82:	81 c4 04 00 00 00    	add    $0x4,%esp
  101d88:	cf                   	iret   

00101d89 <isr2B>:
  101d89:	68 00 00 00 00       	push   $0x0
  101d8e:	1e                   	push   %ds
  101d8f:	06                   	push   %es
  101d90:	0f a0                	push   %fs
  101d92:	0f a8                	push   %gs
  101d94:	60                   	pusha  
  101d95:	54                   	push   %esp
  101d96:	68 2b 00 00 00       	push   $0x2b
  101d9b:	e8 35 ed ff ff       	call   100ad5 <interrupt_handler>
  101da0:	81 c4 08 00 00 00    	add    $0x8,%esp
  101da6:	61                   	popa   
  101da7:	1f                   	pop    %ds
  101da8:	07                   	pop    %es
  101da9:	0f a1                	pop    %fs
  101dab:	0f a9                	pop    %gs
  101dad:	81 c4 04 00 00 00    	add    $0x4,%esp
  101db3:	cf                   	iret   

00101db4 <isr2C>:
  101db4:	68 00 00 00 00       	push   $0x0
  101db9:	1e                   	push   %ds
  101dba:	06                   	push   %es
  101dbb:	0f a0                	push   %fs
  101dbd:	0f a8                	push   %gs
  101dbf:	60                   	pusha  
  101dc0:	54                   	push   %esp
  101dc1:	68 2c 00 00 00       	push   $0x2c
  101dc6:	e8 0a ed ff ff       	call   100ad5 <interrupt_handler>
  101dcb:	81 c4 08 00 00 00    	add    $0x8,%esp
  101dd1:	61                   	popa   
  101dd2:	1f                   	pop    %ds
  101dd3:	07                   	pop    %es
  101dd4:	0f a1                	pop    %fs
  101dd6:	0f a9                	pop    %gs
  101dd8:	81 c4 04 00 00 00    	add    $0x4,%esp
  101dde:	cf                   	iret   

00101ddf <isr2D>:
  101ddf:	68 00 00 00 00       	push   $0x0
  101de4:	1e                   	push   %ds
  101de5:	06                   	push   %es
  101de6:	0f a0                	push   %fs
  101de8:	0f a8                	push   %gs
  101dea:	60                   	pusha  
  101deb:	54                   	push   %esp
  101dec:	68 2d 00 00 00       	push   $0x2d
  101df1:	e8 df ec ff ff       	call   100ad5 <interrupt_handler>
  101df6:	81 c4 08 00 00 00    	add    $0x8,%esp
  101dfc:	61                   	popa   
  101dfd:	1f                   	pop    %ds
  101dfe:	07                   	pop    %es
  101dff:	0f a1                	pop    %fs
  101e01:	0f a9                	pop    %gs
  101e03:	81 c4 04 00 00 00    	add    $0x4,%esp
  101e09:	cf                   	iret   

00101e0a <isr2E>:
  101e0a:	68 00 00 00 00       	push   $0x0
  101e0f:	1e                   	push   %ds
  101e10:	06                   	push   %es
  101e11:	0f a0                	push   %fs
  101e13:	0f a8                	push   %gs
  101e15:	60                   	pusha  
  101e16:	54                   	push   %esp
  101e17:	68 2e 00 00 00       	push   $0x2e
  101e1c:	e8 b4 ec ff ff       	call   100ad5 <interrupt_handler>
  101e21:	81 c4 08 00 00 00    	add    $0x8,%esp
  101e27:	61                   	popa   
  101e28:	1f                   	pop    %ds
  101e29:	07                   	pop    %es
  101e2a:	0f a1                	pop    %fs
  101e2c:	0f a9                	pop    %gs
  101e2e:	81 c4 04 00 00 00    	add    $0x4,%esp
  101e34:	cf                   	iret   

00101e35 <isr2F>:
  101e35:	68 00 00 00 00       	push   $0x0
  101e3a:	1e                   	push   %ds
  101e3b:	06                   	push   %es
  101e3c:	0f a0                	push   %fs
  101e3e:	0f a8                	push   %gs
  101e40:	60                   	pusha  
  101e41:	54                   	push   %esp
  101e42:	68 2f 00 00 00       	push   $0x2f
  101e47:	e8 89 ec ff ff       	call   100ad5 <interrupt_handler>
  101e4c:	81 c4 08 00 00 00    	add    $0x8,%esp
  101e52:	61                   	popa   
  101e53:	1f                   	pop    %ds
  101e54:	07                   	pop    %es
  101e55:	0f a1                	pop    %fs
  101e57:	0f a9                	pop    %gs
  101e59:	81 c4 04 00 00 00    	add    $0x4,%esp
  101e5f:	cf                   	iret   

00101e60 <isr30>:
  101e60:	68 00 00 00 00       	push   $0x0
  101e65:	1e                   	push   %ds
  101e66:	06                   	push   %es
  101e67:	0f a0                	push   %fs
  101e69:	0f a8                	push   %gs
  101e6b:	60                   	pusha  
  101e6c:	54                   	push   %esp
  101e6d:	68 30 00 00 00       	push   $0x30
  101e72:	e8 5e ec ff ff       	call   100ad5 <interrupt_handler>
  101e77:	81 c4 08 00 00 00    	add    $0x8,%esp
  101e7d:	61                   	popa   
  101e7e:	1f                   	pop    %ds
  101e7f:	07                   	pop    %es
  101e80:	0f a1                	pop    %fs
  101e82:	0f a9                	pop    %gs
  101e84:	81 c4 04 00 00 00    	add    $0x4,%esp
  101e8a:	cf                   	iret   

00101e8b <isr31>:
  101e8b:	68 00 00 00 00       	push   $0x0
  101e90:	1e                   	push   %ds
  101e91:	06                   	push   %es
  101e92:	0f a0                	push   %fs
  101e94:	0f a8                	push   %gs
  101e96:	60                   	pusha  
  101e97:	54                   	push   %esp
  101e98:	68 31 00 00 00       	push   $0x31
  101e9d:	e8 33 ec ff ff       	call   100ad5 <interrupt_handler>
  101ea2:	81 c4 08 00 00 00    	add    $0x8,%esp
  101ea8:	61                   	popa   
  101ea9:	1f                   	pop    %ds
  101eaa:	07                   	pop    %es
  101eab:	0f a1                	pop    %fs
  101ead:	0f a9                	pop    %gs
  101eaf:	81 c4 04 00 00 00    	add    $0x4,%esp
  101eb5:	cf                   	iret   

00101eb6 <isr32>:
  101eb6:	68 00 00 00 00       	push   $0x0
  101ebb:	1e                   	push   %ds
  101ebc:	06                   	push   %es
  101ebd:	0f a0                	push   %fs
  101ebf:	0f a8                	push   %gs
  101ec1:	60                   	pusha  
  101ec2:	54                   	push   %esp
  101ec3:	68 32 00 00 00       	push   $0x32
  101ec8:	e8 08 ec ff ff       	call   100ad5 <interrupt_handler>
  101ecd:	81 c4 08 00 00 00    	add    $0x8,%esp
  101ed3:	61                   	popa   
  101ed4:	1f                   	pop    %ds
  101ed5:	07                   	pop    %es
  101ed6:	0f a1                	pop    %fs
  101ed8:	0f a9                	pop    %gs
  101eda:	81 c4 04 00 00 00    	add    $0x4,%esp
  101ee0:	cf                   	iret   

00101ee1 <isr33>:
  101ee1:	68 00 00 00 00       	push   $0x0
  101ee6:	1e                   	push   %ds
  101ee7:	06                   	push   %es
  101ee8:	0f a0                	push   %fs
  101eea:	0f a8                	push   %gs
  101eec:	60                   	pusha  
  101eed:	54                   	push   %esp
  101eee:	68 33 00 00 00       	push   $0x33
  101ef3:	e8 dd eb ff ff       	call   100ad5 <interrupt_handler>
  101ef8:	81 c4 08 00 00 00    	add    $0x8,%esp
  101efe:	61                   	popa   
  101eff:	1f                   	pop    %ds
  101f00:	07                   	pop    %es
  101f01:	0f a1                	pop    %fs
  101f03:	0f a9                	pop    %gs
  101f05:	81 c4 04 00 00 00    	add    $0x4,%esp
  101f0b:	cf                   	iret   

00101f0c <isr34>:
  101f0c:	68 00 00 00 00       	push   $0x0
  101f11:	1e                   	push   %ds
  101f12:	06                   	push   %es
  101f13:	0f a0                	push   %fs
  101f15:	0f a8                	push   %gs
  101f17:	60                   	pusha  
  101f18:	54                   	push   %esp
  101f19:	68 34 00 00 00       	push   $0x34
  101f1e:	e8 b2 eb ff ff       	call   100ad5 <interrupt_handler>
  101f23:	81 c4 08 00 00 00    	add    $0x8,%esp
  101f29:	61                   	popa   
  101f2a:	1f                   	pop    %ds
  101f2b:	07                   	pop    %es
  101f2c:	0f a1                	pop    %fs
  101f2e:	0f a9                	pop    %gs
  101f30:	81 c4 04 00 00 00    	add    $0x4,%esp
  101f36:	cf                   	iret   

00101f37 <isr35>:
  101f37:	68 00 00 00 00       	push   $0x0
  101f3c:	1e                   	push   %ds
  101f3d:	06                   	push   %es
  101f3e:	0f a0                	push   %fs
  101f40:	0f a8                	push   %gs
  101f42:	60                   	pusha  
  101f43:	54                   	push   %esp
  101f44:	68 35 00 00 00       	push   $0x35
  101f49:	e8 87 eb ff ff       	call   100ad5 <interrupt_handler>
  101f4e:	81 c4 08 00 00 00    	add    $0x8,%esp
  101f54:	61                   	popa   
  101f55:	1f                   	pop    %ds
  101f56:	07                   	pop    %es
  101f57:	0f a1                	pop    %fs
  101f59:	0f a9                	pop    %gs
  101f5b:	81 c4 04 00 00 00    	add    $0x4,%esp
  101f61:	cf                   	iret   

00101f62 <isr36>:
  101f62:	68 00 00 00 00       	push   $0x0
  101f67:	1e                   	push   %ds
  101f68:	06                   	push   %es
  101f69:	0f a0                	push   %fs
  101f6b:	0f a8                	push   %gs
  101f6d:	60                   	pusha  
  101f6e:	54                   	push   %esp
  101f6f:	68 36 00 00 00       	push   $0x36
  101f74:	e8 5c eb ff ff       	call   100ad5 <interrupt_handler>
  101f79:	81 c4 08 00 00 00    	add    $0x8,%esp
  101f7f:	61                   	popa   
  101f80:	1f                   	pop    %ds
  101f81:	07                   	pop    %es
  101f82:	0f a1                	pop    %fs
  101f84:	0f a9                	pop    %gs
  101f86:	81 c4 04 00 00 00    	add    $0x4,%esp
  101f8c:	cf                   	iret   

00101f8d <isr37>:
  101f8d:	68 00 00 00 00       	push   $0x0
  101f92:	1e                   	push   %ds
  101f93:	06                   	push   %es
  101f94:	0f a0                	push   %fs
  101f96:	0f a8                	push   %gs
  101f98:	60                   	pusha  
  101f99:	66 8c d8             	mov    %ds,%ax
  101f9c:	66 50                	push   %ax
  101f9e:	66 8c d0             	mov    %ss,%ax
  101fa1:	8e d8                	mov    %eax,%ds
  101fa3:	66 58                	pop    %ax
  101fa5:	66 a3 92 15 10 00    	mov    %ax,0x101592
  101fab:	54                   	push   %esp
  101fac:	e8 d8 7d 00 00       	call   109d89 <syscall_handler>
  101fb1:	81 c4 04 00 00 00    	add    $0x4,%esp
  101fb7:	61                   	popa   
  101fb8:	1f                   	pop    %ds
  101fb9:	07                   	pop    %es
  101fba:	0f a1                	pop    %fs
  101fbc:	0f a9                	pop    %gs
  101fbe:	81 c4 04 00 00 00    	add    $0x4,%esp
  101fc4:	66 8b 15 92 15 10 00 	mov    0x101592,%dx
  101fcb:	8e da                	mov    %edx,%ds
  101fcd:	cf                   	iret   
	...

00101fd0 <divmod>:
#include <stdarg.h>
#include <vga.h>
#include <cpu.h>
#include <interrupt.h>

unsigned long long divmod(unsigned long long dividend,unsigned int divisor,unsigned int *remainder) {
  101fd0:	55                   	push   %ebp
  101fd1:	89 e5                	mov    %esp,%ebp
  101fd3:	53                   	push   %ebx
  101fd4:	83 ec 34             	sub    $0x34,%esp
  101fd7:	8b 45 08             	mov    0x8(%ebp),%eax
  101fda:	89 45 e0             	mov    %eax,-0x20(%ebp)
  101fdd:	8b 45 0c             	mov    0xc(%ebp),%eax
  101fe0:	89 45 e4             	mov    %eax,-0x1c(%ebp)
  unsigned long long quotient;
  unsigned int rem;

  quotient = dividend / divisor;
  101fe3:	8b 45 10             	mov    0x10(%ebp),%eax
  101fe6:	ba 00 00 00 00       	mov    $0x0,%edx
  101feb:	89 44 24 08          	mov    %eax,0x8(%esp)
  101fef:	89 54 24 0c          	mov    %edx,0xc(%esp)
  101ff3:	8b 45 e0             	mov    -0x20(%ebp),%eax
  101ff6:	8b 55 e4             	mov    -0x1c(%ebp),%edx
  101ff9:	89 04 24             	mov    %eax,(%esp)
  101ffc:	89 54 24 04          	mov    %edx,0x4(%esp)
  102000:	e8 eb 85 00 00       	call   10a5f0 <__udivdi3>
  102005:	89 45 e8             	mov    %eax,-0x18(%ebp)
  102008:	89 55 ec             	mov    %edx,-0x14(%ebp)
  rem = dividend % divisor;
  10200b:	8b 45 10             	mov    0x10(%ebp),%eax
  10200e:	ba 00 00 00 00       	mov    $0x0,%edx
  102013:	8b 4d e0             	mov    -0x20(%ebp),%ecx
  102016:	8b 5d e4             	mov    -0x1c(%ebp),%ebx
  102019:	89 44 24 08          	mov    %eax,0x8(%esp)
  10201d:	89 54 24 0c          	mov    %edx,0xc(%esp)
  102021:	89 0c 24             	mov    %ecx,(%esp)
  102024:	89 5c 24 04          	mov    %ebx,0x4(%esp)
  102028:	e8 e3 86 00 00       	call   10a710 <__umoddi3>
  10202d:	89 45 f4             	mov    %eax,-0xc(%ebp)

  if (remainder) *remainder = rem;
  102030:	83 7d 14 00          	cmpl   $0x0,0x14(%ebp)
  102034:	74 08                	je     10203e <divmod+0x6e>
  102036:	8b 55 14             	mov    0x14(%ebp),%edx
  102039:	8b 45 f4             	mov    -0xc(%ebp),%eax
  10203c:	89 02                	mov    %eax,(%edx)
  return quotient;
  10203e:	8b 45 e8             	mov    -0x18(%ebp),%eax
  102041:	8b 55 ec             	mov    -0x14(%ebp),%edx
}
  102044:	83 c4 34             	add    $0x34,%esp
  102047:	5b                   	pop    %ebx
  102048:	5d                   	pop    %ebp
  102049:	c3                   	ret    

0010204a <kprintchar>:

void kprintchar(char chr) {
  10204a:	55                   	push   %ebp
  10204b:	89 e5                	mov    %esp,%ebp
  10204d:	83 ec 08             	sub    $0x8,%esp
  102050:	8b 45 08             	mov    0x8(%ebp),%eax
  102053:	88 45 fc             	mov    %al,-0x4(%ebp)
  vga_text_printchar(chr);
  102056:	0f be 45 fc          	movsbl -0x4(%ebp),%eax
  10205a:	89 04 24             	mov    %eax,(%esp)
  10205d:	e8 7a 80 00 00       	call   10a0dc <vga_text_printchar>
}
  102062:	c9                   	leave  
  102063:	c3                   	ret    

00102064 <kprintstr>:

void kprintstr(char *str) {
  102064:	55                   	push   %ebp
  102065:	89 e5                	mov    %esp,%ebp
  102067:	83 ec 08             	sub    $0x8,%esp
  if (str==NULL) str = "(null)";
  10206a:	83 7d 08 00          	cmpl   $0x0,0x8(%ebp)
  10206e:	75 1e                	jne    10208e <kprintstr+0x2a>
  102070:	c7 45 08 e4 d3 10 00 	movl   $0x10d3e4,0x8(%ebp)
  102077:	eb 15                	jmp    10208e <kprintstr+0x2a>
  while (*str) kprintchar(*str++);
  102079:	8b 45 08             	mov    0x8(%ebp),%eax
  10207c:	0f b6 00             	movzbl (%eax),%eax
  10207f:	0f be c0             	movsbl %al,%eax
  102082:	83 45 08 01          	addl   $0x1,0x8(%ebp)
  102086:	89 04 24             	mov    %eax,(%esp)
  102089:	e8 bc ff ff ff       	call   10204a <kprintchar>
  10208e:	8b 45 08             	mov    0x8(%ebp),%eax
  102091:	0f b6 00             	movzbl (%eax),%eax
  102094:	84 c0                	test   %al,%al
  102096:	75 e1                	jne    102079 <kprintstr+0x15>
}
  102098:	c9                   	leave  
  102099:	c3                   	ret    

0010209a <kprintnum>:

void kprintnum(long long value,unsigned int radix,unsigned int uppercase,int sign) {
  10209a:	55                   	push   %ebp
  10209b:	89 e5                	mov    %esp,%ebp
  10209d:	81 ec 88 00 00 00    	sub    $0x88,%esp
  1020a3:	8b 45 08             	mov    0x8(%ebp),%eax
  1020a6:	89 45 98             	mov    %eax,-0x68(%ebp)
  1020a9:	8b 45 0c             	mov    0xc(%ebp),%eax
  1020ac:	89 45 9c             	mov    %eax,-0x64(%ebp)
  char buf[65];
  char *p = buf;
  1020af:	8d 45 a7             	lea    -0x59(%ebp),%eax
  1020b2:	89 45 e8             	mov    %eax,-0x18(%ebp)
  const char * const chars = uppercase ? "0123456789ABCDEFGHIJKLMOPQRSTUVWXYZ" : "0123456789abcdefghijklmopqrstuvwxyz";
  1020b5:	83 7d 14 00          	cmpl   $0x0,0x14(%ebp)
  1020b9:	74 09                	je     1020c4 <kprintnum+0x2a>
  1020bb:	c7 45 94 ec d3 10 00 	movl   $0x10d3ec,-0x6c(%ebp)
  1020c2:	eb 07                	jmp    1020cb <kprintnum+0x31>
  1020c4:	c7 45 94 10 d4 10 00 	movl   $0x10d410,-0x6c(%ebp)
  1020cb:	8b 45 94             	mov    -0x6c(%ebp),%eax
  1020ce:	89 45 ec             	mov    %eax,-0x14(%ebp)
  unsigned long long temp;
  unsigned int digits;
  unsigned int remainder;

  if (value<0 && sign) {
  1020d1:	83 7d 9c 00          	cmpl   $0x0,-0x64(%ebp)
  1020d5:	79 1c                	jns    1020f3 <kprintnum+0x59>
  1020d7:	83 7d 18 00          	cmpl   $0x0,0x18(%ebp)
  1020db:	74 16                	je     1020f3 <kprintnum+0x59>
    kprintchar('-');
  1020dd:	c7 04 24 2d 00 00 00 	movl   $0x2d,(%esp)
  1020e4:	e8 61 ff ff ff       	call   10204a <kprintchar>
    value = -value;
  1020e9:	f7 5d 98             	negl   -0x68(%ebp)
  1020ec:	83 55 9c 00          	adcl   $0x0,-0x64(%ebp)
  1020f0:	f7 5d 9c             	negl   -0x64(%ebp)
  }

  // Es werden nur Basen zwischen 2 und 36 unterstuezt
  if(radix < 2 || radix > 36) return;
  1020f3:	83 7d 10 01          	cmpl   $0x1,0x10(%ebp)
  1020f7:	0f 86 b9 00 00 00    	jbe    1021b6 <kprintnum+0x11c>
  1020fd:	83 7d 10 24          	cmpl   $0x24,0x10(%ebp)
  102101:	0f 87 af 00 00 00    	ja     1021b6 <kprintnum+0x11c>

  // Anzahl der Ziffern zaehlen
  temp = value;
  102107:	8b 45 98             	mov    -0x68(%ebp),%eax
  10210a:	8b 55 9c             	mov    -0x64(%ebp),%edx
  10210d:	89 45 f0             	mov    %eax,-0x10(%ebp)
  102110:	89 55 f4             	mov    %edx,-0xc(%ebp)
  digits = 0;
  102113:	c7 45 fc 00 00 00 00 	movl   $0x0,-0x4(%ebp)
  do {
    digits++;
  10211a:	83 45 fc 01          	addl   $0x1,-0x4(%ebp)
    temp = divmod(temp, radix, 0);
  10211e:	c7 44 24 0c 00 00 00 	movl   $0x0,0xc(%esp)
  102125:	00 
  102126:	8b 45 10             	mov    0x10(%ebp),%eax
  102129:	89 44 24 08          	mov    %eax,0x8(%esp)
  10212d:	8b 45 f0             	mov    -0x10(%ebp),%eax
  102130:	8b 55 f4             	mov    -0xc(%ebp),%edx
  102133:	89 04 24             	mov    %eax,(%esp)
  102136:	89 54 24 04          	mov    %edx,0x4(%esp)
  10213a:	e8 91 fe ff ff       	call   101fd0 <divmod>
  10213f:	89 45 f0             	mov    %eax,-0x10(%ebp)
  102142:	89 55 f4             	mov    %edx,-0xc(%ebp)
  }
  while (temp>0);
  102145:	8b 55 f0             	mov    -0x10(%ebp),%edx
  102148:	8b 45 f4             	mov    -0xc(%ebp),%eax
  10214b:	09 d0                	or     %edx,%eax
  10214d:	85 c0                	test   %eax,%eax
  10214f:	75 c9                	jne    10211a <kprintnum+0x80>

  // Zeiger auf das Ende der Zahl setzen und Nullterminierung einfuegen
  p += digits;
  102151:	8b 45 fc             	mov    -0x4(%ebp),%eax
  102154:	01 45 e8             	add    %eax,-0x18(%ebp)
  *p = 0;
  102157:	8b 45 e8             	mov    -0x18(%ebp),%eax
  10215a:	c6 00 00             	movb   $0x0,(%eax)

  // Ziffern rckwts in den Puffer schreiben
  temp = value;
  10215d:	8b 45 98             	mov    -0x68(%ebp),%eax
  102160:	8b 55 9c             	mov    -0x64(%ebp),%edx
  102163:	89 45 f0             	mov    %eax,-0x10(%ebp)
  102166:	89 55 f4             	mov    %edx,-0xc(%ebp)
  do {
    temp = divmod(temp, radix, &remainder);
  102169:	8d 45 a0             	lea    -0x60(%ebp),%eax
  10216c:	89 44 24 0c          	mov    %eax,0xc(%esp)
  102170:	8b 45 10             	mov    0x10(%ebp),%eax
  102173:	89 44 24 08          	mov    %eax,0x8(%esp)
  102177:	8b 45 f0             	mov    -0x10(%ebp),%eax
  10217a:	8b 55 f4             	mov    -0xc(%ebp),%edx
  10217d:	89 04 24             	mov    %eax,(%esp)
  102180:	89 54 24 04          	mov    %edx,0x4(%esp)
  102184:	e8 47 fe ff ff       	call   101fd0 <divmod>
  102189:	89 45 f0             	mov    %eax,-0x10(%ebp)
  10218c:	89 55 f4             	mov    %edx,-0xc(%ebp)
    *--p = chars[remainder];
  10218f:	83 6d e8 01          	subl   $0x1,-0x18(%ebp)
  102193:	8b 45 a0             	mov    -0x60(%ebp),%eax
  102196:	03 45 ec             	add    -0x14(%ebp),%eax
  102199:	0f b6 10             	movzbl (%eax),%edx
  10219c:	8b 45 e8             	mov    -0x18(%ebp),%eax
  10219f:	88 10                	mov    %dl,(%eax)
  }
  while (--digits);
  1021a1:	83 6d fc 01          	subl   $0x1,-0x4(%ebp)
  1021a5:	83 7d fc 00          	cmpl   $0x0,-0x4(%ebp)
  1021a9:	75 be                	jne    102169 <kprintnum+0xcf>

  kprintstr(buf);
  1021ab:	8d 45 a7             	lea    -0x59(%ebp),%eax
  1021ae:	89 04 24             	mov    %eax,(%esp)
  1021b1:	e8 ae fe ff ff       	call   102064 <kprintstr>
}
  1021b6:	c9                   	leave  
  1021b7:	c3                   	ret    

001021b8 <vakprintf>:

void vakprintf(char *format,va_list args) {
  1021b8:	55                   	push   %ebp
  1021b9:	89 e5                	mov    %esp,%ebp
  1021bb:	83 ec 18             	sub    $0x18,%esp
  1021be:	e9 c8 01 00 00       	jmp    10238b <vakprintf+0x1d3>
  while (*format) {
    if (*format=='%') {
  1021c3:	8b 45 08             	mov    0x8(%ebp),%eax
  1021c6:	0f b6 00             	movzbl (%eax),%eax
  1021c9:	3c 25                	cmp    $0x25,%al
  1021cb:	0f 85 a5 01 00 00    	jne    102376 <vakprintf+0x1be>
      format++;
  1021d1:	83 45 08 01          	addl   $0x1,0x8(%ebp)
      if (!*format) return;
  1021d5:	8b 45 08             	mov    0x8(%ebp),%eax
  1021d8:	0f b6 00             	movzbl (%eax),%eax
  1021db:	84 c0                	test   %al,%al
  1021dd:	0f 84 b6 01 00 00    	je     102399 <vakprintf+0x1e1>
      else if (*format=='%') kprintchar('%');
  1021e3:	8b 45 08             	mov    0x8(%ebp),%eax
  1021e6:	0f b6 00             	movzbl (%eax),%eax
  1021e9:	3c 25                	cmp    $0x25,%al
  1021eb:	75 11                	jne    1021fe <vakprintf+0x46>
  1021ed:	c7 04 24 25 00 00 00 	movl   $0x25,(%esp)
  1021f4:	e8 51 fe ff ff       	call   10204a <kprintchar>
  1021f9:	e9 89 01 00 00       	jmp    102387 <vakprintf+0x1cf>
      else if (*format=='b') kprintnum(va_arg(args,unsigned int),2,1,0);
  1021fe:	8b 45 08             	mov    0x8(%ebp),%eax
  102201:	0f b6 00             	movzbl (%eax),%eax
  102204:	3c 62                	cmp    $0x62,%al
  102206:	75 3b                	jne    102243 <vakprintf+0x8b>
  102208:	8b 55 0c             	mov    0xc(%ebp),%edx
  10220b:	8d 42 04             	lea    0x4(%edx),%eax
  10220e:	89 45 0c             	mov    %eax,0xc(%ebp)
  102211:	89 d0                	mov    %edx,%eax
  102213:	8b 00                	mov    (%eax),%eax
  102215:	ba 00 00 00 00       	mov    $0x0,%edx
  10221a:	c7 44 24 10 00 00 00 	movl   $0x0,0x10(%esp)
  102221:	00 
  102222:	c7 44 24 0c 01 00 00 	movl   $0x1,0xc(%esp)
  102229:	00 
  10222a:	c7 44 24 08 02 00 00 	movl   $0x2,0x8(%esp)
  102231:	00 
  102232:	89 04 24             	mov    %eax,(%esp)
  102235:	89 54 24 04          	mov    %edx,0x4(%esp)
  102239:	e8 5c fe ff ff       	call   10209a <kprintnum>
  10223e:	e9 44 01 00 00       	jmp    102387 <vakprintf+0x1cf>
      else if (*format=='c') kprintchar(va_arg(args,unsigned int));
  102243:	8b 45 08             	mov    0x8(%ebp),%eax
  102246:	0f b6 00             	movzbl (%eax),%eax
  102249:	3c 63                	cmp    $0x63,%al
  10224b:	75 1d                	jne    10226a <vakprintf+0xb2>
  10224d:	8b 55 0c             	mov    0xc(%ebp),%edx
  102250:	8d 42 04             	lea    0x4(%edx),%eax
  102253:	89 45 0c             	mov    %eax,0xc(%ebp)
  102256:	89 d0                	mov    %edx,%eax
  102258:	8b 00                	mov    (%eax),%eax
  10225a:	0f be c0             	movsbl %al,%eax
  10225d:	89 04 24             	mov    %eax,(%esp)
  102260:	e8 e5 fd ff ff       	call   10204a <kprintchar>
  102265:	e9 1d 01 00 00       	jmp    102387 <vakprintf+0x1cf>
      else if (*format=='o') kprintnum(va_arg(args,unsigned int),8,1,0);
  10226a:	8b 45 08             	mov    0x8(%ebp),%eax
  10226d:	0f b6 00             	movzbl (%eax),%eax
  102270:	3c 6f                	cmp    $0x6f,%al
  102272:	75 3b                	jne    1022af <vakprintf+0xf7>
  102274:	8b 55 0c             	mov    0xc(%ebp),%edx
  102277:	8d 42 04             	lea    0x4(%edx),%eax
  10227a:	89 45 0c             	mov    %eax,0xc(%ebp)
  10227d:	89 d0                	mov    %edx,%eax
  10227f:	8b 00                	mov    (%eax),%eax
  102281:	ba 00 00 00 00       	mov    $0x0,%edx
  102286:	c7 44 24 10 00 00 00 	movl   $0x0,0x10(%esp)
  10228d:	00 
  10228e:	c7 44 24 0c 01 00 00 	movl   $0x1,0xc(%esp)
  102295:	00 
  102296:	c7 44 24 08 08 00 00 	movl   $0x8,0x8(%esp)
  10229d:	00 
  10229e:	89 04 24             	mov    %eax,(%esp)
  1022a1:	89 54 24 04          	mov    %edx,0x4(%esp)
  1022a5:	e8 f0 fd ff ff       	call   10209a <kprintnum>
  1022aa:	e9 d8 00 00 00       	jmp    102387 <vakprintf+0x1cf>
      else if (*format=='d') kprintnum(va_arg(args,int),10,1,1);
  1022af:	8b 45 08             	mov    0x8(%ebp),%eax
  1022b2:	0f b6 00             	movzbl (%eax),%eax
  1022b5:	3c 64                	cmp    $0x64,%al
  1022b7:	75 3b                	jne    1022f4 <vakprintf+0x13c>
  1022b9:	8b 55 0c             	mov    0xc(%ebp),%edx
  1022bc:	8d 42 04             	lea    0x4(%edx),%eax
  1022bf:	89 45 0c             	mov    %eax,0xc(%ebp)
  1022c2:	89 d0                	mov    %edx,%eax
  1022c4:	8b 00                	mov    (%eax),%eax
  1022c6:	89 c2                	mov    %eax,%edx
  1022c8:	c1 fa 1f             	sar    $0x1f,%edx
  1022cb:	c7 44 24 10 01 00 00 	movl   $0x1,0x10(%esp)
  1022d2:	00 
  1022d3:	c7 44 24 0c 01 00 00 	movl   $0x1,0xc(%esp)
  1022da:	00 
  1022db:	c7 44 24 08 0a 00 00 	movl   $0xa,0x8(%esp)
  1022e2:	00 
  1022e3:	89 04 24             	mov    %eax,(%esp)
  1022e6:	89 54 24 04          	mov    %edx,0x4(%esp)
  1022ea:	e8 ab fd ff ff       	call   10209a <kprintnum>
  1022ef:	e9 93 00 00 00       	jmp    102387 <vakprintf+0x1cf>
      else if (*format=='x') kprintnum(va_arg(args,unsigned int),16,1,0);
  1022f4:	8b 45 08             	mov    0x8(%ebp),%eax
  1022f7:	0f b6 00             	movzbl (%eax),%eax
  1022fa:	3c 78                	cmp    $0x78,%al
  1022fc:	75 38                	jne    102336 <vakprintf+0x17e>
  1022fe:	8b 55 0c             	mov    0xc(%ebp),%edx
  102301:	8d 42 04             	lea    0x4(%edx),%eax
  102304:	89 45 0c             	mov    %eax,0xc(%ebp)
  102307:	89 d0                	mov    %edx,%eax
  102309:	8b 00                	mov    (%eax),%eax
  10230b:	ba 00 00 00 00       	mov    $0x0,%edx
  102310:	c7 44 24 10 00 00 00 	movl   $0x0,0x10(%esp)
  102317:	00 
  102318:	c7 44 24 0c 01 00 00 	movl   $0x1,0xc(%esp)
  10231f:	00 
  102320:	c7 44 24 08 10 00 00 	movl   $0x10,0x8(%esp)
  102327:	00 
  102328:	89 04 24             	mov    %eax,(%esp)
  10232b:	89 54 24 04          	mov    %edx,0x4(%esp)
  10232f:	e8 66 fd ff ff       	call   10209a <kprintnum>
  102334:	eb 51                	jmp    102387 <vakprintf+0x1cf>
      else if (*format=='s') kprintstr(va_arg(args,char*));
  102336:	8b 45 08             	mov    0x8(%ebp),%eax
  102339:	0f b6 00             	movzbl (%eax),%eax
  10233c:	3c 73                	cmp    $0x73,%al
  10233e:	75 17                	jne    102357 <vakprintf+0x19f>
  102340:	8b 55 0c             	mov    0xc(%ebp),%edx
  102343:	8d 42 04             	lea    0x4(%edx),%eax
  102346:	89 45 0c             	mov    %eax,0xc(%ebp)
  102349:	89 d0                	mov    %edx,%eax
  10234b:	8b 00                	mov    (%eax),%eax
  10234d:	89 04 24             	mov    %eax,(%esp)
  102350:	e8 0f fd ff ff       	call   102064 <kprintstr>
  102355:	eb 30                	jmp    102387 <vakprintf+0x1cf>
      else {
        kprintchar('%');
  102357:	c7 04 24 25 00 00 00 	movl   $0x25,(%esp)
  10235e:	e8 e7 fc ff ff       	call   10204a <kprintchar>
        kprintchar(*format);
  102363:	8b 45 08             	mov    0x8(%ebp),%eax
  102366:	0f b6 00             	movzbl (%eax),%eax
  102369:	0f be c0             	movsbl %al,%eax
  10236c:	89 04 24             	mov    %eax,(%esp)
  10236f:	e8 d6 fc ff ff       	call   10204a <kprintchar>
  102374:	eb 11                	jmp    102387 <vakprintf+0x1cf>
      }
    }
    else kprintchar(*format);
  102376:	8b 45 08             	mov    0x8(%ebp),%eax
  102379:	0f b6 00             	movzbl (%eax),%eax
  10237c:	0f be c0             	movsbl %al,%eax
  10237f:	89 04 24             	mov    %eax,(%esp)
  102382:	e8 c3 fc ff ff       	call   10204a <kprintchar>
    format++;
  102387:	83 45 08 01          	addl   $0x1,0x8(%ebp)

  kprintstr(buf);
}

void vakprintf(char *format,va_list args) {
  while (*format) {
  10238b:	8b 45 08             	mov    0x8(%ebp),%eax
  10238e:	0f b6 00             	movzbl (%eax),%eax
  102391:	84 c0                	test   %al,%al
  102393:	0f 85 2a fe ff ff    	jne    1021c3 <vakprintf+0xb>
      }
    }
    else kprintchar(*format);
    format++;
  }
}
  102399:	c9                   	leave  
  10239a:	c3                   	ret    

0010239b <kprintf>:

void kprintf(char *format,...) {
  10239b:	55                   	push   %ebp
  10239c:	89 e5                	mov    %esp,%ebp
  10239e:	83 ec 18             	sub    $0x18,%esp
  va_list args;

  va_start(args,format);
  1023a1:	8d 45 0c             	lea    0xc(%ebp),%eax
  1023a4:	89 45 fc             	mov    %eax,-0x4(%ebp)
  vakprintf(format,args);
  1023a7:	8b 45 fc             	mov    -0x4(%ebp),%eax
  1023aa:	89 44 24 04          	mov    %eax,0x4(%esp)
  1023ae:	8b 45 08             	mov    0x8(%ebp),%eax
  1023b1:	89 04 24             	mov    %eax,(%esp)
  1023b4:	e8 ff fd ff ff       	call   1021b8 <vakprintf>
  va_end(args);
}
  1023b9:	c9                   	leave  
  1023ba:	c3                   	ret    

001023bb <panic>:

void panic(char *fmt,...) {
  1023bb:	55                   	push   %ebp
  1023bc:	89 e5                	mov    %esp,%ebp
  1023be:	83 ec 18             	sub    $0x18,%esp
  va_list args;

  va_start(args,fmt);
  1023c1:	8d 45 0c             	lea    0xc(%ebp),%eax
  1023c4:	89 45 fc             	mov    %eax,-0x4(%ebp)
  vga_text_setcolor(VGA_TEXT_COLOR_RED_BLACK);
  1023c7:	c7 04 24 0c 00 00 00 	movl   $0xc,(%esp)
  1023ce:	e8 fc 7c 00 00       	call   10a0cf <vga_text_setcolor>
  kprintstr(" *PANIC* ");
  1023d3:	c7 04 24 34 d4 10 00 	movl   $0x10d434,(%esp)
  1023da:	e8 85 fc ff ff       	call   102064 <kprintstr>
  vakprintf(fmt,args);
  1023df:	8b 45 fc             	mov    -0x4(%ebp),%eax
  1023e2:	89 44 24 04          	mov    %eax,0x4(%esp)
  1023e6:	8b 45 08             	mov    0x8(%ebp),%eax
  1023e9:	89 04 24             	mov    %eax,(%esp)
  1023ec:	e8 c7 fd ff ff       	call   1021b8 <vakprintf>
  interrupt_enable(0);
  1023f1:	c7 04 24 00 00 00 00 	movl   $0x0,(%esp)
  1023f8:	e8 ce eb ff ff       	call   100fcb <interrupt_enable>
  cpu_halt();
  1023fd:	e8 02 00 00 00       	call   102404 <cpu_halt>
}
  102402:	c9                   	leave  
  102403:	c3                   	ret    

00102404 <cpu_halt>:
  clock_t ticks;
} cpu_t;

llist_t cpus;

static inline void cpu_halt() {
  102404:	55                   	push   %ebp
  102405:	89 e5                	mov    %esp,%ebp
  asm("hlt");
  102407:	f4                   	hlt    
}
  102408:	5d                   	pop    %ebp
  102409:	c3                   	ret    
	...

0010240c <lapic_init>:
/**
 * Initializes LAPIC
 *  @return 0=Success; -1=Failure
 */
#include <stddef.h>
int lapic_init() {
  10240c:	55                   	push   %ebp
  10240d:	89 e5                	mov    %esp,%ebp
  10240f:	83 ec 28             	sub    $0x28,%esp
  uint32_t edx = 0;
  102412:	c7 45 f8 00 00 00 00 	movl   $0x0,-0x8(%ebp)
  cpu_t *cpu = cpu_this;
  102419:	a1 54 e4 10 00       	mov    0x10e454,%eax
  10241e:	c7 44 24 04 00 00 00 	movl   $0x0,0x4(%esp)
  102425:	00 
  102426:	89 04 24             	mov    %eax,(%esp)
  102429:	e8 59 86 00 00       	call   10aa87 <llist_get>
  10242e:	89 45 fc             	mov    %eax,-0x4(%ebp)

  pic_init();
  102431:	e8 e6 36 00 00       	call   105b1c <pic_init>

  cpu_id(1,NULL,NULL,NULL,&edx);
  102436:	8d 45 f8             	lea    -0x8(%ebp),%eax
  102439:	89 44 24 10          	mov    %eax,0x10(%esp)
  10243d:	c7 44 24 0c 00 00 00 	movl   $0x0,0xc(%esp)
  102444:	00 
  102445:	c7 44 24 08 00 00 00 	movl   $0x0,0x8(%esp)
  10244c:	00 
  10244d:	c7 44 24 04 00 00 00 	movl   $0x0,0x4(%esp)
  102454:	00 
  102455:	c7 04 24 01 00 00 00 	movl   $0x1,(%esp)
  10245c:	e8 6a df ff ff       	call   1003cb <cpu_id>
    pic_pit_setinterval(0,LAPIC_PIT_CALIBRATE_INTERVAL);

    return 0;
  }
  else {
    isr_uselapic = 0;
  102461:	c7 05 9a 15 10 00 00 	movl   $0x0,0x10159a
  102468:	00 00 00 
    cpu->uselapic = 0;
  10246b:	8b 45 fc             	mov    -0x4(%ebp),%eax
  10246e:	c7 40 54 00 00 00 00 	movl   $0x0,0x54(%eax)
    cpu->interval = 10; // IRQ0 all 10 ms
  102475:	8b 45 fc             	mov    -0x4(%ebp),%eax
  102478:	c7 40 58 0a 00 00 00 	movl   $0xa,0x58(%eax)
    pic_pit_setinterval(0,cpu->interval);
  10247f:	8b 45 fc             	mov    -0x4(%ebp),%eax
  102482:	8b 40 58             	mov    0x58(%eax),%eax
  102485:	89 44 24 04          	mov    %eax,0x4(%esp)
  102489:	c7 04 24 00 00 00 00 	movl   $0x0,(%esp)
  102490:	e8 6a 38 00 00       	call   105cff <pic_pit_setinterval>
    return -1;
  102495:	b8 ff ff ff ff       	mov    $0xffffffff,%eax
  }
}
  10249a:	c9                   	leave  
  10249b:	c3                   	ret    

0010249c <lapic_eoi>:

/**
 * Sends EOI
 */
void lapic_eoi() {
  10249c:	55                   	push   %ebp
  10249d:	89 e5                	mov    %esp,%ebp
  lapic->eoi = 0;
  10249f:	a1 20 e9 10 00       	mov    0x10e920,%eax
  1024a4:	c7 80 b0 00 00 00 00 	movl   $0x0,0xb0(%eax)
  1024ab:	00 00 00 
}
  1024ae:	5d                   	pop    %ebp
  1024af:	c3                   	ret    

001024b0 <lapic_timer_calibrate>:

void lapic_timer_calibrate() {
  1024b0:	55                   	push   %ebp
  1024b1:	89 e5                	mov    %esp,%ebp
  1024b3:	83 ec 18             	sub    $0x18,%esp
  static unsigned int ticks = 0;
  static unsigned int start = 0;
  static unsigned int end = 0;
  kprintf("LAPIC timer calibration: ticks=%u; start=%u; end=%u\n",ticks,start,end);
  1024b6:	a1 58 f9 10 00       	mov    0x10f958,%eax
  1024bb:	8b 15 5c f9 10 00    	mov    0x10f95c,%edx
  1024c1:	8b 0d 60 f9 10 00    	mov    0x10f960,%ecx
  1024c7:	89 44 24 0c          	mov    %eax,0xc(%esp)
  1024cb:	89 54 24 08          	mov    %edx,0x8(%esp)
  1024cf:	89 4c 24 04          	mov    %ecx,0x4(%esp)
  1024d3:	c7 04 24 40 d4 10 00 	movl   $0x10d440,(%esp)
  1024da:	e8 bc fe ff ff       	call   10239b <kprintf>
  1024df:	c9                   	leave  
  1024e0:	c3                   	ret    
  1024e1:	00 00                	add    %al,(%eax)
	...

001024e4 <basename>:
#include <signal.h>
#include <ioport.h>
#include <biosint.h>
#include <perm.h>

char *basename(char *path) {
  1024e4:	55                   	push   %ebp
  1024e5:	89 e5                	mov    %esp,%ebp
  1024e7:	83 ec 14             	sub    $0x14,%esp
  size_t i;
  char *basename = path;
  1024ea:	8b 45 08             	mov    0x8(%ebp),%eax
  1024ed:	89 45 fc             	mov    %eax,-0x4(%ebp)
  for (i=0;path[i];i++) {
  1024f0:	c7 45 f8 00 00 00 00 	movl   $0x0,-0x8(%ebp)
  1024f7:	eb 1f                	jmp    102518 <basename+0x34>
    if (path[i]=='/') basename = path+i;
  1024f9:	8b 55 f8             	mov    -0x8(%ebp),%edx
  1024fc:	8b 45 08             	mov    0x8(%ebp),%eax
  1024ff:	01 d0                	add    %edx,%eax
  102501:	0f b6 00             	movzbl (%eax),%eax
  102504:	3c 2f                	cmp    $0x2f,%al
  102506:	75 0c                	jne    102514 <basename+0x30>
  102508:	8b 45 f8             	mov    -0x8(%ebp),%eax
  10250b:	8b 55 08             	mov    0x8(%ebp),%edx
  10250e:	8d 04 02             	lea    (%edx,%eax,1),%eax
  102511:	89 45 fc             	mov    %eax,-0x4(%ebp)
#include <perm.h>

char *basename(char *path) {
  size_t i;
  char *basename = path;
  for (i=0;path[i];i++) {
  102514:	83 45 f8 01          	addl   $0x1,-0x8(%ebp)
  102518:	8b 55 f8             	mov    -0x8(%ebp),%edx
  10251b:	8b 45 08             	mov    0x8(%ebp),%eax
  10251e:	01 d0                	add    %edx,%eax
  102520:	0f b6 00             	movzbl (%eax),%eax
  102523:	84 c0                	test   %al,%al
  102525:	75 d2                	jne    1024f9 <basename+0x15>
    if (path[i]=='/') basename = path+i;
  }
  if (*basename==0) return basename;
  102527:	8b 45 fc             	mov    -0x4(%ebp),%eax
  10252a:	0f b6 00             	movzbl (%eax),%eax
  10252d:	84 c0                	test   %al,%al
  10252f:	75 08                	jne    102539 <basename+0x55>
  102531:	8b 45 fc             	mov    -0x4(%ebp),%eax
  102534:	89 45 ec             	mov    %eax,-0x14(%ebp)
  102537:	eb 09                	jmp    102542 <basename+0x5e>
  else return basename+1;
  102539:	8b 45 fc             	mov    -0x4(%ebp),%eax
  10253c:	83 c0 01             	add    $0x1,%eax
  10253f:	89 45 ec             	mov    %eax,-0x14(%ebp)
  102542:	8b 45 ec             	mov    -0x14(%ebp),%eax
}
  102545:	c9                   	leave  
  102546:	c3                   	ret    

00102547 <fourtytwo>:

int fourtytwo() {
  102547:	55                   	push   %ebp
  102548:	89 e5                	mov    %esp,%ebp
  return 42;
  10254a:	b8 2a 00 00 00       	mov    $0x2a,%eax
}
  10254f:	5d                   	pop    %ebp
  102550:	c3                   	ret    

00102551 <putsn>:

int putsn(int out,char *buf,size_t maxlen) {
  102551:	55                   	push   %ebp
  102552:	89 e5                	mov    %esp,%ebp
  102554:	83 ec 18             	sub    $0x18,%esp
  size_t i;
  for (i=0;buf[i]!=0 && i<maxlen;i++) {
  102557:	c7 45 fc 00 00 00 00 	movl   $0x0,-0x4(%ebp)
  10255e:	eb 38                	jmp    102598 <putsn+0x47>
    if (out==0) kprintchar(buf[i]);
  102560:	83 7d 08 00          	cmpl   $0x0,0x8(%ebp)
  102564:	75 18                	jne    10257e <putsn+0x2d>
  102566:	8b 55 fc             	mov    -0x4(%ebp),%edx
  102569:	8b 45 0c             	mov    0xc(%ebp),%eax
  10256c:	01 d0                	add    %edx,%eax
  10256e:	0f b6 00             	movzbl (%eax),%eax
  102571:	0f be c0             	movsbl %al,%eax
  102574:	89 04 24             	mov    %eax,(%esp)
  102577:	e8 ce fa ff ff       	call   10204a <kprintchar>
  10257c:	eb 16                	jmp    102594 <putsn+0x43>
    else com_send(buf[i]);
  10257e:	8b 55 fc             	mov    -0x4(%ebp),%edx
  102581:	8b 45 0c             	mov    0xc(%ebp),%eax
  102584:	01 d0                	add    %edx,%eax
  102586:	0f b6 00             	movzbl (%eax),%eax
  102589:	0f be c0             	movsbl %al,%eax
  10258c:	89 04 24             	mov    %eax,(%esp)
  10258f:	e8 fb 7d 00 00       	call   10a38f <com_send>
  return 42;
}

int putsn(int out,char *buf,size_t maxlen) {
  size_t i;
  for (i=0;buf[i]!=0 && i<maxlen;i++) {
  102594:	83 45 fc 01          	addl   $0x1,-0x4(%ebp)
  102598:	8b 55 fc             	mov    -0x4(%ebp),%edx
  10259b:	8b 45 0c             	mov    0xc(%ebp),%eax
  10259e:	01 d0                	add    %edx,%eax
  1025a0:	0f b6 00             	movzbl (%eax),%eax
  1025a3:	84 c0                	test   %al,%al
  1025a5:	74 08                	je     1025af <putsn+0x5e>
  1025a7:	8b 45 fc             	mov    -0x4(%ebp),%eax
  1025aa:	3b 45 10             	cmp    0x10(%ebp),%eax
  1025ad:	72 b1                	jb     102560 <putsn+0xf>
    if (out==0) kprintchar(buf[i]);
    else com_send(buf[i]);
  }
  return i;
  1025af:	8b 45 fc             	mov    -0x4(%ebp),%eax
}
  1025b2:	c9                   	leave  
  1025b3:	c3                   	ret    

001025b4 <main>:
 * Initializes and runs kernel
 *  @param mbi Multiboot Info
 *  @param magic Multiboot magic number
 *  @return Should not return
 */
int main(multiboot_info_t *mbi,uint32_t magic) {
  1025b4:	8d 4c 24 04          	lea    0x4(%esp),%ecx
  1025b8:	83 e4 f0             	and    $0xfffffff0,%esp
  1025bb:	ff 71 fc             	pushl  -0x4(%ecx)
  1025be:	55                   	push   %ebp
  1025bf:	89 e5                	mov    %esp,%ebp
  1025c1:	51                   	push   %ecx
  1025c2:	81 ec 94 00 00 00    	sub    $0x94,%esp
  1025c8:	89 4d 84             	mov    %ecx,-0x7c(%ebp)
  vga_init();
  1025cb:	e8 e8 79 00 00       	call   109fb8 <vga_init>

  kprintf("meinOS\n\n");
  1025d0:	c7 04 24 78 d4 10 00 	movl   $0x10d478,(%esp)
  1025d7:	e8 bf fd ff ff       	call   10239b <kprintf>

  if (magic!=MULTIBOOT_MAGIC) panic("Not booted with a multiboot bootloader.\n");
  1025dc:	8b 45 84             	mov    -0x7c(%ebp),%eax
  1025df:	81 78 04 02 b0 ad 2b 	cmpl   $0x2badb002,0x4(%eax)
  1025e6:	74 0c                	je     1025f4 <main+0x40>
  1025e8:	c7 04 24 84 d4 10 00 	movl   $0x10d484,(%esp)
  1025ef:	e8 c7 fd ff ff       	call   1023bb <panic>

  memuser_inited = 0;
  1025f4:	c7 05 88 e1 10 00 00 	movl   $0x0,0x10e188
  1025fb:	00 00 00 
  test(multiboot_init(mbi));
  1025fe:	c7 44 24 04 ad d4 10 	movl   $0x10d4ad,0x4(%esp)
  102605:	00 
  102606:	c7 04 24 c1 d4 10 00 	movl   $0x10d4c1,(%esp)
  10260d:	e8 89 fd ff ff       	call   10239b <kprintf>
  102612:	8b 55 84             	mov    -0x7c(%ebp),%edx
  102615:	8b 02                	mov    (%edx),%eax
  102617:	89 04 24             	mov    %eax,(%esp)
  10261a:	e8 65 27 00 00       	call   104d84 <multiboot_init>
  10261f:	85 c0                	test   %eax,%eax
  102621:	75 09                	jne    10262c <main+0x78>
  102623:	c7 45 88 c7 d4 10 00 	movl   $0x10d4c7,-0x78(%ebp)
  10262a:	eb 07                	jmp    102633 <main+0x7f>
  10262c:	c7 45 88 cc d4 10 00 	movl   $0x10d4cc,-0x78(%ebp)
  102633:	8b 45 88             	mov    -0x78(%ebp),%eax
  102636:	89 44 24 04          	mov    %eax,0x4(%esp)
  10263a:	c7 04 24 d3 d4 10 00 	movl   $0x10d4d3,(%esp)
  102641:	e8 55 fd ff ff       	call   10239b <kprintf>
  test(paging_init());
  102646:	c7 44 24 04 d7 d4 10 	movl   $0x10d4d7,0x4(%esp)
  10264d:	00 
  10264e:	c7 04 24 c1 d4 10 00 	movl   $0x10d4c1,(%esp)
  102655:	e8 41 fd ff ff       	call   10239b <kprintf>
  10265a:	e8 a1 28 00 00       	call   104f00 <paging_init>
  10265f:	85 c0                	test   %eax,%eax
  102661:	75 09                	jne    10266c <main+0xb8>
  102663:	c7 45 8c c7 d4 10 00 	movl   $0x10d4c7,-0x74(%ebp)
  10266a:	eb 07                	jmp    102673 <main+0xbf>
  10266c:	c7 45 8c cc d4 10 00 	movl   $0x10d4cc,-0x74(%ebp)
  102673:	8b 55 8c             	mov    -0x74(%ebp),%edx
  102676:	89 54 24 04          	mov    %edx,0x4(%esp)
  10267a:	c7 04 24 d3 d4 10 00 	movl   $0x10d4d3,(%esp)
  102681:	e8 15 fd ff ff       	call   10239b <kprintf>
  test(memphys_init());
  102686:	c7 44 24 04 e5 d4 10 	movl   $0x10d4e5,0x4(%esp)
  10268d:	00 
  10268e:	c7 04 24 c1 d4 10 00 	movl   $0x10d4c1,(%esp)
  102695:	e8 01 fd ff ff       	call   10239b <kprintf>
  10269a:	e8 b9 0c 00 00       	call   103358 <memphys_init>
  10269f:	85 c0                	test   %eax,%eax
  1026a1:	75 09                	jne    1026ac <main+0xf8>
  1026a3:	c7 45 90 c7 d4 10 00 	movl   $0x10d4c7,-0x70(%ebp)
  1026aa:	eb 07                	jmp    1026b3 <main+0xff>
  1026ac:	c7 45 90 cc d4 10 00 	movl   $0x10d4cc,-0x70(%ebp)
  1026b3:	8b 45 90             	mov    -0x70(%ebp),%eax
  1026b6:	89 44 24 04          	mov    %eax,0x4(%esp)
  1026ba:	c7 04 24 d3 d4 10 00 	movl   $0x10d4d3,(%esp)
  1026c1:	e8 d5 fc ff ff       	call   10239b <kprintf>
  test(memkernel_init());
  1026c6:	c7 44 24 04 f4 d4 10 	movl   $0x10d4f4,0x4(%esp)
  1026cd:	00 
  1026ce:	c7 04 24 c1 d4 10 00 	movl   $0x10d4c1,(%esp)
  1026d5:	e8 c1 fc ff ff       	call   10239b <kprintf>
  1026da:	e8 c5 0a 00 00       	call   1031a4 <memkernel_init>
  1026df:	85 c0                	test   %eax,%eax
  1026e1:	75 09                	jne    1026ec <main+0x138>
  1026e3:	c7 45 94 c7 d4 10 00 	movl   $0x10d4c7,-0x6c(%ebp)
  1026ea:	eb 07                	jmp    1026f3 <main+0x13f>
  1026ec:	c7 45 94 cc d4 10 00 	movl   $0x10d4cc,-0x6c(%ebp)
  1026f3:	8b 55 94             	mov    -0x6c(%ebp),%edx
  1026f6:	89 54 24 04          	mov    %edx,0x4(%esp)
  1026fa:	c7 04 24 d3 d4 10 00 	movl   $0x10d4d3,(%esp)
  102701:	e8 95 fc ff ff       	call   10239b <kprintf>
  test(syscall_init());
  102706:	c7 44 24 04 05 d5 10 	movl   $0x10d505,0x4(%esp)
  10270d:	00 
  10270e:	c7 04 24 c1 d4 10 00 	movl   $0x10d4c1,(%esp)
  102715:	e8 81 fc ff ff       	call   10239b <kprintf>
  10271a:	e8 41 76 00 00       	call   109d60 <syscall_init>
  10271f:	85 c0                	test   %eax,%eax
  102721:	75 09                	jne    10272c <main+0x178>
  102723:	c7 45 98 c7 d4 10 00 	movl   $0x10d4c7,-0x68(%ebp)
  10272a:	eb 07                	jmp    102733 <main+0x17f>
  10272c:	c7 45 98 cc d4 10 00 	movl   $0x10d4cc,-0x68(%ebp)
  102733:	8b 45 98             	mov    -0x68(%ebp),%eax
  102736:	89 44 24 04          	mov    %eax,0x4(%esp)
  10273a:	c7 04 24 d3 d4 10 00 	movl   $0x10d4d3,(%esp)
  102741:	e8 55 fc ff ff       	call   10239b <kprintf>
  test(cpu_init());
  102746:	c7 44 24 04 14 d5 10 	movl   $0x10d514,0x4(%esp)
  10274d:	00 
  10274e:	c7 04 24 c1 d4 10 00 	movl   $0x10d4c1,(%esp)
  102755:	e8 41 fc ff ff       	call   10239b <kprintf>
  10275a:	e8 a1 db ff ff       	call   100300 <cpu_init>
  10275f:	85 c0                	test   %eax,%eax
  102761:	75 09                	jne    10276c <main+0x1b8>
  102763:	c7 45 9c c7 d4 10 00 	movl   $0x10d4c7,-0x64(%ebp)
  10276a:	eb 07                	jmp    102773 <main+0x1bf>
  10276c:	c7 45 9c cc d4 10 00 	movl   $0x10d4cc,-0x64(%ebp)
  102773:	8b 55 9c             	mov    -0x64(%ebp),%edx
  102776:	89 54 24 04          	mov    %edx,0x4(%esp)
  10277a:	c7 04 24 d3 d4 10 00 	movl   $0x10d4d3,(%esp)
  102781:	e8 15 fc ff ff       	call   10239b <kprintf>
  test(gdt_init());
  102786:	c7 44 24 04 1f d5 10 	movl   $0x10d51f,0x4(%esp)
  10278d:	00 
  10278e:	c7 04 24 c1 d4 10 00 	movl   $0x10d4c1,(%esp)
  102795:	e8 01 fc ff ff       	call   10239b <kprintf>
  10279a:	e8 8c df ff ff       	call   10072b <gdt_init>
  10279f:	85 c0                	test   %eax,%eax
  1027a1:	75 09                	jne    1027ac <main+0x1f8>
  1027a3:	c7 45 a0 c7 d4 10 00 	movl   $0x10d4c7,-0x60(%ebp)
  1027aa:	eb 07                	jmp    1027b3 <main+0x1ff>
  1027ac:	c7 45 a0 cc d4 10 00 	movl   $0x10d4cc,-0x60(%ebp)
  1027b3:	8b 45 a0             	mov    -0x60(%ebp),%eax
  1027b6:	89 44 24 04          	mov    %eax,0x4(%esp)
  1027ba:	c7 04 24 d3 d4 10 00 	movl   $0x10d4d3,(%esp)
  1027c1:	e8 d5 fb ff ff       	call   10239b <kprintf>
  test(idt_init());
  1027c6:	c7 44 24 04 2a d5 10 	movl   $0x10d52a,0x4(%esp)
  1027cd:	00 
  1027ce:	c7 04 24 c1 d4 10 00 	movl   $0x10d4c1,(%esp)
  1027d5:	e8 c1 fb ff ff       	call   10239b <kprintf>
  1027da:	e8 b9 e0 ff ff       	call   100898 <idt_init>
  1027df:	85 c0                	test   %eax,%eax
  1027e1:	75 09                	jne    1027ec <main+0x238>
  1027e3:	c7 45 a4 c7 d4 10 00 	movl   $0x10d4c7,-0x5c(%ebp)
  1027ea:	eb 07                	jmp    1027f3 <main+0x23f>
  1027ec:	c7 45 a4 cc d4 10 00 	movl   $0x10d4cc,-0x5c(%ebp)
  1027f3:	8b 55 a4             	mov    -0x5c(%ebp),%edx
  1027f6:	89 54 24 04          	mov    %edx,0x4(%esp)
  1027fa:	c7 04 24 d3 d4 10 00 	movl   $0x10d4d3,(%esp)
  102801:	e8 95 fb ff ff       	call   10239b <kprintf>
  test(interrupt_init());
  102806:	c7 44 24 04 35 d5 10 	movl   $0x10d535,0x4(%esp)
  10280d:	00 
  10280e:	c7 04 24 c1 d4 10 00 	movl   $0x10d4c1,(%esp)
  102815:	e8 81 fb ff ff       	call   10239b <kprintf>
  10281a:	e8 91 e1 ff ff       	call   1009b0 <interrupt_init>
  10281f:	85 c0                	test   %eax,%eax
  102821:	75 09                	jne    10282c <main+0x278>
  102823:	c7 45 a8 c7 d4 10 00 	movl   $0x10d4c7,-0x58(%ebp)
  10282a:	eb 07                	jmp    102833 <main+0x27f>
  10282c:	c7 45 a8 cc d4 10 00 	movl   $0x10d4cc,-0x58(%ebp)
  102833:	8b 45 a8             	mov    -0x58(%ebp),%eax
  102836:	89 44 24 04          	mov    %eax,0x4(%esp)
  10283a:	c7 04 24 d3 d4 10 00 	movl   $0x10d4d3,(%esp)
  102841:	e8 55 fb ff ff       	call   10239b <kprintf>
  test(lapic_init());
  102846:	c7 44 24 04 46 d5 10 	movl   $0x10d546,0x4(%esp)
  10284d:	00 
  10284e:	c7 04 24 c1 d4 10 00 	movl   $0x10d4c1,(%esp)
  102855:	e8 41 fb ff ff       	call   10239b <kprintf>
  10285a:	e8 ad fb ff ff       	call   10240c <lapic_init>
  10285f:	85 c0                	test   %eax,%eax
  102861:	75 09                	jne    10286c <main+0x2b8>
  102863:	c7 45 ac c7 d4 10 00 	movl   $0x10d4c7,-0x54(%ebp)
  10286a:	eb 07                	jmp    102873 <main+0x2bf>
  10286c:	c7 45 ac cc d4 10 00 	movl   $0x10d4cc,-0x54(%ebp)
  102873:	8b 55 ac             	mov    -0x54(%ebp),%edx
  102876:	89 54 24 04          	mov    %edx,0x4(%esp)
  10287a:	c7 04 24 d3 d4 10 00 	movl   $0x10d4d3,(%esp)
  102881:	e8 15 fb ff ff       	call   10239b <kprintf>
  test(tss_init());
  102886:	c7 44 24 04 53 d5 10 	movl   $0x10d553,0x4(%esp)
  10288d:	00 
  10288e:	c7 04 24 c1 d4 10 00 	movl   $0x10d4c1,(%esp)
  102895:	e8 01 fb ff ff       	call   10239b <kprintf>
  10289a:	e8 fd 75 00 00       	call   109e9c <tss_init>
  10289f:	85 c0                	test   %eax,%eax
  1028a1:	75 09                	jne    1028ac <main+0x2f8>
  1028a3:	c7 45 b0 c7 d4 10 00 	movl   $0x10d4c7,-0x50(%ebp)
  1028aa:	eb 07                	jmp    1028b3 <main+0x2ff>
  1028ac:	c7 45 b0 cc d4 10 00 	movl   $0x10d4cc,-0x50(%ebp)
  1028b3:	8b 45 b0             	mov    -0x50(%ebp),%eax
  1028b6:	89 44 24 04          	mov    %eax,0x4(%esp)
  1028ba:	c7 04 24 d3 d4 10 00 	movl   $0x10d4d3,(%esp)
  1028c1:	e8 d5 fa ff ff       	call   10239b <kprintf>
  test(ioport_init());
  1028c6:	c7 44 24 04 5e d5 10 	movl   $0x10d55e,0x4(%esp)
  1028cd:	00 
  1028ce:	c7 04 24 c1 d4 10 00 	movl   $0x10d4c1,(%esp)
  1028d5:	e8 c1 fa ff ff       	call   10239b <kprintf>
  1028da:	e8 41 eb ff ff       	call   101420 <ioport_init>
  1028df:	85 c0                	test   %eax,%eax
  1028e1:	75 09                	jne    1028ec <main+0x338>
  1028e3:	c7 45 b4 c7 d4 10 00 	movl   $0x10d4c7,-0x4c(%ebp)
  1028ea:	eb 07                	jmp    1028f3 <main+0x33f>
  1028ec:	c7 45 b4 cc d4 10 00 	movl   $0x10d4cc,-0x4c(%ebp)
  1028f3:	8b 55 b4             	mov    -0x4c(%ebp),%edx
  1028f6:	89 54 24 04          	mov    %edx,0x4(%esp)
  1028fa:	c7 04 24 d3 d4 10 00 	movl   $0x10d4d3,(%esp)
  102901:	e8 95 fa ff ff       	call   10239b <kprintf>
  test(ipc_init());
  102906:	c7 44 24 04 6c d5 10 	movl   $0x10d56c,0x4(%esp)
  10290d:	00 
  10290e:	c7 04 24 c1 d4 10 00 	movl   $0x10d4c1,(%esp)
  102915:	e8 81 fa ff ff       	call   10239b <kprintf>
  10291a:	e8 8d eb ff ff       	call   1014ac <ipc_init>
  10291f:	85 c0                	test   %eax,%eax
  102921:	75 09                	jne    10292c <main+0x378>
  102923:	c7 45 b8 c7 d4 10 00 	movl   $0x10d4c7,-0x48(%ebp)
  10292a:	eb 07                	jmp    102933 <main+0x37f>
  10292c:	c7 45 b8 cc d4 10 00 	movl   $0x10d4cc,-0x48(%ebp)
  102933:	8b 45 b8             	mov    -0x48(%ebp),%eax
  102936:	89 44 24 04          	mov    %eax,0x4(%esp)
  10293a:	c7 04 24 d3 d4 10 00 	movl   $0x10d4d3,(%esp)
  102941:	e8 55 fa ff ff       	call   10239b <kprintf>
  test(rpc_init());
  102946:	c7 44 24 04 77 d5 10 	movl   $0x10d577,0x4(%esp)
  10294d:	00 
  10294e:	c7 04 24 c1 d4 10 00 	movl   $0x10d4c1,(%esp)
  102955:	e8 41 fa ff ff       	call   10239b <kprintf>
  10295a:	e8 e9 4e 00 00       	call   107848 <rpc_init>
  10295f:	85 c0                	test   %eax,%eax
  102961:	75 09                	jne    10296c <main+0x3b8>
  102963:	c7 45 bc c7 d4 10 00 	movl   $0x10d4c7,-0x44(%ebp)
  10296a:	eb 07                	jmp    102973 <main+0x3bf>
  10296c:	c7 45 bc cc d4 10 00 	movl   $0x10d4cc,-0x44(%ebp)
  102973:	8b 55 bc             	mov    -0x44(%ebp),%edx
  102976:	89 54 24 04          	mov    %edx,0x4(%esp)
  10297a:	c7 04 24 d3 d4 10 00 	movl   $0x10d4d3,(%esp)
  102981:	e8 15 fa ff ff       	call   10239b <kprintf>
  test(signal_init());
  102986:	c7 44 24 04 82 d5 10 	movl   $0x10d582,0x4(%esp)
  10298d:	00 
  10298e:	c7 04 24 c1 d4 10 00 	movl   $0x10d4c1,(%esp)
  102995:	e8 01 fa ff ff       	call   10239b <kprintf>
  10299a:	e8 b9 6f 00 00       	call   109958 <signal_init>
  10299f:	85 c0                	test   %eax,%eax
  1029a1:	75 09                	jne    1029ac <main+0x3f8>
  1029a3:	c7 45 c0 c7 d4 10 00 	movl   $0x10d4c7,-0x40(%ebp)
  1029aa:	eb 07                	jmp    1029b3 <main+0x3ff>
  1029ac:	c7 45 c0 cc d4 10 00 	movl   $0x10d4cc,-0x40(%ebp)
  1029b3:	8b 45 c0             	mov    -0x40(%ebp),%eax
  1029b6:	89 44 24 04          	mov    %eax,0x4(%esp)
  1029ba:	c7 04 24 d3 d4 10 00 	movl   $0x10d4d3,(%esp)
  1029c1:	e8 d5 f9 ff ff       	call   10239b <kprintf>
  test(memuser_init());
  1029c6:	c7 44 24 04 90 d5 10 	movl   $0x10d590,0x4(%esp)
  1029cd:	00 
  1029ce:	c7 04 24 c1 d4 10 00 	movl   $0x10d4c1,(%esp)
  1029d5:	e8 c1 f9 ff ff       	call   10239b <kprintf>
  1029da:	e8 1d 0d 00 00       	call   1036fc <memuser_init>
  1029df:	85 c0                	test   %eax,%eax
  1029e1:	75 09                	jne    1029ec <main+0x438>
  1029e3:	c7 45 c4 c7 d4 10 00 	movl   $0x10d4c7,-0x3c(%ebp)
  1029ea:	eb 07                	jmp    1029f3 <main+0x43f>
  1029ec:	c7 45 c4 cc d4 10 00 	movl   $0x10d4cc,-0x3c(%ebp)
  1029f3:	8b 55 c4             	mov    -0x3c(%ebp),%edx
  1029f6:	89 54 24 04          	mov    %edx,0x4(%esp)
  1029fa:	c7 04 24 d3 d4 10 00 	movl   $0x10d4d3,(%esp)
  102a01:	e8 95 f9 ff ff       	call   10239b <kprintf>
  test(proc_init());
  102a06:	c7 44 24 04 9f d5 10 	movl   $0x10d59f,0x4(%esp)
  102a0d:	00 
  102a0e:	c7 04 24 c1 d4 10 00 	movl   $0x10d4c1,(%esp)
  102a15:	e8 81 f9 ff ff       	call   10239b <kprintf>
  102a1a:	e8 59 33 00 00       	call   105d78 <proc_init>
  102a1f:	85 c0                	test   %eax,%eax
  102a21:	75 09                	jne    102a2c <main+0x478>
  102a23:	c7 45 c8 c7 d4 10 00 	movl   $0x10d4c7,-0x38(%ebp)
  102a2a:	eb 07                	jmp    102a33 <main+0x47f>
  102a2c:	c7 45 c8 cc d4 10 00 	movl   $0x10d4cc,-0x38(%ebp)
  102a33:	8b 45 c8             	mov    -0x38(%ebp),%eax
  102a36:	89 44 24 04          	mov    %eax,0x4(%esp)
  102a3a:	c7 04 24 d3 d4 10 00 	movl   $0x10d4d3,(%esp)
  102a41:	e8 55 f9 ff ff       	call   10239b <kprintf>
  test(biosint_init());
  102a46:	c7 44 24 04 ab d5 10 	movl   $0x10d5ab,0x4(%esp)
  102a4d:	00 
  102a4e:	c7 04 24 c1 d4 10 00 	movl   $0x10d4c1,(%esp)
  102a55:	e8 41 f9 ff ff       	call   10239b <kprintf>
  102a5a:	e8 e9 d5 ff ff       	call   100048 <biosint_init>
  102a5f:	85 c0                	test   %eax,%eax
  102a61:	75 09                	jne    102a6c <main+0x4b8>
  102a63:	c7 45 cc c7 d4 10 00 	movl   $0x10d4c7,-0x34(%ebp)
  102a6a:	eb 07                	jmp    102a73 <main+0x4bf>
  102a6c:	c7 45 cc cc d4 10 00 	movl   $0x10d4cc,-0x34(%ebp)
  102a73:	8b 55 cc             	mov    -0x34(%ebp),%edx
  102a76:	89 54 24 04          	mov    %edx,0x4(%esp)
  102a7a:	c7 04 24 d3 d4 10 00 	movl   $0x10d4d3,(%esp)
  102a81:	e8 15 f9 ff ff       	call   10239b <kprintf>

  /// @deprecated Only for debugging
  syscall_create(SYSCALL_PUTSN,putsn,3);
  102a86:	c7 44 24 08 03 00 00 	movl   $0x3,0x8(%esp)
  102a8d:	00 
  102a8e:	c7 44 24 04 51 25 10 	movl   $0x102551,0x4(%esp)
  102a95:	00 
  102a96:	c7 04 24 4f 00 00 00 	movl   $0x4f,(%esp)
  102a9d:	e8 98 73 00 00       	call   109e3a <syscall_create>
  syscall_create(SYSCALL_FOURTYTWO,fourtytwo,0);
  102aa2:	c7 44 24 08 00 00 00 	movl   $0x0,0x8(%esp)
  102aa9:	00 
  102aaa:	c7 44 24 04 47 25 10 	movl   $0x102547,0x4(%esp)
  102ab1:	00 
  102ab2:	c7 04 24 50 00 00 00 	movl   $0x50,(%esp)
  102ab9:	e8 7c 73 00 00       	call   109e3a <syscall_create>

  // load initial programs
  kprintf("Loading initial programs...\n");
  102abe:	c7 04 24 ba d5 10 00 	movl   $0x10d5ba,(%esp)
  102ac5:	e8 d1 f8 ff ff       	call   10239b <kprintf>
  void *addr;
  char *file;
  char *name;
  proc_t *proc_init;

  for (i=0;(addr = multiboot_get_mod(i,&file,&size));i++) {
  102aca:	c7 45 e4 00 00 00 00 	movl   $0x0,-0x1c(%ebp)
  102ad1:	e9 20 01 00 00       	jmp    102bf6 <main+0x642>
    name = basename(file);
  102ad6:	8b 45 dc             	mov    -0x24(%ebp),%eax
  102ad9:	89 04 24             	mov    %eax,(%esp)
  102adc:	e8 03 fa ff ff       	call   1024e4 <basename>
  102ae1:	89 45 ec             	mov    %eax,-0x14(%ebp)
    kprintf("    %s:\t%s:\t0x%x / 0x%x...",name,file,addr,size);
  102ae4:	8b 45 e0             	mov    -0x20(%ebp),%eax
  102ae7:	8b 55 dc             	mov    -0x24(%ebp),%edx
  102aea:	89 44 24 10          	mov    %eax,0x10(%esp)
  102aee:	8b 45 e8             	mov    -0x18(%ebp),%eax
  102af1:	89 44 24 0c          	mov    %eax,0xc(%esp)
  102af5:	89 54 24 08          	mov    %edx,0x8(%esp)
  102af9:	8b 45 ec             	mov    -0x14(%ebp),%eax
  102afc:	89 44 24 04          	mov    %eax,0x4(%esp)
  102b00:	c7 04 24 d7 d5 10 00 	movl   $0x10d5d7,(%esp)
  102b07:	e8 8f f8 ff ff       	call   10239b <kprintf>
    proc_t *new = proc_create(name,PERM_ROOTUID,PERM_ROOTGID,i==0?NULL:proc_init,(i==0),(i==0));
  102b0c:	83 7d e4 00          	cmpl   $0x0,-0x1c(%ebp)
  102b10:	0f 94 c0             	sete   %al
  102b13:	0f b6 c0             	movzbl %al,%eax
  102b16:	89 45 d0             	mov    %eax,-0x30(%ebp)
  102b19:	83 7d e4 00          	cmpl   $0x0,-0x1c(%ebp)
  102b1d:	0f 94 c0             	sete   %al
  102b20:	0f b6 c0             	movzbl %al,%eax
  102b23:	89 45 d4             	mov    %eax,-0x2c(%ebp)
  102b26:	83 7d e4 00          	cmpl   $0x0,-0x1c(%ebp)
  102b2a:	74 08                	je     102b34 <main+0x580>
  102b2c:	8b 45 f0             	mov    -0x10(%ebp),%eax
  102b2f:	89 45 d8             	mov    %eax,-0x28(%ebp)
  102b32:	eb 07                	jmp    102b3b <main+0x587>
  102b34:	c7 45 d8 00 00 00 00 	movl   $0x0,-0x28(%ebp)
  102b3b:	8b 55 d0             	mov    -0x30(%ebp),%edx
  102b3e:	89 54 24 14          	mov    %edx,0x14(%esp)
  102b42:	8b 45 d4             	mov    -0x2c(%ebp),%eax
  102b45:	89 44 24 10          	mov    %eax,0x10(%esp)
  102b49:	8b 55 d8             	mov    -0x28(%ebp),%edx
  102b4c:	89 54 24 0c          	mov    %edx,0xc(%esp)
  102b50:	c7 44 24 08 01 00 00 	movl   $0x1,0x8(%esp)
  102b57:	00 
  102b58:	c7 44 24 04 01 00 00 	movl   $0x1,0x4(%esp)
  102b5f:	00 
  102b60:	8b 45 ec             	mov    -0x14(%ebp),%eax
  102b63:	89 04 24             	mov    %eax,(%esp)
  102b66:	e8 07 37 00 00       	call   106272 <proc_create>
  102b6b:	89 45 f4             	mov    %eax,-0xc(%ebp)
    if (i==0) proc_init = new;
  102b6e:	83 7d e4 00          	cmpl   $0x0,-0x1c(%ebp)
  102b72:	75 06                	jne    102b7a <main+0x5c6>
  102b74:	8b 45 f4             	mov    -0xc(%ebp),%eax
  102b77:	89 45 f0             	mov    %eax,-0x10(%ebp)
    if (new!=NULL) {
  102b7a:	83 7d f4 00          	cmpl   $0x0,-0xc(%ebp)
  102b7e:	74 66                	je     102be6 <main+0x632>
      void *entrypoint = elf_load(new->addrspace,addr,size);
  102b80:	8b 55 e0             	mov    -0x20(%ebp),%edx
  102b83:	8b 45 f4             	mov    -0xc(%ebp),%eax
  102b86:	8b 48 6c             	mov    0x6c(%eax),%ecx
  102b89:	89 54 24 08          	mov    %edx,0x8(%esp)
  102b8d:	8b 45 e8             	mov    -0x18(%ebp),%eax
  102b90:	89 44 24 04          	mov    %eax,0x4(%esp)
  102b94:	89 0c 24             	mov    %ecx,(%esp)
  102b97:	e8 4e da ff ff       	call   1005ea <elf_load>
  102b9c:	89 45 f8             	mov    %eax,-0x8(%ebp)
      if (entrypoint!=NULL) {
  102b9f:	83 7d f8 00          	cmpl   $0x0,-0x8(%ebp)
  102ba3:	74 36                	je     102bdb <main+0x627>
        new->registers.eip = (uint32_t)entrypoint;
  102ba5:	8b 55 f8             	mov    -0x8(%ebp),%edx
  102ba8:	8b 45 f4             	mov    -0xc(%ebp),%eax
  102bab:	89 50 4c             	mov    %edx,0x4c(%eax)
        new->registers.esp = (uint32_t)memuser_create_stack(new->addrspace);
  102bae:	8b 45 f4             	mov    -0xc(%ebp),%eax
  102bb1:	8b 40 6c             	mov    0x6c(%eax),%eax
  102bb4:	89 04 24             	mov    %eax,(%esp)
  102bb7:	e8 c7 13 00 00       	call   103f83 <memuser_create_stack>
  102bbc:	89 c2                	mov    %eax,%edx
  102bbe:	8b 45 f4             	mov    -0xc(%ebp),%eax
  102bc1:	89 50 48             	mov    %edx,0x48(%eax)
        kprintf("(pid=%d) done\n",new->pid);
  102bc4:	8b 45 f4             	mov    -0xc(%ebp),%eax
  102bc7:	8b 00                	mov    (%eax),%eax
  102bc9:	89 44 24 04          	mov    %eax,0x4(%esp)
  102bcd:	c7 04 24 f2 d5 10 00 	movl   $0x10d5f2,(%esp)
  102bd4:	e8 c2 f7 ff ff       	call   10239b <kprintf>
  102bd9:	eb 17                	jmp    102bf2 <main+0x63e>
        continue;
      }
      else proc_destroy(new);
  102bdb:	8b 45 f4             	mov    -0xc(%ebp),%eax
  102bde:	89 04 24             	mov    %eax,(%esp)
  102be1:	e8 57 38 00 00       	call   10643d <proc_destroy>
    }
    kprintf("failed\n");
  102be6:	c7 04 24 01 d6 10 00 	movl   $0x10d601,(%esp)
  102bed:	e8 a9 f7 ff ff       	call   10239b <kprintf>
  void *addr;
  char *file;
  char *name;
  proc_t *proc_init;

  for (i=0;(addr = multiboot_get_mod(i,&file,&size));i++) {
  102bf2:	83 45 e4 01          	addl   $0x1,-0x1c(%ebp)
  102bf6:	8d 45 e0             	lea    -0x20(%ebp),%eax
  102bf9:	89 44 24 08          	mov    %eax,0x8(%esp)
  102bfd:	8d 45 dc             	lea    -0x24(%ebp),%eax
  102c00:	89 44 24 04          	mov    %eax,0x4(%esp)
  102c04:	8b 45 e4             	mov    -0x1c(%ebp),%eax
  102c07:	89 04 24             	mov    %eax,(%esp)
  102c0a:	e8 c3 21 00 00       	call   104dd2 <multiboot_get_mod>
  102c0f:	89 45 e8             	mov    %eax,-0x18(%ebp)
  102c12:	83 7d e8 00          	cmpl   $0x0,-0x18(%ebp)
  102c16:	0f 85 ba fe ff ff    	jne    102ad6 <main+0x522>
      else proc_destroy(new);
    }
    kprintf("failed\n");
  }

  proc_idle();
  102c1c:	e8 ff 44 00 00       	call   107120 <proc_idle>
  return 0;
  102c21:	b8 00 00 00 00       	mov    $0x0,%eax
}
  102c26:	81 c4 94 00 00 00    	add    $0x94,%esp
  102c2c:	59                   	pop    %ecx
  102c2d:	5d                   	pop    %ebp
  102c2e:	8d 61 fc             	lea    -0x4(%ecx),%esp
  102c31:	c3                   	ret    
	...

00102c34 <malloc_init>:
/**
 * Initializes memory allocator
 *  @param getpage Pointer to page allocator
 *  @param freepage Pointer to page free'r
 */
void malloc_init(void *(*getpage)(size_t size),void (*freepage)(void *addr)) {
  102c34:	55                   	push   %ebp
  102c35:	89 e5                	mov    %esp,%ebp
  _malloc_getpage = getpage;
  102c37:	8b 45 08             	mov    0x8(%ebp),%eax
  102c3a:	a3 40 e9 10 00       	mov    %eax,0x10e940
  _malloc_freepage = freepage;
  102c3f:	8b 45 0c             	mov    0xc(%ebp),%eax
  102c42:	a3 3c e9 10 00       	mov    %eax,0x10e93c
  _malloc_firstfree = NULL;
  102c47:	c7 05 38 e9 10 00 00 	movl   $0x0,0x10e938
  102c4e:	00 00 00 
}
  102c51:	5d                   	pop    %ebp
  102c52:	c3                   	ret    

00102c53 <_malloc_insertlist>:

/**
 * Insert a new free block in free block list
 *  @param header Pointer to new block
 */
void _malloc_insertlist(struct _malloc_header *header) {
  102c53:	55                   	push   %ebp
  102c54:	89 e5                	mov    %esp,%ebp
  102c56:	83 ec 10             	sub    $0x10,%esp
  struct _malloc_header *cur = _malloc_firstfree;
  102c59:	a1 38 e9 10 00       	mov    0x10e938,%eax
  102c5e:	89 45 fc             	mov    %eax,-0x4(%ebp)

  if (_malloc_firstfree==NULL) {
  102c61:	a1 38 e9 10 00       	mov    0x10e938,%eax
  102c66:	85 c0                	test   %eax,%eax
  102c68:	75 17                	jne    102c81 <_malloc_insertlist+0x2e>
    _malloc_firstfree = header;
  102c6a:	8b 45 08             	mov    0x8(%ebp),%eax
  102c6d:	a3 38 e9 10 00       	mov    %eax,0x10e938
    header->nextfree = NULL;
  102c72:	8b 45 08             	mov    0x8(%ebp),%eax
  102c75:	c7 40 08 00 00 00 00 	movl   $0x0,0x8(%eax)
  102c7c:	e9 86 00 00 00       	jmp    102d07 <_malloc_insertlist+0xb4>
  }
  else if (header<(struct _malloc_header*)_malloc_firstfree) {
  102c81:	a1 38 e9 10 00       	mov    0x10e938,%eax
  102c86:	39 45 08             	cmp    %eax,0x8(%ebp)
  102c89:	73 76                	jae    102d01 <_malloc_insertlist+0xae>
    header->nextfree = _malloc_firstfree;
  102c8b:	a1 38 e9 10 00       	mov    0x10e938,%eax
  102c90:	8b 55 08             	mov    0x8(%ebp),%edx
  102c93:	89 42 08             	mov    %eax,0x8(%edx)
    _malloc_firstfree = header;
  102c96:	8b 45 08             	mov    0x8(%ebp),%eax
  102c99:	a3 38 e9 10 00       	mov    %eax,0x10e938
  102c9e:	eb 67                	jmp    102d07 <_malloc_insertlist+0xb4>
  }
  else {
    while (cur!=NULL) {
      if (cur<header && (cur->nextfree>header || cur->nextfree==NULL)) {
  102ca0:	8b 45 fc             	mov    -0x4(%ebp),%eax
  102ca3:	3b 45 08             	cmp    0x8(%ebp),%eax
  102ca6:	73 50                	jae    102cf8 <_malloc_insertlist+0xa5>
  102ca8:	8b 45 fc             	mov    -0x4(%ebp),%eax
  102cab:	8b 40 08             	mov    0x8(%eax),%eax
  102cae:	3b 45 08             	cmp    0x8(%ebp),%eax
  102cb1:	77 0a                	ja     102cbd <_malloc_insertlist+0x6a>
  102cb3:	8b 45 fc             	mov    -0x4(%ebp),%eax
  102cb6:	8b 40 08             	mov    0x8(%eax),%eax
  102cb9:	85 c0                	test   %eax,%eax
  102cbb:	75 3b                	jne    102cf8 <_malloc_insertlist+0xa5>
        if (((uint32_t)cur)+cur->size==(uint32_t)header) { ///< join last block and new one
  102cbd:	8b 45 fc             	mov    -0x4(%ebp),%eax
  102cc0:	8b 40 04             	mov    0x4(%eax),%eax
  102cc3:	03 45 fc             	add    -0x4(%ebp),%eax
  102cc6:	3b 45 08             	cmp    0x8(%ebp),%eax
  102cc9:	75 16                	jne    102ce1 <_malloc_insertlist+0x8e>
          cur->size += header->size;
  102ccb:	8b 45 fc             	mov    -0x4(%ebp),%eax
  102cce:	8b 50 04             	mov    0x4(%eax),%edx
  102cd1:	8b 45 08             	mov    0x8(%ebp),%eax
  102cd4:	8b 40 04             	mov    0x4(%eax),%eax
  102cd7:	01 c2                	add    %eax,%edx
  102cd9:	8b 45 fc             	mov    -0x4(%ebp),%eax
  102cdc:	89 50 04             	mov    %edx,0x4(%eax)
  102cdf:	eb 26                	jmp    102d07 <_malloc_insertlist+0xb4>
        }
        else {
          header->nextfree = cur->nextfree;
  102ce1:	8b 45 fc             	mov    -0x4(%ebp),%eax
  102ce4:	8b 50 08             	mov    0x8(%eax),%edx
  102ce7:	8b 45 08             	mov    0x8(%ebp),%eax
  102cea:	89 50 08             	mov    %edx,0x8(%eax)
          cur->nextfree = header;
  102ced:	8b 55 fc             	mov    -0x4(%ebp),%edx
  102cf0:	8b 45 08             	mov    0x8(%ebp),%eax
  102cf3:	89 42 08             	mov    %eax,0x8(%edx)
  102cf6:	eb 0f                	jmp    102d07 <_malloc_insertlist+0xb4>
        }
        break;
      }
      cur = cur->nextfree;
  102cf8:	8b 45 fc             	mov    -0x4(%ebp),%eax
  102cfb:	8b 40 08             	mov    0x8(%eax),%eax
  102cfe:	89 45 fc             	mov    %eax,-0x4(%ebp)
  else if (header<(struct _malloc_header*)_malloc_firstfree) {
    header->nextfree = _malloc_firstfree;
    _malloc_firstfree = header;
  }
  else {
    while (cur!=NULL) {
  102d01:	83 7d fc 00          	cmpl   $0x0,-0x4(%ebp)
  102d05:	75 99                	jne    102ca0 <_malloc_insertlist+0x4d>
      }
      cur = cur->nextfree;
    }
  }

  if (((uint32_t)header)+header->size==((uint32_t)header->nextfree)) { ///< join next block and new one
  102d07:	8b 45 08             	mov    0x8(%ebp),%eax
  102d0a:	8b 40 04             	mov    0x4(%eax),%eax
  102d0d:	89 c2                	mov    %eax,%edx
  102d0f:	03 55 08             	add    0x8(%ebp),%edx
  102d12:	8b 45 08             	mov    0x8(%ebp),%eax
  102d15:	8b 40 08             	mov    0x8(%eax),%eax
  102d18:	39 c2                	cmp    %eax,%edx
  102d1a:	75 26                	jne    102d42 <_malloc_insertlist+0xef>
    header->size += header->nextfree->size;
  102d1c:	8b 45 08             	mov    0x8(%ebp),%eax
  102d1f:	8b 50 04             	mov    0x4(%eax),%edx
  102d22:	8b 45 08             	mov    0x8(%ebp),%eax
  102d25:	8b 40 08             	mov    0x8(%eax),%eax
  102d28:	8b 40 04             	mov    0x4(%eax),%eax
  102d2b:	01 c2                	add    %eax,%edx
  102d2d:	8b 45 08             	mov    0x8(%ebp),%eax
  102d30:	89 50 04             	mov    %edx,0x4(%eax)
    header->nextfree = header->nextfree->nextfree;
  102d33:	8b 45 08             	mov    0x8(%ebp),%eax
  102d36:	8b 40 08             	mov    0x8(%eax),%eax
  102d39:	8b 50 08             	mov    0x8(%eax),%edx
  102d3c:	8b 45 08             	mov    0x8(%ebp),%eax
  102d3f:	89 50 08             	mov    %edx,0x8(%eax)
  }
}
  102d42:	c9                   	leave  
  102d43:	c3                   	ret    

00102d44 <malloc_donatemem>:
/**
 * Donates memory for a free block
 *  @param addr Address of free memory
 *  @param size Size of free memory
 */
void malloc_donatemem(void *addr,size_t size) {
  102d44:	55                   	push   %ebp
  102d45:	89 e5                	mov    %esp,%ebp
  102d47:	83 ec 14             	sub    $0x14,%esp
  if (addr!=NULL) {
  102d4a:	83 7d 08 00          	cmpl   $0x0,0x8(%ebp)
  102d4e:	74 23                	je     102d73 <malloc_donatemem+0x2f>
    struct _malloc_header *header = (struct _malloc_header*)addr;
  102d50:	8b 45 08             	mov    0x8(%ebp),%eax
  102d53:	89 45 fc             	mov    %eax,-0x4(%ebp)
    header->flags = 0;
  102d56:	8b 45 fc             	mov    -0x4(%ebp),%eax
  102d59:	c7 00 00 00 00 00    	movl   $0x0,(%eax)
    header->size = size;
  102d5f:	8b 55 fc             	mov    -0x4(%ebp),%edx
  102d62:	8b 45 0c             	mov    0xc(%ebp),%eax
  102d65:	89 42 04             	mov    %eax,0x4(%edx)
    _malloc_insertlist(header);
  102d68:	8b 45 fc             	mov    -0x4(%ebp),%eax
  102d6b:	89 04 24             	mov    %eax,(%esp)
  102d6e:	e8 e0 fe ff ff       	call   102c53 <_malloc_insertlist>
  }
}
  102d73:	c9                   	leave  
  102d74:	c3                   	ret    

00102d75 <_malloc_getmem>:

/**
 * Adds a new free block of the size of a page to list
 *  @return Address of new memory block
 */
void *_malloc_getmem() {
  102d75:	55                   	push   %ebp
  102d76:	89 e5                	mov    %esp,%ebp
  102d78:	83 ec 18             	sub    $0x18,%esp
  void *addr = _malloc_getpage(PAGE_SIZE);
  102d7b:	a1 40 e9 10 00       	mov    0x10e940,%eax
  102d80:	c7 04 24 00 10 00 00 	movl   $0x1000,(%esp)
  102d87:	ff d0                	call   *%eax
  102d89:	89 45 fc             	mov    %eax,-0x4(%ebp)
  malloc_donatemem(addr,PAGE_SIZE);
  102d8c:	c7 44 24 04 00 10 00 	movl   $0x1000,0x4(%esp)
  102d93:	00 
  102d94:	8b 45 fc             	mov    -0x4(%ebp),%eax
  102d97:	89 04 24             	mov    %eax,(%esp)
  102d9a:	e8 a5 ff ff ff       	call   102d44 <malloc_donatemem>
  return addr;
  102d9f:	8b 45 fc             	mov    -0x4(%ebp),%eax
}
  102da2:	c9                   	leave  
  102da3:	c3                   	ret    

00102da4 <_malloc_getfree>:
/**
 * Gets a free block and marks it as used
 *  @param size Needed block's size
 *  @return Pointer to block
 */
struct _malloc_header *_malloc_getfree(size_t size) {
  102da4:	55                   	push   %ebp
  102da5:	89 e5                	mov    %esp,%ebp
  102da7:	83 ec 18             	sub    $0x18,%esp
  while (1) {
    struct _malloc_header *cur = _malloc_firstfree;
  102daa:	a1 38 e9 10 00       	mov    0x10e938,%eax
  102daf:	89 45 f4             	mov    %eax,-0xc(%ebp)
    struct _malloc_header *last = NULL;
  102db2:	c7 45 f8 00 00 00 00 	movl   $0x0,-0x8(%ebp)
  102db9:	e9 cd 00 00 00       	jmp    102e8b <_malloc_getfree+0xe7>

    while (cur!=NULL) {
      //if (size>=cur->size && size<=cur->size+sizeof(struct _malloc_header)) { ///< I want this block!
      if (size==cur->size) {
  102dbe:	8b 45 f4             	mov    -0xc(%ebp),%eax
  102dc1:	8b 40 04             	mov    0x4(%eax),%eax
  102dc4:	3b 45 08             	cmp    0x8(%ebp),%eax
  102dc7:	75 39                	jne    102e02 <_malloc_getfree+0x5e>
        cur->flags |= 1;
  102dc9:	8b 45 f4             	mov    -0xc(%ebp),%eax
  102dcc:	8b 00                	mov    (%eax),%eax
  102dce:	89 c2                	mov    %eax,%edx
  102dd0:	83 ca 01             	or     $0x1,%edx
  102dd3:	8b 45 f4             	mov    -0xc(%ebp),%eax
  102dd6:	89 10                	mov    %edx,(%eax)
        if (last==NULL) _malloc_firstfree = cur->nextfree;
  102dd8:	83 7d f8 00          	cmpl   $0x0,-0x8(%ebp)
  102ddc:	75 0d                	jne    102deb <_malloc_getfree+0x47>
  102dde:	8b 45 f4             	mov    -0xc(%ebp),%eax
  102de1:	8b 40 08             	mov    0x8(%eax),%eax
  102de4:	a3 38 e9 10 00       	mov    %eax,0x10e938
  102de9:	eb 0c                	jmp    102df7 <_malloc_getfree+0x53>
        else last->nextfree = cur->nextfree;
  102deb:	8b 45 f4             	mov    -0xc(%ebp),%eax
  102dee:	8b 50 08             	mov    0x8(%eax),%edx
  102df1:	8b 45 f8             	mov    -0x8(%ebp),%eax
  102df4:	89 50 08             	mov    %edx,0x8(%eax)
        return cur;
  102df7:	8b 45 f4             	mov    -0xc(%ebp),%eax
  102dfa:	89 45 ec             	mov    %eax,-0x14(%ebp)
  102dfd:	e9 9d 00 00 00       	jmp    102e9f <_malloc_getfree+0xfb>
      }
      else if (cur->size>=size+sizeof(struct _malloc_header)) { ///< Just split it
  102e02:	8b 45 f4             	mov    -0xc(%ebp),%eax
  102e05:	8b 50 04             	mov    0x4(%eax),%edx
  102e08:	8b 45 08             	mov    0x8(%ebp),%eax
  102e0b:	83 c0 0c             	add    $0xc,%eax
  102e0e:	39 c2                	cmp    %eax,%edx
  102e10:	72 6a                	jb     102e7c <_malloc_getfree+0xd8>
        struct _malloc_header *new = (struct _malloc_header*)(((uint8_t*)cur)+size);
  102e12:	8b 55 08             	mov    0x8(%ebp),%edx
  102e15:	8b 45 f4             	mov    -0xc(%ebp),%eax
  102e18:	01 d0                	add    %edx,%eax
  102e1a:	89 45 fc             	mov    %eax,-0x4(%ebp)
        new->flags = 0;
  102e1d:	8b 45 fc             	mov    -0x4(%ebp),%eax
  102e20:	c7 00 00 00 00 00    	movl   $0x0,(%eax)
        new->size = cur->size-size;
  102e26:	8b 45 f4             	mov    -0xc(%ebp),%eax
  102e29:	8b 40 04             	mov    0x4(%eax),%eax
  102e2c:	89 c2                	mov    %eax,%edx
  102e2e:	2b 55 08             	sub    0x8(%ebp),%edx
  102e31:	8b 45 fc             	mov    -0x4(%ebp),%eax
  102e34:	89 50 04             	mov    %edx,0x4(%eax)
        new->nextfree = cur->nextfree;
  102e37:	8b 45 f4             	mov    -0xc(%ebp),%eax
  102e3a:	8b 50 08             	mov    0x8(%eax),%edx
  102e3d:	8b 45 fc             	mov    -0x4(%ebp),%eax
  102e40:	89 50 08             	mov    %edx,0x8(%eax)
        cur->size = size;
  102e43:	8b 55 f4             	mov    -0xc(%ebp),%edx
  102e46:	8b 45 08             	mov    0x8(%ebp),%eax
  102e49:	89 42 04             	mov    %eax,0x4(%edx)
        cur->flags |= 1;
  102e4c:	8b 45 f4             	mov    -0xc(%ebp),%eax
  102e4f:	8b 00                	mov    (%eax),%eax
  102e51:	89 c2                	mov    %eax,%edx
  102e53:	83 ca 01             	or     $0x1,%edx
  102e56:	8b 45 f4             	mov    -0xc(%ebp),%eax
  102e59:	89 10                	mov    %edx,(%eax)
        if (last==NULL) _malloc_firstfree = new;
  102e5b:	83 7d f8 00          	cmpl   $0x0,-0x8(%ebp)
  102e5f:	75 0a                	jne    102e6b <_malloc_getfree+0xc7>
  102e61:	8b 45 fc             	mov    -0x4(%ebp),%eax
  102e64:	a3 38 e9 10 00       	mov    %eax,0x10e938
  102e69:	eb 09                	jmp    102e74 <_malloc_getfree+0xd0>
        else last->nextfree = new;
  102e6b:	8b 55 f8             	mov    -0x8(%ebp),%edx
  102e6e:	8b 45 fc             	mov    -0x4(%ebp),%eax
  102e71:	89 42 08             	mov    %eax,0x8(%edx)
        return cur;
  102e74:	8b 45 f4             	mov    -0xc(%ebp),%eax
  102e77:	89 45 ec             	mov    %eax,-0x14(%ebp)
  102e7a:	eb 23                	jmp    102e9f <_malloc_getfree+0xfb>
      }
      last = cur;
  102e7c:	8b 45 f4             	mov    -0xc(%ebp),%eax
  102e7f:	89 45 f8             	mov    %eax,-0x8(%ebp)
      cur = cur->nextfree;
  102e82:	8b 45 f4             	mov    -0xc(%ebp),%eax
  102e85:	8b 40 08             	mov    0x8(%eax),%eax
  102e88:	89 45 f4             	mov    %eax,-0xc(%ebp)
struct _malloc_header *_malloc_getfree(size_t size) {
  while (1) {
    struct _malloc_header *cur = _malloc_firstfree;
    struct _malloc_header *last = NULL;

    while (cur!=NULL) {
  102e8b:	83 7d f4 00          	cmpl   $0x0,-0xc(%ebp)
  102e8f:	0f 85 29 ff ff ff    	jne    102dbe <_malloc_getfree+0x1a>
        return cur;
      }
      last = cur;
      cur = cur->nextfree;
    }
    _malloc_getmem();
  102e95:	e8 db fe ff ff       	call   102d75 <_malloc_getmem>
  102e9a:	e9 0b ff ff ff       	jmp    102daa <_malloc_getfree+0x6>
  }
  102e9f:	8b 45 ec             	mov    -0x14(%ebp),%eax
}
  102ea2:	c9                   	leave  
  102ea3:	c3                   	ret    

00102ea4 <_malloc_checkforfree>:

/**
 * Checks for a free page and frees it
 */
void _malloc_checkforfree() {
  102ea4:	55                   	push   %ebp
  102ea5:	89 e5                	mov    %esp,%ebp
  102ea7:	83 ec 18             	sub    $0x18,%esp
  struct _malloc_header *cur = _malloc_firstfree;
  102eaa:	a1 38 e9 10 00       	mov    0x10e938,%eax
  102eaf:	89 45 f8             	mov    %eax,-0x8(%ebp)
  struct _malloc_header *last = NULL;
  102eb2:	c7 45 fc 00 00 00 00 	movl   $0x0,-0x4(%ebp)
  102eb9:	e9 9f 00 00 00       	jmp    102f5d <_malloc_checkforfree+0xb9>

  while (cur!=NULL) {
    if (cur->size==PAGE_SIZE && ((uint32_t)cur)%PAGE_SIZE==0) { ///< We can just free it
  102ebe:	8b 45 f8             	mov    -0x8(%ebp),%eax
  102ec1:	8b 40 04             	mov    0x4(%eax),%eax
  102ec4:	3d 00 10 00 00       	cmp    $0x1000,%eax
  102ec9:	75 3b                	jne    102f06 <_malloc_checkforfree+0x62>
  102ecb:	8b 45 f8             	mov    -0x8(%ebp),%eax
  102ece:	25 ff 0f 00 00       	and    $0xfff,%eax
  102ed3:	85 c0                	test   %eax,%eax
  102ed5:	75 2f                	jne    102f06 <_malloc_checkforfree+0x62>
      if (last==NULL) _malloc_firstfree = cur->nextfree;
  102ed7:	83 7d fc 00          	cmpl   $0x0,-0x4(%ebp)
  102edb:	75 0d                	jne    102eea <_malloc_checkforfree+0x46>
  102edd:	8b 45 f8             	mov    -0x8(%ebp),%eax
  102ee0:	8b 40 08             	mov    0x8(%eax),%eax
  102ee3:	a3 38 e9 10 00       	mov    %eax,0x10e938
  102ee8:	eb 0c                	jmp    102ef6 <_malloc_checkforfree+0x52>
      else last->nextfree = cur->nextfree;
  102eea:	8b 45 f8             	mov    -0x8(%ebp),%eax
  102eed:	8b 50 08             	mov    0x8(%eax),%edx
  102ef0:	8b 45 fc             	mov    -0x4(%ebp),%eax
  102ef3:	89 50 08             	mov    %edx,0x8(%eax)
      _malloc_freepage(cur);
  102ef6:	8b 15 3c e9 10 00    	mov    0x10e93c,%edx
  102efc:	8b 45 f8             	mov    -0x8(%ebp),%eax
  102eff:	89 04 24             	mov    %eax,(%esp)
  102f02:	ff d2                	call   *%edx
  102f04:	eb 48                	jmp    102f4e <_malloc_checkforfree+0xaa>
    }
    else if (cur->size-(((uint32_t)cur)%PAGE_SIZE)>=PAGE_SIZE && (((uint32_t)cur)%PAGE_SIZE)>=sizeof(struct _malloc_header)) { ///< Split it and free it
  102f06:	8b 45 f8             	mov    -0x8(%ebp),%eax
  102f09:	8b 50 04             	mov    0x4(%eax),%edx
  102f0c:	8b 45 f8             	mov    -0x8(%ebp),%eax
  102f0f:	25 ff 0f 00 00       	and    $0xfff,%eax
  102f14:	89 d1                	mov    %edx,%ecx
  102f16:	29 c1                	sub    %eax,%ecx
  102f18:	89 c8                	mov    %ecx,%eax
  102f1a:	3d ff 0f 00 00       	cmp    $0xfff,%eax
  102f1f:	76 2d                	jbe    102f4e <_malloc_checkforfree+0xaa>
  102f21:	8b 45 f8             	mov    -0x8(%ebp),%eax
  102f24:	25 ff 0f 00 00       	and    $0xfff,%eax
  102f29:	83 f8 0b             	cmp    $0xb,%eax
  102f2c:	76 20                	jbe    102f4e <_malloc_checkforfree+0xaa>
      cur->size -= PAGE_SIZE;
  102f2e:	8b 45 f8             	mov    -0x8(%ebp),%eax
  102f31:	8b 40 04             	mov    0x4(%eax),%eax
  102f34:	8d 90 00 f0 ff ff    	lea    -0x1000(%eax),%edx
  102f3a:	8b 45 f8             	mov    -0x8(%ebp),%eax
  102f3d:	89 50 04             	mov    %edx,0x4(%eax)
      /**
       * Die If-Abfrage gilt im Moment nur wenn der Block an einer Pagegrenze aufhrt.
       * Der Block muss (manchmal) in _mehrere_ (2) Blcke gespalten werden. Der 1te muss
       * dann auch auf den 2ten zeigen.
       */
       _malloc_freepage(0/** @todo **/);
  102f40:	a1 3c e9 10 00       	mov    0x10e93c,%eax
  102f45:	c7 04 24 00 00 00 00 	movl   $0x0,(%esp)
  102f4c:	ff d0                	call   *%eax
    }
    last = cur;
  102f4e:	8b 45 f8             	mov    -0x8(%ebp),%eax
  102f51:	89 45 fc             	mov    %eax,-0x4(%ebp)
    cur = cur->nextfree;
  102f54:	8b 45 f8             	mov    -0x8(%ebp),%eax
  102f57:	8b 40 08             	mov    0x8(%eax),%eax
  102f5a:	89 45 f8             	mov    %eax,-0x8(%ebp)
 */
void _malloc_checkforfree() {
  struct _malloc_header *cur = _malloc_firstfree;
  struct _malloc_header *last = NULL;

  while (cur!=NULL) {
  102f5d:	83 7d f8 00          	cmpl   $0x0,-0x8(%ebp)
  102f61:	0f 85 57 ff ff ff    	jne    102ebe <_malloc_checkforfree+0x1a>
       _malloc_freepage(0/** @todo **/);
    }
    last = cur;
    cur = cur->nextfree;
  }
}
  102f67:	c9                   	leave  
  102f68:	c3                   	ret    

00102f69 <malloc>:
/**
 * Allocates memory
 *  @param size How many bytes
 *  @return Pointer to allocated memory
 */
void *malloc(size_t size) {
  102f69:	55                   	push   %ebp
  102f6a:	89 e5                	mov    %esp,%ebp
  102f6c:	83 ec 18             	sub    $0x18,%esp
  struct _malloc_header *mem = _malloc_getfree(size+sizeof(struct _malloc_header));
  102f6f:	8b 45 08             	mov    0x8(%ebp),%eax
  102f72:	83 c0 0c             	add    $0xc,%eax
  102f75:	89 04 24             	mov    %eax,(%esp)
  102f78:	e8 27 fe ff ff       	call   102da4 <_malloc_getfree>
  102f7d:	89 45 fc             	mov    %eax,-0x4(%ebp)
  if (mem==NULL) return NULL;
  102f80:	83 7d fc 00          	cmpl   $0x0,-0x4(%ebp)
  102f84:	75 09                	jne    102f8f <malloc+0x26>
  102f86:	c7 45 ec 00 00 00 00 	movl   $0x0,-0x14(%ebp)
  102f8d:	eb 09                	jmp    102f98 <malloc+0x2f>
  else return mem+1;
  102f8f:	8b 45 fc             	mov    -0x4(%ebp),%eax
  102f92:	83 c0 0c             	add    $0xc,%eax
  102f95:	89 45 ec             	mov    %eax,-0x14(%ebp)
  102f98:	8b 45 ec             	mov    -0x14(%ebp),%eax
}
  102f9b:	c9                   	leave  
  102f9c:	c3                   	ret    

00102f9d <free>:
/**
 * Frees memory
 *  @param address Pointer to memory to free
 *  @todo free free pages
 */
void free(void* address) {
  102f9d:	55                   	push   %ebp
  102f9e:	89 e5                	mov    %esp,%ebp
  102fa0:	83 ec 14             	sub    $0x14,%esp
  struct _malloc_header *header = ((struct _malloc_header*)address)-1;
  102fa3:	8b 45 08             	mov    0x8(%ebp),%eax
  102fa6:	83 e8 0c             	sub    $0xc,%eax
  102fa9:	89 45 fc             	mov    %eax,-0x4(%ebp)
  header->flags = 0; ///< mark block as free
  102fac:	8b 45 fc             	mov    -0x4(%ebp),%eax
  102faf:	c7 00 00 00 00 00    	movl   $0x0,(%eax)
  _malloc_insertlist(header);
  102fb5:	8b 45 fc             	mov    -0x4(%ebp),%eax
  102fb8:	89 04 24             	mov    %eax,(%esp)
  102fbb:	e8 93 fc ff ff       	call   102c53 <_malloc_insertlist>

  //_malloc_checkforfree();
}
  102fc0:	c9                   	leave  
  102fc1:	c3                   	ret    

00102fc2 <realloc>:
 * Reallocates block
 *  @param address Address of block
 *  @param size New block size
 *  @return Pointer to new block
 */
void* realloc(void* address, size_t size) {
  102fc2:	55                   	push   %ebp
  102fc3:	89 e5                	mov    %esp,%ebp
  102fc5:	83 ec 38             	sub    $0x38,%esp
  struct _malloc_header *header = ((struct _malloc_header*)address)-1;
  102fc8:	8b 45 08             	mov    0x8(%ebp),%eax
  102fcb:	83 e8 0c             	sub    $0xc,%eax
  102fce:	89 45 ec             	mov    %eax,-0x14(%ebp)
  if (size==0) {
  102fd1:	83 7d 0c 00          	cmpl   $0x0,0xc(%ebp)
  102fd5:	75 17                	jne    102fee <realloc+0x2c>
    free(address);
  102fd7:	8b 45 08             	mov    0x8(%ebp),%eax
  102fda:	89 04 24             	mov    %eax,(%esp)
  102fdd:	e8 bb ff ff ff       	call   102f9d <free>
    address = NULL;
  102fe2:	c7 45 08 00 00 00 00 	movl   $0x0,0x8(%ebp)
  102fe9:	e9 5a 01 00 00       	jmp    103148 <realloc+0x186>
  }
  else if (size<header->size) { // make block smaller (split)
  102fee:	8b 45 ec             	mov    -0x14(%ebp),%eax
  102ff1:	8b 40 04             	mov    0x4(%eax),%eax
  102ff4:	3b 45 0c             	cmp    0xc(%ebp),%eax
  102ff7:	76 50                	jbe    103049 <realloc+0x87>
    if (header->size-size<sizeof(struct _malloc_header)); /// @todo what to do?
  102ff9:	8b 45 ec             	mov    -0x14(%ebp),%eax
  102ffc:	8b 40 04             	mov    0x4(%eax),%eax
  102fff:	2b 45 0c             	sub    0xc(%ebp),%eax
  103002:	83 f8 0b             	cmp    $0xb,%eax
  103005:	0f 86 3d 01 00 00    	jbe    103148 <realloc+0x186>
    else {
      struct _malloc_header *new = (struct _malloc_header*)(((uint8_t*)header)+size);
  10300b:	8b 55 0c             	mov    0xc(%ebp),%edx
  10300e:	8b 45 ec             	mov    -0x14(%ebp),%eax
  103011:	01 d0                	add    %edx,%eax
  103013:	89 45 f0             	mov    %eax,-0x10(%ebp)
      new->flags = 0;
  103016:	8b 45 f0             	mov    -0x10(%ebp),%eax
  103019:	c7 00 00 00 00 00    	movl   $0x0,(%eax)
      new->size = header->size-size;
  10301f:	8b 45 ec             	mov    -0x14(%ebp),%eax
  103022:	8b 40 04             	mov    0x4(%eax),%eax
  103025:	89 c2                	mov    %eax,%edx
  103027:	2b 55 0c             	sub    0xc(%ebp),%edx
  10302a:	8b 45 f0             	mov    -0x10(%ebp),%eax
  10302d:	89 50 04             	mov    %edx,0x4(%eax)
      _malloc_insertlist(new);
  103030:	8b 45 f0             	mov    -0x10(%ebp),%eax
  103033:	89 04 24             	mov    %eax,(%esp)
  103036:	e8 18 fc ff ff       	call   102c53 <_malloc_insertlist>
      header->size = size;
  10303b:	8b 55 ec             	mov    -0x14(%ebp),%edx
  10303e:	8b 45 0c             	mov    0xc(%ebp),%eax
  103041:	89 42 04             	mov    %eax,0x4(%edx)
  103044:	e9 ff 00 00 00       	jmp    103148 <realloc+0x186>
    }
  }
  else if (size>header->size) {
  103049:	8b 45 ec             	mov    -0x14(%ebp),%eax
  10304c:	8b 40 04             	mov    0x4(%eax),%eax
  10304f:	3b 45 0c             	cmp    0xc(%ebp),%eax
  103052:	0f 83 f0 00 00 00    	jae    103148 <realloc+0x186>
    struct _malloc_header *cur = _malloc_firstfree;
  103058:	a1 38 e9 10 00       	mov    0x10e938,%eax
  10305d:	89 45 f4             	mov    %eax,-0xc(%ebp)
  103060:	e9 93 00 00 00       	jmp    1030f8 <realloc+0x136>
    while (cur!=NULL) {
      if (cur==header+header->size && cur->size>=size-header->size) { // use next block
  103065:	8b 45 ec             	mov    -0x14(%ebp),%eax
  103068:	8b 50 04             	mov    0x4(%eax),%edx
  10306b:	89 d0                	mov    %edx,%eax
  10306d:	01 c0                	add    %eax,%eax
  10306f:	01 d0                	add    %edx,%eax
  103071:	c1 e0 02             	shl    $0x2,%eax
  103074:	03 45 ec             	add    -0x14(%ebp),%eax
  103077:	3b 45 f4             	cmp    -0xc(%ebp),%eax
  10307a:	75 73                	jne    1030ef <realloc+0x12d>
  10307c:	8b 45 f4             	mov    -0xc(%ebp),%eax
  10307f:	8b 48 04             	mov    0x4(%eax),%ecx
  103082:	8b 45 ec             	mov    -0x14(%ebp),%eax
  103085:	8b 50 04             	mov    0x4(%eax),%edx
  103088:	8b 45 0c             	mov    0xc(%ebp),%eax
  10308b:	29 d0                	sub    %edx,%eax
  10308d:	39 c1                	cmp    %eax,%ecx
  10308f:	72 5e                	jb     1030ef <realloc+0x12d>
        if (cur->size-(size-header->size)<sizeof(struct _malloc_header)); /// @todo what to do?
  103091:	8b 45 f4             	mov    -0xc(%ebp),%eax
  103094:	8b 50 04             	mov    0x4(%eax),%edx
  103097:	8b 45 ec             	mov    -0x14(%ebp),%eax
  10309a:	8b 40 04             	mov    0x4(%eax),%eax
  10309d:	2b 45 0c             	sub    0xc(%ebp),%eax
  1030a0:	8d 04 02             	lea    (%edx,%eax,1),%eax
  1030a3:	83 f8 0b             	cmp    $0xb,%eax
  1030a6:	76 5a                	jbe    103102 <realloc+0x140>
        else {
          struct _malloc_header *new = (struct _malloc_header*)(((uint8_t*)cur)+size-header->size);
  1030a8:	8b 45 ec             	mov    -0x14(%ebp),%eax
  1030ab:	8b 50 04             	mov    0x4(%eax),%edx
  1030ae:	8b 45 0c             	mov    0xc(%ebp),%eax
  1030b1:	29 d0                	sub    %edx,%eax
  1030b3:	03 45 f4             	add    -0xc(%ebp),%eax
  1030b6:	89 45 f8             	mov    %eax,-0x8(%ebp)
          new->flags = 0;
  1030b9:	8b 45 f8             	mov    -0x8(%ebp),%eax
  1030bc:	c7 00 00 00 00 00    	movl   $0x0,(%eax)
          new->size = cur->size-(size-header->size);
  1030c2:	8b 45 f4             	mov    -0xc(%ebp),%eax
  1030c5:	8b 50 04             	mov    0x4(%eax),%edx
  1030c8:	8b 45 ec             	mov    -0x14(%ebp),%eax
  1030cb:	8b 40 04             	mov    0x4(%eax),%eax
  1030ce:	2b 45 0c             	sub    0xc(%ebp),%eax
  1030d1:	01 c2                	add    %eax,%edx
  1030d3:	8b 45 f8             	mov    -0x8(%ebp),%eax
  1030d6:	89 50 04             	mov    %edx,0x4(%eax)
          _malloc_insertlist(new);
  1030d9:	8b 45 f8             	mov    -0x8(%ebp),%eax
  1030dc:	89 04 24             	mov    %eax,(%esp)
  1030df:	e8 6f fb ff ff       	call   102c53 <_malloc_insertlist>
          header->size = size;
  1030e4:	8b 55 ec             	mov    -0x14(%ebp),%edx
  1030e7:	8b 45 0c             	mov    0xc(%ebp),%eax
  1030ea:	89 42 04             	mov    %eax,0x4(%edx)
  1030ed:	eb 13                	jmp    103102 <realloc+0x140>
        }
        break;
      }
      cur = cur->nextfree;
  1030ef:	8b 45 f4             	mov    -0xc(%ebp),%eax
  1030f2:	8b 40 08             	mov    0x8(%eax),%eax
  1030f5:	89 45 f4             	mov    %eax,-0xc(%ebp)
      header->size = size;
    }
  }
  else if (size>header->size) {
    struct _malloc_header *cur = _malloc_firstfree;
    while (cur!=NULL) {
  1030f8:	83 7d f4 00          	cmpl   $0x0,-0xc(%ebp)
  1030fc:	0f 85 63 ff ff ff    	jne    103065 <realloc+0xa3>
        }
        break;
      }
      cur = cur->nextfree;
    }
    if (header->size!=size) { // no space: malloc, memcpy, free
  103102:	8b 45 ec             	mov    -0x14(%ebp),%eax
  103105:	8b 40 04             	mov    0x4(%eax),%eax
  103108:	3b 45 0c             	cmp    0xc(%ebp),%eax
  10310b:	74 3b                	je     103148 <realloc+0x186>
      void *new = malloc(size);
  10310d:	8b 45 0c             	mov    0xc(%ebp),%eax
  103110:	89 04 24             	mov    %eax,(%esp)
  103113:	e8 51 fe ff ff       	call   102f69 <malloc>
  103118:	89 45 fc             	mov    %eax,-0x4(%ebp)
      memcpy(new,address,header->size);
  10311b:	8b 45 ec             	mov    -0x14(%ebp),%eax
  10311e:	8b 40 04             	mov    0x4(%eax),%eax
  103121:	89 44 24 08          	mov    %eax,0x8(%esp)
  103125:	8b 45 08             	mov    0x8(%ebp),%eax
  103128:	89 44 24 04          	mov    %eax,0x4(%esp)
  10312c:	8b 45 fc             	mov    -0x4(%ebp),%eax
  10312f:	89 04 24             	mov    %eax,(%esp)
  103132:	e8 4d 8a 00 00       	call   10bb84 <memcpy>
      free(address);
  103137:	8b 45 08             	mov    0x8(%ebp),%eax
  10313a:	89 04 24             	mov    %eax,(%esp)
  10313d:	e8 5b fe ff ff       	call   102f9d <free>
      address = new;
  103142:	8b 45 fc             	mov    -0x4(%ebp),%eax
  103145:	89 45 08             	mov    %eax,0x8(%ebp)
    }
  }
  return address;
  103148:	8b 45 08             	mov    0x8(%ebp),%eax
}
  10314b:	c9                   	leave  
  10314c:	c3                   	ret    

0010314d <calloc>:
/**
 * Allocates memory for an array of n elements where each element is elsize bytes large.
 *  @param n Number of elements
 *  @param elsize Size of each element
 */
void* calloc(size_t n,size_t elsize) {
  10314d:	55                   	push   %ebp
  10314e:	89 e5                	mov    %esp,%ebp
  103150:	83 ec 28             	sub    $0x28,%esp
  if (n==0 || elsize==0) return NULL;
  103153:	83 7d 08 00          	cmpl   $0x0,0x8(%ebp)
  103157:	74 06                	je     10315f <calloc+0x12>
  103159:	83 7d 0c 00          	cmpl   $0x0,0xc(%ebp)
  10315d:	75 09                	jne    103168 <calloc+0x1b>
  10315f:	c7 45 ec 00 00 00 00 	movl   $0x0,-0x14(%ebp)
  103166:	eb 36                	jmp    10319e <calloc+0x51>
  void *mem = malloc(n*elsize);
  103168:	8b 45 08             	mov    0x8(%ebp),%eax
  10316b:	0f af 45 0c          	imul   0xc(%ebp),%eax
  10316f:	89 04 24             	mov    %eax,(%esp)
  103172:	e8 f2 fd ff ff       	call   102f69 <malloc>
  103177:	89 45 fc             	mov    %eax,-0x4(%ebp)
  memset(mem,0,n*elsize);
  10317a:	8b 45 08             	mov    0x8(%ebp),%eax
  10317d:	0f af 45 0c          	imul   0xc(%ebp),%eax
  103181:	89 44 24 08          	mov    %eax,0x8(%esp)
  103185:	c7 44 24 04 00 00 00 	movl   $0x0,0x4(%esp)
  10318c:	00 
  10318d:	8b 45 fc             	mov    -0x4(%ebp),%eax
  103190:	89 04 24             	mov    %eax,(%esp)
  103193:	e8 c9 8b 00 00       	call   10bd61 <memset>
  return mem;
  103198:	8b 45 fc             	mov    -0x4(%ebp),%eax
  10319b:	89 45 ec             	mov    %eax,-0x14(%ebp)
  10319e:	8b 45 ec             	mov    -0x14(%ebp),%eax
}
  1031a1:	c9                   	leave  
  1031a2:	c3                   	ret    
	...

001031a4 <memkernel_init>:
 */
void *init_stack;
size_t init_stacksize;
void malloc_init(void *(*getpage)(size_t size),void (*freepage)(void *addr));
void malloc_donatemem(void *addr,size_t size);
int memkernel_init() {
  1031a4:	55                   	push   %ebp
  1031a5:	89 e5                	mov    %esp,%ebp
  1031a7:	83 ec 08             	sub    $0x8,%esp
  malloc_init(memkernel_alloc,memkernel_free);
  1031aa:	c7 44 24 04 3a 33 10 	movl   $0x10333a,0x4(%esp)
  1031b1:	00 
  1031b2:	c7 04 24 9e 32 10 00 	movl   $0x10329e,(%esp)
  1031b9:	e8 76 fa ff ff       	call   102c34 <malloc_init>
  malloc_donatemem(init_stack,init_stacksize); // donate initial stack to memory allocator
  1031be:	a1 44 00 10 00       	mov    0x100044,%eax
  1031c3:	8b 15 58 e9 10 00    	mov    0x10e958,%edx
  1031c9:	89 44 24 04          	mov    %eax,0x4(%esp)
  1031cd:	89 14 24             	mov    %edx,(%esp)
  1031d0:	e8 6f fb ff ff       	call   102d44 <malloc_donatemem>
  return 0;
  1031d5:	b8 00 00 00 00       	mov    $0x0,%eax
}
  1031da:	c9                   	leave  
  1031db:	c3                   	ret    

001031dc <memkernel_findvirt>:
/**
 * Finds free virtual pages
 *  @param pages How many pages wanted
 *  @return Address of first page
 */
void *memkernel_findvirt(size_t pages) {
  1031dc:	55                   	push   %ebp
  1031dd:	89 e5                	mov    %esp,%ebp
  1031df:	83 ec 28             	sub    $0x28,%esp
  void *virt;
  size_t found = 0;
  1031e2:	c7 45 fc 00 00 00 00 	movl   $0x0,-0x4(%ebp)

  for (virt = (void*)KERNELDATA_ADDRESS;virt<(void*)KERNELDATA_ADDRESS+KERNELDATA_SIZE;virt+=PAGE_SIZE) {
  1031e9:	c7 45 f8 00 00 70 00 	movl   $0x700000,-0x8(%ebp)
  1031f0:	e9 90 00 00 00       	jmp    103285 <memkernel_findvirt+0xa9>
    // check if enough pages are found
    if (found>=pages) return virt-found*PAGE_SIZE;
  1031f5:	8b 45 fc             	mov    -0x4(%ebp),%eax
  1031f8:	3b 45 08             	cmp    0x8(%ebp),%eax
  1031fb:	72 15                	jb     103212 <memkernel_findvirt+0x36>
  1031fd:	8b 45 fc             	mov    -0x4(%ebp),%eax
  103200:	c1 e0 0c             	shl    $0xc,%eax
  103203:	f7 d8                	neg    %eax
  103205:	8b 55 f8             	mov    -0x8(%ebp),%edx
  103208:	01 c2                	add    %eax,%edx
  10320a:	89 55 ec             	mov    %edx,-0x14(%ebp)
  10320d:	e9 87 00 00 00       	jmp    103299 <memkernel_findvirt+0xbd>
    if (ADDR2PTE(virt)==0) {
  103212:	8b 45 f8             	mov    -0x8(%ebp),%eax
  103215:	c1 e8 0c             	shr    $0xc,%eax
  103218:	25 ff 03 00 00       	and    $0x3ff,%eax
  10321d:	85 c0                	test   %eax,%eax
  10321f:	75 30                	jne    103251 <memkernel_findvirt+0x75>
      // check for PDE
      if (!paging_getpde(virt).exists) {
  103221:	8d 55 f0             	lea    -0x10(%ebp),%edx
  103224:	8b 45 f8             	mov    -0x8(%ebp),%eax
  103227:	89 44 24 04          	mov    %eax,0x4(%esp)
  10322b:	89 14 24             	mov    %edx,(%esp)
  10322e:	e8 10 22 00 00       	call   105443 <paging_getpde>
  103233:	83 ec 04             	sub    $0x4,%esp
  103236:	0f b6 45 f0          	movzbl -0x10(%ebp),%eax
  10323a:	83 e0 01             	and    $0x1,%eax
  10323d:	84 c0                	test   %al,%al
  10323f:	75 10                	jne    103251 <memkernel_findvirt+0x75>
        found += 1024;
  103241:	81 45 fc 00 04 00 00 	addl   $0x400,-0x4(%ebp)
        virt += 1024*(PAGE_SIZE-1);
  103248:	81 45 f8 00 fc 3f 00 	addl   $0x3ffc00,-0x8(%ebp)
  10324f:	eb 2d                	jmp    10327e <memkernel_findvirt+0xa2>
        continue;
      }
    }
    // check for PTE
    if (paging_getpte(virt).exists) found = 0;
  103251:	8d 55 f4             	lea    -0xc(%ebp),%edx
  103254:	8b 45 f8             	mov    -0x8(%ebp),%eax
  103257:	89 44 24 04          	mov    %eax,0x4(%esp)
  10325b:	89 14 24             	mov    %edx,(%esp)
  10325e:	e8 80 22 00 00       	call   1054e3 <paging_getpte>
  103263:	83 ec 04             	sub    $0x4,%esp
  103266:	0f b6 45 f5          	movzbl -0xb(%ebp),%eax
  10326a:	83 e0 02             	and    $0x2,%eax
  10326d:	84 c0                	test   %al,%al
  10326f:	74 09                	je     10327a <memkernel_findvirt+0x9e>
  103271:	c7 45 fc 00 00 00 00 	movl   $0x0,-0x4(%ebp)
  103278:	eb 04                	jmp    10327e <memkernel_findvirt+0xa2>
    else found++;
  10327a:	83 45 fc 01          	addl   $0x1,-0x4(%ebp)
 */
void *memkernel_findvirt(size_t pages) {
  void *virt;
  size_t found = 0;

  for (virt = (void*)KERNELDATA_ADDRESS;virt<(void*)KERNELDATA_ADDRESS+KERNELDATA_SIZE;virt+=PAGE_SIZE) {
  10327e:	81 45 f8 00 10 00 00 	addl   $0x1000,-0x8(%ebp)
  103285:	81 7d f8 ff ff ff 3f 	cmpl   $0x3fffffff,-0x8(%ebp)
  10328c:	0f 86 63 ff ff ff    	jbe    1031f5 <memkernel_findvirt+0x19>
    // check for PTE
    if (paging_getpte(virt).exists) found = 0;
    else found++;
  }

  return NULL;
  103292:	c7 45 ec 00 00 00 00 	movl   $0x0,-0x14(%ebp)
  103299:	8b 45 ec             	mov    -0x14(%ebp),%eax
}
  10329c:	c9                   	leave  
  10329d:	c3                   	ret    

0010329e <memkernel_alloc>:
/**
 * Allocates memory for kernel allocator
 *  @param size How many memory to allocate (should be devidable by PAGE_SIZE)
 *  @return Address of allocated memory
 */
void *memkernel_alloc(size_t size) {
  10329e:	55                   	push   %ebp
  10329f:	89 e5                	mov    %esp,%ebp
  1032a1:	53                   	push   %ebx
  1032a2:	83 ec 34             	sub    $0x34,%esp
  size_t pages = ADDR2PAGE(size);
  1032a5:	8b 45 08             	mov    0x8(%ebp),%eax
  1032a8:	c1 e8 0c             	shr    $0xc,%eax
  1032ab:	89 45 f0             	mov    %eax,-0x10(%ebp)
  size_t i;
  void *virt = memkernel_findvirt(pages);
  1032ae:	8b 45 f0             	mov    -0x10(%ebp),%eax
  1032b1:	89 04 24             	mov    %eax,(%esp)
  1032b4:	e8 23 ff ff ff       	call   1031dc <memkernel_findvirt>
  1032b9:	89 45 f8             	mov    %eax,-0x8(%ebp)

  for (i=0;i<pages;i++) {
  1032bc:	c7 45 f4 00 00 00 00 	movl   $0x0,-0xc(%ebp)
  1032c3:	eb 64                	jmp    103329 <memkernel_alloc+0x8b>
    paging_map(virt+i*PAGE_SIZE,memphys_alloc(),0,1);
  1032c5:	8b 1d 74 e4 10 00    	mov    0x10e474,%ebx
  1032cb:	e8 e5 01 00 00       	call   1034b5 <memphys_pop>
  1032d0:	89 c2                	mov    %eax,%edx
  1032d2:	8b 45 f4             	mov    -0xc(%ebp),%eax
  1032d5:	c1 e0 0c             	shl    $0xc,%eax
  1032d8:	03 45 f8             	add    -0x8(%ebp),%eax
  1032db:	89 5c 24 18          	mov    %ebx,0x18(%esp)
  1032df:	c7 44 24 14 00 00 00 	movl   $0x0,0x14(%esp)
  1032e6:	00 
  1032e7:	c7 44 24 10 00 00 00 	movl   $0x0,0x10(%esp)
  1032ee:	00 
  1032ef:	c7 44 24 0c 01 00 00 	movl   $0x1,0xc(%esp)
  1032f6:	00 
  1032f7:	c7 44 24 08 00 00 00 	movl   $0x0,0x8(%esp)
  1032fe:	00 
  1032ff:	89 54 24 04          	mov    %edx,0x4(%esp)
  103303:	89 04 24             	mov    %eax,(%esp)
  103306:	e8 32 25 00 00       	call   10583d <paging_map_pd>
    if (memuser_inited) memuser_syncpds(virt+i);
  10330b:	a1 88 e1 10 00       	mov    0x10e188,%eax
  103310:	85 c0                	test   %eax,%eax
  103312:	74 11                	je     103325 <memkernel_alloc+0x87>
  103314:	8b 45 f4             	mov    -0xc(%ebp),%eax
  103317:	8b 55 f8             	mov    -0x8(%ebp),%edx
  10331a:	8d 04 02             	lea    (%edx,%eax,1),%eax
  10331d:	89 04 24             	mov    %eax,(%esp)
  103320:	e8 17 10 00 00       	call   10433c <memuser_syncpds>
void *memkernel_alloc(size_t size) {
  size_t pages = ADDR2PAGE(size);
  size_t i;
  void *virt = memkernel_findvirt(pages);

  for (i=0;i<pages;i++) {
  103325:	83 45 f4 01          	addl   $0x1,-0xc(%ebp)
  103329:	8b 45 f4             	mov    -0xc(%ebp),%eax
  10332c:	3b 45 f0             	cmp    -0x10(%ebp),%eax
  10332f:	72 94                	jb     1032c5 <memkernel_alloc+0x27>
    paging_map(virt+i*PAGE_SIZE,memphys_alloc(),0,1);
    if (memuser_inited) memuser_syncpds(virt+i);
  }
  return virt;
  103331:	8b 45 f8             	mov    -0x8(%ebp),%eax
}
  103334:	83 c4 34             	add    $0x34,%esp
  103337:	5b                   	pop    %ebx
  103338:	5d                   	pop    %ebp
  103339:	c3                   	ret    

0010333a <memkernel_free>:

/**
 * Frees memory (one page) for kernel allocator
 */
void memkernel_free(void *addr) {
  10333a:	55                   	push   %ebp
  10333b:	89 e5                	mov    %esp,%ebp
  10333d:	83 ec 08             	sub    $0x8,%esp
  memphys_free(paging_unmap(addr));
  103340:	8b 45 08             	mov    0x8(%ebp),%eax
  103343:	89 04 24             	mov    %eax,(%esp)
  103346:	e8 0c 27 00 00       	call   105a57 <paging_unmap>
  10334b:	89 04 24             	mov    %eax,(%esp)
  10334e:	e8 c1 00 00 00       	call   103414 <memphys_push>
}
  103353:	c9                   	leave  
  103354:	c3                   	ret    
  103355:	00 00                	add    %al,(%eax)
	...

00103358 <memphys_init>:

/**
 * Initializes physical memory management
 *  @return -1=Success; 0=Failure
 */
int memphys_init() {
  103358:	55                   	push   %ebp
  103359:	89 e5                	mov    %esp,%ebp
  10335b:	53                   	push   %ebx
  10335c:	83 ec 34             	sub    $0x34,%esp
  memphys_memory = (multiboot_get_memlower()+multiboot_get_memlower());
  10335f:	e8 32 1a 00 00       	call   104d96 <multiboot_get_memlower>
  103364:	89 c3                	mov    %eax,%ebx
  103366:	e8 2b 1a 00 00       	call   104d96 <multiboot_get_memlower>
  10336b:	8d 04 03             	lea    (%ebx,%eax,1),%eax
  10336e:	a3 68 e4 10 00       	mov    %eax,0x10e468

  memphys_stackbase = (void*)STACKDATA_ADDRESS;
  103373:	c7 05 8c e1 10 00 00 	movl   $0x300000,0x10e18c
  10337a:	00 30 00 
  memphys_stackend = memphys_stackbase;
  10337d:	a1 8c e1 10 00       	mov    0x10e18c,%eax
  103382:	a3 70 e4 10 00       	mov    %eax,0x10e470
  memphys_stackptr = memphys_stackbase;
  103387:	a1 8c e1 10 00       	mov    0x10e18c,%eax
  10338c:	a3 6c e4 10 00       	mov    %eax,0x10e46c

  // push free memory on stack
  size_t i = 0;
  103391:	c7 45 f4 00 00 00 00 	movl   $0x0,-0xc(%ebp)
  103398:	eb 47                	jmp    1033e1 <memphys_init+0x89>
  void *addr;
  size_t size;
  multiboot_mmap_type_t type;
  while (multiboot_get_mmap(i++,&addr,&size,&type)==0) {
    if (type==MULTIBOOT_FREE) {
  10339a:	8b 45 e8             	mov    -0x18(%ebp),%eax
  10339d:	83 f8 01             	cmp    $0x1,%eax
  1033a0:	75 3f                	jne    1033e1 <memphys_init+0x89>
      size_t j;
      for (j=0;j<size/PAGE_SIZE;j++) {
  1033a2:	c7 45 f8 00 00 00 00 	movl   $0x0,-0x8(%ebp)
  1033a9:	eb 2b                	jmp    1033d6 <memphys_init+0x7e>
        if (addr+j*PAGE_SIZE>=(void*)FREEPHYS_ADDRESS) memphys_push(addr+j*PAGE_SIZE);
  1033ab:	8b 55 f0             	mov    -0x10(%ebp),%edx
  1033ae:	8b 45 f8             	mov    -0x8(%ebp),%eax
  1033b1:	c1 e0 0c             	shl    $0xc,%eax
  1033b4:	8d 04 02             	lea    (%edx,%eax,1),%eax
  1033b7:	3d ff 2f 30 00       	cmp    $0x302fff,%eax
  1033bc:	76 14                	jbe    1033d2 <memphys_init+0x7a>
  1033be:	8b 55 f0             	mov    -0x10(%ebp),%edx
  1033c1:	8b 45 f8             	mov    -0x8(%ebp),%eax
  1033c4:	c1 e0 0c             	shl    $0xc,%eax
  1033c7:	8d 04 02             	lea    (%edx,%eax,1),%eax
  1033ca:	89 04 24             	mov    %eax,(%esp)
  1033cd:	e8 42 00 00 00       	call   103414 <memphys_push>
  size_t size;
  multiboot_mmap_type_t type;
  while (multiboot_get_mmap(i++,&addr,&size,&type)==0) {
    if (type==MULTIBOOT_FREE) {
      size_t j;
      for (j=0;j<size/PAGE_SIZE;j++) {
  1033d2:	83 45 f8 01          	addl   $0x1,-0x8(%ebp)
  1033d6:	8b 45 ec             	mov    -0x14(%ebp),%eax
  1033d9:	c1 e8 0c             	shr    $0xc,%eax
  1033dc:	3b 45 f8             	cmp    -0x8(%ebp),%eax
  1033df:	77 ca                	ja     1033ab <memphys_init+0x53>
  // push free memory on stack
  size_t i = 0;
  void *addr;
  size_t size;
  multiboot_mmap_type_t type;
  while (multiboot_get_mmap(i++,&addr,&size,&type)==0) {
  1033e1:	8b 55 f4             	mov    -0xc(%ebp),%edx
  1033e4:	83 45 f4 01          	addl   $0x1,-0xc(%ebp)
  1033e8:	8d 45 e8             	lea    -0x18(%ebp),%eax
  1033eb:	89 44 24 0c          	mov    %eax,0xc(%esp)
  1033ef:	8d 45 ec             	lea    -0x14(%ebp),%eax
  1033f2:	89 44 24 08          	mov    %eax,0x8(%esp)
  1033f6:	8d 45 f0             	lea    -0x10(%ebp),%eax
  1033f9:	89 44 24 04          	mov    %eax,0x4(%esp)
  1033fd:	89 14 24             	mov    %edx,(%esp)
  103400:	e8 44 1a 00 00       	call   104e49 <multiboot_get_mmap>
  103405:	85 c0                	test   %eax,%eax
  103407:	74 91                	je     10339a <memphys_init+0x42>
        if (addr+j*PAGE_SIZE>=(void*)FREEPHYS_ADDRESS) memphys_push(addr+j*PAGE_SIZE);
      }
    }
  }

  return 0;
  103409:	b8 00 00 00 00       	mov    $0x0,%eax
}
  10340e:	83 c4 34             	add    $0x34,%esp
  103411:	5b                   	pop    %ebx
  103412:	5d                   	pop    %ebp
  103413:	c3                   	ret    

00103414 <memphys_push>:

/**
 * Pushs an address on stack
 *  @param addr Address to push on stack
 */
void memphys_push(void *addr) {
  103414:	55                   	push   %ebp
  103415:	89 e5                	mov    %esp,%ebp
  103417:	83 ec 28             	sub    $0x28,%esp
  if (addr==NULL) return;
  10341a:	83 7d 08 00          	cmpl   $0x0,0x8(%ebp)
  10341e:	0f 84 8f 00 00 00    	je     1034b3 <memphys_push+0x9f>
  if (memphys_stackptr==memphys_stackend) {
  103424:	8b 15 6c e4 10 00    	mov    0x10e46c,%edx
  10342a:	a1 70 e4 10 00       	mov    0x10e470,%eax
  10342f:	39 c2                	cmp    %eax,%edx
  103431:	75 68                	jne    10349b <memphys_push+0x87>
    // use pushed page as stackpage
    if (paging_map(memphys_stackend,addr,0,1)<0) panic("Error while mapping stackpage: 0x%x",memphys_stackend);
  103433:	a1 74 e4 10 00       	mov    0x10e474,%eax
  103438:	8b 15 70 e4 10 00    	mov    0x10e470,%edx
