
init:     file format elf32-i386

Disassembly of section .init:

40001094 <.init>:
40001094:	e8 37 03 00 00       	call   400013d0 <frame_dummy>
40001099:	e8 c2 d4 00 00       	call   4000e560 <__do_global_ctors_aux>
Disassembly of section .text:

400010a0 <get_cmdline>:
400010a0:	55                   	push   %ebp
400010a1:	89 e5                	mov    %esp,%ebp
400010a3:	83 ec 18             	sub    $0x18,%esp
400010a6:	8b 45 08             	mov    0x8(%ebp),%eax
400010a9:	8b 40 0c             	mov    0xc(%eax),%eax
400010ac:	89 45 f0             	mov    %eax,-0x10(%ebp)
400010af:	8b 45 f0             	mov    -0x10(%ebp),%eax
400010b2:	83 c0 01             	add    $0x1,%eax
400010b5:	c1 e0 02             	shl    $0x2,%eax
400010b8:	89 04 24             	mov    %eax,(%esp)
400010bb:	e8 14 64 00 00       	call   400074d4 <malloc>
400010c0:	89 45 f4             	mov    %eax,-0xc(%ebp)
400010c3:	c7 45 f8 00 00 00 00 	movl   $0x0,-0x8(%ebp)
400010ca:	c7 45 fc 00 00 00 00 	movl   $0x0,-0x4(%ebp)
400010d1:	eb 34                	jmp    40001107 <get_cmdline+0x67>
400010d3:	8b 45 fc             	mov    -0x4(%ebp),%eax
400010d6:	c1 e0 02             	shl    $0x2,%eax
400010d9:	89 c2                	mov    %eax,%edx
400010db:	03 55 f4             	add    -0xc(%ebp),%edx
400010de:	8b 45 08             	mov    0x8(%ebp),%eax
400010e1:	83 c0 10             	add    $0x10,%eax
400010e4:	03 45 f8             	add    -0x8(%ebp),%eax
400010e7:	89 02                	mov    %eax,(%edx)
400010e9:	8b 45 08             	mov    0x8(%ebp),%eax
400010ec:	83 c0 10             	add    $0x10,%eax
400010ef:	03 45 f8             	add    -0x8(%ebp),%eax
400010f2:	89 04 24             	mov    %eax,(%esp)
400010f5:	e8 2a 99 00 00       	call   4000aa24 <strlen>
400010fa:	03 45 f8             	add    -0x8(%ebp),%eax
400010fd:	83 c0 01             	add    $0x1,%eax
40001100:	89 45 f8             	mov    %eax,-0x8(%ebp)
40001103:	83 45 fc 01          	addl   $0x1,-0x4(%ebp)
40001107:	8b 45 f0             	mov    -0x10(%ebp),%eax
4000110a:	3b 45 fc             	cmp    -0x4(%ebp),%eax
4000110d:	77 c4                	ja     400010d3 <get_cmdline+0x33>
4000110f:	8b 45 fc             	mov    -0x4(%ebp),%eax
40001112:	c1 e0 02             	shl    $0x2,%eax
40001115:	03 45 f4             	add    -0xc(%ebp),%eax
40001118:	c7 00 00 00 00 00    	movl   $0x0,(%eax)
4000111e:	8b 45 08             	mov    0x8(%ebp),%eax
40001121:	8b 00                	mov    (%eax),%eax
40001123:	85 c0                	test   %eax,%eax
40001125:	74 32                	je     40001159 <get_cmdline+0xb9>
40001127:	83 7d 14 00          	cmpl   $0x0,0x14(%ebp)
4000112b:	74 10                	je     4000113d <get_cmdline+0x9d>
4000112d:	8b 45 08             	mov    0x8(%ebp),%eax
40001130:	83 c0 10             	add    $0x10,%eax
40001133:	89 c2                	mov    %eax,%edx
40001135:	03 55 f8             	add    -0x8(%ebp),%edx
40001138:	8b 45 14             	mov    0x14(%ebp),%eax
4000113b:	89 10                	mov    %edx,(%eax)
4000113d:	8b 45 08             	mov    0x8(%ebp),%eax
40001140:	83 c0 10             	add    $0x10,%eax
40001143:	03 45 f8             	add    -0x8(%ebp),%eax
40001146:	89 04 24             	mov    %eax,(%esp)
40001149:	e8 d6 98 00 00       	call   4000aa24 <strlen>
4000114e:	03 45 f8             	add    -0x8(%ebp),%eax
40001151:	83 c0 01             	add    $0x1,%eax
40001154:	89 45 f8             	mov    %eax,-0x8(%ebp)
40001157:	eb 0f                	jmp    40001168 <get_cmdline+0xc8>
40001159:	83 7d 14 00          	cmpl   $0x0,0x14(%ebp)
4000115d:	74 09                	je     40001168 <get_cmdline+0xc8>
4000115f:	8b 45 14             	mov    0x14(%ebp),%eax
40001162:	c7 00 00 00 00 00    	movl   $0x0,(%eax)
40001168:	8b 45 08             	mov    0x8(%ebp),%eax
4000116b:	8b 40 04             	mov    0x4(%eax),%eax
4000116e:	85 c0                	test   %eax,%eax
40001170:	74 32                	je     400011a4 <get_cmdline+0x104>
40001172:	83 7d 18 00          	cmpl   $0x0,0x18(%ebp)
40001176:	74 10                	je     40001188 <get_cmdline+0xe8>
40001178:	8b 45 08             	mov    0x8(%ebp),%eax
4000117b:	83 c0 10             	add    $0x10,%eax
4000117e:	89 c2                	mov    %eax,%edx
40001180:	03 55 f8             	add    -0x8(%ebp),%edx
40001183:	8b 45 18             	mov    0x18(%ebp),%eax
40001186:	89 10                	mov    %edx,(%eax)
40001188:	8b 45 08             	mov    0x8(%ebp),%eax
4000118b:	83 c0 10             	add    $0x10,%eax
4000118e:	03 45 f8             	add    -0x8(%ebp),%eax
40001191:	89 04 24             	mov    %eax,(%esp)
40001194:	e8 8b 98 00 00       	call   4000aa24 <strlen>
40001199:	03 45 f8             	add    -0x8(%ebp),%eax
4000119c:	83 c0 01             	add    $0x1,%eax
4000119f:	89 45 f8             	mov    %eax,-0x8(%ebp)
400011a2:	eb 0f                	jmp    400011b3 <get_cmdline+0x113>
400011a4:	83 7d 18 00          	cmpl   $0x0,0x18(%ebp)
400011a8:	74 09                	je     400011b3 <get_cmdline+0x113>
400011aa:	8b 45 18             	mov    0x18(%ebp),%eax
400011ad:	c7 00 00 00 00 00    	movl   $0x0,(%eax)
400011b3:	8b 45 08             	mov    0x8(%ebp),%eax
400011b6:	8b 40 08             	mov    0x8(%eax),%eax
400011b9:	85 c0                	test   %eax,%eax
400011bb:	74 32                	je     400011ef <get_cmdline+0x14f>
400011bd:	83 7d 1c 00          	cmpl   $0x0,0x1c(%ebp)
400011c1:	74 10                	je     400011d3 <get_cmdline+0x133>
400011c3:	8b 45 08             	mov    0x8(%ebp),%eax
400011c6:	83 c0 10             	add    $0x10,%eax
400011c9:	89 c2                	mov    %eax,%edx
400011cb:	03 55 f8             	add    -0x8(%ebp),%edx
400011ce:	8b 45 1c             	mov    0x1c(%ebp),%eax
400011d1:	89 10                	mov    %edx,(%eax)
400011d3:	8b 45 08             	mov    0x8(%ebp),%eax
400011d6:	83 c0 10             	add    $0x10,%eax
400011d9:	03 45 f8             	add    -0x8(%ebp),%eax
400011dc:	89 04 24             	mov    %eax,(%esp)
400011df:	e8 40 98 00 00       	call   4000aa24 <strlen>
400011e4:	03 45 f8             	add    -0x8(%ebp),%eax
400011e7:	83 c0 01             	add    $0x1,%eax
400011ea:	89 45 f8             	mov    %eax,-0x8(%ebp)
400011ed:	eb 0f                	jmp    400011fe <get_cmdline+0x15e>
400011ef:	83 7d 1c 00          	cmpl   $0x0,0x1c(%ebp)
400011f3:	74 09                	je     400011fe <get_cmdline+0x15e>
400011f5:	8b 45 1c             	mov    0x1c(%ebp),%eax
400011f8:	c7 00 00 00 00 00    	movl   $0x0,(%eax)
400011fe:	8b 55 0c             	mov    0xc(%ebp),%edx
40001201:	8b 45 f4             	mov    -0xc(%ebp),%eax
40001204:	89 02                	mov    %eax,(%edx)
40001206:	8b 55 10             	mov    0x10(%ebp),%edx
40001209:	8b 45 f0             	mov    -0x10(%ebp),%eax
4000120c:	89 02                	mov    %eax,(%edx)
4000120e:	c9                   	leave  
4000120f:	c3                   	ret    

40001210 <crt0_quit>:
40001210:	55                   	push   %ebp
40001211:	89 e5                	mov    %esp,%ebp
40001213:	83 ec 18             	sub    $0x18,%esp
40001216:	a1 04 1c 01 40       	mov    0x40011c04,%eax
4000121b:	85 c0                	test   %eax,%eax
4000121d:	74 2a                	je     40001249 <crt0_quit+0x39>
4000121f:	a1 04 1c 01 40       	mov    0x40011c04,%eax
40001224:	89 04 24             	mov    %eax,(%esp)
40001227:	e8 df 7a 00 00       	call   40008d0b <shmdt>
4000122c:	a1 00 05 01 40       	mov    0x40010500,%eax
40001231:	c7 44 24 08 00 00 00 	movl   $0x0,0x8(%esp)
40001238:	00 
40001239:	c7 44 24 04 01 00 00 	movl   $0x1,0x4(%esp)
40001240:	00 
40001241:	89 04 24             	mov    %eax,(%esp)
40001244:	e8 32 7b 00 00       	call   40008d7b <shmctl>
40001249:	c9                   	leave  
4000124a:	c3                   	ret    

4000124b <_start>:
4000124b:	55                   	push   %ebp
4000124c:	89 e5                	mov    %esp,%ebp
4000124e:	83 ec 38             	sub    $0x38,%esp
40001251:	c7 45 fc 00 00 00 00 	movl   $0x0,-0x4(%ebp)
40001258:	8d 45 fc             	lea    -0x4(%ebp),%eax
4000125b:	89 45 f8             	mov    %eax,-0x8(%ebp)
4000125e:	c7 45 f4 00 00 00 00 	movl   $0x0,-0xc(%ebp)
40001265:	c7 45 f0 00 00 00 00 	movl   $0x0,-0x10(%ebp)
4000126c:	c7 45 ec 00 00 00 00 	movl   $0x0,-0x14(%ebp)
40001273:	c7 45 e8 00 00 00 00 	movl   $0x0,-0x18(%ebp)
4000127a:	e8 ad 80 00 00       	call   4000932c <_stdlib_init_pre>
4000127f:	e8 c4 a1 00 00       	call   4000b448 <_libmeinos_init>
40001284:	c7 44 24 04 00 00 00 	movl   $0x0,0x4(%esp)
4000128b:	00 
4000128c:	c7 04 24 28 00 00 00 	movl   $0x28,(%esp)
40001293:	e8 38 b7 00 00       	call   4000c9d0 <syscall_call>
40001298:	89 44 24 08          	mov    %eax,0x8(%esp)
4000129c:	c7 44 24 04 01 00 00 	movl   $0x1,0x4(%esp)
400012a3:	00 
400012a4:	c7 04 24 32 00 00 00 	movl   $0x32,(%esp)
400012ab:	e8 20 b7 00 00       	call   4000c9d0 <syscall_call>
400012b0:	a3 00 05 01 40       	mov    %eax,0x40010500
400012b5:	a1 00 05 01 40       	mov    0x40010500,%eax
400012ba:	83 f8 ff             	cmp    $0xffffffff,%eax
400012bd:	74 5e                	je     4000131d <_start+0xd2>
400012bf:	a1 00 05 01 40       	mov    0x40010500,%eax
400012c4:	c7 44 24 08 00 00 00 	movl   $0x0,0x8(%esp)
400012cb:	00 
400012cc:	c7 44 24 04 00 00 00 	movl   $0x0,0x4(%esp)
400012d3:	00 
400012d4:	89 04 24             	mov    %eax,(%esp)
400012d7:	e8 ac 79 00 00       	call   40008c88 <shmat>
400012dc:	a3 04 1c 01 40       	mov    %eax,0x40011c04
400012e1:	a1 04 1c 01 40       	mov    0x40011c04,%eax
400012e6:	85 c0                	test   %eax,%eax
400012e8:	74 3d                	je     40001327 <_start+0xdc>
400012ea:	8b 15 04 1c 01 40    	mov    0x40011c04,%edx
400012f0:	8d 45 e8             	lea    -0x18(%ebp),%eax
400012f3:	89 44 24 14          	mov    %eax,0x14(%esp)
400012f7:	8d 45 ec             	lea    -0x14(%ebp),%eax
400012fa:	89 44 24 10          	mov    %eax,0x10(%esp)
400012fe:	8d 45 f0             	lea    -0x10(%ebp),%eax
40001301:	89 44 24 0c          	mov    %eax,0xc(%esp)
40001305:	8d 45 f4             	lea    -0xc(%ebp),%eax
40001308:	89 44 24 08          	mov    %eax,0x8(%esp)
4000130c:	8d 45 f8             	lea    -0x8(%ebp),%eax
4000130f:	89 44 24 04          	mov    %eax,0x4(%esp)
40001313:	89 14 24             	mov    %edx,(%esp)
40001316:	e8 85 fd ff ff       	call   400010a0 <get_cmdline>
4000131b:	eb 0a                	jmp    40001327 <_start+0xdc>
4000131d:	c7 05 04 1c 01 40 00 	movl   $0x0,0x40011c04
40001324:	00 00 00 
40001327:	8b 45 e8             	mov    -0x18(%ebp),%eax
4000132a:	8b 55 ec             	mov    -0x14(%ebp),%edx
4000132d:	8b 4d f0             	mov    -0x10(%ebp),%ecx
40001330:	89 44 24 08          	mov    %eax,0x8(%esp)
40001334:	89 54 24 04          	mov    %edx,0x4(%esp)
40001338:	89 0c 24             	mov    %ecx,(%esp)
4000133b:	e8 51 80 00 00       	call   40009391 <_stdlib_init_post>
40001340:	b8 10 12 00 40       	mov    $0x40001210,%eax
40001345:	89 04 24             	mov    %eax,(%esp)
40001348:	e8 c7 80 00 00       	call   40009414 <atexit>
4000134d:	8b 45 f8             	mov    -0x8(%ebp),%eax
40001350:	8b 55 f4             	mov    -0xc(%ebp),%edx
40001353:	89 44 24 04          	mov    %eax,0x4(%esp)
40001357:	89 14 24             	mov    %edx,(%esp)
4000135a:	e8 17 07 00 00       	call   40001a76 <main>
4000135f:	89 04 24             	mov    %eax,(%esp)
40001362:	e8 55 80 00 00       	call   400093bc <exit>
40001367:	eb fe                	jmp    40001367 <_start+0x11c>
40001369:	90                   	nop    
4000136a:	90                   	nop    
4000136b:	90                   	nop    
4000136c:	90                   	nop    
4000136d:	90                   	nop    
4000136e:	90                   	nop    
4000136f:	90                   	nop    

40001370 <__do_global_dtors_aux>:
40001370:	55                   	push   %ebp
40001371:	89 e5                	mov    %esp,%ebp
40001373:	53                   	push   %ebx
40001374:	83 ec 04             	sub    $0x4,%esp
40001377:	e8 00 00 00 00       	call   4000137c <__do_global_dtors_aux+0xc>
4000137c:	5b                   	pop    %ebx
4000137d:	81 c3 80 ef 00 00    	add    $0xef80,%ebx
40001383:	80 bb 08 02 00 00 00 	cmpb   $0x0,0x208(%ebx)
4000138a:	74 0f                	je     4000139b <__do_global_dtors_aux+0x2b>
4000138c:	eb 3c                	jmp    400013ca <__do_global_dtors_aux+0x5a>
4000138e:	66 90                	xchg   %ax,%ax
40001390:	83 c0 04             	add    $0x4,%eax
40001393:	89 83 28 00 00 00    	mov    %eax,0x28(%ebx)
40001399:	ff d2                	call   *%edx
4000139b:	8b 83 28 00 00 00    	mov    0x28(%ebx),%eax
400013a1:	8b 10                	mov    (%eax),%edx
400013a3:	85 d2                	test   %edx,%edx
400013a5:	75 e9                	jne    40001390 <__do_global_dtors_aux+0x20>
400013a7:	8b 83 f4 ff ff ff    	mov    -0xc(%ebx),%eax
400013ad:	85 c0                	test   %eax,%eax
400013af:	74 12                	je     400013c3 <__do_global_dtors_aux+0x53>
400013b1:	83 ec 0c             	sub    $0xc,%esp
400013b4:	8d 83 6c ef ff ff    	lea    -0x1094(%ebx),%eax
400013ba:	50                   	push   %eax
400013bb:	e8 40 ec ff bf       	call   0 <get_cmdline-0x400010a0>
400013c0:	83 c4 10             	add    $0x10,%esp
400013c3:	c6 83 08 02 00 00 01 	movb   $0x1,0x208(%ebx)
400013ca:	8b 5d fc             	mov    -0x4(%ebp),%ebx
400013cd:	c9                   	leave  
400013ce:	c3                   	ret    
400013cf:	90                   	nop    

400013d0 <frame_dummy>:
400013d0:	55                   	push   %ebp
400013d1:	89 e5                	mov    %esp,%ebp
400013d3:	53                   	push   %ebx
400013d4:	83 ec 04             	sub    $0x4,%esp
400013d7:	e8 00 00 00 00       	call   400013dc <frame_dummy+0xc>
400013dc:	5b                   	pop    %ebx
400013dd:	81 c3 20 ef 00 00    	add    $0xef20,%ebx
400013e3:	8b 83 fc ff ff ff    	mov    -0x4(%ebx),%eax
400013e9:	85 c0                	test   %eax,%eax
400013eb:	74 18                	je     40001405 <frame_dummy+0x35>
400013ed:	8d 83 0c 02 00 00    	lea    0x20c(%ebx),%eax
400013f3:	51                   	push   %ecx
400013f4:	51                   	push   %ecx
400013f5:	50                   	push   %eax
400013f6:	8d 83 6c ef ff ff    	lea    -0x1094(%ebx),%eax
400013fc:	50                   	push   %eax
400013fd:	e8 fe eb ff bf       	call   0 <get_cmdline-0x400010a0>
40001402:	83 c4 10             	add    $0x10,%esp
40001405:	8b 93 f0 ff ff ff    	mov    -0x10(%ebx),%edx
4000140b:	85 d2                	test   %edx,%edx
4000140d:	74 19                	je     40001428 <frame_dummy+0x58>
4000140f:	8b 93 f8 ff ff ff    	mov    -0x8(%ebx),%edx
40001415:	85 d2                	test   %edx,%edx
40001417:	74 0f                	je     40001428 <frame_dummy+0x58>
40001419:	83 ec 0c             	sub    $0xc,%esp
4000141c:	8d 83 f0 ff ff ff    	lea    -0x10(%ebx),%eax
40001422:	50                   	push   %eax
40001423:	ff d2                	call   *%edx
40001425:	83 c4 10             	add    $0x10,%esp
40001428:	8b 5d fc             	mov    -0x4(%ebp),%ebx
4000142b:	c9                   	leave  
4000142c:	c3                   	ret    
4000142d:	90                   	nop    
4000142e:	90                   	nop    
4000142f:	90                   	nop    

40001430 <sigusr1_handler>:
40001430:	55                   	push   %ebp
40001431:	89 e5                	mov    %esp,%ebp
40001433:	a1 20 05 01 40       	mov    0x40010520,%eax
40001438:	40                   	inc    %eax
40001439:	a3 20 05 01 40       	mov    %eax,0x40010520
4000143e:	5d                   	pop    %ebp
4000143f:	c3                   	ret    

40001440 <init_init>:
40001440:	55                   	push   %ebp
40001441:	89 e5                	mov    %esp,%ebp
40001443:	83 ec 08             	sub    $0x8,%esp
40001446:	83 ec 08             	sub    $0x8,%esp
40001449:	68 30 14 00 40       	push   $0x40001430
4000144e:	6a 0a                	push   $0xa
40001450:	e8 08 7e 00 00       	call   4000925d <signal>
40001455:	83 c4 10             	add    $0x10,%esp
40001458:	c9                   	leave  
40001459:	c3                   	ret    

4000145a <init_run>:
4000145a:	55                   	push   %ebp
4000145b:	89 e5                	mov    %esp,%ebp
4000145d:	83 ec 18             	sub    $0x18,%esp
40001460:	83 ec 0c             	sub    $0xc,%esp
40001463:	ff 75 08             	pushl  0x8(%ebp)
40001466:	e8 20 00 00 00       	call   4000148b <getpidbyname>
4000146b:	83 c4 10             	add    $0x10,%esp
4000146e:	89 45 fc             	mov    %eax,-0x4(%ebp)
40001471:	c7 05 20 05 01 40 00 	movl   $0x0,0x40010520
40001478:	00 00 00 
4000147b:	83 ec 0c             	sub    $0xc,%esp
4000147e:	ff 75 fc             	pushl  -0x4(%ebp)
40001481:	e8 1f 00 00 00       	call   400014a5 <proc_run>
40001486:	83 c4 10             	add    $0x10,%esp
40001489:	c9                   	leave  
4000148a:	c3                   	ret    

4000148b <getpidbyname>:
4000148b:	55                   	push   %ebp
4000148c:	89 e5                	mov    %esp,%ebp
4000148e:	83 ec 08             	sub    $0x8,%esp
40001491:	83 ec 04             	sub    $0x4,%esp
40001494:	ff 75 08             	pushl  0x8(%ebp)
40001497:	6a 01                	push   $0x1
40001499:	6a 31                	push   $0x31
4000149b:	e8 30 b5 00 00       	call   4000c9d0 <syscall_call>
400014a0:	83 c4 10             	add    $0x10,%esp
400014a3:	c9                   	leave  
400014a4:	c3                   	ret    

400014a5 <proc_run>:
400014a5:	55                   	push   %ebp
400014a6:	89 e5                	mov    %esp,%ebp
400014a8:	83 ec 08             	sub    $0x8,%esp
400014ab:	83 ec 08             	sub    $0x8,%esp
400014ae:	6a 12                	push   $0x12
400014b0:	ff 75 08             	pushl  0x8(%ebp)
400014b3:	e8 05 00 00 00       	call   400014bd <kill>
400014b8:	83 c4 10             	add    $0x10,%esp
400014bb:	c9                   	leave  
400014bc:	c3                   	ret    

400014bd <kill>:
400014bd:	55                   	push   %ebp
400014be:	89 e5                	mov    %esp,%ebp
400014c0:	83 ec 08             	sub    $0x8,%esp
400014c3:	ff 75 0c             	pushl  0xc(%ebp)
400014c6:	ff 75 08             	pushl  0x8(%ebp)
400014c9:	6a 02                	push   $0x2
400014cb:	6a 4d                	push   $0x4d
400014cd:	e8 fe b4 00 00       	call   4000c9d0 <syscall_call>
400014d2:	83 c4 10             	add    $0x10,%esp
400014d5:	c9                   	leave  
400014d6:	c3                   	ret    

400014d7 <init_wait>:
400014d7:	55                   	push   %ebp
400014d8:	89 e5                	mov    %esp,%ebp
400014da:	83 ec 18             	sub    $0x18,%esp
400014dd:	c7 45 f8 00 00 00 00 	movl   $0x0,-0x8(%ebp)
400014e4:	c7 45 fc 10 27 00 00 	movl   $0x2710,-0x4(%ebp)
400014eb:	eb 14                	jmp    40001501 <init_wait+0x2a>
400014ed:	83 45 f8 0a          	addl   $0xa,-0x8(%ebp)
400014f1:	83 ec 0c             	sub    $0xc,%esp
400014f4:	68 10 27 00 00       	push   $0x2710
400014f9:	e8 16 84 00 00       	call   40009914 <usleep>
400014fe:	83 c4 10             	add    $0x10,%esp
40001501:	a1 20 05 01 40       	mov    0x40010520,%eax
40001506:	85 c0                	test   %eax,%eax
40001508:	75 08                	jne    40001512 <init_wait+0x3b>
4000150a:	8b 45 f8             	mov    -0x8(%ebp),%eax
4000150d:	3b 45 fc             	cmp    -0x4(%ebp),%eax
40001510:	72 db                	jb     400014ed <init_wait+0x16>
40001512:	8b 45 f8             	mov    -0x8(%ebp),%eax
40001515:	3b 45 fc             	cmp    -0x4(%ebp),%eax
40001518:	0f 92 c0             	setb   %al
4000151b:	25 ff 00 00 00       	and    $0xff,%eax
40001520:	c9                   	leave  
40001521:	c3                   	ret    

40001522 <init_link>:
40001522:	55                   	push   %ebp
40001523:	89 e5                	mov    %esp,%ebp
40001525:	83 ec 18             	sub    $0x18,%esp
40001528:	ff 75 08             	pushl  0x8(%ebp)
4000152b:	68 dc e5 00 40       	push   $0x4000e5dc
40001530:	68 e2 e5 00 40       	push   $0x4000e5e2
40001535:	8d 45 fc             	lea    -0x4(%ebp),%eax
40001538:	50                   	push   %eax
40001539:	e8 82 0b 00 00       	call   400020c0 <asprintf>
4000153e:	83 c4 10             	add    $0x10,%esp
40001541:	8b 45 fc             	mov    -0x4(%ebp),%eax
40001544:	83 ec 08             	sub    $0x8,%esp
40001547:	ff 75 08             	pushl  0x8(%ebp)
4000154a:	50                   	push   %eax
4000154b:	e8 92 28 00 00       	call   40003de2 <symlink>
40001550:	83 c4 10             	add    $0x10,%esp
40001553:	8b 45 fc             	mov    -0x4(%ebp),%eax
40001556:	83 ec 0c             	sub    $0xc,%esp
40001559:	50                   	push   %eax
4000155a:	e8 2c 64 00 00       	call   4000798b <free>
4000155f:	83 c4 10             	add    $0x10,%esp
40001562:	c9                   	leave  
40001563:	c3                   	ret    

40001564 <exe_load>:
40001564:	55                   	push   %ebp
40001565:	89 e5                	mov    %esp,%ebp
40001567:	83 ec 08             	sub    $0x8,%esp
4000156a:	83 ec 08             	sub    $0x8,%esp
4000156d:	ff 75 0c             	pushl  0xc(%ebp)
40001570:	ff 75 08             	pushl  0x8(%ebp)
40001573:	e8 ce 09 00 00       	call   40001f46 <elf_load>
40001578:	83 c4 10             	add    $0x10,%esp
4000157b:	c9                   	leave  
4000157c:	c3                   	ret    

4000157d <proc_fork>:
4000157d:	55                   	push   %ebp
4000157e:	89 e5                	mov    %esp,%ebp
40001580:	56                   	push   %esi
40001581:	53                   	push   %ebx
40001582:	83 ec 30             	sub    $0x30,%esp
40001585:	a1 08 1c 01 40       	mov    0x40011c08,%eax
4000158a:	83 ec 0c             	sub    $0xc,%esp
4000158d:	50                   	push   %eax
4000158e:	e8 91 a7 00 00       	call   4000bd24 <getname>
40001593:	83 c4 10             	add    $0x10,%esp
40001596:	89 45 e4             	mov    %eax,-0x1c(%ebp)
40001599:	8b 35 08 1c 01 40    	mov    0x40011c08,%esi
4000159f:	a1 08 1c 01 40       	mov    0x40011c08,%eax
400015a4:	83 ec 0c             	sub    $0xc,%esp
400015a7:	50                   	push   %eax
400015a8:	e8 2c 01 00 00       	call   400016d9 <getgidbypid>
400015ad:	83 c4 10             	add    $0x10,%esp
400015b0:	89 c3                	mov    %eax,%ebx
400015b2:	a1 08 1c 01 40       	mov    0x40011c08,%eax
400015b7:	83 ec 0c             	sub    $0xc,%esp
400015ba:	50                   	push   %eax
400015bb:	e8 33 01 00 00       	call   400016f3 <getuidbypid>
400015c0:	83 c4 10             	add    $0x10,%esp
400015c3:	56                   	push   %esi
400015c4:	53                   	push   %ebx
400015c5:	50                   	push   %eax
400015c6:	ff 75 e4             	pushl  -0x1c(%ebp)
400015c9:	e8 3f 01 00 00       	call   4000170d <proc_create>
400015ce:	83 c4 10             	add    $0x10,%esp
400015d1:	89 45 e8             	mov    %eax,-0x18(%ebp)
400015d4:	83 ec 08             	sub    $0x8,%esp
400015d7:	ff 75 0c             	pushl  0xc(%ebp)
400015da:	ff 75 e8             	pushl  -0x18(%ebp)
400015dd:	e8 4e 01 00 00       	call   40001730 <proc_setvar>
400015e2:	83 c4 10             	add    $0x10,%esp
400015e5:	83 7d e8 ff          	cmpl   $0xffffffff,-0x18(%ebp)
400015e9:	0f 84 e0 00 00 00    	je     400016cf <proc_fork+0x152>
400015ef:	a1 08 1c 01 40       	mov    0x40011c08,%eax
400015f4:	83 ec 08             	sub    $0x8,%esp
400015f7:	8d 55 e0             	lea    -0x20(%ebp),%edx
400015fa:	52                   	push   %edx
400015fb:	50                   	push   %eax
400015fc:	e8 93 a7 00 00       	call   4000bd94 <proc_mempagelist>
40001601:	83 c4 10             	add    $0x10,%esp
40001604:	89 45 f0             	mov    %eax,-0x10(%ebp)
40001607:	83 7d f0 00          	cmpl   $0x0,-0x10(%ebp)
4000160b:	0f 84 9f 00 00 00    	je     400016b0 <proc_fork+0x133>
40001611:	c7 45 ec 00 00 00 00 	movl   $0x0,-0x14(%ebp)
40001618:	e9 87 00 00 00       	jmp    400016a4 <proc_fork+0x127>
4000161d:	8b 45 ec             	mov    -0x14(%ebp),%eax
40001620:	c1 e0 02             	shl    $0x2,%eax
40001623:	03 45 f0             	add    -0x10(%ebp),%eax
40001626:	8b 10                	mov    (%eax),%edx
40001628:	8b 0d 08 1c 01 40    	mov    0x40011c08,%ecx
4000162e:	83 ec 08             	sub    $0x8,%esp
40001631:	6a 00                	push   $0x0
40001633:	8d 45 d4             	lea    -0x2c(%ebp),%eax
40001636:	50                   	push   %eax
40001637:	8d 45 d8             	lea    -0x28(%ebp),%eax
4000163a:	50                   	push   %eax
4000163b:	8d 45 dc             	lea    -0x24(%ebp),%eax
4000163e:	50                   	push   %eax
4000163f:	52                   	push   %edx
40001640:	51                   	push   %ecx
40001641:	e8 04 01 00 00       	call   4000174a <proc_memget>
40001646:	83 c4 20             	add    $0x20,%esp
40001649:	89 45 f4             	mov    %eax,-0xc(%ebp)
4000164c:	8b 45 dc             	mov    -0x24(%ebp),%eax
4000164f:	85 c0                	test   %eax,%eax
40001651:	74 4e                	je     400016a1 <proc_fork+0x124>
40001653:	83 7d f4 00          	cmpl   $0x0,-0xc(%ebp)
40001657:	74 29                	je     40001682 <proc_fork+0x105>
40001659:	8b 55 d4             	mov    -0x2c(%ebp),%edx
4000165c:	8b 4d d8             	mov    -0x28(%ebp),%ecx
4000165f:	8b 45 ec             	mov    -0x14(%ebp),%eax
40001662:	c1 e0 02             	shl    $0x2,%eax
40001665:	03 45 f0             	add    -0x10(%ebp),%eax
40001668:	8b 00                	mov    (%eax),%eax
4000166a:	83 ec 08             	sub    $0x8,%esp
4000166d:	6a 01                	push   $0x1
4000166f:	52                   	push   %edx
40001670:	51                   	push   %ecx
40001671:	ff 75 f4             	pushl  -0xc(%ebp)
40001674:	50                   	push   %eax
40001675:	ff 75 e8             	pushl  -0x18(%ebp)
40001678:	e8 f3 00 00 00       	call   40001770 <proc_memmap>
4000167d:	83 c4 20             	add    $0x20,%esp
40001680:	eb 1f                	jmp    400016a1 <proc_fork+0x124>
40001682:	8b 55 d4             	mov    -0x2c(%ebp),%edx
40001685:	8b 4d d8             	mov    -0x28(%ebp),%ecx
40001688:	8b 45 ec             	mov    -0x14(%ebp),%eax
4000168b:	c1 e0 02             	shl    $0x2,%eax
4000168e:	03 45 f0             	add    -0x10(%ebp),%eax
40001691:	8b 00                	mov    (%eax),%eax
40001693:	52                   	push   %edx
40001694:	51                   	push   %ecx
40001695:	50                   	push   %eax
40001696:	ff 75 e8             	pushl  -0x18(%ebp)
40001699:	e8 f8 00 00 00       	call   40001796 <proc_memalloc>
4000169e:	83 c4 10             	add    $0x10,%esp
400016a1:	ff 45 ec             	incl   -0x14(%ebp)
400016a4:	8b 45 e0             	mov    -0x20(%ebp),%eax
400016a7:	39 45 ec             	cmp    %eax,-0x14(%ebp)
400016aa:	0f 82 6d ff ff ff    	jb     4000161d <proc_fork+0xa0>
400016b0:	83 ec 08             	sub    $0x8,%esp
400016b3:	ff 75 08             	pushl  0x8(%ebp)
400016b6:	ff 75 e8             	pushl  -0x18(%ebp)
400016b9:	e8 fb 00 00 00       	call   400017b9 <proc_jump>
400016be:	83 c4 10             	add    $0x10,%esp
400016c1:	83 ec 0c             	sub    $0xc,%esp
400016c4:	ff 75 e8             	pushl  -0x18(%ebp)
400016c7:	e8 d9 fd ff ff       	call   400014a5 <proc_run>
400016cc:	83 c4 10             	add    $0x10,%esp
400016cf:	8b 45 e8             	mov    -0x18(%ebp),%eax
400016d2:	8d 65 f8             	lea    -0x8(%ebp),%esp
400016d5:	5b                   	pop    %ebx
400016d6:	5e                   	pop    %esi
400016d7:	5d                   	pop    %ebp
400016d8:	c3                   	ret    

400016d9 <getgidbypid>:
400016d9:	55                   	push   %ebp
400016da:	89 e5                	mov    %esp,%ebp
400016dc:	83 ec 08             	sub    $0x8,%esp
400016df:	83 ec 04             	sub    $0x4,%esp
400016e2:	ff 75 08             	pushl  0x8(%ebp)
400016e5:	6a 01                	push   $0x1
400016e7:	6a 2a                	push   $0x2a
400016e9:	e8 e2 b2 00 00       	call   4000c9d0 <syscall_call>
400016ee:	83 c4 10             	add    $0x10,%esp
400016f1:	c9                   	leave  
400016f2:	c3                   	ret    

400016f3 <getuidbypid>:
400016f3:	55                   	push   %ebp
400016f4:	89 e5                	mov    %esp,%ebp
400016f6:	83 ec 08             	sub    $0x8,%esp
400016f9:	83 ec 04             	sub    $0x4,%esp
400016fc:	ff 75 08             	pushl  0x8(%ebp)
400016ff:	6a 01                	push   $0x1
40001701:	6a 29                	push   $0x29
40001703:	e8 c8 b2 00 00       	call   4000c9d0 <syscall_call>
40001708:	83 c4 10             	add    $0x10,%esp
4000170b:	c9                   	leave  
4000170c:	c3                   	ret    

4000170d <proc_create>:
4000170d:	55                   	push   %ebp
4000170e:	89 e5                	mov    %esp,%ebp
40001710:	83 ec 08             	sub    $0x8,%esp
40001713:	83 ec 08             	sub    $0x8,%esp
40001716:	ff 75 14             	pushl  0x14(%ebp)
40001719:	ff 75 10             	pushl  0x10(%ebp)
4000171c:	ff 75 0c             	pushl  0xc(%ebp)
4000171f:	ff 75 08             	pushl  0x8(%ebp)
40001722:	6a 04                	push   $0x4
40001724:	6a 37                	push   $0x37
40001726:	e8 a5 b2 00 00       	call   4000c9d0 <syscall_call>
4000172b:	83 c4 20             	add    $0x20,%esp
4000172e:	c9                   	leave  
4000172f:	c3                   	ret    

40001730 <proc_setvar>:
40001730:	55                   	push   %ebp
40001731:	89 e5                	mov    %esp,%ebp
40001733:	83 ec 08             	sub    $0x8,%esp
40001736:	ff 75 0c             	pushl  0xc(%ebp)
40001739:	ff 75 08             	pushl  0x8(%ebp)
4000173c:	6a 02                	push   $0x2
4000173e:	6a 33                	push   $0x33
40001740:	e8 8b b2 00 00       	call   4000c9d0 <syscall_call>
40001745:	83 c4 10             	add    $0x10,%esp
40001748:	c9                   	leave  
40001749:	c3                   	ret    

4000174a <proc_memget>:
4000174a:	55                   	push   %ebp
4000174b:	89 e5                	mov    %esp,%ebp
4000174d:	83 ec 08             	sub    $0x8,%esp
40001750:	ff 75 1c             	pushl  0x1c(%ebp)
40001753:	ff 75 18             	pushl  0x18(%ebp)
40001756:	ff 75 14             	pushl  0x14(%ebp)
40001759:	ff 75 10             	pushl  0x10(%ebp)
4000175c:	ff 75 0c             	pushl  0xc(%ebp)
4000175f:	ff 75 08             	pushl  0x8(%ebp)
40001762:	6a 06                	push   $0x6
40001764:	6a 3e                	push   $0x3e
40001766:	e8 65 b2 00 00       	call   4000c9d0 <syscall_call>
4000176b:	83 c4 20             	add    $0x20,%esp
4000176e:	c9                   	leave  
4000176f:	c3                   	ret    

40001770 <proc_memmap>:
40001770:	55                   	push   %ebp
40001771:	89 e5                	mov    %esp,%ebp
40001773:	83 ec 08             	sub    $0x8,%esp
40001776:	ff 75 1c             	pushl  0x1c(%ebp)
40001779:	ff 75 18             	pushl  0x18(%ebp)
4000177c:	ff 75 14             	pushl  0x14(%ebp)
4000177f:	ff 75 10             	pushl  0x10(%ebp)
40001782:	ff 75 0c             	pushl  0xc(%ebp)
40001785:	ff 75 08             	pushl  0x8(%ebp)
40001788:	6a 06                	push   $0x6
4000178a:	6a 39                	push   $0x39
4000178c:	e8 3f b2 00 00       	call   4000c9d0 <syscall_call>
40001791:	83 c4 20             	add    $0x20,%esp
40001794:	c9                   	leave  
40001795:	c3                   	ret    

40001796 <proc_memalloc>:
40001796:	55                   	push   %ebp
40001797:	89 e5                	mov    %esp,%ebp
40001799:	83 ec 08             	sub    $0x8,%esp
4000179c:	83 ec 08             	sub    $0x8,%esp
4000179f:	ff 75 14             	pushl  0x14(%ebp)
400017a2:	ff 75 10             	pushl  0x10(%ebp)
400017a5:	ff 75 0c             	pushl  0xc(%ebp)
400017a8:	ff 75 08             	pushl  0x8(%ebp)
400017ab:	6a 04                	push   $0x4
400017ad:	6a 3a                	push   $0x3a
400017af:	e8 1c b2 00 00       	call   4000c9d0 <syscall_call>
400017b4:	83 c4 20             	add    $0x20,%esp
400017b7:	c9                   	leave  
400017b8:	c3                   	ret    

400017b9 <proc_jump>:
400017b9:	55                   	push   %ebp
400017ba:	89 e5                	mov    %esp,%ebp
400017bc:	83 ec 08             	sub    $0x8,%esp
400017bf:	ff 75 0c             	pushl  0xc(%ebp)
400017c2:	ff 75 08             	pushl  0x8(%ebp)
400017c5:	6a 02                	push   $0x2
400017c7:	6a 41                	push   $0x41
400017c9:	e8 02 b2 00 00       	call   4000c9d0 <syscall_call>
400017ce:	83 c4 10             	add    $0x10,%esp
400017d1:	c9                   	leave  
400017d2:	c3                   	ret    

400017d3 <proc_exec>:
400017d3:	55                   	push   %ebp
400017d4:	89 e5                	mov    %esp,%ebp
400017d6:	83 ec 18             	sub    $0x18,%esp
400017d9:	83 ec 0c             	sub    $0xc,%esp
400017dc:	ff 75 08             	pushl  0x8(%ebp)
400017df:	e8 f5 91 00 00       	call   4000a9d9 <strdup>
400017e4:	83 c4 10             	add    $0x10,%esp
400017e7:	89 45 f4             	mov    %eax,-0xc(%ebp)
400017ea:	a1 08 1c 01 40       	mov    0x40011c08,%eax
400017ef:	83 ec 0c             	sub    $0xc,%esp
400017f2:	50                   	push   %eax
400017f3:	e8 b4 00 00 00       	call   400018ac <proc_stop>
400017f8:	83 c4 10             	add    $0x10,%esp
400017fb:	a1 08 1c 01 40       	mov    0x40011c08,%eax
40001800:	83 ec 08             	sub    $0x8,%esp
40001803:	ff 75 0c             	pushl  0xc(%ebp)
40001806:	50                   	push   %eax
40001807:	e8 24 ff ff ff       	call   40001730 <proc_setvar>
4000180c:	83 c4 10             	add    $0x10,%esp
4000180f:	83 ec 0c             	sub    $0xc,%esp
40001812:	ff 75 f4             	pushl  -0xc(%ebp)
40001815:	e8 fe 70 00 00       	call   40008918 <basename>
4000181a:	83 c4 10             	add    $0x10,%esp
4000181d:	8b 15 08 1c 01 40    	mov    0x40011c08,%edx
40001823:	83 ec 08             	sub    $0x8,%esp
40001826:	50                   	push   %eax
40001827:	52                   	push   %edx
40001828:	e8 97 00 00 00       	call   400018c4 <proc_setname>
4000182d:	83 c4 10             	add    $0x10,%esp
40001830:	c7 45 f8 00 00 00 40 	movl   $0x40000000,-0x8(%ebp)
40001837:	eb 1b                	jmp    40001854 <proc_exec+0x81>
40001839:	a1 08 1c 01 40       	mov    0x40011c08,%eax
4000183e:	83 ec 08             	sub    $0x8,%esp
40001841:	ff 75 f8             	pushl  -0x8(%ebp)
40001844:	50                   	push   %eax
40001845:	e8 94 00 00 00       	call   400018de <proc_memfree>
4000184a:	83 c4 10             	add    $0x10,%esp
4000184d:	81 45 f8 00 10 00 00 	addl   $0x1000,-0x8(%ebp)
40001854:	81 7d f8 ff ef bf ff 	cmpl   $0xffbfefff,-0x8(%ebp)
4000185b:	76 dc                	jbe    40001839 <proc_exec+0x66>
4000185d:	a1 08 1c 01 40       	mov    0x40011c08,%eax
40001862:	83 ec 08             	sub    $0x8,%esp
40001865:	ff 75 08             	pushl  0x8(%ebp)
40001868:	50                   	push   %eax
40001869:	e8 f6 fc ff ff       	call   40001564 <exe_load>
4000186e:	83 c4 10             	add    $0x10,%esp
40001871:	89 45 fc             	mov    %eax,-0x4(%ebp)
40001874:	a1 08 1c 01 40       	mov    0x40011c08,%eax
40001879:	83 ec 08             	sub    $0x8,%esp
4000187c:	ff 75 fc             	pushl  -0x4(%ebp)
4000187f:	50                   	push   %eax
40001880:	e8 34 ff ff ff       	call   400017b9 <proc_jump>
40001885:	83 c4 10             	add    $0x10,%esp
40001888:	a1 08 1c 01 40       	mov    0x40011c08,%eax
4000188d:	83 ec 0c             	sub    $0xc,%esp
40001890:	50                   	push   %eax
40001891:	e8 62 00 00 00       	call   400018f8 <proc_createstack>
40001896:	83 c4 10             	add    $0x10,%esp
40001899:	a1 08 1c 01 40       	mov    0x40011c08,%eax
4000189e:	83 ec 0c             	sub    $0xc,%esp
400018a1:	50                   	push   %eax
400018a2:	e8 fe fb ff ff       	call   400014a5 <proc_run>
400018a7:	83 c4 10             	add    $0x10,%esp
400018aa:	c9                   	leave  
400018ab:	c3                   	ret    

400018ac <proc_stop>:
400018ac:	55                   	push   %ebp
400018ad:	89 e5                	mov    %esp,%ebp
400018af:	83 ec 08             	sub    $0x8,%esp
400018b2:	83 ec 08             	sub    $0x8,%esp
400018b5:	6a 13                	push   $0x13
400018b7:	ff 75 08             	pushl  0x8(%ebp)
400018ba:	e8 fe fb ff ff       	call   400014bd <kill>
400018bf:	83 c4 10             	add    $0x10,%esp
400018c2:	c9                   	leave  
400018c3:	c3                   	ret    

400018c4 <proc_setname>:
400018c4:	55                   	push   %ebp
400018c5:	89 e5                	mov    %esp,%ebp
400018c7:	83 ec 08             	sub    $0x8,%esp
400018ca:	ff 75 0c             	pushl  0xc(%ebp)
400018cd:	ff 75 08             	pushl  0x8(%ebp)
400018d0:	6a 02                	push   $0x2
400018d2:	6a 30                	push   $0x30
400018d4:	e8 f7 b0 00 00       	call   4000c9d0 <syscall_call>
400018d9:	83 c4 10             	add    $0x10,%esp
400018dc:	c9                   	leave  
400018dd:	c3                   	ret    

400018de <proc_memfree>:
400018de:	55                   	push   %ebp
400018df:	89 e5                	mov    %esp,%ebp
400018e1:	83 ec 08             	sub    $0x8,%esp
400018e4:	ff 75 0c             	pushl  0xc(%ebp)
400018e7:	ff 75 08             	pushl  0x8(%ebp)
400018ea:	6a 02                	push   $0x2
400018ec:	6a 3c                	push   $0x3c
400018ee:	e8 dd b0 00 00       	call   4000c9d0 <syscall_call>
400018f3:	83 c4 10             	add    $0x10,%esp
400018f6:	c9                   	leave  
400018f7:	c3                   	ret    

400018f8 <proc_createstack>:
400018f8:	55                   	push   %ebp
400018f9:	89 e5                	mov    %esp,%ebp
400018fb:	83 ec 08             	sub    $0x8,%esp
400018fe:	83 ec 04             	sub    $0x4,%esp
40001901:	ff 75 08             	pushl  0x8(%ebp)
40001904:	6a 01                	push   $0x1
40001906:	6a 42                	push   $0x42
40001908:	e8 c3 b0 00 00       	call   4000c9d0 <syscall_call>
4000190d:	83 c4 10             	add    $0x10,%esp
40001910:	c9                   	leave  
40001911:	c3                   	ret    

40001912 <proc_execute>:
40001912:	55                   	push   %ebp
40001913:	89 e5                	mov    %esp,%ebp
40001915:	57                   	push   %edi
40001916:	56                   	push   %esi
40001917:	53                   	push   %ebx
40001918:	83 ec 1c             	sub    $0x1c,%esp
4000191b:	83 ec 0c             	sub    $0xc,%esp
4000191e:	ff 75 08             	pushl  0x8(%ebp)
40001921:	e8 b3 90 00 00       	call   4000a9d9 <strdup>
40001926:	83 c4 10             	add    $0x10,%esp
40001929:	89 45 e8             	mov    %eax,-0x18(%ebp)
4000192c:	8b 35 08 1c 01 40    	mov    0x40011c08,%esi
40001932:	a1 08 1c 01 40       	mov    0x40011c08,%eax
40001937:	83 ec 0c             	sub    $0xc,%esp
4000193a:	50                   	push   %eax
4000193b:	e8 99 fd ff ff       	call   400016d9 <getgidbypid>
40001940:	83 c4 10             	add    $0x10,%esp
40001943:	89 c7                	mov    %eax,%edi
40001945:	a1 08 1c 01 40       	mov    0x40011c08,%eax
4000194a:	83 ec 0c             	sub    $0xc,%esp
4000194d:	50                   	push   %eax
4000194e:	e8 a0 fd ff ff       	call   400016f3 <getuidbypid>
40001953:	83 c4 10             	add    $0x10,%esp
40001956:	89 c3                	mov    %eax,%ebx
40001958:	83 ec 0c             	sub    $0xc,%esp
4000195b:	ff 75 e8             	pushl  -0x18(%ebp)
4000195e:	e8 b5 6f 00 00       	call   40008918 <basename>
40001963:	83 c4 10             	add    $0x10,%esp
40001966:	56                   	push   %esi
40001967:	57                   	push   %edi
40001968:	53                   	push   %ebx
40001969:	50                   	push   %eax
4000196a:	e8 9e fd ff ff       	call   4000170d <proc_create>
4000196f:	83 c4 10             	add    $0x10,%esp
40001972:	89 45 ec             	mov    %eax,-0x14(%ebp)
40001975:	83 ec 08             	sub    $0x8,%esp
40001978:	ff 75 0c             	pushl  0xc(%ebp)
4000197b:	ff 75 ec             	pushl  -0x14(%ebp)
4000197e:	e8 ad fd ff ff       	call   40001730 <proc_setvar>
40001983:	83 c4 10             	add    $0x10,%esp
40001986:	83 ec 08             	sub    $0x8,%esp
40001989:	ff 75 08             	pushl  0x8(%ebp)
4000198c:	ff 75 ec             	pushl  -0x14(%ebp)
4000198f:	e8 d0 fb ff ff       	call   40001564 <exe_load>
40001994:	83 c4 10             	add    $0x10,%esp
40001997:	89 45 f0             	mov    %eax,-0x10(%ebp)
4000199a:	83 7d f0 00          	cmpl   $0x0,-0x10(%ebp)
4000199e:	75 17                	jne    400019b7 <proc_execute+0xa5>
400019a0:	83 ec 0c             	sub    $0xc,%esp
400019a3:	ff 75 ec             	pushl  -0x14(%ebp)
400019a6:	e8 4a 00 00 00       	call   400019f5 <proc_destroy>
400019ab:	83 c4 10             	add    $0x10,%esp
400019ae:	c7 45 e0 ff ff ff ff 	movl   $0xffffffff,-0x20(%ebp)
400019b5:	eb 33                	jmp    400019ea <proc_execute+0xd8>
400019b7:	83 ec 08             	sub    $0x8,%esp
400019ba:	ff 75 f0             	pushl  -0x10(%ebp)
400019bd:	ff 75 ec             	pushl  -0x14(%ebp)
400019c0:	e8 f4 fd ff ff       	call   400017b9 <proc_jump>
400019c5:	83 c4 10             	add    $0x10,%esp
400019c8:	83 ec 0c             	sub    $0xc,%esp
400019cb:	ff 75 ec             	pushl  -0x14(%ebp)
400019ce:	e8 25 ff ff ff       	call   400018f8 <proc_createstack>
400019d3:	83 c4 10             	add    $0x10,%esp
400019d6:	83 ec 0c             	sub    $0xc,%esp
400019d9:	ff 75 ec             	pushl  -0x14(%ebp)
400019dc:	e8 c4 fa ff ff       	call   400014a5 <proc_run>
400019e1:	83 c4 10             	add    $0x10,%esp
400019e4:	8b 45 ec             	mov    -0x14(%ebp),%eax
400019e7:	89 45 e0             	mov    %eax,-0x20(%ebp)
400019ea:	8b 45 e0             	mov    -0x20(%ebp),%eax
400019ed:	8d 65 f4             	lea    -0xc(%ebp),%esp
400019f0:	5b                   	pop    %ebx
400019f1:	5e                   	pop    %esi
400019f2:	5f                   	pop    %edi
400019f3:	5d                   	pop    %ebp
400019f4:	c3                   	ret    

400019f5 <proc_destroy>:
400019f5:	55                   	push   %ebp
400019f6:	89 e5                	mov    %esp,%ebp
400019f8:	83 ec 08             	sub    $0x8,%esp
400019fb:	83 ec 04             	sub    $0x4,%esp
400019fe:	ff 75 08             	pushl  0x8(%ebp)
40001a01:	6a 01                	push   $0x1
40001a03:	6a 38                	push   $0x38
40001a05:	e8 c6 af 00 00       	call   4000c9d0 <syscall_call>
40001a0a:	83 c4 10             	add    $0x10,%esp
40001a0d:	c9                   	leave  
40001a0e:	c3                   	ret    

40001a0f <init_computer_shutdown>:
40001a0f:	55                   	push   %ebp
40001a10:	89 e5                	mov    %esp,%ebp
40001a12:	83 ec 18             	sub    $0x18,%esp
40001a15:	eb 10                	jmp    40001a27 <init_computer_shutdown+0x18>
40001a17:	83 ec 08             	sub    $0x8,%esp
40001a1a:	6a 09                	push   $0x9
40001a1c:	ff 75 fc             	pushl  -0x4(%ebp)
40001a1f:	e8 99 fa ff ff       	call   400014bd <kill>
40001a24:	83 c4 10             	add    $0x10,%esp
40001a27:	83 ec 08             	sub    $0x8,%esp
40001a2a:	6a 00                	push   $0x0
40001a2c:	6a 28                	push   $0x28
40001a2e:	e8 9d af 00 00       	call   4000c9d0 <syscall_call>
40001a33:	83 c4 10             	add    $0x10,%esp
40001a36:	83 ec 08             	sub    $0x8,%esp
40001a39:	6a 00                	push   $0x0
40001a3b:	50                   	push   %eax
40001a3c:	e8 1b 00 00 00       	call   40001a5c <getchildbypid>
40001a41:	83 c4 10             	add    $0x10,%esp
40001a44:	89 45 fc             	mov    %eax,-0x4(%ebp)
40001a47:	83 7d fc ff          	cmpl   $0xffffffff,-0x4(%ebp)
40001a4b:	75 ca                	jne    40001a17 <init_computer_shutdown+0x8>
40001a4d:	83 ec 0c             	sub    $0xc,%esp
40001a50:	6a 00                	push   $0x0
40001a52:	e8 65 79 00 00       	call   400093bc <exit>
40001a57:	83 c4 10             	add    $0x10,%esp
40001a5a:	c9                   	leave  
40001a5b:	c3                   	ret    

40001a5c <getchildbypid>:
40001a5c:	55                   	push   %ebp
40001a5d:	89 e5                	mov    %esp,%ebp
40001a5f:	83 ec 08             	sub    $0x8,%esp
40001a62:	ff 75 0c             	pushl  0xc(%ebp)
40001a65:	ff 75 08             	pushl  0x8(%ebp)
40001a68:	6a 02                	push   $0x2
40001a6a:	6a 2e                	push   $0x2e
40001a6c:	e8 5f af 00 00       	call   4000c9d0 <syscall_call>
40001a71:	83 c4 10             	add    $0x10,%esp
40001a74:	c9                   	leave  
40001a75:	c3                   	ret    

40001a76 <main>:
40001a76:	8d 4c 24 04          	lea    0x4(%esp),%ecx
40001a7a:	83 e4 f0             	and    $0xfffffff0,%esp
40001a7d:	ff 71 fc             	pushl  -0x4(%ecx)
40001a80:	55                   	push   %ebp
40001a81:	89 e5                	mov    %esp,%ebp
40001a83:	51                   	push   %ecx
40001a84:	83 ec 14             	sub    $0x14,%esp
40001a87:	e8 b4 f9 ff ff       	call   40001440 <init_init>
40001a8c:	c7 45 f8 00 00 00 00 	movl   $0x0,-0x8(%ebp)
40001a93:	e9 92 01 00 00       	jmp    40001c2a <main+0x1b4>
40001a98:	8b 45 f8             	mov    -0x8(%ebp),%eax
40001a9b:	8b 04 85 40 03 01 40 	mov    0x40010340(,%eax,4),%eax
40001aa2:	83 ec 0c             	sub    $0xc,%esp
40001aa5:	50                   	push   %eax
40001aa6:	e8 af f9 ff ff       	call   4000145a <init_run>
40001aab:	83 c4 10             	add    $0x10,%esp
40001aae:	8b 45 f8             	mov    -0x8(%ebp),%eax
40001ab1:	8b 04 85 40 03 01 40 	mov    0x40010340(,%eax,4),%eax
40001ab8:	83 ec 0c             	sub    $0xc,%esp
40001abb:	50                   	push   %eax
40001abc:	e8 16 fa ff ff       	call   400014d7 <init_wait>
40001ac1:	83 c4 10             	add    $0x10,%esp
40001ac4:	85 c0                	test   %eax,%eax
40001ac6:	75 2e                	jne    40001af6 <main+0x80>
40001ac8:	8b 45 f8             	mov    -0x8(%ebp),%eax
40001acb:	8b 04 85 40 03 01 40 	mov    0x40010340(,%eax,4),%eax
40001ad2:	8b 15 18 1c 01 40    	mov    0x40011c18,%edx
40001ad8:	83 ec 04             	sub    $0x4,%esp
40001adb:	50                   	push   %eax
40001adc:	68 e8 e5 00 40       	push   $0x4000e5e8
40001ae1:	52                   	push   %edx
40001ae2:	e8 d1 28 00 00       	call   400043b8 <fprintf>
40001ae7:	83 c4 10             	add    $0x10,%esp
40001aea:	c7 45 e8 01 00 00 00 	movl   $0x1,-0x18(%ebp)
40001af1:	e9 d4 01 00 00       	jmp    40001cca <main+0x254>
40001af6:	8b 45 f8             	mov    -0x8(%ebp),%eax
40001af9:	8b 04 85 40 03 01 40 	mov    0x40010340(,%eax,4),%eax
40001b00:	83 ec 08             	sub    $0x8,%esp
40001b03:	68 c8 e5 00 40       	push   $0x4000e5c8
40001b08:	50                   	push   %eax
40001b09:	e8 f6 8d 00 00       	call   4000a904 <strcmp>
40001b0e:	83 c4 10             	add    $0x10,%esp
40001b11:	85 c0                	test   %eax,%eax
40001b13:	75 2b                	jne    40001b40 <main+0xca>
40001b15:	6a 01                	push   $0x1
40001b17:	68 1b e6 00 40       	push   $0x4000e61b
40001b1c:	68 dc e5 00 40       	push   $0x4000e5dc
40001b21:	68 c8 e5 00 40       	push   $0x4000e5c8
40001b26:	e8 2a 99 00 00       	call   4000b455 <vfs_mount>
40001b2b:	83 c4 10             	add    $0x10,%esp
40001b2e:	83 ec 0c             	sub    $0xc,%esp
40001b31:	6a 01                	push   $0x1
40001b33:	e8 b6 7d 00 00       	call   400098ee <sleep>
40001b38:	83 c4 10             	add    $0x10,%esp
40001b3b:	e9 e7 00 00 00       	jmp    40001c27 <main+0x1b1>
40001b40:	8b 45 f8             	mov    -0x8(%ebp),%eax
40001b43:	8b 04 85 40 03 01 40 	mov    0x40010340(,%eax,4),%eax
40001b4a:	83 ec 08             	sub    $0x8,%esp
40001b4d:	68 ac e5 00 40       	push   $0x4000e5ac
40001b52:	50                   	push   %eax
40001b53:	e8 ac 8d 00 00       	call   4000a904 <strcmp>
40001b58:	83 c4 10             	add    $0x10,%esp
40001b5b:	85 c0                	test   %eax,%eax
40001b5d:	0f 85 c4 00 00 00    	jne    40001c27 <main+0x1b1>
40001b63:	6a 00                	push   $0x0
40001b65:	6a 00                	push   $0x0
40001b67:	68 27 e6 00 40       	push   $0x4000e627
40001b6c:	68 ac e5 00 40       	push   $0x4000e5ac
40001b71:	e8 df 98 00 00       	call   4000b455 <vfs_mount>
40001b76:	83 c4 10             	add    $0x10,%esp
40001b79:	83 ec 08             	sub    $0x8,%esp
40001b7c:	68 ff 01 00 00       	push   $0x1ff
40001b81:	68 29 e6 00 40       	push   $0x4000e629
40001b86:	e8 4a 01 00 00       	call   40001cd5 <mkdir>
40001b8b:	83 c4 10             	add    $0x10,%esp
40001b8e:	83 ec 08             	sub    $0x8,%esp
40001b91:	68 ff 01 00 00       	push   $0x1ff
40001b96:	68 dc e5 00 40       	push   $0x4000e5dc
40001b9b:	e8 35 01 00 00       	call   40001cd5 <mkdir>
40001ba0:	83 c4 10             	add    $0x10,%esp
40001ba3:	83 ec 08             	sub    $0x8,%esp
40001ba6:	68 ff 01 00 00       	push   $0x1ff
40001bab:	68 2e e6 00 40       	push   $0x4000e62e
40001bb0:	e8 20 01 00 00       	call   40001cd5 <mkdir>
40001bb5:	83 c4 10             	add    $0x10,%esp
40001bb8:	83 ec 08             	sub    $0x8,%esp
40001bbb:	68 ff 01 00 00       	push   $0x1ff
40001bc0:	68 33 e6 00 40       	push   $0x4000e633
40001bc5:	e8 0b 01 00 00       	call   40001cd5 <mkdir>
40001bca:	83 c4 10             	add    $0x10,%esp
40001bcd:	83 ec 08             	sub    $0x8,%esp
40001bd0:	68 ff 01 00 00       	push   $0x1ff
40001bd5:	68 38 e6 00 40       	push   $0x4000e638
40001bda:	e8 f6 00 00 00       	call   40001cd5 <mkdir>
40001bdf:	83 c4 10             	add    $0x10,%esp
40001be2:	83 ec 08             	sub    $0x8,%esp
40001be5:	68 ff 01 00 00       	push   $0x1ff
40001bea:	68 3d e6 00 40       	push   $0x4000e63d
40001bef:	e8 e1 00 00 00       	call   40001cd5 <mkdir>
40001bf4:	83 c4 10             	add    $0x10,%esp
40001bf7:	83 ec 0c             	sub    $0xc,%esp
40001bfa:	68 46 e6 00 40       	push   $0x4000e646
40001bff:	e8 1e f9 ff ff       	call   40001522 <init_link>
40001c04:	83 c4 10             	add    $0x10,%esp
40001c07:	83 ec 0c             	sub    $0xc,%esp
40001c0a:	68 4b e6 00 40       	push   $0x4000e64b
40001c0f:	e8 0e f9 ff ff       	call   40001522 <init_link>
40001c14:	83 c4 10             	add    $0x10,%esp
40001c17:	83 ec 0c             	sub    $0xc,%esp
40001c1a:	68 50 e6 00 40       	push   $0x4000e650
40001c1f:	e8 fe f8 ff ff       	call   40001522 <init_link>
40001c24:	83 c4 10             	add    $0x10,%esp
40001c27:	ff 45 f8             	incl   -0x8(%ebp)
40001c2a:	8b 45 f8             	mov    -0x8(%ebp),%eax
40001c2d:	8b 04 85 40 03 01 40 	mov    0x40010340(,%eax,4),%eax
40001c34:	85 c0                	test   %eax,%eax
40001c36:	0f 85 5c fe ff ff    	jne    40001a98 <main+0x22>
40001c3c:	6a 04                	push   $0x4
40001c3e:	68 55 e6 00 40       	push   $0x4000e655
40001c43:	68 7d 15 00 40       	push   $0x4000157d
40001c48:	68 58 e6 00 40       	push   $0x4000e658
40001c4d:	e8 d2 a1 00 00       	call   4000be24 <rpc_func_create>
40001c52:	83 c4 10             	add    $0x10,%esp
40001c55:	68 04 04 00 00       	push   $0x404
40001c5a:	68 62 e6 00 40       	push   $0x4000e662
40001c5f:	68 d3 17 00 40       	push   $0x400017d3
40001c64:	68 65 e6 00 40       	push   $0x4000e665
40001c69:	e8 b6 a1 00 00       	call   4000be24 <rpc_func_create>
40001c6e:	83 c4 10             	add    $0x10,%esp
40001c71:	68 04 04 00 00       	push   $0x404
40001c76:	68 62 e6 00 40       	push   $0x4000e662
40001c7b:	68 12 19 00 40       	push   $0x40001912
40001c80:	68 6f e6 00 40       	push   $0x4000e66f
40001c85:	e8 9a a1 00 00       	call   4000be24 <rpc_func_create>
40001c8a:	83 c4 10             	add    $0x10,%esp
40001c8d:	6a 00                	push   $0x0
40001c8f:	68 7c e6 00 40       	push   $0x4000e67c
40001c94:	68 0f 1a 00 40       	push   $0x40001a0f
40001c99:	68 7d e6 00 40       	push   $0x4000e67d
40001c9e:	e8 81 a1 00 00       	call   4000be24 <rpc_func_create>
40001ca3:	83 c4 10             	add    $0x10,%esp
40001ca6:	83 ec 0c             	sub    $0xc,%esp
40001ca9:	68 8f e6 00 40       	push   $0x4000e68f
40001cae:	e8 a7 f7 ff ff       	call   4000145a <init_run>
40001cb3:	83 c4 10             	add    $0x10,%esp
40001cb6:	83 ec 0c             	sub    $0xc,%esp
40001cb9:	6a ff                	push   $0xffffffff
40001cbb:	e8 10 ac 00 00       	call   4000c8d0 <rpc_mainloop>
40001cc0:	83 c4 10             	add    $0x10,%esp
40001cc3:	c7 45 e8 00 00 00 00 	movl   $0x0,-0x18(%ebp)
40001cca:	8b 45 e8             	mov    -0x18(%ebp),%eax
40001ccd:	8b 4d fc             	mov    -0x4(%ebp),%ecx
40001cd0:	c9                   	leave  
40001cd1:	8d 61 fc             	lea    -0x4(%ecx),%esp
40001cd4:	c3                   	ret    

40001cd5 <mkdir>:
40001cd5:	55                   	push   %ebp
40001cd6:	89 e5                	mov    %esp,%ebp
40001cd8:	83 ec 08             	sub    $0x8,%esp
40001cdb:	8b 45 0c             	mov    0xc(%ebp),%eax
40001cde:	80 cc 40             	or     $0x40,%ah
40001ce1:	83 ec 04             	sub    $0x4,%esp
40001ce4:	6a 00                	push   $0x0
40001ce6:	50                   	push   %eax
40001ce7:	ff 75 08             	pushl  0x8(%ebp)
40001cea:	e8 73 0a 00 00       	call   40002762 <mknod>
40001cef:	83 c4 10             	add    $0x10,%esp
40001cf2:	c9                   	leave  
40001cf3:	c3                   	ret    

40001cf4 <elf_validate>:
40001cf4:	55                   	push   %ebp
40001cf5:	89 e5                	mov    %esp,%ebp
40001cf7:	83 ec 04             	sub    $0x4,%esp
40001cfa:	8b 45 08             	mov    0x8(%ebp),%eax
40001cfd:	8a 00                	mov    (%eax),%al
40001cff:	3c 7f                	cmp    $0x7f,%al
40001d01:	75 1e                	jne    40001d21 <elf_validate+0x2d>
40001d03:	8b 45 08             	mov    0x8(%ebp),%eax
40001d06:	8a 40 01             	mov    0x1(%eax),%al
40001d09:	3c 45                	cmp    $0x45,%al
40001d0b:	75 14                	jne    40001d21 <elf_validate+0x2d>
40001d0d:	8b 45 08             	mov    0x8(%ebp),%eax
40001d10:	8a 40 02             	mov    0x2(%eax),%al
40001d13:	3c 4c                	cmp    $0x4c,%al
40001d15:	75 0a                	jne    40001d21 <elf_validate+0x2d>
40001d17:	8b 45 08             	mov    0x8(%ebp),%eax
40001d1a:	8a 40 03             	mov    0x3(%eax),%al
40001d1d:	3c 46                	cmp    $0x46,%al
40001d1f:	74 09                	je     40001d2a <elf_validate+0x36>
40001d21:	c7 45 fc 00 00 00 00 	movl   $0x0,-0x4(%ebp)
40001d28:	eb 63                	jmp    40001d8d <elf_validate+0x99>
40001d2a:	8b 45 08             	mov    0x8(%ebp),%eax
40001d2d:	66 8b 40 12          	mov    0x12(%eax),%ax
40001d31:	66 83 f8 03          	cmp    $0x3,%ax
40001d35:	74 09                	je     40001d40 <elf_validate+0x4c>
40001d37:	c7 45 fc 00 00 00 00 	movl   $0x0,-0x4(%ebp)
40001d3e:	eb 4d                	jmp    40001d8d <elf_validate+0x99>
40001d40:	8b 45 08             	mov    0x8(%ebp),%eax
40001d43:	8a 40 04             	mov    0x4(%eax),%al
40001d46:	3c 01                	cmp    $0x1,%al
40001d48:	74 09                	je     40001d53 <elf_validate+0x5f>
40001d4a:	c7 45 fc 00 00 00 00 	movl   $0x0,-0x4(%ebp)
40001d51:	eb 3a                	jmp    40001d8d <elf_validate+0x99>
40001d53:	8b 45 08             	mov    0x8(%ebp),%eax
40001d56:	8a 40 05             	mov    0x5(%eax),%al
40001d59:	3c 01                	cmp    $0x1,%al
40001d5b:	74 09                	je     40001d66 <elf_validate+0x72>
40001d5d:	c7 45 fc 00 00 00 00 	movl   $0x0,-0x4(%ebp)
40001d64:	eb 27                	jmp    40001d8d <elf_validate+0x99>
40001d66:	8b 45 08             	mov    0x8(%ebp),%eax
40001d69:	8a 40 06             	mov    0x6(%eax),%al
40001d6c:	ba 00 00 00 00       	mov    $0x0,%edx
40001d71:	88 c2                	mov    %al,%dl
40001d73:	8b 45 08             	mov    0x8(%ebp),%eax
40001d76:	8b 40 14             	mov    0x14(%eax),%eax
40001d79:	39 c2                	cmp    %eax,%edx
40001d7b:	74 09                	je     40001d86 <elf_validate+0x92>
40001d7d:	c7 45 fc 00 00 00 00 	movl   $0x0,-0x4(%ebp)
40001d84:	eb 07                	jmp    40001d8d <elf_validate+0x99>
40001d86:	c7 45 fc 01 00 00 00 	movl   $0x1,-0x4(%ebp)
40001d8d:	8b 45 fc             	mov    -0x4(%ebp),%eax
40001d90:	c9                   	leave  
40001d91:	c3                   	ret    

40001d92 <elf_loadseg>:
40001d92:	55                   	push   %ebp
40001d93:	89 e5                	mov    %esp,%ebp
40001d95:	83 ec 38             	sub    $0x38,%esp
40001d98:	81 7d 10 ff ff ff 3f 	cmpl   $0x3fffffff,0x10(%ebp)
40001d9f:	77 0c                	ja     40001dad <elf_loadseg+0x1b>
40001da1:	c7 45 d4 ff ff ff ff 	movl   $0xffffffff,-0x2c(%ebp)
40001da8:	e9 3a 01 00 00       	jmp    40001ee7 <elf_loadseg+0x155>
40001dad:	c7 45 f0 00 00 00 00 	movl   $0x0,-0x10(%ebp)
40001db4:	83 ec 08             	sub    $0x8,%esp
40001db7:	6a 00                	push   $0x0
40001db9:	6a 28                	push   $0x28
40001dbb:	e8 10 ac 00 00       	call   4000c9d0 <syscall_call>
40001dc0:	83 c4 10             	add    $0x10,%esp
40001dc3:	89 45 f4             	mov    %eax,-0xc(%ebp)
40001dc6:	8b 45 18             	mov    0x18(%ebp),%eax
40001dc9:	83 ec 04             	sub    $0x4,%esp
40001dcc:	6a 00                	push   $0x0
40001dce:	50                   	push   %eax
40001dcf:	ff 75 0c             	pushl  0xc(%ebp)
40001dd2:	e8 94 12 00 00       	call   4000306b <lseek>
40001dd7:	83 c4 10             	add    $0x10,%esp
40001dda:	c7 45 ec 00 00 00 00 	movl   $0x0,-0x14(%ebp)
40001de1:	e9 ef 00 00 00       	jmp    40001ed5 <elf_loadseg+0x143>
40001de6:	83 ec 04             	sub    $0x4,%esp
40001de9:	68 00 10 00 00       	push   $0x1000
40001dee:	6a 01                	push   $0x1
40001df0:	6a 01                	push   $0x1
40001df2:	e8 d9 ab 00 00       	call   4000c9d0 <syscall_call>
40001df7:	83 c4 10             	add    $0x10,%esp
40001dfa:	89 45 f8             	mov    %eax,-0x8(%ebp)
40001dfd:	8b 45 ec             	mov    -0x14(%ebp),%eax
40001e00:	3b 45 1c             	cmp    0x1c(%ebp),%eax
40001e03:	77 29                	ja     40001e2e <elf_loadseg+0x9c>
40001e05:	8b 45 ec             	mov    -0x14(%ebp),%eax
40001e08:	05 00 10 00 00       	add    $0x1000,%eax
40001e0d:	3b 45 1c             	cmp    0x1c(%ebp),%eax
40001e10:	76 0d                	jbe    40001e1f <elf_loadseg+0x8d>
40001e12:	8b 45 1c             	mov    0x1c(%ebp),%eax
40001e15:	25 ff 0f 00 00       	and    $0xfff,%eax
40001e1a:	89 45 dc             	mov    %eax,-0x24(%ebp)
40001e1d:	eb 07                	jmp    40001e26 <elf_loadseg+0x94>
40001e1f:	c7 45 dc 00 10 00 00 	movl   $0x1000,-0x24(%ebp)
40001e26:	8b 45 dc             	mov    -0x24(%ebp),%eax
40001e29:	89 45 d8             	mov    %eax,-0x28(%ebp)
40001e2c:	eb 07                	jmp    40001e35 <elf_loadseg+0xa3>
40001e2e:	c7 45 d8 00 00 00 00 	movl   $0x0,-0x28(%ebp)
40001e35:	8b 45 d8             	mov    -0x28(%ebp),%eax
40001e38:	89 45 fc             	mov    %eax,-0x4(%ebp)
40001e3b:	83 7d fc 00          	cmpl   $0x0,-0x4(%ebp)
40001e3f:	74 16                	je     40001e57 <elf_loadseg+0xc5>
40001e41:	83 ec 04             	sub    $0x4,%esp
40001e44:	ff 75 fc             	pushl  -0x4(%ebp)
40001e47:	ff 75 f8             	pushl  -0x8(%ebp)
40001e4a:	ff 75 0c             	pushl  0xc(%ebp)
40001e4d:	e8 25 10 00 00       	call   40002e77 <read>
40001e52:	83 c4 10             	add    $0x10,%esp
40001e55:	eb 15                	jmp    40001e6c <elf_loadseg+0xda>
40001e57:	83 ec 04             	sub    $0x4,%esp
40001e5a:	68 00 10 00 00       	push   $0x1000
40001e5f:	6a 00                	push   $0x0
40001e61:	ff 75 f8             	pushl  -0x8(%ebp)
40001e64:	e8 e0 89 00 00       	call   4000a849 <memset>
40001e69:	83 c4 10             	add    $0x10,%esp
40001e6c:	83 ec 04             	sub    $0x4,%esp
40001e6f:	ff 75 f8             	pushl  -0x8(%ebp)
40001e72:	6a 01                	push   $0x1
40001e74:	6a 03                	push   $0x3
40001e76:	e8 55 ab 00 00       	call   4000c9d0 <syscall_call>
40001e7b:	83 c4 10             	add    $0x10,%esp
40001e7e:	89 c2                	mov    %eax,%edx
40001e80:	8b 45 ec             	mov    -0x14(%ebp),%eax
40001e83:	03 45 10             	add    0x10(%ebp),%eax
40001e86:	83 ec 08             	sub    $0x8,%esp
40001e89:	6a 00                	push   $0x0
40001e8b:	6a 01                	push   $0x1
40001e8d:	ff 75 20             	pushl  0x20(%ebp)
40001e90:	52                   	push   %edx
40001e91:	50                   	push   %eax
40001e92:	ff 75 08             	pushl  0x8(%ebp)
40001e95:	e8 52 00 00 00       	call   40001eec <proc_memmap>
40001e9a:	83 c4 20             	add    $0x20,%esp
40001e9d:	85 c0                	test   %eax,%eax
40001e9f:	75 1a                	jne    40001ebb <elf_loadseg+0x129>
40001ea1:	83 ec 08             	sub    $0x8,%esp
40001ea4:	ff 75 f8             	pushl  -0x8(%ebp)
40001ea7:	ff 75 f4             	pushl  -0xc(%ebp)
40001eaa:	e8 63 00 00 00       	call   40001f12 <proc_memunmap>
40001eaf:	83 c4 10             	add    $0x10,%esp
40001eb2:	81 45 ec 00 10 00 00 	addl   $0x1000,-0x14(%ebp)
40001eb9:	eb 1a                	jmp    40001ed5 <elf_loadseg+0x143>
40001ebb:	83 ec 08             	sub    $0x8,%esp
40001ebe:	ff 75 f8             	pushl  -0x8(%ebp)
40001ec1:	ff 75 f4             	pushl  -0xc(%ebp)
40001ec4:	e8 63 00 00 00       	call   40001f2c <proc_memfree>
40001ec9:	83 c4 10             	add    $0x10,%esp
40001ecc:	c7 45 f0 ff ff ff ff 	movl   $0xffffffff,-0x10(%ebp)
40001ed3:	eb 0c                	jmp    40001ee1 <elf_loadseg+0x14f>
40001ed5:	8b 45 ec             	mov    -0x14(%ebp),%eax
40001ed8:	3b 45 14             	cmp    0x14(%ebp),%eax
40001edb:	0f 82 05 ff ff ff    	jb     40001de6 <elf_loadseg+0x54>
40001ee1:	8b 45 f0             	mov    -0x10(%ebp),%eax
40001ee4:	89 45 d4             	mov    %eax,-0x2c(%ebp)
40001ee7:	8b 45 d4             	mov    -0x2c(%ebp),%eax
40001eea:	c9                   	leave  
40001eeb:	c3                   	ret    

40001eec <proc_memmap>:
40001eec:	55                   	push   %ebp
40001eed:	89 e5                	mov    %esp,%ebp
40001eef:	83 ec 08             	sub    $0x8,%esp
40001ef2:	ff 75 1c             	pushl  0x1c(%ebp)
40001ef5:	ff 75 18             	pushl  0x18(%ebp)
40001ef8:	ff 75 14             	pushl  0x14(%ebp)
40001efb:	ff 75 10             	pushl  0x10(%ebp)
40001efe:	ff 75 0c             	pushl  0xc(%ebp)
40001f01:	ff 75 08             	pushl  0x8(%ebp)
40001f04:	6a 06                	push   $0x6
40001f06:	6a 39                	push   $0x39
40001f08:	e8 c3 aa 00 00       	call   4000c9d0 <syscall_call>
40001f0d:	83 c4 20             	add    $0x20,%esp
40001f10:	c9                   	leave  
40001f11:	c3                   	ret    

40001f12 <proc_memunmap>:
40001f12:	55                   	push   %ebp
40001f13:	89 e5                	mov    %esp,%ebp
40001f15:	83 ec 08             	sub    $0x8,%esp
40001f18:	ff 75 0c             	pushl  0xc(%ebp)
40001f1b:	ff 75 08             	pushl  0x8(%ebp)
40001f1e:	6a 02                	push   $0x2
40001f20:	6a 39                	push   $0x39
40001f22:	e8 a9 aa 00 00       	call   4000c9d0 <syscall_call>
40001f27:	83 c4 10             	add    $0x10,%esp
40001f2a:	c9                   	leave  
40001f2b:	c3                   	ret    

40001f2c <proc_memfree>:
40001f2c:	55                   	push   %ebp
40001f2d:	89 e5                	mov    %esp,%ebp
40001f2f:	83 ec 08             	sub    $0x8,%esp
40001f32:	ff 75 0c             	pushl  0xc(%ebp)
40001f35:	ff 75 08             	pushl  0x8(%ebp)
40001f38:	6a 02                	push   $0x2
40001f3a:	6a 3c                	push   $0x3c
40001f3c:	e8 8f aa 00 00       	call   4000c9d0 <syscall_call>
40001f41:	83 c4 10             	add    $0x10,%esp
40001f44:	c9                   	leave  
40001f45:	c3                   	ret    

40001f46 <elf_load>:
40001f46:	55                   	push   %ebp
40001f47:	89 e5                	mov    %esp,%ebp
40001f49:	56                   	push   %esi
40001f4a:	53                   	push   %ebx
40001f4b:	83 ec 60             	sub    $0x60,%esp
40001f4e:	83 ec 08             	sub    $0x8,%esp
40001f51:	6a 01                	push   $0x1
40001f53:	ff 75 0c             	pushl  0xc(%ebp)
40001f56:	e8 a6 09 00 00       	call   40002901 <open>
40001f5b:	83 c4 10             	add    $0x10,%esp
40001f5e:	89 45 e8             	mov    %eax,-0x18(%ebp)
40001f61:	83 7d e8 ff          	cmpl   $0xffffffff,-0x18(%ebp)
40001f65:	0f 84 44 01 00 00    	je     400020af <elf_load+0x169>
40001f6b:	83 ec 04             	sub    $0x4,%esp
40001f6e:	6a 34                	push   $0x34
40001f70:	8d 45 b4             	lea    -0x4c(%ebp),%eax
40001f73:	50                   	push   %eax
40001f74:	ff 75 e8             	pushl  -0x18(%ebp)
40001f77:	e8 fb 0e 00 00       	call   40002e77 <read>
40001f7c:	83 c4 10             	add    $0x10,%esp
40001f7f:	8d 45 b4             	lea    -0x4c(%ebp),%eax
40001f82:	50                   	push   %eax
40001f83:	e8 6c fd ff ff       	call   40001cf4 <elf_validate>
40001f88:	83 c4 04             	add    $0x4,%esp
40001f8b:	85 c0                	test   %eax,%eax
40001f8d:	75 0c                	jne    40001f9b <elf_load+0x55>
40001f8f:	c7 45 a4 00 00 00 00 	movl   $0x0,-0x5c(%ebp)
40001f96:	e9 1b 01 00 00       	jmp    400020b6 <elf_load+0x170>
40001f9b:	8b 45 cc             	mov    -0x34(%ebp),%eax
40001f9e:	89 45 f0             	mov    %eax,-0x10(%ebp)
40001fa1:	8b 45 e0             	mov    -0x20(%ebp),%eax
40001fa4:	25 ff ff 00 00       	and    $0xffff,%eax
40001fa9:	c1 e0 05             	shl    $0x5,%eax
40001fac:	83 ec 0c             	sub    $0xc,%esp
40001faf:	50                   	push   %eax
40001fb0:	e8 1f 55 00 00       	call   400074d4 <malloc>
40001fb5:	83 c4 10             	add    $0x10,%esp
40001fb8:	89 45 f4             	mov    %eax,-0xc(%ebp)
40001fbb:	8b 45 d0             	mov    -0x30(%ebp),%eax
40001fbe:	83 ec 04             	sub    $0x4,%esp
40001fc1:	6a 00                	push   $0x0
40001fc3:	50                   	push   %eax
40001fc4:	ff 75 e8             	pushl  -0x18(%ebp)
40001fc7:	e8 9f 10 00 00       	call   4000306b <lseek>
40001fcc:	83 c4 10             	add    $0x10,%esp
40001fcf:	8b 45 e0             	mov    -0x20(%ebp),%eax
40001fd2:	25 ff ff 00 00       	and    $0xffff,%eax
40001fd7:	c1 e0 05             	shl    $0x5,%eax
40001fda:	83 ec 04             	sub    $0x4,%esp
40001fdd:	50                   	push   %eax
40001fde:	ff 75 f4             	pushl  -0xc(%ebp)
40001fe1:	ff 75 e8             	pushl  -0x18(%ebp)
40001fe4:	e8 8e 0e 00 00       	call   40002e77 <read>
40001fe9:	83 c4 10             	add    $0x10,%esp
40001fec:	c7 45 ec 00 00 00 00 	movl   $0x0,-0x14(%ebp)
40001ff3:	e9 82 00 00 00       	jmp    4000207a <elf_load+0x134>
40001ff8:	8b 45 ec             	mov    -0x14(%ebp),%eax
40001ffb:	c1 e0 05             	shl    $0x5,%eax
40001ffe:	03 45 f4             	add    -0xc(%ebp),%eax
40002001:	8b 00                	mov    (%eax),%eax
40002003:	83 f8 01             	cmp    $0x1,%eax
40002006:	75 6f                	jne    40002077 <elf_load+0x131>
40002008:	8b 45 ec             	mov    -0x14(%ebp),%eax
4000200b:	c1 e0 05             	shl    $0x5,%eax
4000200e:	03 45 f4             	add    -0xc(%ebp),%eax
40002011:	8b 40 18             	mov    0x18(%eax),%eax
40002014:	83 e0 02             	and    $0x2,%eax
40002017:	85 c0                	test   %eax,%eax
40002019:	0f 95 c0             	setne  %al
4000201c:	ba 00 00 00 00       	mov    $0x0,%edx
40002021:	88 c2                	mov    %al,%dl
40002023:	8b 45 ec             	mov    -0x14(%ebp),%eax
40002026:	c1 e0 05             	shl    $0x5,%eax
40002029:	03 45 f4             	add    -0xc(%ebp),%eax
4000202c:	8b 48 10             	mov    0x10(%eax),%ecx
4000202f:	8b 45 ec             	mov    -0x14(%ebp),%eax
40002032:	c1 e0 05             	shl    $0x5,%eax
40002035:	03 45 f4             	add    -0xc(%ebp),%eax
40002038:	8b 58 04             	mov    0x4(%eax),%ebx
4000203b:	8b 45 ec             	mov    -0x14(%ebp),%eax
4000203e:	c1 e0 05             	shl    $0x5,%eax
40002041:	03 45 f4             	add    -0xc(%ebp),%eax
40002044:	8b 70 14             	mov    0x14(%eax),%esi
40002047:	8b 45 ec             	mov    -0x14(%ebp),%eax
4000204a:	c1 e0 05             	shl    $0x5,%eax
4000204d:	03 45 f4             	add    -0xc(%ebp),%eax
40002050:	8b 40 08             	mov    0x8(%eax),%eax
40002053:	83 ec 04             	sub    $0x4,%esp
40002056:	52                   	push   %edx
40002057:	51                   	push   %ecx
40002058:	53                   	push   %ebx
40002059:	56                   	push   %esi
4000205a:	50                   	push   %eax
4000205b:	ff 75 e8             	pushl  -0x18(%ebp)
4000205e:	ff 75 08             	pushl  0x8(%ebp)
40002061:	e8 2c fd ff ff       	call   40001d92 <elf_loadseg>
40002066:	83 c4 20             	add    $0x20,%esp
40002069:	83 f8 ff             	cmp    $0xffffffff,%eax
4000206c:	75 09                	jne    40002077 <elf_load+0x131>
4000206e:	c7 45 f0 00 00 00 00 	movl   $0x0,-0x10(%ebp)
40002075:	eb 14                	jmp    4000208b <elf_load+0x145>
40002077:	ff 45 ec             	incl   -0x14(%ebp)
4000207a:	8b 45 e0             	mov    -0x20(%ebp),%eax
4000207d:	25 ff ff 00 00       	and    $0xffff,%eax
40002082:	3b 45 ec             	cmp    -0x14(%ebp),%eax
40002085:	0f 87 6d ff ff ff    	ja     40001ff8 <elf_load+0xb2>
4000208b:	83 ec 0c             	sub    $0xc,%esp
4000208e:	ff 75 f4             	pushl  -0xc(%ebp)
40002091:	e8 f5 58 00 00       	call   4000798b <free>
40002096:	83 c4 10             	add    $0x10,%esp
40002099:	83 ec 0c             	sub    $0xc,%esp
4000209c:	ff 75 e8             	pushl  -0x18(%ebp)
4000209f:	e8 e0 0a 00 00       	call   40002b84 <close>
400020a4:	83 c4 10             	add    $0x10,%esp
400020a7:	8b 45 f0             	mov    -0x10(%ebp),%eax
400020aa:	89 45 a4             	mov    %eax,-0x5c(%ebp)
400020ad:	eb 07                	jmp    400020b6 <elf_load+0x170>
400020af:	c7 45 a4 00 00 00 00 	movl   $0x0,-0x5c(%ebp)
400020b6:	8b 45 a4             	mov    -0x5c(%ebp),%eax
400020b9:	8d 65 f8             	lea    -0x8(%ebp),%esp
400020bc:	5b                   	pop    %ebx
400020bd:	5e                   	pop    %esi
400020be:	5d                   	pop    %ebp
400020bf:	c3                   	ret    

400020c0 <asprintf>:
400020c0:	55                   	push   %ebp
400020c1:	89 e5                	mov    %esp,%ebp
400020c3:	83 ec 38             	sub    $0x38,%esp
400020c6:	8d 45 10             	lea    0x10(%ebp),%eax
400020c9:	89 45 f0             	mov    %eax,-0x10(%ebp)
400020cc:	8b 45 f0             	mov    -0x10(%ebp),%eax
400020cf:	89 45 ec             	mov    %eax,-0x14(%ebp)
400020d2:	8b 45 ec             	mov    -0x14(%ebp),%eax
400020d5:	89 44 24 0c          	mov    %eax,0xc(%esp)
400020d9:	8b 45 0c             	mov    0xc(%ebp),%eax
400020dc:	89 44 24 08          	mov    %eax,0x8(%esp)
400020e0:	c7 44 24 04 00 00 00 	movl   $0x0,0x4(%esp)
400020e7:	00 
400020e8:	c7 04 24 00 00 00 00 	movl   $0x0,(%esp)
400020ef:	e8 d5 7c 00 00       	call   40009dc9 <vsnprintf>
400020f4:	83 c0 01             	add    $0x1,%eax
400020f7:	89 45 f8             	mov    %eax,-0x8(%ebp)
400020fa:	8b 45 f8             	mov    -0x8(%ebp),%eax
400020fd:	89 04 24             	mov    %eax,(%esp)
40002100:	e8 cf 53 00 00       	call   400074d4 <malloc>
40002105:	89 45 fc             	mov    %eax,-0x4(%ebp)
40002108:	8b 55 08             	mov    0x8(%ebp),%edx
4000210b:	8b 45 fc             	mov    -0x4(%ebp),%eax
4000210e:	89 02                	mov    %eax,(%edx)
40002110:	83 7d fc 00          	cmpl   $0x0,-0x4(%ebp)
40002114:	75 09                	jne    4000211f <asprintf+0x5f>
40002116:	c7 45 dc ff ff ff ff 	movl   $0xffffffff,-0x24(%ebp)
4000211d:	eb 29                	jmp    40002148 <asprintf+0x88>
4000211f:	8b 45 f0             	mov    -0x10(%ebp),%eax
40002122:	8b 55 f8             	mov    -0x8(%ebp),%edx
40002125:	89 44 24 0c          	mov    %eax,0xc(%esp)
40002129:	8b 45 0c             	mov    0xc(%ebp),%eax
4000212c:	89 44 24 08          	mov    %eax,0x8(%esp)
40002130:	89 54 24 04          	mov    %edx,0x4(%esp)
40002134:	8b 45 fc             	mov    -0x4(%ebp),%eax
40002137:	89 04 24             	mov    %eax,(%esp)
4000213a:	e8 8a 7c 00 00       	call   40009dc9 <vsnprintf>
4000213f:	89 45 f4             	mov    %eax,-0xc(%ebp)
40002142:	8b 45 f4             	mov    -0xc(%ebp),%eax
40002145:	89 45 dc             	mov    %eax,-0x24(%ebp)
40002148:	8b 45 dc             	mov    -0x24(%ebp),%eax
4000214b:	c9                   	leave  
4000214c:	c3                   	ret    
4000214d:	90                   	nop    
4000214e:	90                   	nop    
4000214f:	90                   	nop    

40002150 <_fs_init>:
40002150:	55                   	push   %ebp
40002151:	89 e5                	mov    %esp,%ebp
40002153:	83 ec 28             	sub    $0x28,%esp
40002156:	e8 09 8f 00 00       	call   4000b064 <llist_create>
4000215b:	a3 24 05 01 40       	mov    %eax,0x40010524
40002160:	e8 ff 8e 00 00       	call   4000b064 <llist_create>
40002165:	a3 28 05 01 40       	mov    %eax,0x40010528
4000216a:	c7 05 3c 05 01 40 ff 	movl   $0x1ff,0x4001053c
40002171:	01 00 00 
40002174:	c7 04 24 95 e6 00 40 	movl   $0x4000e695,(%esp)
4000217b:	e8 99 aa 00 00       	call   4000cc19 <getenv>
40002180:	89 45 fc             	mov    %eax,-0x4(%ebp)
40002183:	83 7d fc 00          	cmpl   $0x0,-0x4(%ebp)
40002187:	75 07                	jne    40002190 <_fs_init+0x40>
40002189:	c7 45 fc 9a e6 00 40 	movl   $0x4000e69a,-0x4(%ebp)
40002190:	c7 44 24 08 0c 00 00 	movl   $0xc,0x8(%esp)
40002197:	00 
40002198:	c7 44 24 04 00 00 00 	movl   $0x0,0x4(%esp)
4000219f:	00 
400021a0:	c7 04 24 30 05 01 40 	movl   $0x40010530,(%esp)
400021a7:	e8 9d 86 00 00       	call   4000a849 <memset>
400021ac:	8b 45 fc             	mov    -0x4(%ebp),%eax
400021af:	89 04 24             	mov    %eax,(%esp)
400021b2:	e8 72 04 00 00       	call   40002629 <chdir>
400021b7:	c7 05 2c 05 01 40 00 	movl   $0x0,0x4001052c
400021be:	00 00 00 
400021c1:	83 7d 08 00          	cmpl   $0x0,0x8(%ebp)
400021c5:	74 13                	je     400021da <_fs_init+0x8a>
400021c7:	c7 44 24 04 01 00 00 	movl   $0x1,0x4(%esp)
400021ce:	00 
400021cf:	8b 45 08             	mov    0x8(%ebp),%eax
400021d2:	89 04 24             	mov    %eax,(%esp)
400021d5:	e8 27 07 00 00       	call   40002901 <open>
400021da:	c7 05 2c 05 01 40 01 	movl   $0x1,0x4001052c
400021e1:	00 00 00 
400021e4:	83 7d 0c 00          	cmpl   $0x0,0xc(%ebp)
400021e8:	74 13                	je     400021fd <_fs_init+0xad>
400021ea:	c7 44 24 04 02 00 00 	movl   $0x2,0x4(%esp)
400021f1:	00 
400021f2:	8b 45 0c             	mov    0xc(%ebp),%eax
400021f5:	89 04 24             	mov    %eax,(%esp)
400021f8:	e8 04 07 00 00       	call   40002901 <open>
400021fd:	c7 05 2c 05 01 40 02 	movl   $0x2,0x4001052c
40002204:	00 00 00 
40002207:	83 7d 10 00          	cmpl   $0x0,0x10(%ebp)
4000220b:	74 13                	je     40002220 <_fs_init+0xd0>
4000220d:	c7 44 24 04 02 00 00 	movl   $0x2,0x4(%esp)
40002214:	00 
40002215:	8b 45 10             	mov    0x10(%ebp),%eax
40002218:	89 04 24             	mov    %eax,(%esp)
4000221b:	e8 e1 06 00 00       	call   40002901 <open>
40002220:	c7 05 2c 05 01 40 03 	movl   $0x3,0x4001052c
40002227:	00 00 00 
4000222a:	c9                   	leave  
4000222b:	c3                   	ret    

4000222c <mp_match>:
4000222c:	55                   	push   %ebp
4000222d:	89 e5                	mov    %esp,%ebp
4000222f:	53                   	push   %ebx
40002230:	83 ec 34             	sub    $0x34,%esp
40002233:	c7 45 ec 00 00 00 00 	movl   $0x0,-0x14(%ebp)
4000223a:	c7 45 f4 00 00 00 00 	movl   $0x0,-0xc(%ebp)
40002241:	8b 45 08             	mov    0x8(%ebp),%eax
40002244:	89 04 24             	mov    %eax,(%esp)
40002247:	e8 cc 92 00 00       	call   4000b518 <path_parse>
4000224c:	89 45 f8             	mov    %eax,-0x8(%ebp)
4000224f:	83 7d 0c 00          	cmpl   $0x0,0xc(%ebp)
40002253:	74 0b                	je     40002260 <mp_match+0x34>
40002255:	8b 45 f8             	mov    -0x8(%ebp),%eax
40002258:	89 04 24             	mov    %eax,(%esp)
4000225b:	e8 96 9a 00 00       	call   4000bcf6 <path_parent>
40002260:	c7 45 e4 00 00 00 00 	movl   $0x0,-0x1c(%ebp)
40002267:	eb 30                	jmp    40002299 <mp_match+0x6d>
40002269:	8b 45 f0             	mov    -0x10(%ebp),%eax
4000226c:	8b 40 08             	mov    0x8(%eax),%eax
4000226f:	89 44 24 04          	mov    %eax,0x4(%esp)
40002273:	8b 45 f8             	mov    -0x8(%ebp),%eax
40002276:	89 04 24             	mov    %eax,(%esp)
40002279:	e8 40 97 00 00       	call   4000b9be <path_compare>
4000227e:	89 45 e8             	mov    %eax,-0x18(%ebp)
40002281:	8b 45 e8             	mov    -0x18(%ebp),%eax
40002284:	3b 45 ec             	cmp    -0x14(%ebp),%eax
40002287:	76 0c                	jbe    40002295 <mp_match+0x69>
40002289:	8b 45 e8             	mov    -0x18(%ebp),%eax
4000228c:	89 45 ec             	mov    %eax,-0x14(%ebp)
4000228f:	8b 45 f0             	mov    -0x10(%ebp),%eax
40002292:	89 45 f4             	mov    %eax,-0xc(%ebp)
40002295:	83 45 e4 01          	addl   $0x1,-0x1c(%ebp)
40002299:	a1 28 05 01 40       	mov    0x40010528,%eax
4000229e:	8b 55 e4             	mov    -0x1c(%ebp),%edx
400022a1:	89 54 24 04          	mov    %edx,0x4(%esp)
400022a5:	89 04 24             	mov    %eax,(%esp)
400022a8:	e8 6a 8f 00 00       	call   4000b217 <llist_get>
400022ad:	89 45 f0             	mov    %eax,-0x10(%ebp)
400022b0:	83 7d f0 00          	cmpl   $0x0,-0x10(%ebp)
400022b4:	75 b3                	jne    40002269 <mp_match+0x3d>
400022b6:	83 7d f4 00          	cmpl   $0x0,-0xc(%ebp)
400022ba:	74 48                	je     40002304 <mp_match+0xd8>
400022bc:	8b 45 08             	mov    0x8(%ebp),%eax
400022bf:	89 04 24             	mov    %eax,(%esp)
400022c2:	e8 5d 87 00 00       	call   4000aa24 <strlen>
400022c7:	89 c3                	mov    %eax,%ebx
400022c9:	8b 45 f4             	mov    -0xc(%ebp),%eax
400022cc:	8b 40 0c             	mov    0xc(%eax),%eax
400022cf:	89 04 24             	mov    %eax,(%esp)
400022d2:	e8 4d 87 00 00       	call   4000aa24 <strlen>
400022d7:	89 da                	mov    %ebx,%edx
400022d9:	29 c2                	sub    %eax,%edx
400022db:	89 d0                	mov    %edx,%eax
400022dd:	8d 58 01             	lea    0x1(%eax),%ebx
400022e0:	8b 45 f4             	mov    -0xc(%ebp),%eax
400022e3:	8b 40 0c             	mov    0xc(%eax),%eax
400022e6:	89 04 24             	mov    %eax,(%esp)
400022e9:	e8 36 87 00 00       	call   4000aa24 <strlen>
400022ee:	03 45 08             	add    0x8(%ebp),%eax
400022f1:	89 5c 24 08          	mov    %ebx,0x8(%esp)
400022f5:	89 44 24 04          	mov    %eax,0x4(%esp)
400022f9:	8b 45 08             	mov    0x8(%ebp),%eax
400022fc:	89 04 24             	mov    %eax,(%esp)
400022ff:	e8 20 84 00 00       	call   4000a724 <memmove>
40002304:	8b 45 08             	mov    0x8(%ebp),%eax
40002307:	0f b6 00             	movzbl (%eax),%eax
4000230a:	84 c0                	test   %al,%al
4000230c:	75 13                	jne    40002321 <mp_match+0xf5>
4000230e:	c7 44 24 04 9a e6 00 	movl   $0x4000e69a,0x4(%esp)
40002315:	40 
40002316:	8b 45 08             	mov    0x8(%ebp),%eax
40002319:	89 04 24             	mov    %eax,(%esp)
4000231c:	e8 70 86 00 00       	call   4000a991 <strcpy>
40002321:	8b 45 f4             	mov    -0xc(%ebp),%eax
40002324:	83 c4 34             	add    $0x34,%esp
40002327:	5b                   	pop    %ebx
40002328:	5d                   	pop    %ebp
40002329:	c3                   	ret    

4000232a <fsbypath>:
4000232a:	55                   	push   %ebp
4000232b:	89 e5                	mov    %esp,%ebp
4000232d:	53                   	push   %ebx
4000232e:	83 ec 24             	sub    $0x24,%esp
40002331:	83 7d 08 00          	cmpl   $0x0,0x8(%ebp)
40002335:	74 0a                	je     40002341 <fsbypath+0x17>
40002337:	8b 45 08             	mov    0x8(%ebp),%eax
4000233a:	0f b6 00             	movzbl (%eax),%eax
4000233d:	84 c0                	test   %al,%al
4000233f:	75 0c                	jne    4000234d <fsbypath+0x23>
40002341:	c7 45 e8 00 00 00 00 	movl   $0x0,-0x18(%ebp)
40002348:	e9 52 01 00 00       	jmp    4000249f <fsbypath+0x175>
4000234d:	8b 45 0c             	mov    0xc(%ebp),%eax
40002350:	89 44 24 04          	mov    %eax,0x4(%esp)
40002354:	8b 45 08             	mov    0x8(%ebp),%eax
40002357:	89 04 24             	mov    %eax,(%esp)
4000235a:	e8 cd fe ff ff       	call   4000222c <mp_match>
4000235f:	89 45 f4             	mov    %eax,-0xc(%ebp)
40002362:	83 7d f4 00          	cmpl   $0x0,-0xc(%ebp)
40002366:	0f 85 2d 01 00 00    	jne    40002499 <fsbypath+0x16f>
4000236c:	c7 04 24 10 00 00 00 	movl   $0x10,(%esp)
40002373:	e8 5c 51 00 00       	call   400074d4 <malloc>
40002378:	89 45 f4             	mov    %eax,-0xc(%ebp)
4000237b:	8b 45 08             	mov    0x8(%ebp),%eax
4000237e:	89 04 24             	mov    %eax,(%esp)
40002381:	e8 53 86 00 00       	call   4000a9d9 <strdup>
40002386:	89 45 f8             	mov    %eax,-0x8(%ebp)
40002389:	8b 45 0c             	mov    0xc(%ebp),%eax
4000238c:	89 44 24 0c          	mov    %eax,0xc(%esp)
40002390:	8b 45 08             	mov    0x8(%ebp),%eax
40002393:	89 44 24 08          	mov    %eax,0x8(%esp)
40002397:	c7 44 24 04 01 00 00 	movl   $0x1,0x4(%esp)
4000239e:	00 
4000239f:	c7 04 24 9c e6 00 40 	movl   $0x4000e69c,(%esp)
400023a6:	e8 40 a0 00 00       	call   4000c3eb <rpc_call>
400023ab:	89 c2                	mov    %eax,%edx
400023ad:	8b 45 f4             	mov    -0xc(%ebp),%eax
400023b0:	89 50 04             	mov    %edx,0x4(%eax)
400023b3:	8b 45 f4             	mov    -0xc(%ebp),%eax
400023b6:	8b 40 04             	mov    0x4(%eax),%eax
400023b9:	85 c0                	test   %eax,%eax
400023bb:	79 24                	jns    400023e1 <fsbypath+0xb7>
400023bd:	8b 45 f8             	mov    -0x8(%ebp),%eax
400023c0:	89 04 24             	mov    %eax,(%esp)
400023c3:	e8 c3 55 00 00       	call   4000798b <free>
400023c8:	8b 45 f4             	mov    -0xc(%ebp),%eax
400023cb:	8b 40 04             	mov    0x4(%eax),%eax
400023ce:	f7 d8                	neg    %eax
400023d0:	a3 10 1c 01 40       	mov    %eax,0x40011c10
400023d5:	c7 45 e8 00 00 00 00 	movl   $0x0,-0x18(%ebp)
400023dc:	e9 be 00 00 00       	jmp    4000249f <fsbypath+0x175>
400023e1:	8b 45 f8             	mov    -0x8(%ebp),%eax
400023e4:	89 04 24             	mov    %eax,(%esp)
400023e7:	e8 38 86 00 00       	call   4000aa24 <strlen>
400023ec:	89 c3                	mov    %eax,%ebx
400023ee:	8b 45 08             	mov    0x8(%ebp),%eax
400023f1:	89 04 24             	mov    %eax,(%esp)
400023f4:	e8 2b 86 00 00       	call   4000aa24 <strlen>
400023f9:	89 da                	mov    %ebx,%edx
400023fb:	29 c2                	sub    %eax,%edx
400023fd:	89 d0                	mov    %edx,%eax
400023ff:	03 45 f8             	add    -0x8(%ebp),%eax
40002402:	c6 00 00             	movb   $0x0,(%eax)
40002405:	8b 45 f8             	mov    -0x8(%ebp),%eax
40002408:	89 04 24             	mov    %eax,(%esp)
4000240b:	e8 08 91 00 00       	call   4000b518 <path_parse>
40002410:	89 c2                	mov    %eax,%edx
40002412:	8b 45 f4             	mov    -0xc(%ebp),%eax
40002415:	89 50 08             	mov    %edx,0x8(%eax)
40002418:	8b 45 f4             	mov    -0xc(%ebp),%eax
4000241b:	8b 40 08             	mov    0x8(%eax),%eax
4000241e:	c7 44 24 04 00 00 00 	movl   $0x0,0x4(%esp)
40002425:	00 
40002426:	89 04 24             	mov    %eax,(%esp)
40002429:	e8 b6 93 00 00       	call   4000b7e4 <path_output>
4000242e:	89 c2                	mov    %eax,%edx
40002430:	8b 45 f4             	mov    -0xc(%ebp),%eax
40002433:	89 50 0c             	mov    %edx,0xc(%eax)
40002436:	8b 45 f8             	mov    -0x8(%ebp),%eax
40002439:	89 04 24             	mov    %eax,(%esp)
4000243c:	e8 4a 55 00 00       	call   4000798b <free>
40002441:	8b 45 f4             	mov    -0xc(%ebp),%eax
40002444:	8b 40 04             	mov    0x4(%eax),%eax
40002447:	89 44 24 08          	mov    %eax,0x8(%esp)
4000244b:	c7 44 24 04 00 00 00 	movl   $0x0,0x4(%esp)
40002452:	00 
40002453:	c7 04 24 a8 e6 00 40 	movl   $0x4000e6a8,(%esp)
4000245a:	e8 8c 9f 00 00       	call   4000c3eb <rpc_call>
4000245f:	89 c2                	mov    %eax,%edx
40002461:	8b 45 f4             	mov    -0xc(%ebp),%eax
40002464:	89 10                	mov    %edx,(%eax)
40002466:	8b 45 f4             	mov    -0xc(%ebp),%eax
40002469:	8b 00                	mov    (%eax),%eax
4000246b:	85 c0                	test   %eax,%eax
4000246d:	79 15                	jns    40002484 <fsbypath+0x15a>
4000246f:	8b 45 f4             	mov    -0xc(%ebp),%eax
40002472:	8b 00                	mov    (%eax),%eax
40002474:	f7 d8                	neg    %eax
40002476:	a3 10 1c 01 40       	mov    %eax,0x40011c10
4000247b:	c7 45 e8 00 00 00 00 	movl   $0x0,-0x18(%ebp)
40002482:	eb 1b                	jmp    4000249f <fsbypath+0x175>
40002484:	8b 15 28 05 01 40    	mov    0x40010528,%edx
4000248a:	8b 45 f4             	mov    -0xc(%ebp),%eax
4000248d:	89 44 24 04          	mov    %eax,0x4(%esp)
40002491:	89 14 24             	mov    %edx,(%esp)
40002494:	e8 46 8c 00 00       	call   4000b0df <llist_push>
40002499:	8b 45 f4             	mov    -0xc(%ebp),%eax
4000249c:	89 45 e8             	mov    %eax,-0x18(%ebp)
4000249f:	8b 45 e8             	mov    -0x18(%ebp),%eax
400024a2:	83 c4 24             	add    $0x24,%esp
400024a5:	5b                   	pop    %ebx
400024a6:	5d                   	pop    %ebp
400024a7:	c3                   	ret    

400024a8 <lidxbyfh>:
400024a8:	55                   	push   %ebp
400024a9:	89 e5                	mov    %esp,%ebp
400024ab:	83 ec 28             	sub    $0x28,%esp
400024ae:	c7 45 fc 00 00 00 00 	movl   $0x0,-0x4(%ebp)
400024b5:	eb 17                	jmp    400024ce <lidxbyfh+0x26>
400024b7:	8b 45 f8             	mov    -0x8(%ebp),%eax
400024ba:	8b 40 14             	mov    0x14(%eax),%eax
400024bd:	3b 45 08             	cmp    0x8(%ebp),%eax
400024c0:	75 08                	jne    400024ca <lidxbyfh+0x22>
400024c2:	8b 45 fc             	mov    -0x4(%ebp),%eax
400024c5:	89 45 ec             	mov    %eax,-0x14(%ebp)
400024c8:	eb 29                	jmp    400024f3 <lidxbyfh+0x4b>
400024ca:	83 45 fc 01          	addl   $0x1,-0x4(%ebp)
400024ce:	8b 45 fc             	mov    -0x4(%ebp),%eax
400024d1:	8b 15 24 05 01 40    	mov    0x40010524,%edx
400024d7:	89 44 24 04          	mov    %eax,0x4(%esp)
400024db:	89 14 24             	mov    %edx,(%esp)
400024de:	e8 34 8d 00 00       	call   4000b217 <llist_get>
400024e3:	89 45 f8             	mov    %eax,-0x8(%ebp)
400024e6:	83 7d f8 00          	cmpl   $0x0,-0x8(%ebp)
400024ea:	75 cb                	jne    400024b7 <lidxbyfh+0xf>
400024ec:	c7 45 ec ff ff ff ff 	movl   $0xffffffff,-0x14(%ebp)
400024f3:	8b 45 ec             	mov    -0x14(%ebp),%eax
400024f6:	c9                   	leave  
400024f7:	c3                   	ret    

400024f8 <filebyfh>:
400024f8:	55                   	push   %ebp
400024f9:	89 e5                	mov    %esp,%ebp
400024fb:	83 ec 28             	sub    $0x28,%esp
400024fe:	83 7d 08 00          	cmpl   $0x0,0x8(%ebp)
40002502:	78 2e                	js     40002532 <filebyfh+0x3a>
40002504:	8b 45 08             	mov    0x8(%ebp),%eax
40002507:	89 04 24             	mov    %eax,(%esp)
4000250a:	e8 99 ff ff ff       	call   400024a8 <lidxbyfh>
4000250f:	89 45 fc             	mov    %eax,-0x4(%ebp)
40002512:	83 7d fc 00          	cmpl   $0x0,-0x4(%ebp)
40002516:	78 1a                	js     40002532 <filebyfh+0x3a>
40002518:	8b 45 fc             	mov    -0x4(%ebp),%eax
4000251b:	8b 15 24 05 01 40    	mov    0x40010524,%edx
40002521:	89 44 24 04          	mov    %eax,0x4(%esp)
40002525:	89 14 24             	mov    %edx,(%esp)
40002528:	e8 ea 8c 00 00       	call   4000b217 <llist_get>
4000252d:	89 45 ec             	mov    %eax,-0x14(%ebp)
40002530:	eb 07                	jmp    40002539 <filebyfh+0x41>
40002532:	c7 45 ec 00 00 00 00 	movl   $0x0,-0x14(%ebp)
40002539:	8b 45 ec             	mov    -0x14(%ebp),%eax
4000253c:	c9                   	leave  
4000253d:	c3                   	ret    

4000253e <getabsolutepath>:
4000253e:	55                   	push   %ebp
4000253f:	89 e5                	mov    %esp,%ebp
40002541:	83 ec 18             	sub    $0x18,%esp
40002544:	8b 45 08             	mov    0x8(%ebp),%eax
40002547:	89 04 24             	mov    %eax,(%esp)
4000254a:	e8 c9 8f 00 00       	call   4000b518 <path_parse>
4000254f:	89 45 f8             	mov    %eax,-0x8(%ebp)
40002552:	8b 45 f8             	mov    -0x8(%ebp),%eax
40002555:	8b 40 0c             	mov    0xc(%eax),%eax
40002558:	85 c0                	test   %eax,%eax
4000255a:	75 29                	jne    40002585 <getabsolutepath+0x47>
4000255c:	8b 15 38 05 01 40    	mov    0x40010538,%edx
40002562:	8b 45 f8             	mov    -0x8(%ebp),%eax
40002565:	89 44 24 04          	mov    %eax,0x4(%esp)
40002569:	89 14 24             	mov    %edx,(%esp)
4000256c:	e8 70 95 00 00       	call   4000bae1 <path_cat>
40002571:	89 45 fc             	mov    %eax,-0x4(%ebp)
40002574:	8b 45 f8             	mov    -0x8(%ebp),%eax
40002577:	89 04 24             	mov    %eax,(%esp)
4000257a:	e8 be 90 00 00       	call   4000b63d <path_destroy>
4000257f:	8b 45 fc             	mov    -0x4(%ebp),%eax
40002582:	89 45 f8             	mov    %eax,-0x8(%ebp)
40002585:	8b 45 f8             	mov    -0x8(%ebp),%eax
40002588:	89 04 24             	mov    %eax,(%esp)
4000258b:	e8 e2 90 00 00       	call   4000b672 <path_reject_dots>
40002590:	c7 44 24 04 00 00 00 	movl   $0x0,0x4(%esp)
40002597:	00 
40002598:	8b 45 f8             	mov    -0x8(%ebp),%eax
4000259b:	89 04 24             	mov    %eax,(%esp)
4000259e:	e8 41 92 00 00       	call   4000b7e4 <path_output>
400025a3:	c9                   	leave  
400025a4:	c3                   	ret    

400025a5 <getcwd>:
400025a5:	55                   	push   %ebp
400025a6:	89 e5                	mov    %esp,%ebp
400025a8:	83 ec 18             	sub    $0x18,%esp
400025ab:	83 7d 08 00          	cmpl   $0x0,0x8(%ebp)
400025af:	75 1b                	jne    400025cc <getcwd+0x27>
400025b1:	a1 34 05 01 40       	mov    0x40010534,%eax
400025b6:	83 c0 01             	add    $0x1,%eax
400025b9:	89 45 0c             	mov    %eax,0xc(%ebp)
400025bc:	8b 45 0c             	mov    0xc(%ebp),%eax
400025bf:	89 04 24             	mov    %eax,(%esp)
400025c2:	e8 0d 4f 00 00       	call   400074d4 <malloc>
400025c7:	89 45 08             	mov    %eax,0x8(%ebp)
400025ca:	eb 39                	jmp    40002605 <getcwd+0x60>
400025cc:	83 7d 0c 00          	cmpl   $0x0,0xc(%ebp)
400025d0:	75 13                	jne    400025e5 <getcwd+0x40>
400025d2:	c7 05 10 1c 01 40 1c 	movl   $0x1c,0x40011c10
400025d9:	00 00 00 
400025dc:	c7 45 fc 00 00 00 00 	movl   $0x0,-0x4(%ebp)
400025e3:	eb 3f                	jmp    40002624 <getcwd+0x7f>
400025e5:	a1 34 05 01 40       	mov    0x40010534,%eax
400025ea:	83 c0 01             	add    $0x1,%eax
400025ed:	3b 45 0c             	cmp    0xc(%ebp),%eax
400025f0:	76 13                	jbe    40002605 <getcwd+0x60>
400025f2:	c7 05 10 1c 01 40 46 	movl   $0x46,0x40011c10
400025f9:	00 00 00 
400025fc:	c7 45 fc 00 00 00 00 	movl   $0x0,-0x4(%ebp)
40002603:	eb 1f                	jmp    40002624 <getcwd+0x7f>
40002605:	8b 15 30 05 01 40    	mov    0x40010530,%edx
4000260b:	8b 45 0c             	mov    0xc(%ebp),%eax
4000260e:	89 44 24 08          	mov    %eax,0x8(%esp)
40002612:	89 54 24 04          	mov    %edx,0x4(%esp)
40002616:	8b 45 08             	mov    0x8(%ebp),%eax
40002619:	89 04 24             	mov    %eax,(%esp)
4000261c:	e8 43 85 00 00       	call   4000ab64 <strncpy>
40002621:	89 45 fc             	mov    %eax,-0x4(%ebp)
40002624:	8b 45 fc             	mov    -0x4(%ebp),%eax
40002627:	c9                   	leave  
40002628:	c3                   	ret    

40002629 <chdir>:
40002629:	55                   	push   %ebp
4000262a:	89 e5                	mov    %esp,%ebp
4000262c:	83 ec 28             	sub    $0x28,%esp
4000262f:	8b 45 08             	mov    0x8(%ebp),%eax
40002632:	89 04 24             	mov    %eax,(%esp)
40002635:	e8 04 ff ff ff       	call   4000253e <getabsolutepath>
4000263a:	89 45 08             	mov    %eax,0x8(%ebp)
4000263d:	83 7d 08 00          	cmpl   $0x0,0x8(%ebp)
40002641:	75 07                	jne    4000264a <chdir+0x21>
40002643:	c7 45 08 9a e6 00 40 	movl   $0x4000e69a,0x8(%ebp)
4000264a:	8b 45 08             	mov    0x8(%ebp),%eax
4000264d:	89 04 24             	mov    %eax,(%esp)
40002650:	e8 36 0e 00 00       	call   4000348b <opendir>
40002655:	89 45 fc             	mov    %eax,-0x4(%ebp)
40002658:	83 7d fc 00          	cmpl   $0x0,-0x4(%ebp)
4000265c:	0f 84 94 00 00 00    	je     400026f6 <chdir+0xcd>
40002662:	8b 45 fc             	mov    -0x4(%ebp),%eax
40002665:	89 04 24             	mov    %eax,(%esp)
40002668:	e8 f7 0f 00 00       	call   40003664 <closedir>
4000266d:	a1 30 05 01 40       	mov    0x40010530,%eax
40002672:	89 04 24             	mov    %eax,(%esp)
40002675:	e8 11 53 00 00       	call   4000798b <free>
4000267a:	a1 38 05 01 40       	mov    0x40010538,%eax
4000267f:	89 04 24             	mov    %eax,(%esp)
40002682:	e8 b6 8f 00 00       	call   4000b63d <path_destroy>
40002687:	8b 45 08             	mov    0x8(%ebp),%eax
4000268a:	89 04 24             	mov    %eax,(%esp)
4000268d:	e8 86 8e 00 00       	call   4000b518 <path_parse>
40002692:	a3 38 05 01 40       	mov    %eax,0x40010538
40002697:	a1 38 05 01 40       	mov    0x40010538,%eax
4000269c:	89 04 24             	mov    %eax,(%esp)
4000269f:	e8 ce 8f 00 00       	call   4000b672 <path_reject_dots>
400026a4:	a1 38 05 01 40       	mov    0x40010538,%eax
400026a9:	c7 44 24 04 00 00 00 	movl   $0x0,0x4(%esp)
400026b0:	00 
400026b1:	89 04 24             	mov    %eax,(%esp)
400026b4:	e8 2b 91 00 00       	call   4000b7e4 <path_output>
400026b9:	a3 30 05 01 40       	mov    %eax,0x40010530
400026be:	a1 30 05 01 40       	mov    0x40010530,%eax
400026c3:	89 04 24             	mov    %eax,(%esp)
400026c6:	e8 59 83 00 00       	call   4000aa24 <strlen>
400026cb:	a3 34 05 01 40       	mov    %eax,0x40010534
400026d0:	a1 30 05 01 40       	mov    0x40010530,%eax
400026d5:	c7 44 24 08 01 00 00 	movl   $0x1,0x8(%esp)
400026dc:	00 
400026dd:	89 44 24 04          	mov    %eax,0x4(%esp)
400026e1:	c7 04 24 95 e6 00 40 	movl   $0x4000e695,(%esp)
400026e8:	e8 6f a5 00 00       	call   4000cc5c <setenv>
400026ed:	c7 45 ec 00 00 00 00 	movl   $0x0,-0x14(%ebp)
400026f4:	eb 07                	jmp    400026fd <chdir+0xd4>
400026f6:	c7 45 ec ff ff ff ff 	movl   $0xffffffff,-0x14(%ebp)
400026fd:	8b 45 ec             	mov    -0x14(%ebp),%eax
40002700:	c9                   	leave  
40002701:	c3                   	ret    

40002702 <fchdir>:
40002702:	55                   	push   %ebp
40002703:	89 e5                	mov    %esp,%ebp
40002705:	83 ec 18             	sub    $0x18,%esp
40002708:	8b 45 08             	mov    0x8(%ebp),%eax
4000270b:	89 04 24             	mov    %eax,(%esp)
4000270e:	e8 e5 fd ff ff       	call   400024f8 <filebyfh>
40002713:	89 45 fc             	mov    %eax,-0x4(%ebp)
40002716:	83 7d fc 00          	cmpl   $0x0,-0x4(%ebp)
4000271a:	74 13                	je     4000272f <fchdir+0x2d>
4000271c:	8b 45 fc             	mov    -0x4(%ebp),%eax
4000271f:	8b 40 18             	mov    0x18(%eax),%eax
40002722:	89 04 24             	mov    %eax,(%esp)
40002725:	e8 ff fe ff ff       	call   40002629 <chdir>
4000272a:	89 45 f8             	mov    %eax,-0x8(%ebp)
4000272d:	eb 07                	jmp    40002736 <fchdir+0x34>
4000272f:	c7 45 f8 f8 ff ff ff 	movl   $0xfffffff8,-0x8(%ebp)
40002736:	83 7d f8 00          	cmpl   $0x0,-0x8(%ebp)
4000273a:	79 0c                	jns    40002748 <fchdir+0x46>
4000273c:	8b 45 f8             	mov    -0x8(%ebp),%eax
4000273f:	89 c2                	mov    %eax,%edx
40002741:	f7 da                	neg    %edx
40002743:	89 55 ec             	mov    %edx,-0x14(%ebp)
40002746:	eb 07                	jmp    4000274f <fchdir+0x4d>
40002748:	c7 45 ec 00 00 00 00 	movl   $0x0,-0x14(%ebp)
4000274f:	8b 45 ec             	mov    -0x14(%ebp),%eax
40002752:	a3 10 1c 01 40       	mov    %eax,0x40011c10
40002757:	8b 45 f8             	mov    -0x8(%ebp),%eax
4000275a:	c1 f8 1f             	sar    $0x1f,%eax
4000275d:	0b 45 f8             	or     -0x8(%ebp),%eax
40002760:	c9                   	leave  
40002761:	c3                   	ret    

40002762 <mknod>:
40002762:	55                   	push   %ebp
40002763:	89 e5                	mov    %esp,%ebp
40002765:	53                   	push   %ebx
40002766:	83 ec 34             	sub    $0x34,%esp
40002769:	8b 45 08             	mov    0x8(%ebp),%eax
4000276c:	89 04 24             	mov    %eax,(%esp)
4000276f:	e8 ca fd ff ff       	call   4000253e <getabsolutepath>
40002774:	89 45 f4             	mov    %eax,-0xc(%ebp)
40002777:	c7 44 24 04 01 00 00 	movl   $0x1,0x4(%esp)
4000277e:	00 
4000277f:	8b 45 f4             	mov    -0xc(%ebp),%eax
40002782:	89 04 24             	mov    %eax,(%esp)
40002785:	e8 a0 fb ff ff       	call   4000232a <fsbypath>
4000278a:	89 45 f8             	mov    %eax,-0x8(%ebp)
4000278d:	83 7d f8 00          	cmpl   $0x0,-0x8(%ebp)
40002791:	74 67                	je     400027fa <mknod+0x98>
40002793:	8b 45 f8             	mov    -0x8(%ebp),%eax
40002796:	8b 00                	mov    (%eax),%eax
40002798:	89 44 24 08          	mov    %eax,0x8(%esp)
4000279c:	c7 44 24 04 b3 e6 00 	movl   $0x4000e6b3,0x4(%esp)
400027a3:	40 
400027a4:	8d 45 ec             	lea    -0x14(%ebp),%eax
400027a7:	89 04 24             	mov    %eax,(%esp)
400027aa:	e8 11 f9 ff ff       	call   400020c0 <asprintf>
400027af:	a1 3c 05 01 40       	mov    0x4001053c,%eax
400027b4:	f7 d0                	not    %eax
400027b6:	89 c2                	mov    %eax,%edx
400027b8:	23 55 0c             	and    0xc(%ebp),%edx
400027bb:	8b 45 f8             	mov    -0x8(%ebp),%eax
400027be:	8b 48 04             	mov    0x4(%eax),%ecx
400027c1:	8b 5d ec             	mov    -0x14(%ebp),%ebx
400027c4:	8b 45 10             	mov    0x10(%ebp),%eax
400027c7:	89 44 24 14          	mov    %eax,0x14(%esp)
400027cb:	89 54 24 10          	mov    %edx,0x10(%esp)
400027cf:	8b 45 f4             	mov    -0xc(%ebp),%eax
400027d2:	89 44 24 0c          	mov    %eax,0xc(%esp)
400027d6:	89 4c 24 08          	mov    %ecx,0x8(%esp)
400027da:	c7 44 24 04 00 00 00 	movl   $0x0,0x4(%esp)
400027e1:	00 
400027e2:	89 1c 24             	mov    %ebx,(%esp)
400027e5:	e8 01 9c 00 00       	call   4000c3eb <rpc_call>
400027ea:	89 45 f0             	mov    %eax,-0x10(%ebp)
400027ed:	8b 45 ec             	mov    -0x14(%ebp),%eax
400027f0:	89 04 24             	mov    %eax,(%esp)
400027f3:	e8 93 51 00 00       	call   4000798b <free>
400027f8:	eb 07                	jmp    40002801 <mknod+0x9f>
400027fa:	c7 45 f0 e4 ff ff ff 	movl   $0xffffffe4,-0x10(%ebp)
40002801:	8b 45 f4             	mov    -0xc(%ebp),%eax
40002804:	89 04 24             	mov    %eax,(%esp)
40002807:	e8 7f 51 00 00       	call   4000798b <free>
4000280c:	83 7d f0 00          	cmpl   $0x0,-0x10(%ebp)
40002810:	79 0c                	jns    4000281e <mknod+0xbc>
40002812:	8b 45 f0             	mov    -0x10(%ebp),%eax
40002815:	89 c2                	mov    %eax,%edx
40002817:	f7 da                	neg    %edx
40002819:	89 55 e8             	mov    %edx,-0x18(%ebp)
4000281c:	eb 07                	jmp    40002825 <mknod+0xc3>
4000281e:	c7 45 e8 00 00 00 00 	movl   $0x0,-0x18(%ebp)
40002825:	8b 45 e8             	mov    -0x18(%ebp),%eax
40002828:	a3 10 1c 01 40       	mov    %eax,0x40011c10
4000282d:	8b 45 f0             	mov    -0x10(%ebp),%eax
40002830:	c1 f8 1f             	sar    $0x1f,%eax
40002833:	0b 45 f0             	or     -0x10(%ebp),%eax
40002836:	83 c4 34             	add    $0x34,%esp
40002839:	5b                   	pop    %ebx
4000283a:	5d                   	pop    %ebp
4000283b:	c3                   	ret    

4000283c <access>:
4000283c:	55                   	push   %ebp
4000283d:	89 e5                	mov    %esp,%ebp
4000283f:	83 ec 28             	sub    $0x28,%esp
40002842:	8b 45 08             	mov    0x8(%ebp),%eax
40002845:	89 04 24             	mov    %eax,(%esp)
40002848:	e8 f1 fc ff ff       	call   4000253e <getabsolutepath>
4000284d:	89 45 f8             	mov    %eax,-0x8(%ebp)
40002850:	c7 44 24 04 00 00 00 	movl   $0x0,0x4(%esp)
40002857:	00 
40002858:	8b 45 f8             	mov    -0x8(%ebp),%eax
4000285b:	89 04 24             	mov    %eax,(%esp)
4000285e:	e8 c7 fa ff ff       	call   4000232a <fsbypath>
40002863:	89 45 fc             	mov    %eax,-0x4(%ebp)
40002866:	83 7d fc 00          	cmpl   $0x0,-0x4(%ebp)
4000286a:	74 57                	je     400028c3 <access+0x87>
4000286c:	8b 45 fc             	mov    -0x4(%ebp),%eax
4000286f:	8b 00                	mov    (%eax),%eax
40002871:	89 44 24 08          	mov    %eax,0x8(%esp)
40002875:	c7 44 24 04 bf e6 00 	movl   $0x4000e6bf,0x4(%esp)
4000287c:	40 
4000287d:	8d 45 f0             	lea    -0x10(%ebp),%eax
40002880:	89 04 24             	mov    %eax,(%esp)
40002883:	e8 38 f8 ff ff       	call   400020c0 <asprintf>
40002888:	8b 45 fc             	mov    -0x4(%ebp),%eax
4000288b:	8b 50 04             	mov    0x4(%eax),%edx
4000288e:	8b 4d f0             	mov    -0x10(%ebp),%ecx
40002891:	8b 45 0c             	mov    0xc(%ebp),%eax
40002894:	89 44 24 10          	mov    %eax,0x10(%esp)
40002898:	8b 45 f8             	mov    -0x8(%ebp),%eax
4000289b:	89 44 24 0c          	mov    %eax,0xc(%esp)
4000289f:	89 54 24 08          	mov    %edx,0x8(%esp)
400028a3:	c7 44 24 04 00 00 00 	movl   $0x0,0x4(%esp)
400028aa:	00 
400028ab:	89 0c 24             	mov    %ecx,(%esp)
400028ae:	e8 38 9b 00 00       	call   4000c3eb <rpc_call>
400028b3:	89 45 f4             	mov    %eax,-0xc(%ebp)
400028b6:	8b 45 f0             	mov    -0x10(%ebp),%eax
400028b9:	89 04 24             	mov    %eax,(%esp)
400028bc:	e8 ca 50 00 00       	call   4000798b <free>
400028c1:	eb 07                	jmp    400028ca <access+0x8e>
400028c3:	c7 45 f4 e4 ff ff ff 	movl   $0xffffffe4,-0xc(%ebp)
400028ca:	8b 45 f8             	mov    -0x8(%ebp),%eax
400028cd:	89 04 24             	mov    %eax,(%esp)
400028d0:	e8 b6 50 00 00       	call   4000798b <free>
400028d5:	83 7d f4 00          	cmpl   $0x0,-0xc(%ebp)
400028d9:	79 0c                	jns    400028e7 <access+0xab>
400028db:	8b 45 f4             	mov    -0xc(%ebp),%eax
400028de:	89 c2                	mov    %eax,%edx
400028e0:	f7 da                	neg    %edx
400028e2:	89 55 ec             	mov    %edx,-0x14(%ebp)
400028e5:	eb 07                	jmp    400028ee <access+0xb2>
400028e7:	c7 45 ec 00 00 00 00 	movl   $0x0,-0x14(%ebp)
400028ee:	8b 45 ec             	mov    -0x14(%ebp),%eax
400028f1:	a3 10 1c 01 40       	mov    %eax,0x40011c10
400028f6:	8b 45 f4             	mov    -0xc(%ebp),%eax
400028f9:	c1 f8 1f             	sar    $0x1f,%eax
400028fc:	0b 45 f4             	or     -0xc(%ebp),%eax
400028ff:	c9                   	leave  
40002900:	c3                   	ret    

40002901 <open>:
40002901:	55                   	push   %ebp
40002902:	89 e5                	mov    %esp,%ebp
40002904:	83 ec 48             	sub    $0x48,%esp
40002907:	c7 45 e4 00 00 00 00 	movl   $0x0,-0x1c(%ebp)
4000290e:	8b 45 08             	mov    0x8(%ebp),%eax
40002911:	89 04 24             	mov    %eax,(%esp)
40002914:	e8 25 fc ff ff       	call   4000253e <getabsolutepath>
40002919:	89 45 ec             	mov    %eax,-0x14(%ebp)
4000291c:	c7 44 24 04 00 00 00 	movl   $0x0,0x4(%esp)
40002923:	00 
40002924:	8b 45 ec             	mov    -0x14(%ebp),%eax
40002927:	89 04 24             	mov    %eax,(%esp)
4000292a:	e8 fb f9 ff ff       	call   4000232a <fsbypath>
4000292f:	89 45 f0             	mov    %eax,-0x10(%ebp)
40002932:	83 7d f0 00          	cmpl   $0x0,-0x10(%ebp)
40002936:	75 0a                	jne    40002942 <open+0x41>
40002938:	a1 10 1c 01 40       	mov    0x40011c10,%eax
4000293d:	f7 d8                	neg    %eax
4000293f:	89 45 e4             	mov    %eax,-0x1c(%ebp)
40002942:	8d 45 10             	lea    0x10(%ebp),%eax
40002945:	89 45 e0             	mov    %eax,-0x20(%ebp)
40002948:	83 7d e4 00          	cmpl   $0x0,-0x1c(%ebp)
4000294c:	0f 85 9c 01 00 00    	jne    40002aee <open+0x1ed>
40002952:	8b 45 0c             	mov    0xc(%ebp),%eax
40002955:	83 e0 04             	and    $0x4,%eax
40002958:	85 c0                	test   %eax,%eax
4000295a:	74 48                	je     400029a4 <open+0xa3>
4000295c:	83 65 0c fb          	andl   $0xfffffffb,0xc(%ebp)
40002960:	8b 55 e0             	mov    -0x20(%ebp),%edx
40002963:	8d 42 04             	lea    0x4(%edx),%eax
40002966:	89 45 e0             	mov    %eax,-0x20(%ebp)
40002969:	89 d0                	mov    %edx,%eax
4000296b:	8b 00                	mov    (%eax),%eax
4000296d:	80 cc 80             	or     $0x80,%ah
40002970:	c7 44 24 08 00 00 00 	movl   $0x0,0x8(%esp)
40002977:	00 
40002978:	89 44 24 04          	mov    %eax,0x4(%esp)
4000297c:	8b 45 08             	mov    0x8(%ebp),%eax
4000297f:	89 04 24             	mov    %eax,(%esp)
40002982:	e8 db fd ff ff       	call   40002762 <mknod>
40002987:	89 45 f8             	mov    %eax,-0x8(%ebp)
4000298a:	83 7d f8 ff          	cmpl   $0xffffffff,-0x8(%ebp)
4000298e:	75 14                	jne    400029a4 <open+0xa3>
40002990:	a1 10 1c 01 40       	mov    0x40011c10,%eax
40002995:	83 f8 14             	cmp    $0x14,%eax
40002998:	74 0a                	je     400029a4 <open+0xa3>
4000299a:	a1 10 1c 01 40       	mov    0x40011c10,%eax
4000299f:	f7 d8                	neg    %eax
400029a1:	89 45 e4             	mov    %eax,-0x1c(%ebp)
400029a4:	c7 44 24 08 00 00 00 	movl   $0x0,0x8(%esp)
400029ab:	00 
400029ac:	c7 44 24 04 00 20 00 	movl   $0x2000,0x4(%esp)
400029b3:	00 
400029b4:	c7 04 24 00 00 00 00 	movl   $0x0,(%esp)
400029bb:	e8 0c 62 00 00       	call   40008bcc <shmget>
400029c0:	89 45 f4             	mov    %eax,-0xc(%ebp)
400029c3:	c7 44 24 08 00 00 00 	movl   $0x0,0x8(%esp)
400029ca:	00 
400029cb:	c7 44 24 04 00 00 00 	movl   $0x0,0x4(%esp)
400029d2:	00 
400029d3:	8b 45 f4             	mov    -0xc(%ebp),%eax
400029d6:	89 04 24             	mov    %eax,(%esp)
400029d9:	e8 aa 62 00 00       	call   40008c88 <shmat>
400029de:	89 45 e8             	mov    %eax,-0x18(%ebp)
400029e1:	83 7d e8 00          	cmpl   $0x0,-0x18(%ebp)
400029e5:	0f 84 03 01 00 00    	je     40002aee <open+0x1ed>
400029eb:	8b 55 e8             	mov    -0x18(%ebp),%edx
400029ee:	c7 44 24 08 00 20 00 	movl   $0x2000,0x8(%esp)
400029f5:	00 
400029f6:	8b 45 ec             	mov    -0x14(%ebp),%eax
400029f9:	89 44 24 04          	mov    %eax,0x4(%esp)
400029fd:	89 14 24             	mov    %edx,(%esp)
40002a00:	e8 5f 81 00 00       	call   4000ab64 <strncpy>
40002a05:	8b 45 f0             	mov    -0x10(%ebp),%eax
40002a08:	8b 00                	mov    (%eax),%eax
40002a0a:	89 44 24 08          	mov    %eax,0x8(%esp)
40002a0e:	c7 44 24 04 cc e6 00 	movl   $0x4000e6cc,0x4(%esp)
40002a15:	40 
40002a16:	8d 45 dc             	lea    -0x24(%ebp),%eax
40002a19:	89 04 24             	mov    %eax,(%esp)
40002a1c:	e8 9f f6 ff ff       	call   400020c0 <asprintf>
40002a21:	8b 45 f0             	mov    -0x10(%ebp),%eax
40002a24:	8b 50 04             	mov    0x4(%eax),%edx
40002a27:	8b 4d dc             	mov    -0x24(%ebp),%ecx
40002a2a:	8b 45 f4             	mov    -0xc(%ebp),%eax
40002a2d:	89 44 24 10          	mov    %eax,0x10(%esp)
40002a31:	8b 45 0c             	mov    0xc(%ebp),%eax
40002a34:	89 44 24 0c          	mov    %eax,0xc(%esp)
40002a38:	89 54 24 08          	mov    %edx,0x8(%esp)
40002a3c:	c7 44 24 04 00 00 00 	movl   $0x0,0x4(%esp)
40002a43:	00 
40002a44:	89 0c 24             	mov    %ecx,(%esp)
40002a47:	e8 9f 99 00 00       	call   4000c3eb <rpc_call>
40002a4c:	89 45 e4             	mov    %eax,-0x1c(%ebp)
40002a4f:	8b 45 dc             	mov    -0x24(%ebp),%eax
40002a52:	89 04 24             	mov    %eax,(%esp)
40002a55:	e8 31 4f 00 00       	call   4000798b <free>
40002a5a:	83 7d e4 00          	cmpl   $0x0,-0x1c(%ebp)
40002a5e:	0f 88 8a 00 00 00    	js     40002aee <open+0x1ed>
40002a64:	c7 04 24 28 00 00 00 	movl   $0x28,(%esp)
40002a6b:	e8 64 4a 00 00       	call   400074d4 <malloc>
40002a70:	89 45 fc             	mov    %eax,-0x4(%ebp)
40002a73:	8b 55 fc             	mov    -0x4(%ebp),%edx
40002a76:	8b 45 e4             	mov    -0x1c(%ebp),%eax
40002a79:	89 42 04             	mov    %eax,0x4(%edx)
40002a7c:	8b 55 fc             	mov    -0x4(%ebp),%edx
40002a7f:	8b 45 f0             	mov    -0x10(%ebp),%eax
40002a82:	89 02                	mov    %eax,(%edx)
40002a84:	8b 55 fc             	mov    -0x4(%ebp),%edx
40002a87:	8b 45 0c             	mov    0xc(%ebp),%eax
40002a8a:	89 42 10             	mov    %eax,0x10(%edx)
40002a8d:	8b 45 fc             	mov    -0x4(%ebp),%eax
40002a90:	c7 40 0c 00 80 00 00 	movl   $0x8000,0xc(%eax)
40002a97:	8b 15 2c 05 01 40    	mov    0x4001052c,%edx
40002a9d:	8b 45 fc             	mov    -0x4(%ebp),%eax
40002aa0:	89 50 14             	mov    %edx,0x14(%eax)
40002aa3:	8d 42 01             	lea    0x1(%edx),%eax
40002aa6:	a3 2c 05 01 40       	mov    %eax,0x4001052c
40002aab:	8b 45 ec             	mov    -0x14(%ebp),%eax
40002aae:	89 04 24             	mov    %eax,(%esp)
40002ab1:	e8 23 7f 00 00       	call   4000a9d9 <strdup>
40002ab6:	89 c2                	mov    %eax,%edx
40002ab8:	8b 45 fc             	mov    -0x4(%ebp),%eax
40002abb:	89 50 18             	mov    %edx,0x18(%eax)
40002abe:	8b 55 fc             	mov    -0x4(%ebp),%edx
40002ac1:	8b 45 f4             	mov    -0xc(%ebp),%eax
40002ac4:	89 42 1c             	mov    %eax,0x1c(%edx)
40002ac7:	8b 55 fc             	mov    -0x4(%ebp),%edx
40002aca:	8b 45 e8             	mov    -0x18(%ebp),%eax
40002acd:	89 42 20             	mov    %eax,0x20(%edx)
40002ad0:	8b 45 fc             	mov    -0x4(%ebp),%eax
40002ad3:	8b 40 14             	mov    0x14(%eax),%eax
40002ad6:	89 45 e4             	mov    %eax,-0x1c(%ebp)
40002ad9:	8b 15 24 05 01 40    	mov    0x40010524,%edx
40002adf:	8b 45 fc             	mov    -0x4(%ebp),%eax
40002ae2:	89 44 24 04          	mov    %eax,0x4(%esp)
40002ae6:	89 14 24             	mov    %edx,(%esp)
40002ae9:	e8 f1 85 00 00       	call   4000b0df <llist_push>
40002aee:	8b 45 ec             	mov    -0x14(%ebp),%eax
40002af1:	89 04 24             	mov    %eax,(%esp)
40002af4:	e8 92 4e 00 00       	call   4000798b <free>
40002af9:	83 7d e4 00          	cmpl   $0x0,-0x1c(%ebp)
40002afd:	79 0c                	jns    40002b0b <open+0x20a>
40002aff:	8b 45 e4             	mov    -0x1c(%ebp),%eax
40002b02:	89 c2                	mov    %eax,%edx
40002b04:	f7 da                	neg    %edx
40002b06:	89 55 cc             	mov    %edx,-0x34(%ebp)
40002b09:	eb 07                	jmp    40002b12 <open+0x211>
40002b0b:	c7 45 cc 00 00 00 00 	movl   $0x0,-0x34(%ebp)
40002b12:	8b 45 cc             	mov    -0x34(%ebp),%eax
40002b15:	a3 10 1c 01 40       	mov    %eax,0x40011c10
40002b1a:	8b 45 e4             	mov    -0x1c(%ebp),%eax
40002b1d:	c1 f8 1f             	sar    $0x1f,%eax
40002b20:	0b 45 e4             	or     -0x1c(%ebp),%eax
40002b23:	c9                   	leave  
40002b24:	c3                   	ret    

40002b25 <_close_all_filehandles>:
40002b25:	55                   	push   %ebp
40002b26:	89 e5                	mov    %esp,%ebp
40002b28:	83 ec 18             	sub    $0x18,%esp
40002b2b:	eb 3f                	jmp    40002b6c <_close_all_filehandles+0x47>
40002b2d:	8b 45 fc             	mov    -0x4(%ebp),%eax
40002b30:	8b 40 0c             	mov    0xc(%eax),%eax
40002b33:	25 00 f0 00 00       	and    $0xf000,%eax
40002b38:	3d 00 80 00 00       	cmp    $0x8000,%eax
40002b3d:	75 10                	jne    40002b4f <_close_all_filehandles+0x2a>
40002b3f:	8b 45 fc             	mov    -0x4(%ebp),%eax
40002b42:	8b 40 14             	mov    0x14(%eax),%eax
40002b45:	89 04 24             	mov    %eax,(%esp)
40002b48:	e8 37 00 00 00       	call   40002b84 <close>
40002b4d:	eb 1d                	jmp    40002b6c <_close_all_filehandles+0x47>
40002b4f:	8b 45 fc             	mov    -0x4(%ebp),%eax
40002b52:	8b 40 0c             	mov    0xc(%eax),%eax
40002b55:	25 00 f0 00 00       	and    $0xf000,%eax
40002b5a:	3d 00 40 00 00       	cmp    $0x4000,%eax
40002b5f:	75 0b                	jne    40002b6c <_close_all_filehandles+0x47>
40002b61:	8b 45 fc             	mov    -0x4(%ebp),%eax
40002b64:	89 04 24             	mov    %eax,(%esp)
40002b67:	e8 f8 0a 00 00       	call   40003664 <closedir>
40002b6c:	a1 24 05 01 40       	mov    0x40010524,%eax
40002b71:	89 04 24             	mov    %eax,(%esp)
40002b74:	e8 bf 85 00 00       	call   4000b138 <llist_pop>
40002b79:	89 45 fc             	mov    %eax,-0x4(%ebp)
40002b7c:	83 7d fc 00          	cmpl   $0x0,-0x4(%ebp)
40002b80:	75 ab                	jne    40002b2d <_close_all_filehandles+0x8>
40002b82:	c9                   	leave  
40002b83:	c3                   	ret    

40002b84 <close>:
40002b84:	55                   	push   %ebp
40002b85:	89 e5                	mov    %esp,%ebp
40002b87:	83 ec 28             	sub    $0x28,%esp
40002b8a:	8b 45 08             	mov    0x8(%ebp),%eax
40002b8d:	89 04 24             	mov    %eax,(%esp)
40002b90:	e8 63 f9 ff ff       	call   400024f8 <filebyfh>
40002b95:	89 45 fc             	mov    %eax,-0x4(%ebp)
40002b98:	83 7d fc 00          	cmpl   $0x0,-0x4(%ebp)
40002b9c:	0f 84 bf 00 00 00    	je     40002c61 <close+0xdd>
40002ba2:	8b 45 fc             	mov    -0x4(%ebp),%eax
40002ba5:	8b 00                	mov    (%eax),%eax
40002ba7:	8b 00                	mov    (%eax),%eax
40002ba9:	89 44 24 08          	mov    %eax,0x8(%esp)
40002bad:	c7 44 24 04 d7 e6 00 	movl   $0x4000e6d7,0x4(%esp)
40002bb4:	40 
40002bb5:	8d 45 f4             	lea    -0xc(%ebp),%eax
40002bb8:	89 04 24             	mov    %eax,(%esp)
40002bbb:	e8 00 f5 ff ff       	call   400020c0 <asprintf>
40002bc0:	8b 45 fc             	mov    -0x4(%ebp),%eax
40002bc3:	8b 50 04             	mov    0x4(%eax),%edx
40002bc6:	8b 45 fc             	mov    -0x4(%ebp),%eax
40002bc9:	8b 00                	mov    (%eax),%eax
40002bcb:	8b 40 04             	mov    0x4(%eax),%eax
40002bce:	8b 4d f4             	mov    -0xc(%ebp),%ecx
40002bd1:	89 54 24 0c          	mov    %edx,0xc(%esp)
40002bd5:	89 44 24 08          	mov    %eax,0x8(%esp)
40002bd9:	c7 44 24 04 00 00 00 	movl   $0x0,0x4(%esp)
40002be0:	00 
40002be1:	89 0c 24             	mov    %ecx,(%esp)
40002be4:	e8 02 98 00 00       	call   4000c3eb <rpc_call>
40002be9:	89 45 f8             	mov    %eax,-0x8(%ebp)
40002bec:	8b 45 f4             	mov    -0xc(%ebp),%eax
40002bef:	89 04 24             	mov    %eax,(%esp)
40002bf2:	e8 94 4d 00 00       	call   4000798b <free>
40002bf7:	83 7d f8 00          	cmpl   $0x0,-0x8(%ebp)
40002bfb:	75 6b                	jne    40002c68 <close+0xe4>
40002bfd:	8b 45 fc             	mov    -0x4(%ebp),%eax
40002c00:	8b 40 20             	mov    0x20(%eax),%eax
40002c03:	89 04 24             	mov    %eax,(%esp)
40002c06:	e8 00 61 00 00       	call   40008d0b <shmdt>
40002c0b:	8b 45 fc             	mov    -0x4(%ebp),%eax
40002c0e:	8b 40 1c             	mov    0x1c(%eax),%eax
40002c11:	c7 44 24 08 00 00 00 	movl   $0x0,0x8(%esp)
40002c18:	00 
40002c19:	c7 44 24 04 01 00 00 	movl   $0x1,0x4(%esp)
40002c20:	00 
40002c21:	89 04 24             	mov    %eax,(%esp)
40002c24:	e8 52 61 00 00       	call   40008d7b <shmctl>
40002c29:	8b 45 08             	mov    0x8(%ebp),%eax
40002c2c:	89 04 24             	mov    %eax,(%esp)
40002c2f:	e8 74 f8 ff ff       	call   400024a8 <lidxbyfh>
40002c34:	8b 15 24 05 01 40    	mov    0x40010524,%edx
40002c3a:	89 44 24 04          	mov    %eax,0x4(%esp)
40002c3e:	89 14 24             	mov    %edx,(%esp)
40002c41:	e8 a3 86 00 00       	call   4000b2e9 <llist_remove>
40002c46:	8b 45 fc             	mov    -0x4(%ebp),%eax
40002c49:	8b 40 18             	mov    0x18(%eax),%eax
40002c4c:	89 04 24             	mov    %eax,(%esp)
40002c4f:	e8 37 4d 00 00       	call   4000798b <free>
40002c54:	8b 45 fc             	mov    -0x4(%ebp),%eax
40002c57:	89 04 24             	mov    %eax,(%esp)
40002c5a:	e8 2c 4d 00 00       	call   4000798b <free>
40002c5f:	eb 07                	jmp    40002c68 <close+0xe4>
40002c61:	c7 45 f8 f8 ff ff ff 	movl   $0xfffffff8,-0x8(%ebp)
40002c68:	83 7d f8 00          	cmpl   $0x0,-0x8(%ebp)
40002c6c:	79 0c                	jns    40002c7a <close+0xf6>
40002c6e:	8b 45 f8             	mov    -0x8(%ebp),%eax
40002c71:	89 c2                	mov    %eax,%edx
40002c73:	f7 da                	neg    %edx
40002c75:	89 55 ec             	mov    %edx,-0x14(%ebp)
40002c78:	eb 07                	jmp    40002c81 <close+0xfd>
40002c7a:	c7 45 ec 00 00 00 00 	movl   $0x0,-0x14(%ebp)
40002c81:	8b 45 ec             	mov    -0x14(%ebp),%eax
40002c84:	a3 10 1c 01 40       	mov    %eax,0x40011c10
40002c89:	8b 45 f8             	mov    -0x8(%ebp),%eax
40002c8c:	c1 f8 1f             	sar    $0x1f,%eax
40002c8f:	0b 45 f8             	or     -0x8(%ebp),%eax
40002c92:	c9                   	leave  
40002c93:	c3                   	ret    

40002c94 <dup2>:
40002c94:	55                   	push   %ebp
40002c95:	89 e5                	mov    %esp,%ebp
40002c97:	83 ec 28             	sub    $0x28,%esp
40002c9a:	c7 45 f4 ff ff ff ff 	movl   $0xffffffff,-0xc(%ebp)
40002ca1:	8b 45 08             	mov    0x8(%ebp),%eax
40002ca4:	89 04 24             	mov    %eax,(%esp)
40002ca7:	e8 4c f8 ff ff       	call   400024f8 <filebyfh>
40002cac:	89 45 f8             	mov    %eax,-0x8(%ebp)
40002caf:	83 7d f8 00          	cmpl   $0x0,-0x8(%ebp)
40002cb3:	0f 84 21 01 00 00    	je     40002dda <dup2+0x146>
40002cb9:	8b 45 f8             	mov    -0x8(%ebp),%eax
40002cbc:	8b 00                	mov    (%eax),%eax
40002cbe:	8b 00                	mov    (%eax),%eax
40002cc0:	89 44 24 08          	mov    %eax,0x8(%esp)
40002cc4:	c7 44 24 04 d7 e6 00 	movl   $0x4000e6d7,0x4(%esp)
40002ccb:	40 
40002ccc:	8d 45 f0             	lea    -0x10(%ebp),%eax
40002ccf:	89 04 24             	mov    %eax,(%esp)
40002cd2:	e8 e9 f3 ff ff       	call   400020c0 <asprintf>
40002cd7:	8b 45 f8             	mov    -0x8(%ebp),%eax
40002cda:	8b 50 04             	mov    0x4(%eax),%edx
40002cdd:	8b 45 f8             	mov    -0x8(%ebp),%eax
40002ce0:	8b 00                	mov    (%eax),%eax
40002ce2:	8b 40 04             	mov    0x4(%eax),%eax
40002ce5:	8b 4d f0             	mov    -0x10(%ebp),%ecx
40002ce8:	89 54 24 0c          	mov    %edx,0xc(%esp)
40002cec:	89 44 24 08          	mov    %eax,0x8(%esp)
40002cf0:	c7 44 24 04 00 00 00 	movl   $0x0,0x4(%esp)
40002cf7:	00 
40002cf8:	89 0c 24             	mov    %ecx,(%esp)
40002cfb:	e8 eb 96 00 00       	call   4000c3eb <rpc_call>
40002d00:	89 45 f4             	mov    %eax,-0xc(%ebp)
40002d03:	8b 45 f0             	mov    -0x10(%ebp),%eax
40002d06:	89 04 24             	mov    %eax,(%esp)
40002d09:	e8 7d 4c 00 00       	call   4000798b <free>
40002d0e:	83 7d f4 00          	cmpl   $0x0,-0xc(%ebp)
40002d12:	0f 88 cc 00 00 00    	js     40002de4 <dup2+0x150>
40002d18:	c7 04 24 28 00 00 00 	movl   $0x28,(%esp)
40002d1f:	e8 b0 47 00 00       	call   400074d4 <malloc>
40002d24:	89 45 fc             	mov    %eax,-0x4(%ebp)
40002d27:	c7 44 24 08 28 00 00 	movl   $0x28,0x8(%esp)
40002d2e:	00 
40002d2f:	8b 45 f8             	mov    -0x8(%ebp),%eax
40002d32:	89 44 24 04          	mov    %eax,0x4(%esp)
40002d36:	8b 45 fc             	mov    -0x4(%ebp),%eax
40002d39:	89 04 24             	mov    %eax,(%esp)
40002d3c:	e8 2b 79 00 00       	call   4000a66c <memcpy>
40002d41:	83 7d 0c 00          	cmpl   $0x0,0xc(%ebp)
40002d45:	75 15                	jne    40002d5c <dup2+0xc8>
40002d47:	a1 2c 05 01 40       	mov    0x4001052c,%eax
40002d4c:	8b 55 fc             	mov    -0x4(%ebp),%edx
40002d4f:	89 42 14             	mov    %eax,0x14(%edx)
40002d52:	83 c0 01             	add    $0x1,%eax
40002d55:	a3 2c 05 01 40       	mov    %eax,0x4001052c
40002d5a:	eb 14                	jmp    40002d70 <dup2+0xdc>
40002d5c:	8b 45 0c             	mov    0xc(%ebp),%eax
40002d5f:	89 04 24             	mov    %eax,(%esp)
40002d62:	e8 1d fe ff ff       	call   40002b84 <close>
40002d67:	8b 55 fc             	mov    -0x4(%ebp),%edx
40002d6a:	8b 45 0c             	mov    0xc(%ebp),%eax
40002d6d:	89 42 14             	mov    %eax,0x14(%edx)
40002d70:	8b 55 fc             	mov    -0x4(%ebp),%edx
40002d73:	8b 45 f4             	mov    -0xc(%ebp),%eax
40002d76:	89 42 04             	mov    %eax,0x4(%edx)
40002d79:	c7 44 24 08 00 00 00 	movl   $0x0,0x8(%esp)
40002d80:	00 
40002d81:	c7 44 24 04 00 20 00 	movl   $0x2000,0x4(%esp)
40002d88:	00 
40002d89:	c7 04 24 00 00 00 00 	movl   $0x0,(%esp)
40002d90:	e8 37 5e 00 00       	call   40008bcc <shmget>
40002d95:	89 c2                	mov    %eax,%edx
40002d97:	8b 45 fc             	mov    -0x4(%ebp),%eax
40002d9a:	89 50 1c             	mov    %edx,0x1c(%eax)
40002d9d:	8b 45 fc             	mov    -0x4(%ebp),%eax
40002da0:	8b 40 1c             	mov    0x1c(%eax),%eax
40002da3:	c7 44 24 08 00 00 00 	movl   $0x0,0x8(%esp)
40002daa:	00 
40002dab:	c7 44 24 04 00 00 00 	movl   $0x0,0x4(%esp)
40002db2:	00 
40002db3:	89 04 24             	mov    %eax,(%esp)
40002db6:	e8 cd 5e 00 00       	call   40008c88 <shmat>
40002dbb:	89 c2                	mov    %eax,%edx
40002dbd:	8b 45 fc             	mov    -0x4(%ebp),%eax
40002dc0:	89 50 20             	mov    %edx,0x20(%eax)
40002dc3:	8b 15 24 05 01 40    	mov    0x40010524,%edx
40002dc9:	8b 45 fc             	mov    -0x4(%ebp),%eax
40002dcc:	89 44 24 04          	mov    %eax,0x4(%esp)
40002dd0:	89 14 24             	mov    %edx,(%esp)
40002dd3:	e8 07 83 00 00       	call   4000b0df <llist_push>
40002dd8:	eb 0a                	jmp    40002de4 <dup2+0x150>
40002dda:	c7 05 10 1c 01 40 08 	movl   $0x8,0x40011c10
40002de1:	00 00 00 
40002de4:	8b 45 f4             	mov    -0xc(%ebp),%eax
40002de7:	c9                   	leave  
40002de8:	c3                   	ret    

40002de9 <_read>:
40002de9:	55                   	push   %ebp
40002dea:	89 e5                	mov    %esp,%ebp
40002dec:	53                   	push   %ebx
40002ded:	83 ec 24             	sub    $0x24,%esp
40002df0:	8b 45 08             	mov    0x8(%ebp),%eax
40002df3:	8b 00                	mov    (%eax),%eax
40002df5:	8b 00                	mov    (%eax),%eax
40002df7:	89 44 24 08          	mov    %eax,0x8(%esp)
40002dfb:	c7 44 24 04 e3 e6 00 	movl   $0x4000e6e3,0x4(%esp)
40002e02:	40 
40002e03:	8d 45 f4             	lea    -0xc(%ebp),%eax
40002e06:	89 04 24             	mov    %eax,(%esp)
40002e09:	e8 b2 f2 ff ff       	call   400020c0 <asprintf>
40002e0e:	8b 45 08             	mov    0x8(%ebp),%eax
40002e11:	8b 48 04             	mov    0x4(%eax),%ecx
40002e14:	8b 45 08             	mov    0x8(%ebp),%eax
40002e17:	8b 00                	mov    (%eax),%eax
40002e19:	8b 50 04             	mov    0x4(%eax),%edx
40002e1c:	8b 5d f4             	mov    -0xc(%ebp),%ebx
40002e1f:	8b 45 10             	mov    0x10(%ebp),%eax
40002e22:	89 44 24 10          	mov    %eax,0x10(%esp)
40002e26:	89 4c 24 0c          	mov    %ecx,0xc(%esp)
40002e2a:	89 54 24 08          	mov    %edx,0x8(%esp)
40002e2e:	c7 44 24 04 00 00 00 	movl   $0x0,0x4(%esp)
40002e35:	00 
40002e36:	89 1c 24             	mov    %ebx,(%esp)
40002e39:	e8 ad 95 00 00       	call   4000c3eb <rpc_call>
40002e3e:	89 45 f8             	mov    %eax,-0x8(%ebp)
40002e41:	8b 45 f4             	mov    -0xc(%ebp),%eax
40002e44:	89 04 24             	mov    %eax,(%esp)
40002e47:	e8 3f 4b 00 00       	call   4000798b <free>
40002e4c:	83 7d f8 00          	cmpl   $0x0,-0x8(%ebp)
40002e50:	7e 1c                	jle    40002e6e <_read+0x85>
40002e52:	8b 55 f8             	mov    -0x8(%ebp),%edx
40002e55:	8b 45 08             	mov    0x8(%ebp),%eax
40002e58:	8b 40 20             	mov    0x20(%eax),%eax
40002e5b:	89 54 24 08          	mov    %edx,0x8(%esp)
40002e5f:	89 44 24 04          	mov    %eax,0x4(%esp)
40002e63:	8b 45 0c             	mov    0xc(%ebp),%eax
40002e66:	89 04 24             	mov    %eax,(%esp)
40002e69:	e8 fe 77 00 00       	call   4000a66c <memcpy>
40002e6e:	8b 45 f8             	mov    -0x8(%ebp),%eax
40002e71:	83 c4 24             	add    $0x24,%esp
40002e74:	5b                   	pop    %ebx
40002e75:	5d                   	pop    %ebp
40002e76:	c3                   	ret    

40002e77 <read>:
40002e77:	55                   	push   %ebp
40002e78:	89 e5                	mov    %esp,%ebp
40002e7a:	83 ec 28             	sub    $0x28,%esp
40002e7d:	8b 45 08             	mov    0x8(%ebp),%eax
40002e80:	89 04 24             	mov    %eax,(%esp)
40002e83:	e8 70 f6 ff ff       	call   400024f8 <filebyfh>
40002e88:	89 45 f0             	mov    %eax,-0x10(%ebp)
40002e8b:	83 7d f0 00          	cmpl   $0x0,-0x10(%ebp)
40002e8f:	0f 84 82 00 00 00    	je     40002f17 <read+0xa0>
40002e95:	8b 45 10             	mov    0x10(%ebp),%eax
40002e98:	89 45 f4             	mov    %eax,-0xc(%ebp)
40002e9b:	c7 45 f8 00 00 00 00 	movl   $0x0,-0x8(%ebp)
40002ea2:	eb 5c                	jmp    40002f00 <read+0x89>
40002ea4:	8b 45 f4             	mov    -0xc(%ebp),%eax
40002ea7:	89 45 fc             	mov    %eax,-0x4(%ebp)
40002eaa:	81 7d fc 00 20 00 00 	cmpl   $0x2000,-0x4(%ebp)
40002eb1:	76 07                	jbe    40002eba <read+0x43>
40002eb3:	c7 45 fc 00 20 00 00 	movl   $0x2000,-0x4(%ebp)
40002eba:	8b 55 f8             	mov    -0x8(%ebp),%edx
40002ebd:	8b 45 0c             	mov    0xc(%ebp),%eax
40002ec0:	8d 14 10             	lea    (%eax,%edx,1),%edx
40002ec3:	8b 45 fc             	mov    -0x4(%ebp),%eax
40002ec6:	89 44 24 08          	mov    %eax,0x8(%esp)
40002eca:	89 54 24 04          	mov    %edx,0x4(%esp)
40002ece:	8b 45 f0             	mov    -0x10(%ebp),%eax
40002ed1:	89 04 24             	mov    %eax,(%esp)
40002ed4:	e8 10 ff ff ff       	call   40002de9 <_read>
40002ed9:	89 45 fc             	mov    %eax,-0x4(%ebp)
40002edc:	83 7d fc ff          	cmpl   $0xffffffff,-0x4(%ebp)
40002ee0:	75 09                	jne    40002eeb <read+0x74>
40002ee2:	c7 45 ec ff ff ff ff 	movl   $0xffffffff,-0x14(%ebp)
40002ee9:	eb 3d                	jmp    40002f28 <read+0xb1>
40002eeb:	8b 45 f4             	mov    -0xc(%ebp),%eax
40002eee:	2b 45 fc             	sub    -0x4(%ebp),%eax
40002ef1:	89 45 f4             	mov    %eax,-0xc(%ebp)
40002ef4:	83 7d fc 00          	cmpl   $0x0,-0x4(%ebp)
40002ef8:	74 0c                	je     40002f06 <read+0x8f>
40002efa:	8b 45 fc             	mov    -0x4(%ebp),%eax
40002efd:	01 45 f8             	add    %eax,-0x8(%ebp)
40002f00:	83 7d f4 00          	cmpl   $0x0,-0xc(%ebp)
40002f04:	7f 9e                	jg     40002ea4 <read+0x2d>
40002f06:	8b 45 f4             	mov    -0xc(%ebp),%eax
40002f09:	8b 55 10             	mov    0x10(%ebp),%edx
40002f0c:	89 d1                	mov    %edx,%ecx
40002f0e:	29 c1                	sub    %eax,%ecx
40002f10:	89 c8                	mov    %ecx,%eax
40002f12:	89 45 ec             	mov    %eax,-0x14(%ebp)
40002f15:	eb 11                	jmp    40002f28 <read+0xb1>
40002f17:	c7 05 10 1c 01 40 08 	movl   $0x8,0x40011c10
40002f1e:	00 00 00 
40002f21:	c7 45 ec ff ff ff ff 	movl   $0xffffffff,-0x14(%ebp)
40002f28:	8b 45 ec             	mov    -0x14(%ebp),%eax
40002f2b:	c9                   	leave  
40002f2c:	c3                   	ret    

40002f2d <_write>:
40002f2d:	55                   	push   %ebp
40002f2e:	89 e5                	mov    %esp,%ebp
40002f30:	53                   	push   %ebx
40002f31:	83 ec 24             	sub    $0x24,%esp
40002f34:	8b 45 08             	mov    0x8(%ebp),%eax
40002f37:	8b 50 20             	mov    0x20(%eax),%edx
40002f3a:	8b 45 10             	mov    0x10(%ebp),%eax
40002f3d:	89 44 24 08          	mov    %eax,0x8(%esp)
40002f41:	8b 45 0c             	mov    0xc(%ebp),%eax
40002f44:	89 44 24 04          	mov    %eax,0x4(%esp)
40002f48:	89 14 24             	mov    %edx,(%esp)
40002f4b:	e8 1c 77 00 00       	call   4000a66c <memcpy>
40002f50:	8b 45 08             	mov    0x8(%ebp),%eax
40002f53:	8b 00                	mov    (%eax),%eax
40002f55:	8b 00                	mov    (%eax),%eax
40002f57:	89 44 24 08          	mov    %eax,0x8(%esp)
40002f5b:	c7 44 24 04 ee e6 00 	movl   $0x4000e6ee,0x4(%esp)
40002f62:	40 
40002f63:	8d 45 f4             	lea    -0xc(%ebp),%eax
40002f66:	89 04 24             	mov    %eax,(%esp)
40002f69:	e8 52 f1 ff ff       	call   400020c0 <asprintf>
40002f6e:	8b 45 08             	mov    0x8(%ebp),%eax
40002f71:	8b 48 04             	mov    0x4(%eax),%ecx
40002f74:	8b 45 08             	mov    0x8(%ebp),%eax
40002f77:	8b 00                	mov    (%eax),%eax
40002f79:	8b 50 04             	mov    0x4(%eax),%edx
40002f7c:	8b 5d f4             	mov    -0xc(%ebp),%ebx
40002f7f:	8b 45 10             	mov    0x10(%ebp),%eax
40002f82:	89 44 24 10          	mov    %eax,0x10(%esp)
40002f86:	89 4c 24 0c          	mov    %ecx,0xc(%esp)
40002f8a:	89 54 24 08          	mov    %edx,0x8(%esp)
40002f8e:	c7 44 24 04 00 00 00 	movl   $0x0,0x4(%esp)
40002f95:	00 
40002f96:	89 1c 24             	mov    %ebx,(%esp)
40002f99:	e8 4d 94 00 00       	call   4000c3eb <rpc_call>
40002f9e:	89 45 f8             	mov    %eax,-0x8(%ebp)
40002fa1:	8b 45 f4             	mov    -0xc(%ebp),%eax
40002fa4:	89 04 24             	mov    %eax,(%esp)
40002fa7:	e8 df 49 00 00       	call   4000798b <free>
40002fac:	8b 45 f8             	mov    -0x8(%ebp),%eax
40002faf:	83 c4 24             	add    $0x24,%esp
40002fb2:	5b                   	pop    %ebx
40002fb3:	5d                   	pop    %ebp
40002fb4:	c3                   	ret    

40002fb5 <write>:
40002fb5:	55                   	push   %ebp
40002fb6:	89 e5                	mov    %esp,%ebp
40002fb8:	83 ec 28             	sub    $0x28,%esp
40002fbb:	8b 45 08             	mov    0x8(%ebp),%eax
40002fbe:	89 04 24             	mov    %eax,(%esp)
40002fc1:	e8 32 f5 ff ff       	call   400024f8 <filebyfh>
40002fc6:	89 45 f0             	mov    %eax,-0x10(%ebp)
40002fc9:	83 7d f0 00          	cmpl   $0x0,-0x10(%ebp)
40002fcd:	0f 84 82 00 00 00    	je     40003055 <write+0xa0>
40002fd3:	8b 45 10             	mov    0x10(%ebp),%eax
40002fd6:	89 45 f4             	mov    %eax,-0xc(%ebp)
40002fd9:	c7 45 f8 00 00 00 00 	movl   $0x0,-0x8(%ebp)
40002fe0:	eb 5c                	jmp    4000303e <write+0x89>
40002fe2:	8b 45 f4             	mov    -0xc(%ebp),%eax
40002fe5:	89 45 fc             	mov    %eax,-0x4(%ebp)
40002fe8:	81 7d fc 00 20 00 00 	cmpl   $0x2000,-0x4(%ebp)
40002fef:	76 07                	jbe    40002ff8 <write+0x43>
40002ff1:	c7 45 fc 00 20 00 00 	movl   $0x2000,-0x4(%ebp)
40002ff8:	8b 55 f8             	mov    -0x8(%ebp),%edx
40002ffb:	8b 45 0c             	mov    0xc(%ebp),%eax
40002ffe:	8d 14 10             	lea    (%eax,%edx,1),%edx
40003001:	8b 45 fc             	mov    -0x4(%ebp),%eax
40003004:	89 44 24 08          	mov    %eax,0x8(%esp)
40003008:	89 54 24 04          	mov    %edx,0x4(%esp)
4000300c:	8b 45 f0             	mov    -0x10(%ebp),%eax
4000300f:	89 04 24             	mov    %eax,(%esp)
40003012:	e8 16 ff ff ff       	call   40002f2d <_write>
40003017:	89 45 fc             	mov    %eax,-0x4(%ebp)
4000301a:	83 7d fc ff          	cmpl   $0xffffffff,-0x4(%ebp)
4000301e:	75 09                	jne    40003029 <write+0x74>
40003020:	c7 45 ec ff ff ff ff 	movl   $0xffffffff,-0x14(%ebp)
40003027:	eb 3d                	jmp    40003066 <write+0xb1>
40003029:	8b 45 f4             	mov    -0xc(%ebp),%eax
4000302c:	2b 45 fc             	sub    -0x4(%ebp),%eax
4000302f:	89 45 f4             	mov    %eax,-0xc(%ebp)
40003032:	83 7d fc 00          	cmpl   $0x0,-0x4(%ebp)
40003036:	74 0c                	je     40003044 <write+0x8f>
40003038:	8b 45 fc             	mov    -0x4(%ebp),%eax
4000303b:	01 45 f8             	add    %eax,-0x8(%ebp)
4000303e:	83 7d f4 00          	cmpl   $0x0,-0xc(%ebp)
40003042:	7f 9e                	jg     40002fe2 <write+0x2d>
40003044:	8b 45 f4             	mov    -0xc(%ebp),%eax
40003047:	8b 55 10             	mov    0x10(%ebp),%edx
4000304a:	89 d1                	mov    %edx,%ecx
4000304c:	29 c1                	sub    %eax,%ecx
4000304e:	89 c8                	mov    %ecx,%eax
40003050:	89 45 ec             	mov    %eax,-0x14(%ebp)
40003053:	eb 11                	jmp    40003066 <write+0xb1>
40003055:	c7 05 10 1c 01 40 08 	movl   $0x8,0x40011c10
4000305c:	00 00 00 
4000305f:	c7 45 ec ff ff ff ff 	movl   $0xffffffff,-0x14(%ebp)
40003066:	8b 45 ec             	mov    -0x14(%ebp),%eax
40003069:	c9                   	leave  
4000306a:	c3                   	ret    

4000306b <lseek>:
4000306b:	55                   	push   %ebp
4000306c:	89 e5                	mov    %esp,%ebp
4000306e:	53                   	push   %ebx
4000306f:	83 ec 34             	sub    $0x34,%esp
40003072:	8b 45 08             	mov    0x8(%ebp),%eax
40003075:	89 04 24             	mov    %eax,(%esp)
40003078:	e8 7b f4 ff ff       	call   400024f8 <filebyfh>
4000307d:	89 45 f8             	mov    %eax,-0x8(%ebp)
40003080:	83 7d f8 00          	cmpl   $0x0,-0x8(%ebp)
40003084:	74 65                	je     400030eb <lseek+0x80>
40003086:	8b 45 f8             	mov    -0x8(%ebp),%eax
40003089:	8b 00                	mov    (%eax),%eax
4000308b:	8b 00                	mov    (%eax),%eax
4000308d:	89 44 24 08          	mov    %eax,0x8(%esp)
40003091:	c7 44 24 04 fa e6 00 	movl   $0x4000e6fa,0x4(%esp)
40003098:	40 
40003099:	8d 45 f0             	lea    -0x10(%ebp),%eax
4000309c:	89 04 24             	mov    %eax,(%esp)
4000309f:	e8 1c f0 ff ff       	call   400020c0 <asprintf>
400030a4:	8b 45 f8             	mov    -0x8(%ebp),%eax
400030a7:	8b 50 04             	mov    0x4(%eax),%edx
400030aa:	8b 45 f8             	mov    -0x8(%ebp),%eax
400030ad:	8b 00                	mov    (%eax),%eax
400030af:	8b 48 04             	mov    0x4(%eax),%ecx
400030b2:	8b 5d f0             	mov    -0x10(%ebp),%ebx
400030b5:	8b 45 10             	mov    0x10(%ebp),%eax
400030b8:	89 44 24 14          	mov    %eax,0x14(%esp)
400030bc:	8b 45 0c             	mov    0xc(%ebp),%eax
400030bf:	89 44 24 10          	mov    %eax,0x10(%esp)
400030c3:	89 54 24 0c          	mov    %edx,0xc(%esp)
400030c7:	89 4c 24 08          	mov    %ecx,0x8(%esp)
400030cb:	c7 44 24 04 00 00 00 	movl   $0x0,0x4(%esp)
400030d2:	00 
400030d3:	89 1c 24             	mov    %ebx,(%esp)
400030d6:	e8 10 93 00 00       	call   4000c3eb <rpc_call>
400030db:	89 45 f4             	mov    %eax,-0xc(%ebp)
400030de:	8b 45 f0             	mov    -0x10(%ebp),%eax
400030e1:	89 04 24             	mov    %eax,(%esp)
400030e4:	e8 a2 48 00 00       	call   4000798b <free>
400030e9:	eb 07                	jmp    400030f2 <lseek+0x87>
400030eb:	c7 45 f4 f8 ff ff ff 	movl   $0xfffffff8,-0xc(%ebp)
400030f2:	83 7d f4 00          	cmpl   $0x0,-0xc(%ebp)
400030f6:	79 0c                	jns    40003104 <lseek+0x99>
400030f8:	8b 45 f4             	mov    -0xc(%ebp),%eax
400030fb:	89 c2                	mov    %eax,%edx
400030fd:	f7 da                	neg    %edx
400030ff:	89 55 e8             	mov    %edx,-0x18(%ebp)
40003102:	eb 07                	jmp    4000310b <lseek+0xa0>
40003104:	c7 45 e8 00 00 00 00 	movl   $0x0,-0x18(%ebp)
4000310b:	8b 45 e8             	mov    -0x18(%ebp),%eax
4000310e:	a3 10 1c 01 40       	mov    %eax,0x40011c10
40003113:	8b 45 f4             	mov    -0xc(%ebp),%eax
40003116:	c1 f8 1f             	sar    $0x1f,%eax
40003119:	0b 45 f4             	or     -0xc(%ebp),%eax
4000311c:	83 c4 34             	add    $0x34,%esp
4000311f:	5b                   	pop    %ebx
40003120:	5d                   	pop    %ebp
40003121:	c3                   	ret    

40003122 <unlink>:
40003122:	55                   	push   %ebp
40003123:	89 e5                	mov    %esp,%ebp
40003125:	83 ec 28             	sub    $0x28,%esp
40003128:	8b 45 08             	mov    0x8(%ebp),%eax
4000312b:	89 04 24             	mov    %eax,(%esp)
4000312e:	e8 0b f4 ff ff       	call   4000253e <getabsolutepath>
40003133:	89 45 f8             	mov    %eax,-0x8(%ebp)
40003136:	c7 44 24 04 01 00 00 	movl   $0x1,0x4(%esp)
4000313d:	00 
4000313e:	8b 45 f8             	mov    -0x8(%ebp),%eax
40003141:	89 04 24             	mov    %eax,(%esp)
40003144:	e8 e1 f1 ff ff       	call   4000232a <fsbypath>
40003149:	89 45 fc             	mov    %eax,-0x4(%ebp)
4000314c:	83 7d fc 00          	cmpl   $0x0,-0x4(%ebp)
40003150:	74 50                	je     400031a2 <unlink+0x80>
40003152:	8b 45 fc             	mov    -0x4(%ebp),%eax
40003155:	8b 00                	mov    (%eax),%eax
40003157:	89 44 24 08          	mov    %eax,0x8(%esp)
4000315b:	c7 44 24 04 05 e7 00 	movl   $0x4000e705,0x4(%esp)
40003162:	40 
40003163:	8d 45 f0             	lea    -0x10(%ebp),%eax
40003166:	89 04 24             	mov    %eax,(%esp)
40003169:	e8 52 ef ff ff       	call   400020c0 <asprintf>
4000316e:	8b 45 fc             	mov    -0x4(%ebp),%eax
40003171:	8b 50 04             	mov    0x4(%eax),%edx
40003174:	8b 4d f0             	mov    -0x10(%ebp),%ecx
40003177:	8b 45 f8             	mov    -0x8(%ebp),%eax
4000317a:	89 44 24 0c          	mov    %eax,0xc(%esp)
4000317e:	89 54 24 08          	mov    %edx,0x8(%esp)
40003182:	c7 44 24 04 00 00 00 	movl   $0x0,0x4(%esp)
40003189:	00 
4000318a:	89 0c 24             	mov    %ecx,(%esp)
4000318d:	e8 59 92 00 00       	call   4000c3eb <rpc_call>
40003192:	89 45 f4             	mov    %eax,-0xc(%ebp)
40003195:	8b 45 f0             	mov    -0x10(%ebp),%eax
40003198:	89 04 24             	mov    %eax,(%esp)
4000319b:	e8 eb 47 00 00       	call   4000798b <free>
400031a0:	eb 07                	jmp    400031a9 <unlink+0x87>
400031a2:	c7 45 f4 e4 ff ff ff 	movl   $0xffffffe4,-0xc(%ebp)
400031a9:	8b 45 f8             	mov    -0x8(%ebp),%eax
400031ac:	89 04 24             	mov    %eax,(%esp)
400031af:	e8 d7 47 00 00       	call   4000798b <free>
400031b4:	83 7d f4 00          	cmpl   $0x0,-0xc(%ebp)
400031b8:	79 0c                	jns    400031c6 <unlink+0xa4>
400031ba:	8b 45 f4             	mov    -0xc(%ebp),%eax
400031bd:	89 c2                	mov    %eax,%edx
400031bf:	f7 da                	neg    %edx
400031c1:	89 55 ec             	mov    %edx,-0x14(%ebp)
400031c4:	eb 07                	jmp    400031cd <unlink+0xab>
400031c6:	c7 45 ec 00 00 00 00 	movl   $0x0,-0x14(%ebp)
400031cd:	8b 45 ec             	mov    -0x14(%ebp),%eax
400031d0:	a3 10 1c 01 40       	mov    %eax,0x40011c10
400031d5:	8b 45 f4             	mov    -0xc(%ebp),%eax
400031d8:	c1 f8 1f             	sar    $0x1f,%eax
400031db:	0b 45 f4             	or     -0xc(%ebp),%eax
400031de:	c9                   	leave  
400031df:	c3                   	ret    

400031e0 <rmdir>:
400031e0:	55                   	push   %ebp
400031e1:	89 e5                	mov    %esp,%ebp
400031e3:	83 ec 28             	sub    $0x28,%esp
400031e6:	8b 45 08             	mov    0x8(%ebp),%eax
400031e9:	89 04 24             	mov    %eax,(%esp)
400031ec:	e8 4d f3 ff ff       	call   4000253e <getabsolutepath>
400031f1:	89 45 f8             	mov    %eax,-0x8(%ebp)
400031f4:	c7 44 24 04 01 00 00 	movl   $0x1,0x4(%esp)
400031fb:	00 
400031fc:	8b 45 f8             	mov    -0x8(%ebp),%eax
400031ff:	89 04 24             	mov    %eax,(%esp)
40003202:	e8 23 f1 ff ff       	call   4000232a <fsbypath>
40003207:	89 45 fc             	mov    %eax,-0x4(%ebp)
4000320a:	83 7d fc 00          	cmpl   $0x0,-0x4(%ebp)
4000320e:	74 50                	je     40003260 <rmdir+0x80>
40003210:	8b 45 fc             	mov    -0x4(%ebp),%eax
40003213:	8b 00                	mov    (%eax),%eax
40003215:	89 44 24 08          	mov    %eax,0x8(%esp)
40003219:	c7 44 24 04 12 e7 00 	movl   $0x4000e712,0x4(%esp)
40003220:	40 
40003221:	8d 45 f0             	lea    -0x10(%ebp),%eax
40003224:	89 04 24             	mov    %eax,(%esp)
40003227:	e8 94 ee ff ff       	call   400020c0 <asprintf>
4000322c:	8b 45 fc             	mov    -0x4(%ebp),%eax
4000322f:	8b 50 04             	mov    0x4(%eax),%edx
40003232:	8b 4d f0             	mov    -0x10(%ebp),%ecx
40003235:	8b 45 f8             	mov    -0x8(%ebp),%eax
40003238:	89 44 24 0c          	mov    %eax,0xc(%esp)
4000323c:	89 54 24 08          	mov    %edx,0x8(%esp)
40003240:	c7 44 24 04 00 00 00 	movl   $0x0,0x4(%esp)
40003247:	00 
40003248:	89 0c 24             	mov    %ecx,(%esp)
4000324b:	e8 9b 91 00 00       	call   4000c3eb <rpc_call>
40003250:	89 45 f4             	mov    %eax,-0xc(%ebp)
40003253:	8b 45 f0             	mov    -0x10(%ebp),%eax
40003256:	89 04 24             	mov    %eax,(%esp)
40003259:	e8 2d 47 00 00       	call   4000798b <free>
4000325e:	eb 07                	jmp    40003267 <rmdir+0x87>
40003260:	c7 45 f4 e4 ff ff ff 	movl   $0xffffffe4,-0xc(%ebp)
40003267:	8b 45 f8             	mov    -0x8(%ebp),%eax
4000326a:	89 04 24             	mov    %eax,(%esp)
4000326d:	e8 19 47 00 00       	call   4000798b <free>
40003272:	83 7d f4 00          	cmpl   $0x0,-0xc(%ebp)
40003276:	79 0c                	jns    40003284 <rmdir+0xa4>
40003278:	8b 45 f4             	mov    -0xc(%ebp),%eax
4000327b:	89 c2                	mov    %eax,%edx
4000327d:	f7 da                	neg    %edx
4000327f:	89 55 ec             	mov    %edx,-0x14(%ebp)
40003282:	eb 07                	jmp    4000328b <rmdir+0xab>
40003284:	c7 45 ec 00 00 00 00 	movl   $0x0,-0x14(%ebp)
4000328b:	8b 45 ec             	mov    -0x14(%ebp),%eax
4000328e:	a3 10 1c 01 40       	mov    %eax,0x40011c10
40003293:	8b 45 f4             	mov    -0xc(%ebp),%eax
40003296:	c1 f8 1f             	sar    $0x1f,%eax
40003299:	0b 45 f4             	or     -0xc(%ebp),%eax
4000329c:	c9                   	leave  
4000329d:	c3                   	ret    

4000329e <rename>:
4000329e:	55                   	push   %ebp
4000329f:	89 e5                	mov    %esp,%ebp
400032a1:	83 ec 38             	sub    $0x38,%esp
400032a4:	8b 45 08             	mov    0x8(%ebp),%eax
400032a7:	89 04 24             	mov    %eax,(%esp)
400032aa:	e8 8f f2 ff ff       	call   4000253e <getabsolutepath>
400032af:	89 45 f0             	mov    %eax,-0x10(%ebp)
400032b2:	8b 45 0c             	mov    0xc(%ebp),%eax
400032b5:	89 04 24             	mov    %eax,(%esp)
400032b8:	e8 81 f2 ff ff       	call   4000253e <getabsolutepath>
400032bd:	89 45 f4             	mov    %eax,-0xc(%ebp)
400032c0:	c7 44 24 04 01 00 00 	movl   $0x1,0x4(%esp)
400032c7:	00 
400032c8:	8b 45 f0             	mov    -0x10(%ebp),%eax
400032cb:	89 04 24             	mov    %eax,(%esp)
400032ce:	e8 57 f0 ff ff       	call   4000232a <fsbypath>
400032d3:	89 45 f8             	mov    %eax,-0x8(%ebp)
400032d6:	c7 44 24 04 01 00 00 	movl   $0x1,0x4(%esp)
400032dd:	00 
400032de:	8b 45 f4             	mov    -0xc(%ebp),%eax
400032e1:	89 04 24             	mov    %eax,(%esp)
400032e4:	e8 41 f0 ff ff       	call   4000232a <fsbypath>
400032e9:	89 45 fc             	mov    %eax,-0x4(%ebp)
400032ec:	83 7d f8 00          	cmpl   $0x0,-0x8(%ebp)
400032f0:	74 5f                	je     40003351 <rename+0xb3>
400032f2:	8b 45 f8             	mov    -0x8(%ebp),%eax
400032f5:	3b 45 fc             	cmp    -0x4(%ebp),%eax
400032f8:	75 57                	jne    40003351 <rename+0xb3>
400032fa:	8b 45 f8             	mov    -0x8(%ebp),%eax
400032fd:	8b 00                	mov    (%eax),%eax
400032ff:	89 44 24 08          	mov    %eax,0x8(%esp)
40003303:	c7 44 24 04 1e e7 00 	movl   $0x4000e71e,0x4(%esp)
4000330a:	40 
4000330b:	8d 45 e8             	lea    -0x18(%ebp),%eax
4000330e:	89 04 24             	mov    %eax,(%esp)
40003311:	e8 aa ed ff ff       	call   400020c0 <asprintf>
40003316:	8b 45 f8             	mov    -0x8(%ebp),%eax
40003319:	8b 50 04             	mov    0x4(%eax),%edx
4000331c:	8b 4d e8             	mov    -0x18(%ebp),%ecx
4000331f:	8b 45 0c             	mov    0xc(%ebp),%eax
40003322:	89 44 24 10          	mov    %eax,0x10(%esp)
40003326:	8b 45 08             	mov    0x8(%ebp),%eax
40003329:	89 44 24 0c          	mov    %eax,0xc(%esp)
4000332d:	89 54 24 08          	mov    %edx,0x8(%esp)
40003331:	c7 44 24 04 00 00 00 	movl   $0x0,0x4(%esp)
40003338:	00 
40003339:	89 0c 24             	mov    %ecx,(%esp)
4000333c:	e8 aa 90 00 00       	call   4000c3eb <rpc_call>
40003341:	89 45 ec             	mov    %eax,-0x14(%ebp)
40003344:	8b 45 e8             	mov    -0x18(%ebp),%eax
40003347:	89 04 24             	mov    %eax,(%esp)
4000334a:	e8 3c 46 00 00       	call   4000798b <free>
4000334f:	eb 07                	jmp    40003358 <rename+0xba>
40003351:	c7 45 ec e4 ff ff ff 	movl   $0xffffffe4,-0x14(%ebp)
40003358:	83 7d ec 00          	cmpl   $0x0,-0x14(%ebp)
4000335c:	79 0c                	jns    4000336a <rename+0xcc>
4000335e:	8b 45 ec             	mov    -0x14(%ebp),%eax
40003361:	89 c2                	mov    %eax,%edx
40003363:	f7 da                	neg    %edx
40003365:	89 55 dc             	mov    %edx,-0x24(%ebp)
40003368:	eb 07                	jmp    40003371 <rename+0xd3>
4000336a:	c7 45 dc 00 00 00 00 	movl   $0x0,-0x24(%ebp)
40003371:	8b 45 dc             	mov    -0x24(%ebp),%eax
40003374:	a3 10 1c 01 40       	mov    %eax,0x40011c10
40003379:	8b 45 ec             	mov    -0x14(%ebp),%eax
4000337c:	c1 f8 1f             	sar    $0x1f,%eax
4000337f:	0b 45 ec             	or     -0x14(%ebp),%eax
40003382:	c9                   	leave  
40003383:	c3                   	ret    

40003384 <truncate>:
40003384:	55                   	push   %ebp
40003385:	89 e5                	mov    %esp,%ebp
40003387:	83 ec 18             	sub    $0x18,%esp
4000338a:	c7 45 fc ff ff ff ff 	movl   $0xffffffff,-0x4(%ebp)
40003391:	c7 44 24 04 02 00 00 	movl   $0x2,0x4(%esp)
40003398:	00 
40003399:	8b 45 08             	mov    0x8(%ebp),%eax
4000339c:	89 04 24             	mov    %eax,(%esp)
4000339f:	e8 5d f5 ff ff       	call   40002901 <open>
400033a4:	89 45 f8             	mov    %eax,-0x8(%ebp)
400033a7:	83 7d f8 ff          	cmpl   $0xffffffff,-0x8(%ebp)
400033ab:	74 29                	je     400033d6 <truncate+0x52>
400033ad:	8b 45 0c             	mov    0xc(%ebp),%eax
400033b0:	89 44 24 04          	mov    %eax,0x4(%esp)
400033b4:	8b 45 f8             	mov    -0x8(%ebp),%eax
400033b7:	89 04 24             	mov    %eax,(%esp)
400033ba:	e8 1c 00 00 00       	call   400033db <ftruncate>
400033bf:	83 f8 ff             	cmp    $0xffffffff,%eax
400033c2:	74 07                	je     400033cb <truncate+0x47>
400033c4:	c7 45 fc 00 00 00 00 	movl   $0x0,-0x4(%ebp)
400033cb:	8b 45 f8             	mov    -0x8(%ebp),%eax
400033ce:	89 04 24             	mov    %eax,(%esp)
400033d1:	e8 ae f7 ff ff       	call   40002b84 <close>
400033d6:	8b 45 fc             	mov    -0x4(%ebp),%eax
400033d9:	c9                   	leave  
400033da:	c3                   	ret    

400033db <ftruncate>:
400033db:	55                   	push   %ebp
400033dc:	89 e5                	mov    %esp,%ebp
400033de:	53                   	push   %ebx
400033df:	83 ec 34             	sub    $0x34,%esp
400033e2:	8b 45 08             	mov    0x8(%ebp),%eax
400033e5:	89 04 24             	mov    %eax,(%esp)
400033e8:	e8 0b f1 ff ff       	call   400024f8 <filebyfh>
400033ed:	89 45 f8             	mov    %eax,-0x8(%ebp)
400033f0:	83 7d f8 00          	cmpl   $0x0,-0x8(%ebp)
400033f4:	74 5e                	je     40003454 <ftruncate+0x79>
400033f6:	8b 45 f8             	mov    -0x8(%ebp),%eax
400033f9:	8b 00                	mov    (%eax),%eax
400033fb:	8b 00                	mov    (%eax),%eax
400033fd:	89 44 24 08          	mov    %eax,0x8(%esp)
40003401:	c7 44 24 04 2b e7 00 	movl   $0x4000e72b,0x4(%esp)
40003408:	40 
40003409:	8d 45 f0             	lea    -0x10(%ebp),%eax
4000340c:	89 04 24             	mov    %eax,(%esp)
4000340f:	e8 ac ec ff ff       	call   400020c0 <asprintf>
40003414:	8b 45 f8             	mov    -0x8(%ebp),%eax
40003417:	8b 48 04             	mov    0x4(%eax),%ecx
4000341a:	8b 45 f8             	mov    -0x8(%ebp),%eax
4000341d:	8b 00                	mov    (%eax),%eax
4000341f:	8b 50 04             	mov    0x4(%eax),%edx
40003422:	8b 5d f0             	mov    -0x10(%ebp),%ebx
40003425:	8b 45 0c             	mov    0xc(%ebp),%eax
40003428:	89 44 24 10          	mov    %eax,0x10(%esp)
4000342c:	89 4c 24 0c          	mov    %ecx,0xc(%esp)
40003430:	89 54 24 08          	mov    %edx,0x8(%esp)
40003434:	c7 44 24 04 00 00 00 	movl   $0x0,0x4(%esp)
4000343b:	00 
4000343c:	89 1c 24             	mov    %ebx,(%esp)
4000343f:	e8 a7 8f 00 00       	call   4000c3eb <rpc_call>
40003444:	89 45 f4             	mov    %eax,-0xc(%ebp)
40003447:	8b 45 f0             	mov    -0x10(%ebp),%eax
4000344a:	89 04 24             	mov    %eax,(%esp)
4000344d:	e8 39 45 00 00       	call   4000798b <free>
40003452:	eb 07                	jmp    4000345b <ftruncate+0x80>
40003454:	c7 45 f4 f8 ff ff ff 	movl   $0xfffffff8,-0xc(%ebp)
4000345b:	83 7d f4 00          	cmpl   $0x0,-0xc(%ebp)
4000345f:	79 0c                	jns    4000346d <ftruncate+0x92>
40003461:	8b 45 f4             	mov    -0xc(%ebp),%eax
40003464:	89 c2                	mov    %eax,%edx
40003466:	f7 da                	neg    %edx
40003468:	89 55 e8             	mov    %edx,-0x18(%ebp)
4000346b:	eb 07                	jmp    40003474 <ftruncate+0x99>
4000346d:	c7 45 e8 00 00 00 00 	movl   $0x0,-0x18(%ebp)
40003474:	8b 45 e8             	mov    -0x18(%ebp),%eax
40003477:	a3 10 1c 01 40       	mov    %eax,0x40011c10
4000347c:	8b 45 f4             	mov    -0xc(%ebp),%eax
4000347f:	c1 f8 1f             	sar    $0x1f,%eax
40003482:	0b 45 f4             	or     -0xc(%ebp),%eax
40003485:	83 c4 34             	add    $0x34,%esp
40003488:	5b                   	pop    %ebx
40003489:	5d                   	pop    %ebp
4000348a:	c3                   	ret    

4000348b <opendir>:
4000348b:	55                   	push   %ebp
4000348c:	89 e5                	mov    %esp,%ebp
4000348e:	83 ec 38             	sub    $0x38,%esp
40003491:	8b 45 08             	mov    0x8(%ebp),%eax
40003494:	89 04 24             	mov    %eax,(%esp)
40003497:	e8 a2 f0 ff ff       	call   4000253e <getabsolutepath>
4000349c:	89 45 f0             	mov    %eax,-0x10(%ebp)
4000349f:	c7 44 24 04 00 00 00 	movl   $0x0,0x4(%esp)
400034a6:	00 
400034a7:	8b 45 f0             	mov    -0x10(%ebp),%eax
400034aa:	89 04 24             	mov    %eax,(%esp)
400034ad:	e8 78 ee ff ff       	call   4000232a <fsbypath>
400034b2:	89 45 f4             	mov    %eax,-0xc(%ebp)
400034b5:	83 7d f4 00          	cmpl   $0x0,-0xc(%ebp)
400034b9:	0f 84 58 01 00 00    	je     40003617 <opendir+0x18c>
400034bf:	c7 44 24 08 00 00 00 	movl   $0x0,0x8(%esp)
400034c6:	00 
400034c7:	c7 44 24 04 00 20 00 	movl   $0x2000,0x4(%esp)
400034ce:	00 
400034cf:	c7 04 24 00 00 00 00 	movl   $0x0,(%esp)
400034d6:	e8 f1 56 00 00       	call   40008bcc <shmget>
400034db:	89 45 fc             	mov    %eax,-0x4(%ebp)
400034de:	c7 44 24 08 00 00 00 	movl   $0x0,0x8(%esp)
400034e5:	00 
400034e6:	c7 44 24 04 00 00 00 	movl   $0x0,0x4(%esp)
400034ed:	00 
400034ee:	8b 45 fc             	mov    -0x4(%ebp),%eax
400034f1:	89 04 24             	mov    %eax,(%esp)
400034f4:	e8 8f 57 00 00       	call   40008c88 <shmat>
400034f9:	89 45 ec             	mov    %eax,-0x14(%ebp)
400034fc:	83 7d ec 00          	cmpl   $0x0,-0x14(%ebp)
40003500:	0f 84 05 01 00 00    	je     4000360b <opendir+0x180>
40003506:	8b 55 ec             	mov    -0x14(%ebp),%edx
40003509:	c7 44 24 08 00 20 00 	movl   $0x2000,0x8(%esp)
40003510:	00 
40003511:	8b 45 f0             	mov    -0x10(%ebp),%eax
40003514:	89 44 24 04          	mov    %eax,0x4(%esp)
40003518:	89 14 24             	mov    %edx,(%esp)
4000351b:	e8 44 76 00 00       	call   4000ab64 <strncpy>
40003520:	8b 45 f4             	mov    -0xc(%ebp),%eax
40003523:	8b 00                	mov    (%eax),%eax
40003525:	89 44 24 08          	mov    %eax,0x8(%esp)
40003529:	c7 44 24 04 3b e7 00 	movl   $0x4000e73b,0x4(%esp)
40003530:	40 
40003531:	8d 45 e0             	lea    -0x20(%ebp),%eax
40003534:	89 04 24             	mov    %eax,(%esp)
40003537:	e8 84 eb ff ff       	call   400020c0 <asprintf>
4000353c:	8b 45 f4             	mov    -0xc(%ebp),%eax
4000353f:	8b 50 04             	mov    0x4(%eax),%edx
40003542:	8b 4d e0             	mov    -0x20(%ebp),%ecx
40003545:	8b 45 fc             	mov    -0x4(%ebp),%eax
40003548:	89 44 24 0c          	mov    %eax,0xc(%esp)
4000354c:	89 54 24 08          	mov    %edx,0x8(%esp)
40003550:	c7 44 24 04 00 00 00 	movl   $0x0,0x4(%esp)
40003557:	00 
40003558:	89 0c 24             	mov    %ecx,(%esp)
4000355b:	e8 8b 8e 00 00       	call   4000c3eb <rpc_call>
40003560:	89 45 e4             	mov    %eax,-0x1c(%ebp)
40003563:	8b 45 e0             	mov    -0x20(%ebp),%eax
40003566:	89 04 24             	mov    %eax,(%esp)
40003569:	e8 1d 44 00 00       	call   4000798b <free>
4000356e:	83 7d e4 00          	cmpl   $0x0,-0x1c(%ebp)
40003572:	0f 88 8b 00 00 00    	js     40003603 <opendir+0x178>
40003578:	c7 04 24 28 00 00 00 	movl   $0x28,(%esp)
4000357f:	e8 50 3f 00 00       	call   400074d4 <malloc>
40003584:	89 45 f8             	mov    %eax,-0x8(%ebp)
40003587:	8b 55 f8             	mov    -0x8(%ebp),%edx
4000358a:	8b 45 e4             	mov    -0x1c(%ebp),%eax
4000358d:	89 42 04             	mov    %eax,0x4(%edx)
40003590:	8b 55 f8             	mov    -0x8(%ebp),%edx
40003593:	8b 45 f4             	mov    -0xc(%ebp),%eax
40003596:	89 02                	mov    %eax,(%edx)
40003598:	8b 45 f8             	mov    -0x8(%ebp),%eax
4000359b:	c7 40 10 00 00 00 00 	movl   $0x0,0x10(%eax)
400035a2:	8b 45 f8             	mov    -0x8(%ebp),%eax
400035a5:	c7 40 0c 00 40 00 00 	movl   $0x4000,0xc(%eax)
400035ac:	8b 45 f8             	mov    -0x8(%ebp),%eax
400035af:	c7 40 14 00 00 00 00 	movl   $0x0,0x14(%eax)
400035b6:	8b 45 f0             	mov    -0x10(%ebp),%eax
400035b9:	89 04 24             	mov    %eax,(%esp)
400035bc:	e8 18 74 00 00       	call   4000a9d9 <strdup>
400035c1:	89 c2                	mov    %eax,%edx
400035c3:	8b 45 f8             	mov    -0x8(%ebp),%eax
400035c6:	89 50 18             	mov    %edx,0x18(%eax)
400035c9:	8b 55 f8             	mov    -0x8(%ebp),%edx
400035cc:	8b 45 fc             	mov    -0x4(%ebp),%eax
400035cf:	89 42 1c             	mov    %eax,0x1c(%edx)
400035d2:	8b 55 f8             	mov    -0x8(%ebp),%edx
400035d5:	8b 45 ec             	mov    -0x14(%ebp),%eax
400035d8:	89 42 20             	mov    %eax,0x20(%edx)
400035db:	8b 45 f8             	mov    -0x8(%ebp),%eax
400035de:	c7 40 08 00 00 00 00 	movl   $0x0,0x8(%eax)
400035e5:	8b 15 24 05 01 40    	mov    0x40010524,%edx
400035eb:	8b 45 f8             	mov    -0x8(%ebp),%eax
400035ee:	89 44 24 04          	mov    %eax,0x4(%esp)
400035f2:	89 14 24             	mov    %edx,(%esp)
400035f5:	e8 e5 7a 00 00       	call   4000b0df <llist_push>
400035fa:	c7 45 e8 00 00 00 00 	movl   $0x0,-0x18(%ebp)
40003601:	eb 1b                	jmp    4000361e <opendir+0x193>
40003603:	8b 45 e4             	mov    -0x1c(%ebp),%eax
40003606:	89 45 e8             	mov    %eax,-0x18(%ebp)
40003609:	eb 13                	jmp    4000361e <opendir+0x193>
4000360b:	a1 10 1c 01 40       	mov    0x40011c10,%eax
40003610:	f7 d8                	neg    %eax
40003612:	89 45 e8             	mov    %eax,-0x18(%ebp)
40003615:	eb 07                	jmp    4000361e <opendir+0x193>
40003617:	c7 45 e8 d3 ff ff ff 	movl   $0xffffffd3,-0x18(%ebp)
4000361e:	8b 45 f0             	mov    -0x10(%ebp),%eax
40003621:	89 04 24             	mov    %eax,(%esp)
40003624:	e8 62 43 00 00       	call   4000798b <free>
40003629:	83 7d e8 00          	cmpl   $0x0,-0x18(%ebp)
4000362d:	79 0c                	jns    4000363b <opendir+0x1b0>
4000362f:	8b 45 e8             	mov    -0x18(%ebp),%eax
40003632:	89 c2                	mov    %eax,%edx
40003634:	f7 da                	neg    %edx
40003636:	89 55 d8             	mov    %edx,-0x28(%ebp)
40003639:	eb 07                	jmp    40003642 <opendir+0x1b7>
4000363b:	c7 45 d8 00 00 00 00 	movl   $0x0,-0x28(%ebp)
40003642:	8b 45 d8             	mov    -0x28(%ebp),%eax
40003645:	a3 10 1c 01 40       	mov    %eax,0x40011c10
4000364a:	83 7d e8 00          	cmpl   $0x0,-0x18(%ebp)
4000364e:	78 08                	js     40003658 <opendir+0x1cd>
40003650:	8b 55 f8             	mov    -0x8(%ebp),%edx
40003653:	89 55 dc             	mov    %edx,-0x24(%ebp)
40003656:	eb 07                	jmp    4000365f <opendir+0x1d4>
40003658:	c7 45 dc 00 00 00 00 	movl   $0x0,-0x24(%ebp)
4000365f:	8b 45 dc             	mov    -0x24(%ebp),%eax
40003662:	c9                   	leave  
40003663:	c3                   	ret    

40003664 <closedir>:
40003664:	55                   	push   %ebp
40003665:	89 e5                	mov    %esp,%ebp
40003667:	83 ec 28             	sub    $0x28,%esp
4000366a:	83 7d 08 00          	cmpl   $0x0,0x8(%ebp)
4000366e:	0f 84 c9 00 00 00    	je     4000373d <closedir+0xd9>
40003674:	8b 45 08             	mov    0x8(%ebp),%eax
40003677:	8b 00                	mov    (%eax),%eax
40003679:	8b 00                	mov    (%eax),%eax
4000367b:	89 44 24 08          	mov    %eax,0x8(%esp)
4000367f:	c7 44 24 04 49 e7 00 	movl   $0x4000e749,0x4(%esp)
40003686:	40 
40003687:	8d 45 f8             	lea    -0x8(%ebp),%eax
4000368a:	89 04 24             	mov    %eax,(%esp)
4000368d:	e8 2e ea ff ff       	call   400020c0 <asprintf>
40003692:	8b 45 08             	mov    0x8(%ebp),%eax
40003695:	8b 50 04             	mov    0x4(%eax),%edx
40003698:	8b 45 08             	mov    0x8(%ebp),%eax
4000369b:	8b 00                	mov    (%eax),%eax
4000369d:	8b 40 04             	mov    0x4(%eax),%eax
400036a0:	8b 4d f8             	mov    -0x8(%ebp),%ecx
400036a3:	89 54 24 0c          	mov    %edx,0xc(%esp)
400036a7:	89 44 24 08          	mov    %eax,0x8(%esp)
400036ab:	c7 44 24 04 00 00 00 	movl   $0x0,0x4(%esp)
400036b2:	00 
400036b3:	89 0c 24             	mov    %ecx,(%esp)
400036b6:	e8 30 8d 00 00       	call   4000c3eb <rpc_call>
400036bb:	89 45 fc             	mov    %eax,-0x4(%ebp)
400036be:	8b 45 f8             	mov    -0x8(%ebp),%eax
400036c1:	89 04 24             	mov    %eax,(%esp)
400036c4:	e8 c2 42 00 00       	call   4000798b <free>
400036c9:	83 7d fc 00          	cmpl   $0x0,-0x4(%ebp)
400036cd:	75 75                	jne    40003744 <closedir+0xe0>
400036cf:	8b 45 08             	mov    0x8(%ebp),%eax
400036d2:	8b 40 20             	mov    0x20(%eax),%eax
400036d5:	89 04 24             	mov    %eax,(%esp)
400036d8:	e8 2e 56 00 00       	call   40008d0b <shmdt>
400036dd:	8b 45 08             	mov    0x8(%ebp),%eax
400036e0:	8b 40 1c             	mov    0x1c(%eax),%eax
400036e3:	c7 44 24 08 00 00 00 	movl   $0x0,0x8(%esp)
400036ea:	00 
400036eb:	c7 44 24 04 01 00 00 	movl   $0x1,0x4(%esp)
400036f2:	00 
400036f3:	89 04 24             	mov    %eax,(%esp)
400036f6:	e8 80 56 00 00       	call   40008d7b <shmctl>
400036fb:	8b 45 08             	mov    0x8(%ebp),%eax
400036fe:	8b 40 18             	mov    0x18(%eax),%eax
40003701:	89 04 24             	mov    %eax,(%esp)
40003704:	e8 82 42 00 00       	call   4000798b <free>
40003709:	8b 45 08             	mov    0x8(%ebp),%eax
4000370c:	89 04 24             	mov    %eax,(%esp)
4000370f:	e8 77 42 00 00       	call   4000798b <free>
40003714:	8b 15 24 05 01 40    	mov    0x40010524,%edx
4000371a:	8b 45 08             	mov    0x8(%ebp),%eax
4000371d:	89 44 24 04          	mov    %eax,0x4(%esp)
40003721:	89 14 24             	mov    %edx,(%esp)
40003724:	e8 88 7c 00 00       	call   4000b3b1 <llist_find>
40003729:	8b 15 24 05 01 40    	mov    0x40010524,%edx
4000372f:	89 44 24 04          	mov    %eax,0x4(%esp)
40003733:	89 14 24             	mov    %edx,(%esp)
40003736:	e8 ae 7b 00 00       	call   4000b2e9 <llist_remove>
4000373b:	eb 07                	jmp    40003744 <closedir+0xe0>
4000373d:	c7 45 fc f8 ff ff ff 	movl   $0xfffffff8,-0x4(%ebp)
40003744:	83 7d fc 00          	cmpl   $0x0,-0x4(%ebp)
40003748:	79 0c                	jns    40003756 <closedir+0xf2>
4000374a:	8b 45 fc             	mov    -0x4(%ebp),%eax
4000374d:	89 c2                	mov    %eax,%edx
4000374f:	f7 da                	neg    %edx
40003751:	89 55 ec             	mov    %edx,-0x14(%ebp)
40003754:	eb 07                	jmp    4000375d <closedir+0xf9>
40003756:	c7 45 ec 00 00 00 00 	movl   $0x0,-0x14(%ebp)
4000375d:	8b 45 ec             	mov    -0x14(%ebp),%eax
40003760:	a3 10 1c 01 40       	mov    %eax,0x40011c10
40003765:	8b 45 fc             	mov    -0x4(%ebp),%eax
40003768:	c1 f8 1f             	sar    $0x1f,%eax
4000376b:	0b 45 fc             	or     -0x4(%ebp),%eax
4000376e:	c9                   	leave  
4000376f:	c3                   	ret    

40003770 <readdir>:
40003770:	55                   	push   %ebp
40003771:	89 e5                	mov    %esp,%ebp
40003773:	83 ec 28             	sub    $0x28,%esp
40003776:	83 7d 08 00          	cmpl   $0x0,0x8(%ebp)
4000377a:	0f 84 8b 00 00 00    	je     4000380b <readdir+0x9b>
40003780:	8b 45 08             	mov    0x8(%ebp),%eax
40003783:	8b 00                	mov    (%eax),%eax
40003785:	8b 00                	mov    (%eax),%eax
40003787:	89 44 24 08          	mov    %eax,0x8(%esp)
4000378b:	c7 44 24 04 58 e7 00 	movl   $0x4000e758,0x4(%esp)
40003792:	40 
40003793:	8d 45 f8             	lea    -0x8(%ebp),%eax
40003796:	89 04 24             	mov    %eax,(%esp)
40003799:	e8 22 e9 ff ff       	call   400020c0 <asprintf>
4000379e:	8b 45 08             	mov    0x8(%ebp),%eax
400037a1:	8b 50 04             	mov    0x4(%eax),%edx
400037a4:	8b 45 08             	mov    0x8(%ebp),%eax
400037a7:	8b 00                	mov    (%eax),%eax
400037a9:	8b 40 04             	mov    0x4(%eax),%eax
400037ac:	8b 4d f8             	mov    -0x8(%ebp),%ecx
400037af:	89 54 24 0c          	mov    %edx,0xc(%esp)
400037b3:	89 44 24 08          	mov    %eax,0x8(%esp)
400037b7:	c7 44 24 04 00 00 00 	movl   $0x0,0x4(%esp)
400037be:	00 
400037bf:	89 0c 24             	mov    %ecx,(%esp)
400037c2:	e8 24 8c 00 00       	call   4000c3eb <rpc_call>
400037c7:	89 45 fc             	mov    %eax,-0x4(%ebp)
400037ca:	8b 45 f8             	mov    -0x8(%ebp),%eax
400037cd:	89 04 24             	mov    %eax,(%esp)
400037d0:	e8 b6 41 00 00       	call   4000798b <free>
400037d5:	83 7d fc 00          	cmpl   $0x0,-0x4(%ebp)
400037d9:	78 37                	js     40003812 <readdir+0xa2>
400037db:	8b 45 08             	mov    0x8(%ebp),%eax
400037de:	8b 40 08             	mov    0x8(%eax),%eax
400037e1:	85 c0                	test   %eax,%eax
400037e3:	74 0e                	je     400037f3 <readdir+0x83>
400037e5:	8b 45 08             	mov    0x8(%ebp),%eax
400037e8:	8b 40 08             	mov    0x8(%eax),%eax
400037eb:	89 04 24             	mov    %eax,(%esp)
400037ee:	e8 98 41 00 00       	call   4000798b <free>
400037f3:	8b 45 08             	mov    0x8(%ebp),%eax
400037f6:	8b 40 20             	mov    0x20(%eax),%eax
400037f9:	89 04 24             	mov    %eax,(%esp)
400037fc:	e8 d8 71 00 00       	call   4000a9d9 <strdup>
40003801:	89 c2                	mov    %eax,%edx
40003803:	8b 45 08             	mov    0x8(%ebp),%eax
40003806:	89 50 08             	mov    %edx,0x8(%eax)
40003809:	eb 07                	jmp    40003812 <readdir+0xa2>
4000380b:	c7 45 fc f8 ff ff ff 	movl   $0xfffffff8,-0x4(%ebp)
40003812:	83 7d fc 00          	cmpl   $0x0,-0x4(%ebp)
40003816:	79 12                	jns    4000382a <readdir+0xba>
40003818:	83 7d fc d3          	cmpl   $0xffffffd3,-0x4(%ebp)
4000381c:	74 0c                	je     4000382a <readdir+0xba>
4000381e:	8b 45 fc             	mov    -0x4(%ebp),%eax
40003821:	89 c2                	mov    %eax,%edx
40003823:	f7 da                	neg    %edx
40003825:	89 55 e8             	mov    %edx,-0x18(%ebp)
40003828:	eb 07                	jmp    40003831 <readdir+0xc1>
4000382a:	c7 45 e8 00 00 00 00 	movl   $0x0,-0x18(%ebp)
40003831:	8b 45 e8             	mov    -0x18(%ebp),%eax
40003834:	a3 10 1c 01 40       	mov    %eax,0x40011c10
40003839:	83 7d fc 00          	cmpl   $0x0,-0x4(%ebp)
4000383d:	78 0b                	js     4000384a <readdir+0xda>
4000383f:	8b 45 08             	mov    0x8(%ebp),%eax
40003842:	83 c0 08             	add    $0x8,%eax
40003845:	89 45 ec             	mov    %eax,-0x14(%ebp)
40003848:	eb 07                	jmp    40003851 <readdir+0xe1>
4000384a:	c7 45 ec 00 00 00 00 	movl   $0x0,-0x14(%ebp)
40003851:	8b 45 ec             	mov    -0x14(%ebp),%eax
40003854:	c9                   	leave  
40003855:	c3                   	ret    

40003856 <seekdir>:
40003856:	55                   	push   %ebp
40003857:	89 e5                	mov    %esp,%ebp
40003859:	53                   	push   %ebx
4000385a:	83 ec 34             	sub    $0x34,%esp
4000385d:	83 7d 08 00          	cmpl   $0x0,0x8(%ebp)
40003861:	74 5e                	je     400038c1 <seekdir+0x6b>
40003863:	8b 45 08             	mov    0x8(%ebp),%eax
40003866:	8b 00                	mov    (%eax),%eax
40003868:	8b 00                	mov    (%eax),%eax
4000386a:	89 44 24 08          	mov    %eax,0x8(%esp)
4000386e:	c7 44 24 04 66 e7 00 	movl   $0x4000e766,0x4(%esp)
40003875:	40 
40003876:	8d 45 f4             	lea    -0xc(%ebp),%eax
40003879:	89 04 24             	mov    %eax,(%esp)
4000387c:	e8 3f e8 ff ff       	call   400020c0 <asprintf>
40003881:	8b 45 08             	mov    0x8(%ebp),%eax
40003884:	8b 48 04             	mov    0x4(%eax),%ecx
40003887:	8b 45 08             	mov    0x8(%ebp),%eax
4000388a:	8b 00                	mov    (%eax),%eax
4000388c:	8b 50 04             	mov    0x4(%eax),%edx
4000388f:	8b 5d f4             	mov    -0xc(%ebp),%ebx
40003892:	8b 45 0c             	mov    0xc(%ebp),%eax
40003895:	89 44 24 10          	mov    %eax,0x10(%esp)
40003899:	89 4c 24 0c          	mov    %ecx,0xc(%esp)
4000389d:	89 54 24 08          	mov    %edx,0x8(%esp)
400038a1:	c7 44 24 04 00 00 00 	movl   $0x0,0x4(%esp)
400038a8:	00 
400038a9:	89 1c 24             	mov    %ebx,(%esp)
400038ac:	e8 3a 8b 00 00       	call   4000c3eb <rpc_call>
400038b1:	89 45 f8             	mov    %eax,-0x8(%ebp)
400038b4:	8b 45 f4             	mov    -0xc(%ebp),%eax
400038b7:	89 04 24             	mov    %eax,(%esp)
400038ba:	e8 cc 40 00 00       	call   4000798b <free>
400038bf:	eb 07                	jmp    400038c8 <seekdir+0x72>
400038c1:	c7 45 f8 f8 ff ff ff 	movl   $0xfffffff8,-0x8(%ebp)
400038c8:	83 7d f8 00          	cmpl   $0x0,-0x8(%ebp)
400038cc:	79 0c                	jns    400038da <seekdir+0x84>
400038ce:	8b 45 f8             	mov    -0x8(%ebp),%eax
400038d1:	89 c2                	mov    %eax,%edx
400038d3:	f7 da                	neg    %edx
400038d5:	89 55 e8             	mov    %edx,-0x18(%ebp)
400038d8:	eb 07                	jmp    400038e1 <seekdir+0x8b>
400038da:	c7 45 e8 00 00 00 00 	movl   $0x0,-0x18(%ebp)
400038e1:	8b 45 e8             	mov    -0x18(%ebp),%eax
400038e4:	a3 10 1c 01 40       	mov    %eax,0x40011c10
400038e9:	83 c4 34             	add    $0x34,%esp
400038ec:	5b                   	pop    %ebx
400038ed:	5d                   	pop    %ebp
400038ee:	c3                   	ret    

400038ef <telldir>:
400038ef:	55                   	push   %ebp
400038f0:	89 e5                	mov    %esp,%ebp
400038f2:	83 ec 28             	sub    $0x28,%esp
400038f5:	83 7d 08 00          	cmpl   $0x0,0x8(%ebp)
400038f9:	74 5f                	je     4000395a <telldir+0x6b>
400038fb:	8b 45 08             	mov    0x8(%ebp),%eax
400038fe:	8b 00                	mov    (%eax),%eax
40003900:	8b 00                	mov    (%eax),%eax
40003902:	89 44 24 08          	mov    %eax,0x8(%esp)
40003906:	c7 44 24 04 66 e7 00 	movl   $0x4000e766,0x4(%esp)
4000390d:	40 
4000390e:	8d 45 f8             	lea    -0x8(%ebp),%eax
40003911:	89 04 24             	mov    %eax,(%esp)
40003914:	e8 a7 e7 ff ff       	call   400020c0 <asprintf>
40003919:	8b 45 08             	mov    0x8(%ebp),%eax
4000391c:	8b 48 04             	mov    0x4(%eax),%ecx
4000391f:	8b 45 08             	mov    0x8(%ebp),%eax
40003922:	8b 00                	mov    (%eax),%eax
40003924:	8b 40 04             	mov    0x4(%eax),%eax
40003927:	8b 55 f8             	mov    -0x8(%ebp),%edx
4000392a:	c7 44 24 10 ff ff ff 	movl   $0xffffffff,0x10(%esp)
40003931:	ff 
40003932:	89 4c 24 0c          	mov    %ecx,0xc(%esp)
40003936:	89 44 24 08          	mov    %eax,0x8(%esp)
4000393a:	c7 44 24 04 00 00 00 	movl   $0x0,0x4(%esp)
40003941:	00 
40003942:	89 14 24             	mov    %edx,(%esp)
40003945:	e8 a1 8a 00 00       	call   4000c3eb <rpc_call>
4000394a:	89 45 fc             	mov    %eax,-0x4(%ebp)
4000394d:	8b 45 f8             	mov    -0x8(%ebp),%eax
40003950:	89 04 24             	mov    %eax,(%esp)
40003953:	e8 33 40 00 00       	call   4000798b <free>
40003958:	eb 07                	jmp    40003961 <telldir+0x72>
4000395a:	c7 45 fc f8 ff ff ff 	movl   $0xfffffff8,-0x4(%ebp)
40003961:	83 7d fc 00          	cmpl   $0x0,-0x4(%ebp)
40003965:	79 0c                	jns    40003973 <telldir+0x84>
40003967:	8b 45 fc             	mov    -0x4(%ebp),%eax
4000396a:	89 c2                	mov    %eax,%edx
4000396c:	f7 da                	neg    %edx
4000396e:	89 55 ec             	mov    %edx,-0x14(%ebp)
40003971:	eb 07                	jmp    4000397a <telldir+0x8b>
40003973:	c7 45 ec 00 00 00 00 	movl   $0x0,-0x14(%ebp)
4000397a:	8b 45 ec             	mov    -0x14(%ebp),%eax
4000397d:	a3 10 1c 01 40       	mov    %eax,0x40011c10
40003982:	8b 45 fc             	mov    -0x4(%ebp),%eax
40003985:	c1 f8 1f             	sar    $0x1f,%eax
40003988:	0b 45 fc             	or     -0x4(%ebp),%eax
4000398b:	c9                   	leave  
4000398c:	c3                   	ret    

4000398d <stat>:
4000398d:	55                   	push   %ebp
4000398e:	89 e5                	mov    %esp,%ebp
40003990:	83 ec 18             	sub    $0x18,%esp
40003993:	c7 45 f8 ff ff ff ff 	movl   $0xffffffff,-0x8(%ebp)
4000399a:	c7 44 24 04 01 00 00 	movl   $0x1,0x4(%esp)
400039a1:	00 
400039a2:	8b 45 08             	mov    0x8(%ebp),%eax
400039a5:	89 04 24             	mov    %eax,(%esp)
400039a8:	e8 54 ef ff ff       	call   40002901 <open>
400039ad:	89 45 f4             	mov    %eax,-0xc(%ebp)
400039b0:	83 7d f4 ff          	cmpl   $0xffffffff,-0xc(%ebp)
400039b4:	74 22                	je     400039d8 <stat+0x4b>
400039b6:	8b 45 0c             	mov    0xc(%ebp),%eax
400039b9:	89 44 24 04          	mov    %eax,0x4(%esp)
400039bd:	8b 45 f4             	mov    -0xc(%ebp),%eax
400039c0:	89 04 24             	mov    %eax,(%esp)
400039c3:	e8 4c 00 00 00       	call   40003a14 <fstat>
400039c8:	89 45 f8             	mov    %eax,-0x8(%ebp)
400039cb:	8b 45 f4             	mov    -0xc(%ebp),%eax
400039ce:	89 04 24             	mov    %eax,(%esp)
400039d1:	e8 ae f1 ff ff       	call   40002b84 <close>
400039d6:	eb 37                	jmp    40003a0f <stat+0x82>
400039d8:	8b 45 08             	mov    0x8(%ebp),%eax
400039db:	89 04 24             	mov    %eax,(%esp)
400039de:	e8 a8 fa ff ff       	call   4000348b <opendir>
400039e3:	89 45 fc             	mov    %eax,-0x4(%ebp)
400039e6:	83 7d fc 00          	cmpl   $0x0,-0x4(%ebp)
400039ea:	74 23                	je     40003a0f <stat+0x82>
400039ec:	8b 45 fc             	mov    -0x4(%ebp),%eax
400039ef:	8b 50 14             	mov    0x14(%eax),%edx
400039f2:	8b 45 0c             	mov    0xc(%ebp),%eax
400039f5:	89 44 24 04          	mov    %eax,0x4(%esp)
400039f9:	89 14 24             	mov    %edx,(%esp)
400039fc:	e8 13 00 00 00       	call   40003a14 <fstat>
40003a01:	89 45 f8             	mov    %eax,-0x8(%ebp)
40003a04:	8b 45 fc             	mov    -0x4(%ebp),%eax
40003a07:	89 04 24             	mov    %eax,(%esp)
40003a0a:	e8 55 fc ff ff       	call   40003664 <closedir>
40003a0f:	8b 45 f8             	mov    -0x8(%ebp),%eax
40003a12:	c9                   	leave  
40003a13:	c3                   	ret    

40003a14 <fstat>:
40003a14:	55                   	push   %ebp
40003a15:	89 e5                	mov    %esp,%ebp
40003a17:	83 ec 28             	sub    $0x28,%esp
40003a1a:	8b 45 08             	mov    0x8(%ebp),%eax
40003a1d:	89 04 24             	mov    %eax,(%esp)
40003a20:	e8 d3 ea ff ff       	call   400024f8 <filebyfh>
40003a25:	89 45 fc             	mov    %eax,-0x4(%ebp)
40003a28:	83 7d fc 00          	cmpl   $0x0,-0x4(%ebp)
40003a2c:	74 74                	je     40003aa2 <fstat+0x8e>
40003a2e:	8b 45 fc             	mov    -0x4(%ebp),%eax
40003a31:	8b 00                	mov    (%eax),%eax
40003a33:	8b 00                	mov    (%eax),%eax
40003a35:	89 44 24 08          	mov    %eax,0x8(%esp)
40003a39:	c7 44 24 04 74 e7 00 	movl   $0x4000e774,0x4(%esp)
40003a40:	40 
40003a41:	8d 45 f4             	lea    -0xc(%ebp),%eax
40003a44:	89 04 24             	mov    %eax,(%esp)
40003a47:	e8 74 e6 ff ff       	call   400020c0 <asprintf>
40003a4c:	8b 45 fc             	mov    -0x4(%ebp),%eax
40003a4f:	8b 50 04             	mov    0x4(%eax),%edx
40003a52:	8b 45 fc             	mov    -0x4(%ebp),%eax
40003a55:	8b 00                	mov    (%eax),%eax
40003a57:	8b 40 04             	mov    0x4(%eax),%eax
40003a5a:	8b 4d f4             	mov    -0xc(%ebp),%ecx
40003a5d:	89 54 24 0c          	mov    %edx,0xc(%esp)
40003a61:	89 44 24 08          	mov    %eax,0x8(%esp)
40003a65:	c7 44 24 04 00 00 00 	movl   $0x0,0x4(%esp)
40003a6c:	00 
40003a6d:	89 0c 24             	mov    %ecx,(%esp)
40003a70:	e8 76 89 00 00       	call   4000c3eb <rpc_call>
40003a75:	89 45 f8             	mov    %eax,-0x8(%ebp)
40003a78:	8b 45 fc             	mov    -0x4(%ebp),%eax
40003a7b:	8b 40 20             	mov    0x20(%eax),%eax
40003a7e:	c7 44 24 08 34 00 00 	movl   $0x34,0x8(%esp)
40003a85:	00 
40003a86:	89 44 24 04          	mov    %eax,0x4(%esp)
40003a8a:	8b 45 0c             	mov    0xc(%ebp),%eax
40003a8d:	89 04 24             	mov    %eax,(%esp)
40003a90:	e8 d7 6b 00 00       	call   4000a66c <memcpy>
40003a95:	8b 45 f4             	mov    -0xc(%ebp),%eax
40003a98:	89 04 24             	mov    %eax,(%esp)
40003a9b:	e8 eb 3e 00 00       	call   4000798b <free>
40003aa0:	eb 07                	jmp    40003aa9 <fstat+0x95>
40003aa2:	c7 45 f8 f8 ff ff ff 	movl   $0xfffffff8,-0x8(%ebp)
40003aa9:	83 7d f8 00          	cmpl   $0x0,-0x8(%ebp)
40003aad:	79 0c                	jns    40003abb <fstat+0xa7>
40003aaf:	8b 45 f8             	mov    -0x8(%ebp),%eax
40003ab2:	89 c2                	mov    %eax,%edx
40003ab4:	f7 da                	neg    %edx
40003ab6:	89 55 ec             	mov    %edx,-0x14(%ebp)
40003ab9:	eb 07                	jmp    40003ac2 <fstat+0xae>
40003abb:	c7 45 ec 00 00 00 00 	movl   $0x0,-0x14(%ebp)
40003ac2:	8b 45 ec             	mov    -0x14(%ebp),%eax
40003ac5:	a3 10 1c 01 40       	mov    %eax,0x40011c10
40003aca:	8b 45 f8             	mov    -0x8(%ebp),%eax
40003acd:	c1 f8 1f             	sar    $0x1f,%eax
40003ad0:	0b 45 f8             	or     -0x8(%ebp),%eax
40003ad3:	c9                   	leave  
40003ad4:	c3                   	ret    

40003ad5 <statvfs>:
40003ad5:	55                   	push   %ebp
40003ad6:	89 e5                	mov    %esp,%ebp
40003ad8:	83 ec 38             	sub    $0x38,%esp
40003adb:	c7 45 ec 00 00 00 00 	movl   $0x0,-0x14(%ebp)
40003ae2:	8b 45 08             	mov    0x8(%ebp),%eax
40003ae5:	89 04 24             	mov    %eax,(%esp)
40003ae8:	e8 51 ea ff ff       	call   4000253e <getabsolutepath>
40003aed:	89 45 f4             	mov    %eax,-0xc(%ebp)
40003af0:	c7 44 24 04 00 00 00 	movl   $0x0,0x4(%esp)
40003af7:	00 
40003af8:	8b 45 f4             	mov    -0xc(%ebp),%eax
40003afb:	89 04 24             	mov    %eax,(%esp)
40003afe:	e8 27 e8 ff ff       	call   4000232a <fsbypath>
40003b03:	89 45 f8             	mov    %eax,-0x8(%ebp)
40003b06:	83 7d f8 00          	cmpl   $0x0,-0x8(%ebp)
40003b0a:	0f 84 18 01 00 00    	je     40003c28 <statvfs+0x153>
40003b10:	c7 44 24 08 00 00 00 	movl   $0x0,0x8(%esp)
40003b17:	00 
40003b18:	c7 44 24 04 00 20 00 	movl   $0x2000,0x4(%esp)
40003b1f:	00 
40003b20:	c7 04 24 00 00 00 00 	movl   $0x0,(%esp)
40003b27:	e8 a0 50 00 00       	call   40008bcc <shmget>
40003b2c:	89 45 fc             	mov    %eax,-0x4(%ebp)
40003b2f:	c7 44 24 08 00 00 00 	movl   $0x0,0x8(%esp)
40003b36:	00 
40003b37:	c7 44 24 04 00 00 00 	movl   $0x0,0x4(%esp)
40003b3e:	00 
40003b3f:	8b 45 fc             	mov    -0x4(%ebp),%eax
40003b42:	89 04 24             	mov    %eax,(%esp)
40003b45:	e8 3e 51 00 00       	call   40008c88 <shmat>
40003b4a:	89 45 f0             	mov    %eax,-0x10(%ebp)
40003b4d:	83 7d f0 00          	cmpl   $0x0,-0x10(%ebp)
40003b51:	0f 84 c5 00 00 00    	je     40003c1c <statvfs+0x147>
40003b57:	8b 45 f8             	mov    -0x8(%ebp),%eax
40003b5a:	8b 00                	mov    (%eax),%eax
40003b5c:	89 44 24 08          	mov    %eax,0x8(%esp)
40003b60:	c7 44 24 04 80 e7 00 	movl   $0x4000e780,0x4(%esp)
40003b67:	40 
40003b68:	8d 45 e8             	lea    -0x18(%ebp),%eax
40003b6b:	89 04 24             	mov    %eax,(%esp)
40003b6e:	e8 4d e5 ff ff       	call   400020c0 <asprintf>
40003b73:	c7 44 24 08 2c 00 00 	movl   $0x2c,0x8(%esp)
40003b7a:	00 
40003b7b:	c7 44 24 04 00 00 00 	movl   $0x0,0x4(%esp)
40003b82:	00 
40003b83:	8b 45 0c             	mov    0xc(%ebp),%eax
40003b86:	89 04 24             	mov    %eax,(%esp)
40003b89:	e8 bb 6c 00 00       	call   4000a849 <memset>
40003b8e:	8b 55 f0             	mov    -0x10(%ebp),%edx
40003b91:	c7 44 24 08 00 20 00 	movl   $0x2000,0x8(%esp)
40003b98:	00 
40003b99:	8b 45 f4             	mov    -0xc(%ebp),%eax
40003b9c:	89 44 24 04          	mov    %eax,0x4(%esp)
40003ba0:	89 14 24             	mov    %edx,(%esp)
40003ba3:	e8 bc 6f 00 00       	call   4000ab64 <strncpy>
40003ba8:	8b 45 f8             	mov    -0x8(%ebp),%eax
40003bab:	8b 50 04             	mov    0x4(%eax),%edx
40003bae:	8b 4d e8             	mov    -0x18(%ebp),%ecx
40003bb1:	8b 45 fc             	mov    -0x4(%ebp),%eax
40003bb4:	89 44 24 0c          	mov    %eax,0xc(%esp)
40003bb8:	89 54 24 08          	mov    %edx,0x8(%esp)
40003bbc:	c7 44 24 04 00 00 00 	movl   $0x0,0x4(%esp)
40003bc3:	00 
40003bc4:	89 0c 24             	mov    %ecx,(%esp)
40003bc7:	e8 1f 88 00 00       	call   4000c3eb <rpc_call>
40003bcc:	89 45 ec             	mov    %eax,-0x14(%ebp)
40003bcf:	c7 44 24 08 2c 00 00 	movl   $0x2c,0x8(%esp)
40003bd6:	00 
40003bd7:	8b 45 f0             	mov    -0x10(%ebp),%eax
40003bda:	89 44 24 04          	mov    %eax,0x4(%esp)
40003bde:	8b 45 0c             	mov    0xc(%ebp),%eax
40003be1:	89 04 24             	mov    %eax,(%esp)
40003be4:	e8 83 6a 00 00       	call   4000a66c <memcpy>
40003be9:	8b 45 e8             	mov    -0x18(%ebp),%eax
40003bec:	89 04 24             	mov    %eax,(%esp)
40003bef:	e8 97 3d 00 00       	call   4000798b <free>
40003bf4:	8b 45 f0             	mov    -0x10(%ebp),%eax
40003bf7:	89 04 24             	mov    %eax,(%esp)
40003bfa:	e8 0c 51 00 00       	call   40008d0b <shmdt>
40003bff:	c7 44 24 08 00 00 00 	movl   $0x0,0x8(%esp)
40003c06:	00 
40003c07:	c7 44 24 04 01 00 00 	movl   $0x1,0x4(%esp)
40003c0e:	00 
40003c0f:	8b 45 fc             	mov    -0x4(%ebp),%eax
40003c12:	89 04 24             	mov    %eax,(%esp)
40003c15:	e8 61 51 00 00       	call   40008d7b <shmctl>
40003c1a:	eb 13                	jmp    40003c2f <statvfs+0x15a>
40003c1c:	a1 10 1c 01 40       	mov    0x40011c10,%eax
40003c21:	f7 d8                	neg    %eax
40003c23:	89 45 ec             	mov    %eax,-0x14(%ebp)
40003c26:	eb 07                	jmp    40003c2f <statvfs+0x15a>
40003c28:	c7 45 ec f8 ff ff ff 	movl   $0xfffffff8,-0x14(%ebp)
40003c2f:	8b 45 f4             	mov    -0xc(%ebp),%eax
40003c32:	89 04 24             	mov    %eax,(%esp)
40003c35:	e8 51 3d 00 00       	call   4000798b <free>
40003c3a:	83 7d ec 00          	cmpl   $0x0,-0x14(%ebp)
40003c3e:	79 0c                	jns    40003c4c <statvfs+0x177>
40003c40:	8b 45 ec             	mov    -0x14(%ebp),%eax
40003c43:	89 c2                	mov    %eax,%edx
40003c45:	f7 da                	neg    %edx
40003c47:	89 55 dc             	mov    %edx,-0x24(%ebp)
40003c4a:	eb 07                	jmp    40003c53 <statvfs+0x17e>
40003c4c:	c7 45 dc 00 00 00 00 	movl   $0x0,-0x24(%ebp)
40003c53:	8b 45 dc             	mov    -0x24(%ebp),%eax
40003c56:	a3 10 1c 01 40       	mov    %eax,0x40011c10
40003c5b:	8b 45 ec             	mov    -0x14(%ebp),%eax
40003c5e:	c1 f8 1f             	sar    $0x1f,%eax
40003c61:	0b 45 ec             	or     -0x14(%ebp),%eax
40003c64:	c9                   	leave  
40003c65:	c3                   	ret    

40003c66 <readlink>:
40003c66:	55                   	push   %ebp
40003c67:	89 e5                	mov    %esp,%ebp
40003c69:	83 ec 38             	sub    $0x38,%esp
40003c6c:	c7 45 ec 00 00 00 00 	movl   $0x0,-0x14(%ebp)
40003c73:	8b 45 08             	mov    0x8(%ebp),%eax
40003c76:	89 04 24             	mov    %eax,(%esp)
40003c79:	e8 c0 e8 ff ff       	call   4000253e <getabsolutepath>
40003c7e:	89 45 f4             	mov    %eax,-0xc(%ebp)
40003c81:	c7 44 24 04 00 00 00 	movl   $0x0,0x4(%esp)
40003c88:	00 
40003c89:	8b 45 f4             	mov    -0xc(%ebp),%eax
40003c8c:	89 04 24             	mov    %eax,(%esp)
40003c8f:	e8 96 e6 ff ff       	call   4000232a <fsbypath>
40003c94:	89 45 f8             	mov    %eax,-0x8(%ebp)
40003c97:	83 7d f8 00          	cmpl   $0x0,-0x8(%ebp)
40003c9b:	0f 84 03 01 00 00    	je     40003da4 <readlink+0x13e>
40003ca1:	c7 44 24 08 00 00 00 	movl   $0x0,0x8(%esp)
40003ca8:	00 
40003ca9:	c7 44 24 04 00 20 00 	movl   $0x2000,0x4(%esp)
40003cb0:	00 
40003cb1:	c7 04 24 00 00 00 00 	movl   $0x0,(%esp)
40003cb8:	e8 0f 4f 00 00       	call   40008bcc <shmget>
40003cbd:	89 45 fc             	mov    %eax,-0x4(%ebp)
40003cc0:	c7 44 24 08 00 00 00 	movl   $0x0,0x8(%esp)
40003cc7:	00 
40003cc8:	c7 44 24 04 00 00 00 	movl   $0x0,0x4(%esp)
40003ccf:	00 
40003cd0:	8b 45 fc             	mov    -0x4(%ebp),%eax
40003cd3:	89 04 24             	mov    %eax,(%esp)
40003cd6:	e8 ad 4f 00 00       	call   40008c88 <shmat>
40003cdb:	89 45 f0             	mov    %eax,-0x10(%ebp)
40003cde:	83 7d f0 00          	cmpl   $0x0,-0x10(%ebp)
40003ce2:	0f 84 b0 00 00 00    	je     40003d98 <readlink+0x132>
40003ce8:	8b 45 f8             	mov    -0x8(%ebp),%eax
40003ceb:	8b 00                	mov    (%eax),%eax
40003ced:	89 44 24 08          	mov    %eax,0x8(%esp)
40003cf1:	c7 44 24 04 8e e7 00 	movl   $0x4000e78e,0x4(%esp)
40003cf8:	40 
40003cf9:	8d 45 e8             	lea    -0x18(%ebp),%eax
40003cfc:	89 04 24             	mov    %eax,(%esp)
40003cff:	e8 bc e3 ff ff       	call   400020c0 <asprintf>
40003d04:	8b 55 f0             	mov    -0x10(%ebp),%edx
40003d07:	c7 44 24 08 00 20 00 	movl   $0x2000,0x8(%esp)
40003d0e:	00 
40003d0f:	8b 45 f4             	mov    -0xc(%ebp),%eax
40003d12:	89 44 24 04          	mov    %eax,0x4(%esp)
40003d16:	89 14 24             	mov    %edx,(%esp)
40003d19:	e8 46 6e 00 00       	call   4000ab64 <strncpy>
40003d1e:	8b 45 f8             	mov    -0x8(%ebp),%eax
40003d21:	8b 50 04             	mov    0x4(%eax),%edx
40003d24:	8b 4d e8             	mov    -0x18(%ebp),%ecx
40003d27:	8b 45 10             	mov    0x10(%ebp),%eax
40003d2a:	89 44 24 10          	mov    %eax,0x10(%esp)
40003d2e:	8b 45 fc             	mov    -0x4(%ebp),%eax
40003d31:	89 44 24 0c          	mov    %eax,0xc(%esp)
40003d35:	89 54 24 08          	mov    %edx,0x8(%esp)
40003d39:	c7 44 24 04 00 00 00 	movl   $0x0,0x4(%esp)
40003d40:	00 
40003d41:	89 0c 24             	mov    %ecx,(%esp)
40003d44:	e8 a2 86 00 00       	call   4000c3eb <rpc_call>
40003d49:	89 45 ec             	mov    %eax,-0x14(%ebp)
40003d4c:	8b 55 f0             	mov    -0x10(%ebp),%edx
40003d4f:	8b 45 10             	mov    0x10(%ebp),%eax
40003d52:	89 44 24 08          	mov    %eax,0x8(%esp)
40003d56:	89 54 24 04          	mov    %edx,0x4(%esp)
40003d5a:	8b 45 0c             	mov    0xc(%ebp),%eax
40003d5d:	89 04 24             	mov    %eax,(%esp)
40003d60:	e8 ff 6d 00 00       	call   4000ab64 <strncpy>
40003d65:	8b 45 e8             	mov    -0x18(%ebp),%eax
40003d68:	89 04 24             	mov    %eax,(%esp)
40003d6b:	e8 1b 3c 00 00       	call   4000798b <free>
40003d70:	8b 45 f0             	mov    -0x10(%ebp),%eax
40003d73:	89 04 24             	mov    %eax,(%esp)
40003d76:	e8 90 4f 00 00       	call   40008d0b <shmdt>
40003d7b:	c7 44 24 08 00 00 00 	movl   $0x0,0x8(%esp)
40003d82:	00 
40003d83:	c7 44 24 04 01 00 00 	movl   $0x1,0x4(%esp)
40003d8a:	00 
40003d8b:	8b 45 fc             	mov    -0x4(%ebp),%eax
40003d8e:	89 04 24             	mov    %eax,(%esp)
40003d91:	e8 e5 4f 00 00       	call   40008d7b <shmctl>
40003d96:	eb 13                	jmp    40003dab <readlink+0x145>
40003d98:	a1 10 1c 01 40       	mov    0x40011c10,%eax
40003d9d:	f7 d8                	neg    %eax
40003d9f:	89 45 ec             	mov    %eax,-0x14(%ebp)
40003da2:	eb 07                	jmp    40003dab <readlink+0x145>
40003da4:	c7 45 ec f8 ff ff ff 	movl   $0xfffffff8,-0x14(%ebp)
40003dab:	8b 45 f4             	mov    -0xc(%ebp),%eax
40003dae:	89 04 24             	mov    %eax,(%esp)
40003db1:	e8 d5 3b 00 00       	call   4000798b <free>
40003db6:	83 7d ec 00          	cmpl   $0x0,-0x14(%ebp)
40003dba:	79 0c                	jns    40003dc8 <readlink+0x162>
40003dbc:	8b 45 ec             	mov    -0x14(%ebp),%eax
40003dbf:	89 c2                	mov    %eax,%edx
40003dc1:	f7 da                	neg    %edx
40003dc3:	89 55 dc             	mov    %edx,-0x24(%ebp)
40003dc6:	eb 07                	jmp    40003dcf <readlink+0x169>
40003dc8:	c7 45 dc 00 00 00 00 	movl   $0x0,-0x24(%ebp)
40003dcf:	8b 45 dc             	mov    -0x24(%ebp),%eax
40003dd2:	a3 10 1c 01 40       	mov    %eax,0x40011c10
40003dd7:	8b 45 ec             	mov    -0x14(%ebp),%eax
40003dda:	c1 f8 1f             	sar    $0x1f,%eax
40003ddd:	0b 45 ec             	or     -0x14(%ebp),%eax
40003de0:	c9                   	leave  
40003de1:	c3                   	ret    

40003de2 <symlink>:
40003de2:	55                   	push   %ebp
40003de3:	89 e5                	mov    %esp,%ebp
40003de5:	83 ec 38             	sub    $0x38,%esp
40003de8:	8b 45 0c             	mov    0xc(%ebp),%eax
40003deb:	89 04 24             	mov    %eax,(%esp)
40003dee:	e8 4b e7 ff ff       	call   4000253e <getabsolutepath>
40003df3:	89 45 f4             	mov    %eax,-0xc(%ebp)
40003df6:	8b 45 08             	mov    0x8(%ebp),%eax
40003df9:	89 04 24             	mov    %eax,(%esp)
40003dfc:	e8 3d e7 ff ff       	call   4000253e <getabsolutepath>
40003e01:	89 45 f8             	mov    %eax,-0x8(%ebp)
40003e04:	c7 44 24 04 01 00 00 	movl   $0x1,0x4(%esp)
40003e0b:	00 
40003e0c:	8b 45 f4             	mov    -0xc(%ebp),%eax
40003e0f:	89 04 24             	mov    %eax,(%esp)
40003e12:	e8 13 e5 ff ff       	call   4000232a <fsbypath>
40003e17:	89 45 fc             	mov    %eax,-0x4(%ebp)
40003e1a:	83 7d fc 00          	cmpl   $0x0,-0x4(%ebp)
40003e1e:	74 57                	je     40003e77 <symlink+0x95>
40003e20:	8b 45 fc             	mov    -0x4(%ebp),%eax
40003e23:	8b 00                	mov    (%eax),%eax
40003e25:	89 44 24 08          	mov    %eax,0x8(%esp)
40003e29:	c7 44 24 04 9d e7 00 	movl   $0x4000e79d,0x4(%esp)
40003e30:	40 
40003e31:	8d 45 ec             	lea    -0x14(%ebp),%eax
40003e34:	89 04 24             	mov    %eax,(%esp)
40003e37:	e8 84 e2 ff ff       	call   400020c0 <asprintf>
40003e3c:	8b 45 fc             	mov    -0x4(%ebp),%eax
40003e3f:	8b 50 04             	mov    0x4(%eax),%edx
40003e42:	8b 4d ec             	mov    -0x14(%ebp),%ecx
40003e45:	8b 45 f8             	mov    -0x8(%ebp),%eax
40003e48:	89 44 24 10          	mov    %eax,0x10(%esp)
40003e4c:	8b 45 f4             	mov    -0xc(%ebp),%eax
40003e4f:	89 44 24 0c          	mov    %eax,0xc(%esp)
40003e53:	89 54 24 08          	mov    %edx,0x8(%esp)
40003e57:	c7 44 24 04 00 00 00 	movl   $0x0,0x4(%esp)
40003e5e:	00 
40003e5f:	89 0c 24             	mov    %ecx,(%esp)
40003e62:	e8 84 85 00 00       	call   4000c3eb <rpc_call>
40003e67:	89 45 f0             	mov    %eax,-0x10(%ebp)
40003e6a:	8b 45 ec             	mov    -0x14(%ebp),%eax
40003e6d:	89 04 24             	mov    %eax,(%esp)
40003e70:	e8 16 3b 00 00       	call   4000798b <free>
40003e75:	eb 07                	jmp    40003e7e <symlink+0x9c>
40003e77:	c7 45 f0 e4 ff ff ff 	movl   $0xffffffe4,-0x10(%ebp)
40003e7e:	83 7d f0 00          	cmpl   $0x0,-0x10(%ebp)
40003e82:	79 0c                	jns    40003e90 <symlink+0xae>
40003e84:	8b 45 f0             	mov    -0x10(%ebp),%eax
40003e87:	89 c2                	mov    %eax,%edx
40003e89:	f7 da                	neg    %edx
40003e8b:	89 55 dc             	mov    %edx,-0x24(%ebp)
40003e8e:	eb 07                	jmp    40003e97 <symlink+0xb5>
40003e90:	c7 45 dc 00 00 00 00 	movl   $0x0,-0x24(%ebp)
40003e97:	8b 45 dc             	mov    -0x24(%ebp),%eax
40003e9a:	a3 10 1c 01 40       	mov    %eax,0x40011c10
40003e9f:	8b 45 f0             	mov    -0x10(%ebp),%eax
40003ea2:	c1 f8 1f             	sar    $0x1f,%eax
40003ea5:	0b 45 f0             	or     -0x10(%ebp),%eax
40003ea8:	c9                   	leave  
40003ea9:	c3                   	ret    

40003eaa <link>:
40003eaa:	55                   	push   %ebp
40003eab:	89 e5                	mov    %esp,%ebp
40003ead:	83 ec 38             	sub    $0x38,%esp
40003eb0:	8b 45 08             	mov    0x8(%ebp),%eax
40003eb3:	89 04 24             	mov    %eax,(%esp)
40003eb6:	e8 83 e6 ff ff       	call   4000253e <getabsolutepath>
40003ebb:	89 45 f0             	mov    %eax,-0x10(%ebp)
40003ebe:	8b 45 0c             	mov    0xc(%ebp),%eax
40003ec1:	89 04 24             	mov    %eax,(%esp)
40003ec4:	e8 75 e6 ff ff       	call   4000253e <getabsolutepath>
40003ec9:	89 45 f4             	mov    %eax,-0xc(%ebp)
40003ecc:	c7 44 24 04 01 00 00 	movl   $0x1,0x4(%esp)
40003ed3:	00 
40003ed4:	8b 45 f0             	mov    -0x10(%ebp),%eax
40003ed7:	89 04 24             	mov    %eax,(%esp)
40003eda:	e8 4b e4 ff ff       	call   4000232a <fsbypath>
40003edf:	89 45 f8             	mov    %eax,-0x8(%ebp)
40003ee2:	c7 44 24 04 00 00 00 	movl   $0x0,0x4(%esp)
40003ee9:	00 
40003eea:	8b 45 f4             	mov    -0xc(%ebp),%eax
40003eed:	89 04 24             	mov    %eax,(%esp)
40003ef0:	e8 35 e4 ff ff       	call   4000232a <fsbypath>
40003ef5:	89 45 fc             	mov    %eax,-0x4(%ebp)
40003ef8:	83 7d f8 00          	cmpl   $0x0,-0x8(%ebp)
40003efc:	74 5f                	je     40003f5d <link+0xb3>
40003efe:	8b 45 f8             	mov    -0x8(%ebp),%eax
40003f01:	3b 45 fc             	cmp    -0x4(%ebp),%eax
40003f04:	75 57                	jne    40003f5d <link+0xb3>
40003f06:	8b 45 f8             	mov    -0x8(%ebp),%eax
40003f09:	8b 00                	mov    (%eax),%eax
40003f0b:	89 44 24 08          	mov    %eax,0x8(%esp)
40003f0f:	c7 44 24 04 ab e7 00 	movl   $0x4000e7ab,0x4(%esp)
40003f16:	40 
40003f17:	8d 45 e8             	lea    -0x18(%ebp),%eax
40003f1a:	89 04 24             	mov    %eax,(%esp)
40003f1d:	e8 9e e1 ff ff       	call   400020c0 <asprintf>
40003f22:	8b 45 f8             	mov    -0x8(%ebp),%eax
40003f25:	8b 50 04             	mov    0x4(%eax),%edx
40003f28:	8b 4d e8             	mov    -0x18(%ebp),%ecx
40003f2b:	8b 45 0c             	mov    0xc(%ebp),%eax
40003f2e:	89 44 24 10          	mov    %eax,0x10(%esp)
40003f32:	8b 45 08             	mov    0x8(%ebp),%eax
40003f35:	89 44 24 0c          	mov    %eax,0xc(%esp)
40003f39:	89 54 24 08          	mov    %edx,0x8(%esp)
40003f3d:	c7 44 24 04 00 00 00 	movl   $0x0,0x4(%esp)
40003f44:	00 
40003f45:	89 0c 24             	mov    %ecx,(%esp)
40003f48:	e8 9e 84 00 00       	call   4000c3eb <rpc_call>
40003f4d:	89 45 ec             	mov    %eax,-0x14(%ebp)
40003f50:	8b 45 e8             	mov    -0x18(%ebp),%eax
40003f53:	89 04 24             	mov    %eax,(%esp)
40003f56:	e8 30 3a 00 00       	call   4000798b <free>
40003f5b:	eb 07                	jmp    40003f64 <link+0xba>
40003f5d:	c7 45 ec e4 ff ff ff 	movl   $0xffffffe4,-0x14(%ebp)
40003f64:	83 7d ec 00          	cmpl   $0x0,-0x14(%ebp)
40003f68:	79 0c                	jns    40003f76 <link+0xcc>
40003f6a:	8b 45 ec             	mov    -0x14(%ebp),%eax
40003f6d:	89 c2                	mov    %eax,%edx
40003f6f:	f7 da                	neg    %edx
40003f71:	89 55 dc             	mov    %edx,-0x24(%ebp)
40003f74:	eb 07                	jmp    40003f7d <link+0xd3>
40003f76:	c7 45 dc 00 00 00 00 	movl   $0x0,-0x24(%ebp)
40003f7d:	8b 45 dc             	mov    -0x24(%ebp),%eax
40003f80:	a3 10 1c 01 40       	mov    %eax,0x40011c10
40003f85:	8b 45 ec             	mov    -0x14(%ebp),%eax
40003f88:	c1 f8 1f             	sar    $0x1f,%eax
40003f8b:	0b 45 ec             	or     -0x14(%ebp),%eax
40003f8e:	c9                   	leave  
40003f8f:	c3                   	ret    

40003f90 <chown>:
40003f90:	55                   	push   %ebp
40003f91:	89 e5                	mov    %esp,%ebp
40003f93:	83 ec 38             	sub    $0x38,%esp
40003f96:	8b 45 08             	mov    0x8(%ebp),%eax
40003f99:	89 04 24             	mov    %eax,(%esp)
40003f9c:	e8 9d e5 ff ff       	call   4000253e <getabsolutepath>
40003fa1:	89 45 f8             	mov    %eax,-0x8(%ebp)
40003fa4:	c7 44 24 04 00 00 00 	movl   $0x0,0x4(%esp)
40003fab:	00 
40003fac:	8b 45 f8             	mov    -0x8(%ebp),%eax
40003faf:	89 04 24             	mov    %eax,(%esp)
40003fb2:	e8 73 e3 ff ff       	call   4000232a <fsbypath>
40003fb7:	89 45 fc             	mov    %eax,-0x4(%ebp)
40003fba:	83 7d fc 00          	cmpl   $0x0,-0x4(%ebp)
40003fbe:	74 5e                	je     4000401e <chown+0x8e>
40003fc0:	8b 45 fc             	mov    -0x4(%ebp),%eax
40003fc3:	8b 00                	mov    (%eax),%eax
40003fc5:	89 44 24 08          	mov    %eax,0x8(%esp)
40003fc9:	c7 44 24 04 b6 e7 00 	movl   $0x4000e7b6,0x4(%esp)
40003fd0:	40 
40003fd1:	8d 45 f0             	lea    -0x10(%ebp),%eax
40003fd4:	89 04 24             	mov    %eax,(%esp)
40003fd7:	e8 e4 e0 ff ff       	call   400020c0 <asprintf>
40003fdc:	8b 45 fc             	mov    -0x4(%ebp),%eax
40003fdf:	8b 50 04             	mov    0x4(%eax),%edx
40003fe2:	8b 4d f0             	mov    -0x10(%ebp),%ecx
40003fe5:	8b 45 10             	mov    0x10(%ebp),%eax
40003fe8:	89 44 24 14          	mov    %eax,0x14(%esp)
40003fec:	8b 45 0c             	mov    0xc(%ebp),%eax
40003fef:	89 44 24 10          	mov    %eax,0x10(%esp)
40003ff3:	8b 45 f8             	mov    -0x8(%ebp),%eax
40003ff6:	89 44 24 0c          	mov    %eax,0xc(%esp)
40003ffa:	89 54 24 08          	mov    %edx,0x8(%esp)
40003ffe:	c7 44 24 04 00 00 00 	movl   $0x0,0x4(%esp)
40004005:	00 
40004006:	89 0c 24             	mov    %ecx,(%esp)
40004009:	e8 dd 83 00 00       	call   4000c3eb <rpc_call>
4000400e:	89 45 f4             	mov    %eax,-0xc(%ebp)
40004011:	8b 45 f0             	mov    -0x10(%ebp),%eax
40004014:	89 04 24             	mov    %eax,(%esp)
40004017:	e8 6f 39 00 00       	call   4000798b <free>
4000401c:	eb 07                	jmp    40004025 <chown+0x95>
4000401e:	c7 45 f4 e4 ff ff ff 	movl   $0xffffffe4,-0xc(%ebp)
40004025:	8b 45 f8             	mov    -0x8(%ebp),%eax
40004028:	89 04 24             	mov    %eax,(%esp)
4000402b:	e8 5b 39 00 00       	call   4000798b <free>
40004030:	83 7d f4 00          	cmpl   $0x0,-0xc(%ebp)
40004034:	79 0c                	jns    40004042 <chown+0xb2>
40004036:	8b 45 f4             	mov    -0xc(%ebp),%eax
40004039:	89 c2                	mov    %eax,%edx
4000403b:	f7 da                	neg    %edx
4000403d:	89 55 ec             	mov    %edx,-0x14(%ebp)
40004040:	eb 07                	jmp    40004049 <chown+0xb9>
40004042:	c7 45 ec 00 00 00 00 	movl   $0x0,-0x14(%ebp)
40004049:	8b 45 ec             	mov    -0x14(%ebp),%eax
4000404c:	a3 10 1c 01 40       	mov    %eax,0x40011c10
40004051:	8b 45 f4             	mov    -0xc(%ebp),%eax
40004054:	c1 f8 1f             	sar    $0x1f,%eax
40004057:	0b 45 f4             	or     -0xc(%ebp),%eax
4000405a:	c9                   	leave  
4000405b:	c3                   	ret    

4000405c <fchown>:
4000405c:	55                   	push   %ebp
4000405d:	89 e5                	mov    %esp,%ebp
4000405f:	83 ec 28             	sub    $0x28,%esp
40004062:	8b 45 08             	mov    0x8(%ebp),%eax
40004065:	89 04 24             	mov    %eax,(%esp)
40004068:	e8 8b e4 ff ff       	call   400024f8 <filebyfh>
4000406d:	89 45 fc             	mov    %eax,-0x4(%ebp)
40004070:	83 7d fc 00          	cmpl   $0x0,-0x4(%ebp)
40004074:	74 21                	je     40004097 <fchown+0x3b>
40004076:	8b 45 fc             	mov    -0x4(%ebp),%eax
40004079:	8b 50 18             	mov    0x18(%eax),%edx
4000407c:	8b 45 10             	mov    0x10(%ebp),%eax
4000407f:	89 44 24 08          	mov    %eax,0x8(%esp)
40004083:	8b 45 0c             	mov    0xc(%ebp),%eax
40004086:	89 44 24 04          	mov    %eax,0x4(%esp)
4000408a:	89 14 24             	mov    %edx,(%esp)
4000408d:	e8 fe fe ff ff       	call   40003f90 <chown>
40004092:	89 45 f8             	mov    %eax,-0x8(%ebp)
40004095:	eb 07                	jmp    4000409e <fchown+0x42>
40004097:	c7 45 f8 f8 ff ff ff 	movl   $0xfffffff8,-0x8(%ebp)
4000409e:	83 7d f8 00          	cmpl   $0x0,-0x8(%ebp)
400040a2:	79 0c                	jns    400040b0 <fchown+0x54>
400040a4:	8b 45 f8             	mov    -0x8(%ebp),%eax
400040a7:	89 c2                	mov    %eax,%edx
400040a9:	f7 da                	neg    %edx
400040ab:	89 55 ec             	mov    %edx,-0x14(%ebp)
400040ae:	eb 07                	jmp    400040b7 <fchown+0x5b>
400040b0:	c7 45 ec 00 00 00 00 	movl   $0x0,-0x14(%ebp)
400040b7:	8b 45 ec             	mov    -0x14(%ebp),%eax
400040ba:	a3 10 1c 01 40       	mov    %eax,0x40011c10
400040bf:	8b 45 f8             	mov    -0x8(%ebp),%eax
400040c2:	c1 f8 1f             	sar    $0x1f,%eax
400040c5:	0b 45 f8             	or     -0x8(%ebp),%eax
400040c8:	c9                   	leave  
400040c9:	c3                   	ret    

400040ca <chmod>:
400040ca:	55                   	push   %ebp
400040cb:	89 e5                	mov    %esp,%ebp
400040cd:	83 ec 28             	sub    $0x28,%esp
400040d0:	8b 45 08             	mov    0x8(%ebp),%eax
400040d3:	89 04 24             	mov    %eax,(%esp)
400040d6:	e8 63 e4 ff ff       	call   4000253e <getabsolutepath>
400040db:	89 45 f8             	mov    %eax,-0x8(%ebp)
400040de:	c7 44 24 04 00 00 00 	movl   $0x0,0x4(%esp)
400040e5:	00 
400040e6:	8b 45 f8             	mov    -0x8(%ebp),%eax
400040e9:	89 04 24             	mov    %eax,(%esp)
400040ec:	e8 39 e2 ff ff       	call   4000232a <fsbypath>
400040f1:	89 45 fc             	mov    %eax,-0x4(%ebp)
400040f4:	83 7d fc 00          	cmpl   $0x0,-0x4(%ebp)
400040f8:	74 57                	je     40004151 <chmod+0x87>
400040fa:	8b 45 fc             	mov    -0x4(%ebp),%eax
400040fd:	8b 00                	mov    (%eax),%eax
400040ff:	89 44 24 08          	mov    %eax,0x8(%esp)
40004103:	c7 44 24 04 c2 e7 00 	movl   $0x4000e7c2,0x4(%esp)
4000410a:	40 
4000410b:	8d 45 f0             	lea    -0x10(%ebp),%eax
4000410e:	89 04 24             	mov    %eax,(%esp)
40004111:	e8 aa df ff ff       	call   400020c0 <asprintf>
40004116:	8b 45 fc             	mov    -0x4(%ebp),%eax
40004119:	8b 50 04             	mov    0x4(%eax),%edx
4000411c:	8b 4d f0             	mov    -0x10(%ebp),%ecx
4000411f:	8b 45 0c             	mov    0xc(%ebp),%eax
40004122:	89 44 24 10          	mov    %eax,0x10(%esp)
40004126:	8b 45 f8             	mov    -0x8(%ebp),%eax
40004129:	89 44 24 0c          	mov    %eax,0xc(%esp)
4000412d:	89 54 24 08          	mov    %edx,0x8(%esp)
40004131:	c7 44 24 04 00 00 00 	movl   $0x0,0x4(%esp)
40004138:	00 
40004139:	89 0c 24             	mov    %ecx,(%esp)
4000413c:	e8 aa 82 00 00       	call   4000c3eb <rpc_call>
40004141:	89 45 f4             	mov    %eax,-0xc(%ebp)
40004144:	8b 45 f0             	mov    -0x10(%ebp),%eax
40004147:	89 04 24             	mov    %eax,(%esp)
4000414a:	e8 3c 38 00 00       	call   4000798b <free>
4000414f:	eb 07                	jmp    40004158 <chmod+0x8e>
40004151:	c7 45 f4 e4 ff ff ff 	movl   $0xffffffe4,-0xc(%ebp)
40004158:	8b 45 f8             	mov    -0x8(%ebp),%eax
4000415b:	89 04 24             	mov    %eax,(%esp)
4000415e:	e8 28 38 00 00       	call   4000798b <free>
40004163:	83 7d f4 00          	cmpl   $0x0,-0xc(%ebp)
40004167:	79 0c                	jns    40004175 <chmod+0xab>
40004169:	8b 45 f4             	mov    -0xc(%ebp),%eax
4000416c:	89 c2                	mov    %eax,%edx
4000416e:	f7 da                	neg    %edx
40004170:	89 55 ec             	mov    %edx,-0x14(%ebp)
40004173:	eb 07                	jmp    4000417c <chmod+0xb2>
40004175:	c7 45 ec 00 00 00 00 	movl   $0x0,-0x14(%ebp)
4000417c:	8b 45 ec             	mov    -0x14(%ebp),%eax
4000417f:	a3 10 1c 01 40       	mov    %eax,0x40011c10
40004184:	8b 45 f4             	mov    -0xc(%ebp),%eax
40004187:	c1 f8 1f             	sar    $0x1f,%eax
4000418a:	0b 45 f4             	or     -0xc(%ebp),%eax
4000418d:	c9                   	leave  
4000418e:	c3                   	ret    

4000418f <fchmod>:
4000418f:	55                   	push   %ebp
40004190:	89 e5                	mov    %esp,%ebp
40004192:	83 ec 28             	sub    $0x28,%esp
40004195:	8b 45 08             	mov    0x8(%ebp),%eax
40004198:	89 04 24             	mov    %eax,(%esp)
4000419b:	e8 58 e3 ff ff       	call   400024f8 <filebyfh>
400041a0:	89 45 fc             	mov    %eax,-0x4(%ebp)
400041a3:	83 7d fc 00          	cmpl   $0x0,-0x4(%ebp)
400041a7:	74 29                	je     400041d2 <fchmod+0x43>
400041a9:	8b 45 fc             	mov    -0x4(%ebp),%eax
400041ac:	8b 50 18             	mov    0x18(%eax),%edx
400041af:	8b 45 0c             	mov    0xc(%ebp),%eax
400041b2:	89 44 24 04          	mov    %eax,0x4(%esp)
400041b6:	89 14 24             	mov    %edx,(%esp)
400041b9:	e8 0c ff ff ff       	call   400040ca <chmod>
400041be:	89 45 f8             	mov    %eax,-0x8(%ebp)
400041c1:	83 7d f8 00          	cmpl   $0x0,-0x8(%ebp)
400041c5:	75 12                	jne    400041d9 <fchmod+0x4a>
400041c7:	8b 55 fc             	mov    -0x4(%ebp),%edx
400041ca:	8b 45 0c             	mov    0xc(%ebp),%eax
400041cd:	89 42 0c             	mov    %eax,0xc(%edx)
400041d0:	eb 07                	jmp    400041d9 <fchmod+0x4a>
400041d2:	c7 45 f8 f8 ff ff ff 	movl   $0xfffffff8,-0x8(%ebp)
400041d9:	83 7d f8 00          	cmpl   $0x0,-0x8(%ebp)
400041dd:	79 0c                	jns    400041eb <fchmod+0x5c>
400041df:	8b 45 f8             	mov    -0x8(%ebp),%eax
400041e2:	89 c2                	mov    %eax,%edx
400041e4:	f7 da                	neg    %edx
400041e6:	89 55 ec             	mov    %edx,-0x14(%ebp)
400041e9:	eb 07                	jmp    400041f2 <fchmod+0x63>
400041eb:	c7 45 ec 00 00 00 00 	movl   $0x0,-0x14(%ebp)
400041f2:	8b 45 ec             	mov    -0x14(%ebp),%eax
400041f5:	a3 10 1c 01 40       	mov    %eax,0x40011c10
400041fa:	8b 45 f8             	mov    -0x8(%ebp),%eax
400041fd:	c1 f8 1f             	sar    $0x1f,%eax
40004200:	0b 45 f8             	or     -0x8(%ebp),%eax
40004203:	c9                   	leave  
40004204:	c3                   	ret    

40004205 <utime>:
40004205:	55                   	push   %ebp
40004206:	89 e5                	mov    %esp,%ebp
40004208:	83 ec 38             	sub    $0x38,%esp
4000420b:	c7 45 ec 00 00 00 00 	movl   $0x0,-0x14(%ebp)
40004212:	8b 45 08             	mov    0x8(%ebp),%eax
40004215:	89 04 24             	mov    %eax,(%esp)
40004218:	e8 21 e3 ff ff       	call   4000253e <getabsolutepath>
4000421d:	89 45 f4             	mov    %eax,-0xc(%ebp)
40004220:	c7 44 24 04 00 00 00 	movl   $0x0,0x4(%esp)
40004227:	00 
40004228:	8b 45 f4             	mov    -0xc(%ebp),%eax
4000422b:	89 04 24             	mov    %eax,(%esp)
4000422e:	e8 f7 e0 ff ff       	call   4000232a <fsbypath>
40004233:	89 45 f8             	mov    %eax,-0x8(%ebp)
40004236:	83 7d f8 00          	cmpl   $0x0,-0x8(%ebp)
4000423a:	0f 84 0d 01 00 00    	je     4000434d <utime+0x148>
40004240:	c7 44 24 08 00 00 00 	movl   $0x0,0x8(%esp)
40004247:	00 
40004248:	c7 44 24 04 00 20 00 	movl   $0x2000,0x4(%esp)
4000424f:	00 
40004250:	c7 04 24 00 00 00 00 	movl   $0x0,(%esp)
40004257:	e8 70 49 00 00       	call   40008bcc <shmget>
4000425c:	89 45 fc             	mov    %eax,-0x4(%ebp)
4000425f:	c7 44 24 08 00 00 00 	movl   $0x0,0x8(%esp)
40004266:	00 
40004267:	c7 44 24 04 00 00 00 	movl   $0x0,0x4(%esp)
4000426e:	00 
4000426f:	8b 45 fc             	mov    -0x4(%ebp),%eax
40004272:	89 04 24             	mov    %eax,(%esp)
40004275:	e8 0e 4a 00 00       	call   40008c88 <shmat>
4000427a:	89 45 f0             	mov    %eax,-0x10(%ebp)
4000427d:	83 7d f0 00          	cmpl   $0x0,-0x10(%ebp)
40004281:	0f 84 ba 00 00 00    	je     40004341 <utime+0x13c>
40004287:	8b 45 f8             	mov    -0x8(%ebp),%eax
4000428a:	8b 00                	mov    (%eax),%eax
4000428c:	89 44 24 08          	mov    %eax,0x8(%esp)
40004290:	c7 44 24 04 ce e7 00 	movl   $0x4000e7ce,0x4(%esp)
40004297:	40 
40004298:	8d 45 e8             	lea    -0x18(%ebp),%eax
4000429b:	89 04 24             	mov    %eax,(%esp)
4000429e:	e8 1d de ff ff       	call   400020c0 <asprintf>
400042a3:	8b 55 f0             	mov    -0x10(%ebp),%edx
400042a6:	c7 44 24 08 00 20 00 	movl   $0x2000,0x8(%esp)
400042ad:	00 
400042ae:	8b 45 08             	mov    0x8(%ebp),%eax
400042b1:	89 44 24 04          	mov    %eax,0x4(%esp)
400042b5:	89 14 24             	mov    %edx,(%esp)
400042b8:	e8 a7 68 00 00       	call   4000ab64 <strncpy>
400042bd:	8b 45 f0             	mov    -0x10(%ebp),%eax
400042c0:	89 04 24             	mov    %eax,(%esp)
400042c3:	e8 5c 67 00 00       	call   4000aa24 <strlen>
400042c8:	83 c0 01             	add    $0x1,%eax
400042cb:	89 c2                	mov    %eax,%edx
400042cd:	03 55 f0             	add    -0x10(%ebp),%edx
400042d0:	c7 44 24 08 08 00 00 	movl   $0x8,0x8(%esp)
400042d7:	00 
400042d8:	8b 45 0c             	mov    0xc(%ebp),%eax
400042db:	89 44 24 04          	mov    %eax,0x4(%esp)
400042df:	89 14 24             	mov    %edx,(%esp)
400042e2:	e8 85 63 00 00       	call   4000a66c <memcpy>
400042e7:	8b 45 f8             	mov    -0x8(%ebp),%eax
400042ea:	8b 50 04             	mov    0x4(%eax),%edx
400042ed:	8b 4d e8             	mov    -0x18(%ebp),%ecx
400042f0:	8b 45 fc             	mov    -0x4(%ebp),%eax
400042f3:	89 44 24 0c          	mov    %eax,0xc(%esp)
400042f7:	89 54 24 08          	mov    %edx,0x8(%esp)
400042fb:	c7 44 24 04 00 00 00 	movl   $0x0,0x4(%esp)
40004302:	00 
40004303:	89 0c 24             	mov    %ecx,(%esp)
40004306:	e8 e0 80 00 00       	call   4000c3eb <rpc_call>
4000430b:	89 45 ec             	mov    %eax,-0x14(%ebp)
4000430e:	8b 45 e8             	mov    -0x18(%ebp),%eax
40004311:	89 04 24             	mov    %eax,(%esp)
40004314:	e8 72 36 00 00       	call   4000798b <free>
40004319:	8b 45 f0             	mov    -0x10(%ebp),%eax
4000431c:	89 04 24             	mov    %eax,(%esp)
4000431f:	e8 e7 49 00 00       	call   40008d0b <shmdt>
40004324:	c7 44 24 08 00 00 00 	movl   $0x0,0x8(%esp)
4000432b:	00 
4000432c:	c7 44 24 04 01 00 00 	movl   $0x1,0x4(%esp)
40004333:	00 
40004334:	8b 45 fc             	mov    -0x4(%ebp),%eax
40004337:	89 04 24             	mov    %eax,(%esp)
4000433a:	e8 3c 4a 00 00       	call   40008d7b <shmctl>
4000433f:	eb 13                	jmp    40004354 <utime+0x14f>
40004341:	a1 10 1c 01 40       	mov    0x40011c10,%eax
40004346:	f7 d8                	neg    %eax
40004348:	89 45 ec             	mov    %eax,-0x14(%ebp)
4000434b:	eb 07                	jmp    40004354 <utime+0x14f>
4000434d:	c7 45 ec f8 ff ff ff 	movl   $0xfffffff8,-0x14(%ebp)
40004354:	8b 45 f4             	mov    -0xc(%ebp),%eax
40004357:	89 04 24             	mov    %eax,(%esp)
4000435a:	e8 2c 36 00 00       	call   4000798b <free>
4000435f:	83 7d ec 00          	cmpl   $0x0,-0x14(%ebp)
40004363:	79 0c                	jns    40004371 <utime+0x16c>
40004365:	8b 45 ec             	mov    -0x14(%ebp),%eax
40004368:	89 c2                	mov    %eax,%edx
4000436a:	f7 da                	neg    %edx
4000436c:	89 55 dc             	mov    %edx,-0x24(%ebp)
4000436f:	eb 07                	jmp    40004378 <utime+0x173>
40004371:	c7 45 dc 00 00 00 00 	movl   $0x0,-0x24(%ebp)
40004378:	8b 45 dc             	mov    -0x24(%ebp),%eax
4000437b:	a3 10 1c 01 40       	mov    %eax,0x40011c10
40004380:	8b 45 ec             	mov    -0x14(%ebp),%eax
40004383:	c1 f8 1f             	sar    $0x1f,%eax
40004386:	0b 45 ec             	or     -0x14(%ebp),%eax
40004389:	c9                   	leave  
4000438a:	c3                   	ret    

4000438b <umask>:
4000438b:	55                   	push   %ebp
4000438c:	89 e5                	mov    %esp,%ebp
4000438e:	83 ec 10             	sub    $0x10,%esp
40004391:	a1 3c 05 01 40       	mov    0x4001053c,%eax
40004396:	89 45 fc             	mov    %eax,-0x4(%ebp)
40004399:	8b 45 08             	mov    0x8(%ebp),%eax
4000439c:	25 ff 01 00 00       	and    $0x1ff,%eax
400043a1:	a3 3c 05 01 40       	mov    %eax,0x4001053c
400043a6:	8b 45 fc             	mov    -0x4(%ebp),%eax
400043a9:	c9                   	leave  
400043aa:	c3                   	ret    

400043ab <socket>:
400043ab:	55                   	push   %ebp
400043ac:	89 e5                	mov    %esp,%ebp
400043ae:	b8 ff ff ff ff       	mov    $0xffffffff,%eax
400043b3:	5d                   	pop    %ebp
400043b4:	c3                   	ret    
400043b5:	90                   	nop    
400043b6:	90                   	nop    
400043b7:	90                   	nop    

400043b8 <fprintf>:
400043b8:	55                   	push   %ebp
400043b9:	89 e5                	mov    %esp,%ebp
400043bb:	83 ec 28             	sub    $0x28,%esp
400043be:	8d 45 10             	lea    0x10(%ebp),%eax
400043c1:	89 45 f8             	mov    %eax,-0x8(%ebp)
400043c4:	8b 45 f8             	mov    -0x8(%ebp),%eax
400043c7:	89 44 24 08          	mov    %eax,0x8(%esp)
400043cb:	8b 45 0c             	mov    0xc(%ebp),%eax
400043ce:	89 44 24 04          	mov    %eax,0x4(%esp)
400043d2:	8b 45 08             	mov    0x8(%ebp),%eax
400043d5:	89 04 24             	mov    %eax,(%esp)
400043d8:	e8 d7 55 00 00       	call   400099b4 <vfprintf>
400043dd:	89 45 fc             	mov    %eax,-0x4(%ebp)
400043e0:	8b 45 fc             	mov    -0x4(%ebp),%eax
400043e3:	c9                   	leave  
400043e4:	c3                   	ret    
400043e5:	90                   	nop    
400043e6:	90                   	nop    
400043e7:	90                   	nop    

400043e8 <segment_holding>:
400043e8:	55                   	push   %ebp
400043e9:	89 e5                	mov    %esp,%ebp
400043eb:	83 ec 14             	sub    $0x14,%esp
400043ee:	8b 45 08             	mov    0x8(%ebp),%eax
400043f1:	05 b8 01 00 00       	add    $0x1b8,%eax
400043f6:	89 45 fc             	mov    %eax,-0x4(%ebp)
400043f9:	8b 45 fc             	mov    -0x4(%ebp),%eax
400043fc:	8b 00                	mov    (%eax),%eax
400043fe:	3b 45 0c             	cmp    0xc(%ebp),%eax
40004401:	77 1b                	ja     4000441e <segment_holding+0x36>
40004403:	8b 45 fc             	mov    -0x4(%ebp),%eax
40004406:	8b 10                	mov    (%eax),%edx
40004408:	8b 45 fc             	mov    -0x4(%ebp),%eax
4000440b:	8b 40 04             	mov    0x4(%eax),%eax
4000440e:	8d 04 02             	lea    (%edx,%eax,1),%eax
40004411:	3b 45 0c             	cmp    0xc(%ebp),%eax
40004414:	76 08                	jbe    4000441e <segment_holding+0x36>
40004416:	8b 45 fc             	mov    -0x4(%ebp),%eax
40004419:	89 45 ec             	mov    %eax,-0x14(%ebp)
4000441c:	eb 16                	jmp    40004434 <segment_holding+0x4c>
4000441e:	8b 45 fc             	mov    -0x4(%ebp),%eax
40004421:	8b 40 08             	mov    0x8(%eax),%eax
40004424:	89 45 fc             	mov    %eax,-0x4(%ebp)
40004427:	83 7d fc 00          	cmpl   $0x0,-0x4(%ebp)
4000442b:	75 cc                	jne    400043f9 <segment_holding+0x11>
4000442d:	c7 45 ec 00 00 00 00 	movl   $0x0,-0x14(%ebp)
40004434:	8b 45 ec             	mov    -0x14(%ebp),%eax
40004437:	c9                   	leave  
40004438:	c3                   	ret    

40004439 <has_segment_link>:
40004439:	55                   	push   %ebp
4000443a:	89 e5                	mov    %esp,%ebp
4000443c:	83 ec 14             	sub    $0x14,%esp
4000443f:	8b 45 08             	mov    0x8(%ebp),%eax
40004442:	05 b8 01 00 00       	add    $0x1b8,%eax
40004447:	89 45 fc             	mov    %eax,-0x4(%ebp)
4000444a:	8b 45 0c             	mov    0xc(%ebp),%eax
4000444d:	8b 10                	mov    (%eax),%edx
4000444f:	8b 45 fc             	mov    -0x4(%ebp),%eax
40004452:	39 c2                	cmp    %eax,%edx
40004454:	77 1d                	ja     40004473 <has_segment_link+0x3a>
40004456:	8b 45 0c             	mov    0xc(%ebp),%eax
40004459:	8b 10                	mov    (%eax),%edx
4000445b:	8b 45 0c             	mov    0xc(%ebp),%eax
4000445e:	8b 40 04             	mov    0x4(%eax),%eax
40004461:	01 c2                	add    %eax,%edx
40004463:	8b 45 fc             	mov    -0x4(%ebp),%eax
40004466:	39 c2                	cmp    %eax,%edx
40004468:	76 09                	jbe    40004473 <has_segment_link+0x3a>
4000446a:	c7 45 ec 01 00 00 00 	movl   $0x1,-0x14(%ebp)
40004471:	eb 16                	jmp    40004489 <has_segment_link+0x50>
40004473:	8b 45 fc             	mov    -0x4(%ebp),%eax
40004476:	8b 40 08             	mov    0x8(%eax),%eax
40004479:	89 45 fc             	mov    %eax,-0x4(%ebp)
4000447c:	83 7d fc 00          	cmpl   $0x0,-0x4(%ebp)
40004480:	75 c8                	jne    4000444a <has_segment_link+0x11>
40004482:	c7 45 ec 00 00 00 00 	movl   $0x0,-0x14(%ebp)
40004489:	8b 45 ec             	mov    -0x14(%ebp),%eax
4000448c:	c9                   	leave  
4000448d:	c3                   	ret    

4000448e <init_mparams>:
4000448e:	55                   	push   %ebp
4000448f:	89 e5                	mov    %esp,%ebp
40004491:	83 ec 18             	sub    $0x18,%esp
40004494:	a1 44 05 01 40       	mov    0x40010544,%eax
40004499:	85 c0                	test   %eax,%eax
4000449b:	0f 85 81 00 00 00    	jne    40004522 <init_mparams+0x94>
400044a1:	c7 05 4c 05 01 40 ff 	movl   $0xffffffff,0x4001054c
400044a8:	ff ff ff 
400044ab:	c7 05 50 05 01 40 ff 	movl   $0xffffffff,0x40010550
400044b2:	ff ff ff 
400044b5:	c7 05 54 05 01 40 00 	movl   $0x0,0x40010554
400044bc:	00 00 00 
400044bf:	c7 45 fc 58 58 58 58 	movl   $0x58585858,-0x4(%ebp)
400044c6:	a1 40 05 01 40       	mov    0x40010540,%eax
400044cb:	85 c0                	test   %eax,%eax
400044cd:	75 12                	jne    400044e1 <init_mparams+0x53>
400044cf:	8b 45 fc             	mov    -0x4(%ebp),%eax
400044d2:	a3 40 05 01 40       	mov    %eax,0x40010540
400044d7:	a1 54 05 01 40       	mov    0x40010554,%eax
400044dc:	a3 14 07 01 40       	mov    %eax,0x40010714
400044e1:	c7 05 44 05 01 40 00 	movl   $0x1000,0x40010544
400044e8:	10 00 00 
400044eb:	a1 44 05 01 40       	mov    0x40010544,%eax
400044f0:	a3 48 05 01 40       	mov    %eax,0x40010548
400044f5:	8b 15 48 05 01 40    	mov    0x40010548,%edx
400044fb:	a1 48 05 01 40       	mov    0x40010548,%eax
40004500:	83 e8 01             	sub    $0x1,%eax
40004503:	21 d0                	and    %edx,%eax
40004505:	85 c0                	test   %eax,%eax
40004507:	75 14                	jne    4000451d <init_mparams+0x8f>
40004509:	8b 15 44 05 01 40    	mov    0x40010544,%edx
4000450f:	a1 44 05 01 40       	mov    0x40010544,%eax
40004514:	83 e8 01             	sub    $0x1,%eax
40004517:	21 d0                	and    %edx,%eax
40004519:	85 c0                	test   %eax,%eax
4000451b:	74 05                	je     40004522 <init_mparams+0x94>
4000451d:	e8 ae 85 00 00       	call   4000cad0 <abort>
40004522:	b8 00 00 00 00       	mov    $0x0,%eax
40004527:	c9                   	leave  
40004528:	c3                   	ret    

40004529 <change_mparam>:
40004529:	55                   	push   %ebp
4000452a:	89 e5                	mov    %esp,%ebp
4000452c:	83 ec 18             	sub    $0x18,%esp
4000452f:	8b 45 0c             	mov    0xc(%ebp),%eax
40004532:	89 45 fc             	mov    %eax,-0x4(%ebp)
40004535:	e8 54 ff ff ff       	call   4000448e <init_mparams>
4000453a:	8b 45 08             	mov    0x8(%ebp),%eax
4000453d:	89 45 e8             	mov    %eax,-0x18(%ebp)
40004540:	83 7d e8 fe          	cmpl   $0xfffffffe,-0x18(%ebp)
40004544:	74 1f                	je     40004565 <change_mparam+0x3c>
40004546:	83 7d e8 ff          	cmpl   $0xffffffff,-0x18(%ebp)
4000454a:	74 08                	je     40004554 <change_mparam+0x2b>
4000454c:	83 7d e8 fd          	cmpl   $0xfffffffd,-0x18(%ebp)
40004550:	74 44                	je     40004596 <change_mparam+0x6d>
40004552:	eb 53                	jmp    400045a7 <change_mparam+0x7e>
40004554:	8b 45 fc             	mov    -0x4(%ebp),%eax
40004557:	a3 50 05 01 40       	mov    %eax,0x40010550
4000455c:	c7 45 ec 01 00 00 00 	movl   $0x1,-0x14(%ebp)
40004563:	eb 49                	jmp    400045ae <change_mparam+0x85>
40004565:	a1 44 05 01 40       	mov    0x40010544,%eax
4000456a:	3b 45 fc             	cmp    -0x4(%ebp),%eax
4000456d:	77 1e                	ja     4000458d <change_mparam+0x64>
4000456f:	8b 45 fc             	mov    -0x4(%ebp),%eax
40004572:	83 e8 01             	sub    $0x1,%eax
40004575:	23 45 fc             	and    -0x4(%ebp),%eax
40004578:	85 c0                	test   %eax,%eax
4000457a:	75 11                	jne    4000458d <change_mparam+0x64>
4000457c:	8b 45 fc             	mov    -0x4(%ebp),%eax
4000457f:	a3 48 05 01 40       	mov    %eax,0x40010548
40004584:	c7 45 ec 01 00 00 00 	movl   $0x1,-0x14(%ebp)
4000458b:	eb 21                	jmp    400045ae <change_mparam+0x85>
4000458d:	c7 45 ec 00 00 00 00 	movl   $0x0,-0x14(%ebp)
40004594:	eb 18                	jmp    400045ae <change_mparam+0x85>
40004596:	8b 45 fc             	mov    -0x4(%ebp),%eax
40004599:	a3 4c 05 01 40       	mov    %eax,0x4001054c
4000459e:	c7 45 ec 01 00 00 00 	movl   $0x1,-0x14(%ebp)
400045a5:	eb 07                	jmp    400045ae <change_mparam+0x85>
400045a7:	c7 45 ec 00 00 00 00 	movl   $0x0,-0x14(%ebp)
400045ae:	8b 45 ec             	mov    -0x14(%ebp),%eax
400045b1:	c9                   	leave  
400045b2:	c3                   	ret    

400045b3 <internal_mallinfo>:
400045b3:	55                   	push   %ebp
400045b4:	89 e5                	mov    %esp,%ebp
400045b6:	57                   	push   %edi
400045b7:	83 ec 54             	sub    $0x54,%esp
400045ba:	8d 45 bc             	lea    -0x44(%ebp),%eax
400045bd:	89 45 b0             	mov    %eax,-0x50(%ebp)
400045c0:	c7 45 ac 00 00 00 00 	movl   $0x0,-0x54(%ebp)
400045c7:	b8 28 00 00 00       	mov    $0x28,%eax
400045cc:	83 f8 04             	cmp    $0x4,%eax
400045cf:	72 12                	jb     400045e3 <internal_mallinfo+0x30>
400045d1:	c7 45 a8 0a 00 00 00 	movl   $0xa,-0x58(%ebp)
400045d8:	8b 7d b0             	mov    -0x50(%ebp),%edi
400045db:	8b 4d a8             	mov    -0x58(%ebp),%ecx
400045de:	8b 45 ac             	mov    -0x54(%ebp),%eax
400045e1:	f3 ab                	rep stos %eax,%es:(%edi)
400045e3:	8b 45 0c             	mov    0xc(%ebp),%eax
400045e6:	8b 40 18             	mov    0x18(%eax),%eax
400045e9:	85 c0                	test   %eax,%eax
400045eb:	0f 84 33 01 00 00    	je     40004724 <internal_mallinfo+0x171>
400045f1:	c7 45 e4 01 00 00 00 	movl   $0x1,-0x1c(%ebp)
400045f8:	8b 45 0c             	mov    0xc(%ebp),%eax
400045fb:	8b 40 0c             	mov    0xc(%eax),%eax
400045fe:	83 c0 28             	add    $0x28,%eax
40004601:	89 45 e8             	mov    %eax,-0x18(%ebp)
40004604:	8b 45 e8             	mov    -0x18(%ebp),%eax
40004607:	89 45 ec             	mov    %eax,-0x14(%ebp)
4000460a:	8b 45 0c             	mov    0xc(%ebp),%eax
4000460d:	05 b8 01 00 00       	add    $0x1b8,%eax
40004612:	89 45 f0             	mov    %eax,-0x10(%ebp)
40004615:	e9 bb 00 00 00       	jmp    400046d5 <internal_mallinfo+0x122>
4000461a:	8b 45 f0             	mov    -0x10(%ebp),%eax
4000461d:	8b 00                	mov    (%eax),%eax
4000461f:	89 45 b4             	mov    %eax,-0x4c(%ebp)
40004622:	8b 45 f0             	mov    -0x10(%ebp),%eax
40004625:	8b 00                	mov    (%eax),%eax
40004627:	83 c0 08             	add    $0x8,%eax
4000462a:	83 e0 07             	and    $0x7,%eax
4000462d:	85 c0                	test   %eax,%eax
4000462f:	74 1e                	je     4000464f <internal_mallinfo+0x9c>
40004631:	8b 45 f0             	mov    -0x10(%ebp),%eax
40004634:	8b 00                	mov    (%eax),%eax
40004636:	83 c0 08             	add    $0x8,%eax
40004639:	89 c2                	mov    %eax,%edx
4000463b:	83 e2 07             	and    $0x7,%edx
4000463e:	b8 08 00 00 00       	mov    $0x8,%eax
40004643:	29 d0                	sub    %edx,%eax
40004645:	89 c2                	mov    %eax,%edx
40004647:	83 e2 07             	and    $0x7,%edx
4000464a:	89 55 b8             	mov    %edx,-0x48(%ebp)
4000464d:	eb 07                	jmp    40004656 <internal_mallinfo+0xa3>
4000464f:	c7 45 b8 00 00 00 00 	movl   $0x0,-0x48(%ebp)
40004656:	8b 45 b4             	mov    -0x4c(%ebp),%eax
40004659:	03 45 b8             	add    -0x48(%ebp),%eax
4000465c:	89 45 f4             	mov    %eax,-0xc(%ebp)
4000465f:	eb 35                	jmp    40004696 <internal_mallinfo+0xe3>
40004661:	8b 45 f4             	mov    -0xc(%ebp),%eax
40004664:	8b 40 04             	mov    0x4(%eax),%eax
40004667:	83 e0 fc             	and    $0xfffffffc,%eax
4000466a:	89 45 f8             	mov    %eax,-0x8(%ebp)
4000466d:	8b 45 f8             	mov    -0x8(%ebp),%eax
40004670:	01 45 ec             	add    %eax,-0x14(%ebp)
40004673:	8b 45 f4             	mov    -0xc(%ebp),%eax
40004676:	8b 40 04             	mov    0x4(%eax),%eax
40004679:	83 e0 02             	and    $0x2,%eax
4000467c:	85 c0                	test   %eax,%eax
4000467e:	75 0a                	jne    4000468a <internal_mallinfo+0xd7>
40004680:	8b 45 f8             	mov    -0x8(%ebp),%eax
40004683:	01 45 e8             	add    %eax,-0x18(%ebp)
40004686:	83 45 e4 01          	addl   $0x1,-0x1c(%ebp)
4000468a:	8b 45 f4             	mov    -0xc(%ebp),%eax
4000468d:	8b 40 04             	mov    0x4(%eax),%eax
40004690:	83 e0 fc             	and    $0xfffffffc,%eax
40004693:	01 45 f4             	add    %eax,-0xc(%ebp)
40004696:	8b 45 f0             	mov    -0x10(%ebp),%eax
40004699:	8b 10                	mov    (%eax),%edx
4000469b:	8b 45 f4             	mov    -0xc(%ebp),%eax
4000469e:	39 c2                	cmp    %eax,%edx
400046a0:	77 2a                	ja     400046cc <internal_mallinfo+0x119>
400046a2:	8b 45 f0             	mov    -0x10(%ebp),%eax
400046a5:	8b 10                	mov    (%eax),%edx
400046a7:	8b 45 f0             	mov    -0x10(%ebp),%eax
400046aa:	8b 40 04             	mov    0x4(%eax),%eax
400046ad:	01 c2                	add    %eax,%edx
400046af:	8b 45 f4             	mov    -0xc(%ebp),%eax
400046b2:	39 c2                	cmp    %eax,%edx
400046b4:	76 16                	jbe    400046cc <internal_mallinfo+0x119>
400046b6:	8b 45 0c             	mov    0xc(%ebp),%eax
400046b9:	8b 40 18             	mov    0x18(%eax),%eax
400046bc:	3b 45 f4             	cmp    -0xc(%ebp),%eax
400046bf:	74 0b                	je     400046cc <internal_mallinfo+0x119>
400046c1:	8b 45 f4             	mov    -0xc(%ebp),%eax
400046c4:	8b 40 04             	mov    0x4(%eax),%eax
400046c7:	83 f8 07             	cmp    $0x7,%eax
400046ca:	75 95                	jne    40004661 <internal_mallinfo+0xae>
400046cc:	8b 45 f0             	mov    -0x10(%ebp),%eax
400046cf:	8b 40 08             	mov    0x8(%eax),%eax
400046d2:	89 45 f0             	mov    %eax,-0x10(%ebp)
400046d5:	83 7d f0 00          	cmpl   $0x0,-0x10(%ebp)
400046d9:	0f 85 3b ff ff ff    	jne    4000461a <internal_mallinfo+0x67>
400046df:	8b 45 ec             	mov    -0x14(%ebp),%eax
400046e2:	89 45 bc             	mov    %eax,-0x44(%ebp)
400046e5:	8b 45 e4             	mov    -0x1c(%ebp),%eax
400046e8:	89 45 c0             	mov    %eax,-0x40(%ebp)
400046eb:	8b 45 0c             	mov    0xc(%ebp),%eax
400046ee:	8b 80 ac 01 00 00    	mov    0x1ac(%eax),%eax
400046f4:	2b 45 ec             	sub    -0x14(%ebp),%eax
400046f7:	89 45 cc             	mov    %eax,-0x34(%ebp)
400046fa:	8b 45 0c             	mov    0xc(%ebp),%eax
400046fd:	8b 80 b0 01 00 00    	mov    0x1b0(%eax),%eax
40004703:	89 45 d0             	mov    %eax,-0x30(%ebp)
40004706:	8b 45 0c             	mov    0xc(%ebp),%eax
40004709:	8b 80 ac 01 00 00    	mov    0x1ac(%eax),%eax
4000470f:	2b 45 e8             	sub    -0x18(%ebp),%eax
40004712:	89 45 d8             	mov    %eax,-0x28(%ebp)
40004715:	8b 45 e8             	mov    -0x18(%ebp),%eax
40004718:	89 45 dc             	mov    %eax,-0x24(%ebp)
4000471b:	8b 45 0c             	mov    0xc(%ebp),%eax
4000471e:	8b 40 0c             	mov    0xc(%eax),%eax
40004721:	89 45 e0             	mov    %eax,-0x20(%ebp)
40004724:	8b 45 bc             	mov    -0x44(%ebp),%eax
40004727:	8b 4d 08             	mov    0x8(%ebp),%ecx
4000472a:	89 01                	mov    %eax,(%ecx)
4000472c:	8b 45 c0             	mov    -0x40(%ebp),%eax
4000472f:	8b 7d 08             	mov    0x8(%ebp),%edi
40004732:	89 47 04             	mov    %eax,0x4(%edi)
40004735:	8b 45 c4             	mov    -0x3c(%ebp),%eax
40004738:	8b 55 08             	mov    0x8(%ebp),%edx
4000473b:	89 42 08             	mov    %eax,0x8(%edx)
4000473e:	8b 45 c8             	mov    -0x38(%ebp),%eax
40004741:	8b 4d 08             	mov    0x8(%ebp),%ecx
40004744:	89 41 0c             	mov    %eax,0xc(%ecx)
40004747:	8b 45 cc             	mov    -0x34(%ebp),%eax
4000474a:	8b 7d 08             	mov    0x8(%ebp),%edi
4000474d:	89 47 10             	mov    %eax,0x10(%edi)
40004750:	8b 45 d0             	mov    -0x30(%ebp),%eax
40004753:	8b 55 08             	mov    0x8(%ebp),%edx
40004756:	89 42 14             	mov    %eax,0x14(%edx)
40004759:	8b 45 d4             	mov    -0x2c(%ebp),%eax
4000475c:	8b 4d 08             	mov    0x8(%ebp),%ecx
4000475f:	89 41 18             	mov    %eax,0x18(%ecx)
40004762:	8b 45 d8             	mov    -0x28(%ebp),%eax
40004765:	8b 7d 08             	mov    0x8(%ebp),%edi
40004768:	89 47 1c             	mov    %eax,0x1c(%edi)
4000476b:	8b 45 dc             	mov    -0x24(%ebp),%eax
4000476e:	8b 55 08             	mov    0x8(%ebp),%edx
40004771:	89 42 20             	mov    %eax,0x20(%edx)
40004774:	8b 45 e0             	mov    -0x20(%ebp),%eax
40004777:	8b 4d 08             	mov    0x8(%ebp),%ecx
4000477a:	89 41 24             	mov    %eax,0x24(%ecx)
4000477d:	8b 45 08             	mov    0x8(%ebp),%eax
40004780:	83 c4 54             	add    $0x54,%esp
40004783:	5f                   	pop    %edi
40004784:	5d                   	pop    %ebp
40004785:	c2 04 00             	ret    $0x4

40004788 <internal_malloc_stats>:
40004788:	55                   	push   %ebp
40004789:	89 e5                	mov    %esp,%ebp
4000478b:	83 ec 38             	sub    $0x38,%esp
4000478e:	c7 45 ec 00 00 00 00 	movl   $0x0,-0x14(%ebp)
40004795:	c7 45 f0 00 00 00 00 	movl   $0x0,-0x10(%ebp)
4000479c:	c7 45 f4 00 00 00 00 	movl   $0x0,-0xc(%ebp)
400047a3:	8b 45 08             	mov    0x8(%ebp),%eax
400047a6:	8b 40 18             	mov    0x18(%eax),%eax
400047a9:	85 c0                	test   %eax,%eax
400047ab:	0f 84 ee 00 00 00    	je     4000489f <internal_malloc_stats+0x117>
400047b1:	8b 45 08             	mov    0x8(%ebp),%eax
400047b4:	05 b8 01 00 00       	add    $0x1b8,%eax
400047b9:	89 45 f8             	mov    %eax,-0x8(%ebp)
400047bc:	8b 45 08             	mov    0x8(%ebp),%eax
400047bf:	8b 80 b0 01 00 00    	mov    0x1b0(%eax),%eax
400047c5:	89 45 ec             	mov    %eax,-0x14(%ebp)
400047c8:	8b 45 08             	mov    0x8(%ebp),%eax
400047cb:	8b 80 ac 01 00 00    	mov    0x1ac(%eax),%eax
400047d1:	89 45 f0             	mov    %eax,-0x10(%ebp)
400047d4:	8b 45 08             	mov    0x8(%ebp),%eax
400047d7:	8b 50 0c             	mov    0xc(%eax),%edx
400047da:	8b 45 f0             	mov    -0x10(%ebp),%eax
400047dd:	29 d0                	sub    %edx,%eax
400047df:	83 e8 28             	sub    $0x28,%eax
400047e2:	89 45 f4             	mov    %eax,-0xc(%ebp)
400047e5:	e9 ab 00 00 00       	jmp    40004895 <internal_malloc_stats+0x10d>
400047ea:	8b 45 f8             	mov    -0x8(%ebp),%eax
400047ed:	8b 00                	mov    (%eax),%eax
400047ef:	89 45 d8             	mov    %eax,-0x28(%ebp)
400047f2:	8b 45 f8             	mov    -0x8(%ebp),%eax
400047f5:	8b 00                	mov    (%eax),%eax
400047f7:	83 c0 08             	add    $0x8,%eax
400047fa:	83 e0 07             	and    $0x7,%eax
400047fd:	85 c0                	test   %eax,%eax
400047ff:	74 1e                	je     4000481f <internal_malloc_stats+0x97>
40004801:	8b 45 f8             	mov    -0x8(%ebp),%eax
40004804:	8b 00                	mov    (%eax),%eax
40004806:	83 c0 08             	add    $0x8,%eax
40004809:	89 c2                	mov    %eax,%edx
4000480b:	83 e2 07             	and    $0x7,%edx
4000480e:	b8 08 00 00 00       	mov    $0x8,%eax
40004813:	29 d0                	sub    %edx,%eax
40004815:	89 c2                	mov    %eax,%edx
40004817:	83 e2 07             	and    $0x7,%edx
4000481a:	89 55 dc             	mov    %edx,-0x24(%ebp)
4000481d:	eb 07                	jmp    40004826 <internal_malloc_stats+0x9e>
4000481f:	c7 45 dc 00 00 00 00 	movl   $0x0,-0x24(%ebp)
40004826:	8b 45 d8             	mov    -0x28(%ebp),%eax
40004829:	03 45 dc             	add    -0x24(%ebp),%eax
4000482c:	89 45 fc             	mov    %eax,-0x4(%ebp)
4000482f:	eb 25                	jmp    40004856 <internal_malloc_stats+0xce>
40004831:	8b 45 fc             	mov    -0x4(%ebp),%eax
40004834:	8b 40 04             	mov    0x4(%eax),%eax
40004837:	83 e0 02             	and    $0x2,%eax
4000483a:	85 c0                	test   %eax,%eax
4000483c:	75 0c                	jne    4000484a <internal_malloc_stats+0xc2>
4000483e:	8b 45 fc             	mov    -0x4(%ebp),%eax
40004841:	8b 40 04             	mov    0x4(%eax),%eax
40004844:	83 e0 fc             	and    $0xfffffffc,%eax
40004847:	29 45 f4             	sub    %eax,-0xc(%ebp)
4000484a:	8b 45 fc             	mov    -0x4(%ebp),%eax
4000484d:	8b 40 04             	mov    0x4(%eax),%eax
40004850:	83 e0 fc             	and    $0xfffffffc,%eax
40004853:	01 45 fc             	add    %eax,-0x4(%ebp)
40004856:	8b 45 f8             	mov    -0x8(%ebp),%eax
40004859:	8b 10                	mov    (%eax),%edx
4000485b:	8b 45 fc             	mov    -0x4(%ebp),%eax
4000485e:	39 c2                	cmp    %eax,%edx
40004860:	77 2a                	ja     4000488c <internal_malloc_stats+0x104>
40004862:	8b 45 f8             	mov    -0x8(%ebp),%eax
40004865:	8b 10                	mov    (%eax),%edx
40004867:	8b 45 f8             	mov    -0x8(%ebp),%eax
4000486a:	8b 40 04             	mov    0x4(%eax),%eax
4000486d:	01 c2                	add    %eax,%edx
4000486f:	8b 45 fc             	mov    -0x4(%ebp),%eax
40004872:	39 c2                	cmp    %eax,%edx
40004874:	76 16                	jbe    4000488c <internal_malloc_stats+0x104>
40004876:	8b 45 08             	mov    0x8(%ebp),%eax
40004879:	8b 40 18             	mov    0x18(%eax),%eax
4000487c:	3b 45 fc             	cmp    -0x4(%ebp),%eax
4000487f:	74 0b                	je     4000488c <internal_malloc_stats+0x104>
40004881:	8b 45 fc             	mov    -0x4(%ebp),%eax
40004884:	8b 40 04             	mov    0x4(%eax),%eax
40004887:	83 f8 07             	cmp    $0x7,%eax
4000488a:	75 a5                	jne    40004831 <internal_malloc_stats+0xa9>
4000488c:	8b 45 f8             	mov    -0x8(%ebp),%eax
4000488f:	8b 40 08             	mov    0x8(%eax),%eax
40004892:	89 45 f8             	mov    %eax,-0x8(%ebp)
40004895:	83 7d f8 00          	cmpl   $0x0,-0x8(%ebp)
40004899:	0f 85 4b ff ff ff    	jne    400047ea <internal_malloc_stats+0x62>
4000489f:	8b 15 18 1c 01 40    	mov    0x40011c18,%edx
400048a5:	8b 45 ec             	mov    -0x14(%ebp),%eax
400048a8:	89 44 24 08          	mov    %eax,0x8(%esp)
400048ac:	c7 44 24 04 da e7 00 	movl   $0x4000e7da,0x4(%esp)
400048b3:	40 
400048b4:	89 14 24             	mov    %edx,(%esp)
400048b7:	e8 fc fa ff ff       	call   400043b8 <fprintf>
400048bc:	8b 15 18 1c 01 40    	mov    0x40011c18,%edx
400048c2:	8b 45 f0             	mov    -0x10(%ebp),%eax
400048c5:	89 44 24 08          	mov    %eax,0x8(%esp)
400048c9:	c7 44 24 04 f4 e7 00 	movl   $0x4000e7f4,0x4(%esp)
400048d0:	40 
400048d1:	89 14 24             	mov    %edx,(%esp)
400048d4:	e8 df fa ff ff       	call   400043b8 <fprintf>
400048d9:	8b 15 18 1c 01 40    	mov    0x40011c18,%edx
400048df:	8b 45 f4             	mov    -0xc(%ebp),%eax
400048e2:	89 44 24 08          	mov    %eax,0x8(%esp)
400048e6:	c7 44 24 04 0e e8 00 	movl   $0x4000e80e,0x4(%esp)
400048ed:	40 
400048ee:	89 14 24             	mov    %edx,(%esp)
400048f1:	e8 c2 fa ff ff       	call   400043b8 <fprintf>
400048f6:	c9                   	leave  
400048f7:	c3                   	ret    

400048f8 <mmap_alloc>:
400048f8:	55                   	push   %ebp
400048f9:	89 e5                	mov    %esp,%ebp
400048fb:	83 ec 28             	sub    $0x28,%esp
400048fe:	a1 48 05 01 40       	mov    0x40010548,%eax
40004903:	03 45 0c             	add    0xc(%ebp),%eax
40004906:	8d 50 1f             	lea    0x1f(%eax),%edx
40004909:	a1 48 05 01 40       	mov    0x40010548,%eax
4000490e:	f7 d8                	neg    %eax
40004910:	21 d0                	and    %edx,%eax
40004912:	89 45 ec             	mov    %eax,-0x14(%ebp)
40004915:	8b 45 ec             	mov    -0x14(%ebp),%eax
40004918:	3b 45 0c             	cmp    0xc(%ebp),%eax
4000491b:	0f 86 f1 00 00 00    	jbe    40004a12 <mmap_alloc+0x11a>
40004921:	c7 45 f0 ff ff ff ff 	movl   $0xffffffff,-0x10(%ebp)
40004928:	83 7d f0 ff          	cmpl   $0xffffffff,-0x10(%ebp)
4000492c:	0f 84 e0 00 00 00    	je     40004a12 <mmap_alloc+0x11a>
40004932:	8b 45 f0             	mov    -0x10(%ebp),%eax
40004935:	83 c0 08             	add    $0x8,%eax
40004938:	83 e0 07             	and    $0x7,%eax
4000493b:	85 c0                	test   %eax,%eax
4000493d:	74 1c                	je     4000495b <mmap_alloc+0x63>
4000493f:	8b 45 f0             	mov    -0x10(%ebp),%eax
40004942:	83 c0 08             	add    $0x8,%eax
40004945:	89 c2                	mov    %eax,%edx
40004947:	83 e2 07             	and    $0x7,%edx
4000494a:	b8 08 00 00 00       	mov    $0x8,%eax
4000494f:	29 d0                	sub    %edx,%eax
40004951:	89 c2                	mov    %eax,%edx
40004953:	83 e2 07             	and    $0x7,%edx
40004956:	89 55 d8             	mov    %edx,-0x28(%ebp)
40004959:	eb 07                	jmp    40004962 <mmap_alloc+0x6a>
4000495b:	c7 45 d8 00 00 00 00 	movl   $0x0,-0x28(%ebp)
40004962:	8b 45 d8             	mov    -0x28(%ebp),%eax
40004965:	89 45 f4             	mov    %eax,-0xc(%ebp)
40004968:	8b 55 f4             	mov    -0xc(%ebp),%edx
4000496b:	8b 45 ec             	mov    -0x14(%ebp),%eax
4000496e:	29 d0                	sub    %edx,%eax
40004970:	83 e8 10             	sub    $0x10,%eax
40004973:	89 45 f8             	mov    %eax,-0x8(%ebp)
40004976:	8b 45 f0             	mov    -0x10(%ebp),%eax
40004979:	03 45 f4             	add    -0xc(%ebp),%eax
4000497c:	89 45 fc             	mov    %eax,-0x4(%ebp)
4000497f:	8b 55 fc             	mov    -0x4(%ebp),%edx
40004982:	8b 45 f4             	mov    -0xc(%ebp),%eax
40004985:	89 02                	mov    %eax,(%edx)
40004987:	8b 45 f8             	mov    -0x8(%ebp),%eax
4000498a:	89 c2                	mov    %eax,%edx
4000498c:	83 ca 02             	or     $0x2,%edx
4000498f:	8b 45 fc             	mov    -0x4(%ebp),%eax
40004992:	89 50 04             	mov    %edx,0x4(%eax)
40004995:	8b 55 f8             	mov    -0x8(%ebp),%edx
40004998:	8b 45 fc             	mov    -0x4(%ebp),%eax
4000499b:	01 d0                	add    %edx,%eax
4000499d:	c7 40 04 07 00 00 00 	movl   $0x7,0x4(%eax)
400049a4:	8b 45 f8             	mov    -0x8(%ebp),%eax
400049a7:	83 c0 04             	add    $0x4,%eax
400049aa:	03 45 fc             	add    -0x4(%ebp),%eax
400049ad:	c7 40 04 00 00 00 00 	movl   $0x0,0x4(%eax)
400049b4:	8b 45 08             	mov    0x8(%ebp),%eax
400049b7:	8b 40 10             	mov    0x10(%eax),%eax
400049ba:	3b 45 f0             	cmp    -0x10(%ebp),%eax
400049bd:	76 09                	jbe    400049c8 <mmap_alloc+0xd0>
400049bf:	8b 55 08             	mov    0x8(%ebp),%edx
400049c2:	8b 45 f0             	mov    -0x10(%ebp),%eax
400049c5:	89 42 10             	mov    %eax,0x10(%edx)
400049c8:	8b 45 08             	mov    0x8(%ebp),%eax
400049cb:	8b 80 ac 01 00 00    	mov    0x1ac(%eax),%eax
400049d1:	89 c2                	mov    %eax,%edx
400049d3:	03 55 ec             	add    -0x14(%ebp),%edx
400049d6:	8b 45 08             	mov    0x8(%ebp),%eax
400049d9:	89 90 ac 01 00 00    	mov    %edx,0x1ac(%eax)
400049df:	8b 45 08             	mov    0x8(%ebp),%eax
400049e2:	8b 90 ac 01 00 00    	mov    0x1ac(%eax),%edx
400049e8:	8b 45 08             	mov    0x8(%ebp),%eax
400049eb:	8b 80 b0 01 00 00    	mov    0x1b0(%eax),%eax
400049f1:	39 c2                	cmp    %eax,%edx
400049f3:	76 12                	jbe    40004a07 <mmap_alloc+0x10f>
400049f5:	8b 45 08             	mov    0x8(%ebp),%eax
400049f8:	8b 90 ac 01 00 00    	mov    0x1ac(%eax),%edx
400049fe:	8b 45 08             	mov    0x8(%ebp),%eax
40004a01:	89 90 b0 01 00 00    	mov    %edx,0x1b0(%eax)
40004a07:	8b 45 fc             	mov    -0x4(%ebp),%eax
40004a0a:	83 c0 08             	add    $0x8,%eax
40004a0d:	89 45 dc             	mov    %eax,-0x24(%ebp)
40004a10:	eb 07                	jmp    40004a19 <mmap_alloc+0x121>
40004a12:	c7 45 dc 00 00 00 00 	movl   $0x0,-0x24(%ebp)
40004a19:	8b 45 dc             	mov    -0x24(%ebp),%eax
40004a1c:	c9                   	leave  
40004a1d:	c3                   	ret    

40004a1e <mmap_resize>:
40004a1e:	55                   	push   %ebp
40004a1f:	89 e5                	mov    %esp,%ebp
40004a21:	83 ec 24             	sub    $0x24,%esp
40004a24:	8b 45 0c             	mov    0xc(%ebp),%eax
40004a27:	8b 40 04             	mov    0x4(%eax),%eax
40004a2a:	83 e0 fc             	and    $0xfffffffc,%eax
40004a2d:	89 45 e4             	mov    %eax,-0x1c(%ebp)
40004a30:	8b 45 10             	mov    0x10(%ebp),%eax
40004a33:	c1 e8 03             	shr    $0x3,%eax
40004a36:	83 f8 1f             	cmp    $0x1f,%eax
40004a39:	77 0c                	ja     40004a47 <mmap_resize+0x29>
40004a3b:	c7 45 dc 00 00 00 00 	movl   $0x0,-0x24(%ebp)
40004a42:	e9 17 01 00 00       	jmp    40004b5e <mmap_resize+0x140>
40004a47:	8b 45 10             	mov    0x10(%ebp),%eax
40004a4a:	83 c0 04             	add    $0x4,%eax
40004a4d:	3b 45 e4             	cmp    -0x1c(%ebp),%eax
40004a50:	77 22                	ja     40004a74 <mmap_resize+0x56>
40004a52:	8b 55 10             	mov    0x10(%ebp),%edx
40004a55:	8b 45 e4             	mov    -0x1c(%ebp),%eax
40004a58:	89 c1                	mov    %eax,%ecx
40004a5a:	29 d1                	sub    %edx,%ecx
40004a5c:	89 ca                	mov    %ecx,%edx
40004a5e:	a1 48 05 01 40       	mov    0x40010548,%eax
40004a63:	01 c0                	add    %eax,%eax
40004a65:	39 c2                	cmp    %eax,%edx
40004a67:	77 0b                	ja     40004a74 <mmap_resize+0x56>
40004a69:	8b 45 0c             	mov    0xc(%ebp),%eax
40004a6c:	89 45 dc             	mov    %eax,-0x24(%ebp)
40004a6f:	e9 ea 00 00 00       	jmp    40004b5e <mmap_resize+0x140>
40004a74:	8b 45 0c             	mov    0xc(%ebp),%eax
40004a77:	8b 00                	mov    (%eax),%eax
40004a79:	89 45 e8             	mov    %eax,-0x18(%ebp)
40004a7c:	8b 55 e8             	mov    -0x18(%ebp),%edx
40004a7f:	8b 45 e4             	mov    -0x1c(%ebp),%eax
40004a82:	01 d0                	add    %edx,%eax
40004a84:	83 c0 10             	add    $0x10,%eax
40004a87:	89 45 ec             	mov    %eax,-0x14(%ebp)
40004a8a:	a1 48 05 01 40       	mov    0x40010548,%eax
40004a8f:	03 45 10             	add    0x10(%ebp),%eax
40004a92:	8d 50 1f             	lea    0x1f(%eax),%edx
40004a95:	a1 48 05 01 40       	mov    0x40010548,%eax
40004a9a:	f7 d8                	neg    %eax
40004a9c:	21 d0                	and    %edx,%eax
40004a9e:	89 45 f0             	mov    %eax,-0x10(%ebp)
40004aa1:	c7 45 f4 ff ff ff ff 	movl   $0xffffffff,-0xc(%ebp)
40004aa8:	83 7d f4 ff          	cmpl   $0xffffffff,-0xc(%ebp)
40004aac:	0f 84 a5 00 00 00    	je     40004b57 <mmap_resize+0x139>
40004ab2:	8b 45 f4             	mov    -0xc(%ebp),%eax
40004ab5:	03 45 e8             	add    -0x18(%ebp),%eax
40004ab8:	89 45 f8             	mov    %eax,-0x8(%ebp)
40004abb:	8b 55 e8             	mov    -0x18(%ebp),%edx
40004abe:	8b 45 f0             	mov    -0x10(%ebp),%eax
40004ac1:	29 d0                	sub    %edx,%eax
40004ac3:	83 e8 10             	sub    $0x10,%eax
40004ac6:	89 45 fc             	mov    %eax,-0x4(%ebp)
40004ac9:	8b 45 fc             	mov    -0x4(%ebp),%eax
40004acc:	89 c2                	mov    %eax,%edx
40004ace:	83 ca 02             	or     $0x2,%edx
40004ad1:	8b 45 f8             	mov    -0x8(%ebp),%eax
40004ad4:	89 50 04             	mov    %edx,0x4(%eax)
40004ad7:	8b 55 fc             	mov    -0x4(%ebp),%edx
40004ada:	8b 45 f8             	mov    -0x8(%ebp),%eax
40004add:	01 d0                	add    %edx,%eax
40004adf:	c7 40 04 07 00 00 00 	movl   $0x7,0x4(%eax)
40004ae6:	8b 45 fc             	mov    -0x4(%ebp),%eax
40004ae9:	83 c0 04             	add    $0x4,%eax
40004aec:	03 45 f8             	add    -0x8(%ebp),%eax
40004aef:	c7 40 04 00 00 00 00 	movl   $0x0,0x4(%eax)
40004af6:	8b 45 08             	mov    0x8(%ebp),%eax
40004af9:	8b 40 10             	mov    0x10(%eax),%eax
40004afc:	3b 45 f4             	cmp    -0xc(%ebp),%eax
40004aff:	76 09                	jbe    40004b0a <mmap_resize+0xec>
40004b01:	8b 55 08             	mov    0x8(%ebp),%edx
40004b04:	8b 45 f4             	mov    -0xc(%ebp),%eax
40004b07:	89 42 10             	mov    %eax,0x10(%edx)
40004b0a:	8b 45 08             	mov    0x8(%ebp),%eax
40004b0d:	8b 88 ac 01 00 00    	mov    0x1ac(%eax),%ecx
40004b13:	8b 55 ec             	mov    -0x14(%ebp),%edx
40004b16:	8b 45 f0             	mov    -0x10(%ebp),%eax
40004b19:	29 d0                	sub    %edx,%eax
40004b1b:	8d 14 01             	lea    (%ecx,%eax,1),%edx
40004b1e:	8b 45 08             	mov    0x8(%ebp),%eax
40004b21:	89 90 ac 01 00 00    	mov    %edx,0x1ac(%eax)
40004b27:	8b 45 08             	mov    0x8(%ebp),%eax
40004b2a:	8b 90 ac 01 00 00    	mov    0x1ac(%eax),%edx
40004b30:	8b 45 08             	mov    0x8(%ebp),%eax
40004b33:	8b 80 b0 01 00 00    	mov    0x1b0(%eax),%eax
40004b39:	39 c2                	cmp    %eax,%edx
40004b3b:	76 12                	jbe    40004b4f <mmap_resize+0x131>
40004b3d:	8b 45 08             	mov    0x8(%ebp),%eax
40004b40:	8b 90 ac 01 00 00    	mov    0x1ac(%eax),%edx
40004b46:	8b 45 08             	mov    0x8(%ebp),%eax
40004b49:	89 90 b0 01 00 00    	mov    %edx,0x1b0(%eax)
40004b4f:	8b 4d f8             	mov    -0x8(%ebp),%ecx
40004b52:	89 4d dc             	mov    %ecx,-0x24(%ebp)
40004b55:	eb 07                	jmp    40004b5e <mmap_resize+0x140>
40004b57:	c7 45 dc 00 00 00 00 	movl   $0x0,-0x24(%ebp)
40004b5e:	8b 45 dc             	mov    -0x24(%ebp),%eax
40004b61:	c9                   	leave  
40004b62:	c3                   	ret    

40004b63 <init_top>:
40004b63:	55                   	push   %ebp
40004b64:	89 e5                	mov    %esp,%ebp
40004b66:	83 ec 14             	sub    $0x14,%esp
40004b69:	8b 45 0c             	mov    0xc(%ebp),%eax
40004b6c:	83 c0 08             	add    $0x8,%eax
40004b6f:	83 e0 07             	and    $0x7,%eax
40004b72:	85 c0                	test   %eax,%eax
40004b74:	74 1c                	je     40004b92 <init_top+0x2f>
40004b76:	8b 45 0c             	mov    0xc(%ebp),%eax
40004b79:	83 c0 08             	add    $0x8,%eax
40004b7c:	89 c2                	mov    %eax,%edx
40004b7e:	83 e2 07             	and    $0x7,%edx
40004b81:	b8 08 00 00 00       	mov    $0x8,%eax
40004b86:	29 d0                	sub    %edx,%eax
40004b88:	89 c2                	mov    %eax,%edx
40004b8a:	83 e2 07             	and    $0x7,%edx
40004b8d:	89 55 ec             	mov    %edx,-0x14(%ebp)
40004b90:	eb 07                	jmp    40004b99 <init_top+0x36>
40004b92:	c7 45 ec 00 00 00 00 	movl   $0x0,-0x14(%ebp)
40004b99:	8b 45 ec             	mov    -0x14(%ebp),%eax
40004b9c:	89 45 fc             	mov    %eax,-0x4(%ebp)
40004b9f:	8b 45 fc             	mov    -0x4(%ebp),%eax
40004ba2:	01 45 0c             	add    %eax,0xc(%ebp)
40004ba5:	8b 45 fc             	mov    -0x4(%ebp),%eax
40004ba8:	29 45 10             	sub    %eax,0x10(%ebp)
40004bab:	8b 55 08             	mov    0x8(%ebp),%edx
40004bae:	8b 45 0c             	mov    0xc(%ebp),%eax
40004bb1:	89 42 18             	mov    %eax,0x18(%edx)
40004bb4:	8b 55 08             	mov    0x8(%ebp),%edx
40004bb7:	8b 45 10             	mov    0x10(%ebp),%eax
40004bba:	89 42 0c             	mov    %eax,0xc(%edx)
40004bbd:	8b 45 10             	mov    0x10(%ebp),%eax
40004bc0:	89 c2                	mov    %eax,%edx
40004bc2:	83 ca 01             	or     $0x1,%edx
40004bc5:	8b 45 0c             	mov    0xc(%ebp),%eax
40004bc8:	89 50 04             	mov    %edx,0x4(%eax)
40004bcb:	8b 55 10             	mov    0x10(%ebp),%edx
40004bce:	8b 45 0c             	mov    0xc(%ebp),%eax
40004bd1:	01 d0                	add    %edx,%eax
40004bd3:	c7 40 04 28 00 00 00 	movl   $0x28,0x4(%eax)
40004bda:	8b 15 50 05 01 40    	mov    0x40010550,%edx
40004be0:	8b 45 08             	mov    0x8(%ebp),%eax
40004be3:	89 50 1c             	mov    %edx,0x1c(%eax)
40004be6:	c9                   	leave  
40004be7:	c3                   	ret    

40004be8 <init_bins>:
40004be8:	55                   	push   %ebp
40004be9:	89 e5                	mov    %esp,%ebp
40004beb:	83 ec 10             	sub    $0x10,%esp
40004bee:	c7 45 f8 00 00 00 00 	movl   $0x0,-0x8(%ebp)
40004bf5:	eb 2d                	jmp    40004c24 <init_bins+0x3c>
40004bf7:	8b 45 08             	mov    0x8(%ebp),%eax
40004bfa:	83 c0 24             	add    $0x24,%eax
40004bfd:	89 c2                	mov    %eax,%edx
40004bff:	8b 45 f8             	mov    -0x8(%ebp),%eax
40004c02:	c1 e0 03             	shl    $0x3,%eax
40004c05:	8d 04 02             	lea    (%edx,%eax,1),%eax
40004c08:	89 45 fc             	mov    %eax,-0x4(%ebp)
40004c0b:	8b 55 fc             	mov    -0x4(%ebp),%edx
40004c0e:	8b 45 fc             	mov    -0x4(%ebp),%eax
40004c11:	89 42 0c             	mov    %eax,0xc(%edx)
40004c14:	8b 45 fc             	mov    -0x4(%ebp),%eax
40004c17:	8b 50 0c             	mov    0xc(%eax),%edx
40004c1a:	8b 45 fc             	mov    -0x4(%ebp),%eax
40004c1d:	89 50 08             	mov    %edx,0x8(%eax)
40004c20:	83 45 f8 01          	addl   $0x1,-0x8(%ebp)
40004c24:	83 7d f8 1f          	cmpl   $0x1f,-0x8(%ebp)
40004c28:	76 cd                	jbe    40004bf7 <init_bins+0xf>
40004c2a:	c9                   	leave  
40004c2b:	c3                   	ret    

40004c2c <prepend_alloc>:
40004c2c:	55                   	push   %ebp
40004c2d:	89 e5                	mov    %esp,%ebp
40004c2f:	81 ec 98 00 00 00    	sub    $0x98,%esp
40004c35:	8b 45 0c             	mov    0xc(%ebp),%eax
40004c38:	83 c0 08             	add    $0x8,%eax
40004c3b:	83 e0 07             	and    $0x7,%eax
40004c3e:	85 c0                	test   %eax,%eax
40004c40:	74 1f                	je     40004c61 <prepend_alloc+0x35>
40004c42:	8b 45 0c             	mov    0xc(%ebp),%eax
40004c45:	83 c0 08             	add    $0x8,%eax
40004c48:	89 c2                	mov    %eax,%edx
40004c4a:	83 e2 07             	and    $0x7,%edx
40004c4d:	b8 08 00 00 00       	mov    $0x8,%eax
40004c52:	29 d0                	sub    %edx,%eax
40004c54:	89 c2                	mov    %eax,%edx
40004c56:	83 e2 07             	and    $0x7,%edx
40004c59:	89 95 6c ff ff ff    	mov    %edx,-0x94(%ebp)
40004c5f:	eb 0a                	jmp    40004c6b <prepend_alloc+0x3f>
40004c61:	c7 85 6c ff ff ff 00 	movl   $0x0,-0x94(%ebp)
40004c68:	00 00 00 
40004c6b:	8b 85 6c ff ff ff    	mov    -0x94(%ebp),%eax
40004c71:	03 45 0c             	add    0xc(%ebp),%eax
40004c74:	89 45 80             	mov    %eax,-0x80(%ebp)
40004c77:	8b 45 10             	mov    0x10(%ebp),%eax
40004c7a:	83 c0 08             	add    $0x8,%eax
40004c7d:	83 e0 07             	and    $0x7,%eax
40004c80:	85 c0                	test   %eax,%eax
40004c82:	74 1f                	je     40004ca3 <prepend_alloc+0x77>
40004c84:	8b 45 10             	mov    0x10(%ebp),%eax
40004c87:	83 c0 08             	add    $0x8,%eax
40004c8a:	89 c2                	mov    %eax,%edx
40004c8c:	83 e2 07             	and    $0x7,%edx
40004c8f:	b8 08 00 00 00       	mov    $0x8,%eax
40004c94:	29 d0                	sub    %edx,%eax
40004c96:	89 c1                	mov    %eax,%ecx
40004c98:	83 e1 07             	and    $0x7,%ecx
40004c9b:	89 8d 70 ff ff ff    	mov    %ecx,-0x90(%ebp)
40004ca1:	eb 0a                	jmp    40004cad <prepend_alloc+0x81>
40004ca3:	c7 85 70 ff ff ff 00 	movl   $0x0,-0x90(%ebp)
40004caa:	00 00 00 
40004cad:	8b 85 70 ff ff ff    	mov    -0x90(%ebp),%eax
40004cb3:	03 45 10             	add    0x10(%ebp),%eax
40004cb6:	89 45 84             	mov    %eax,-0x7c(%ebp)
40004cb9:	8b 55 84             	mov    -0x7c(%ebp),%edx
40004cbc:	8b 45 80             	mov    -0x80(%ebp),%eax
40004cbf:	89 d1                	mov    %edx,%ecx
40004cc1:	29 c1                	sub    %eax,%ecx
40004cc3:	89 c8                	mov    %ecx,%eax
40004cc5:	89 45 88             	mov    %eax,-0x78(%ebp)
40004cc8:	8b 55 14             	mov    0x14(%ebp),%edx
40004ccb:	8b 45 80             	mov    -0x80(%ebp),%eax
40004cce:	01 d0                	add    %edx,%eax
40004cd0:	89 45 8c             	mov    %eax,-0x74(%ebp)
40004cd3:	8b 55 14             	mov    0x14(%ebp),%edx
40004cd6:	8b 45 88             	mov    -0x78(%ebp),%eax
40004cd9:	29 d0                	sub    %edx,%eax
40004cdb:	89 45 90             	mov    %eax,-0x70(%ebp)
40004cde:	8b 45 14             	mov    0x14(%ebp),%eax
40004ce1:	89 c2                	mov    %eax,%edx
40004ce3:	83 ca 03             	or     $0x3,%edx
40004ce6:	8b 45 80             	mov    -0x80(%ebp),%eax
40004ce9:	89 50 04             	mov    %edx,0x4(%eax)
40004cec:	8b 45 08             	mov    0x8(%ebp),%eax
40004cef:	8b 40 18             	mov    0x18(%eax),%eax
40004cf2:	3b 45 84             	cmp    -0x7c(%ebp),%eax
40004cf5:	75 36                	jne    40004d2d <prepend_alloc+0x101>
40004cf7:	8b 45 08             	mov    0x8(%ebp),%eax
40004cfa:	8b 40 0c             	mov    0xc(%eax),%eax
40004cfd:	89 c2                	mov    %eax,%edx
40004cff:	03 55 90             	add    -0x70(%ebp),%edx
40004d02:	8b 45 08             	mov    0x8(%ebp),%eax
40004d05:	89 50 0c             	mov    %edx,0xc(%eax)
40004d08:	8b 45 08             	mov    0x8(%ebp),%eax
40004d0b:	8b 40 0c             	mov    0xc(%eax),%eax
40004d0e:	89 45 94             	mov    %eax,-0x6c(%ebp)
40004d11:	8b 55 08             	mov    0x8(%ebp),%edx
40004d14:	8b 45 8c             	mov    -0x74(%ebp),%eax
40004d17:	89 42 18             	mov    %eax,0x18(%edx)
40004d1a:	8b 45 94             	mov    -0x6c(%ebp),%eax
40004d1d:	89 c2                	mov    %eax,%edx
40004d1f:	83 ca 01             	or     $0x1,%edx
40004d22:	8b 45 8c             	mov    -0x74(%ebp),%eax
40004d25:	89 50 04             	mov    %edx,0x4(%eax)
40004d28:	e9 9f 06 00 00       	jmp    400053cc <prepend_alloc+0x7a0>
40004d2d:	8b 45 08             	mov    0x8(%ebp),%eax
40004d30:	8b 40 14             	mov    0x14(%eax),%eax
40004d33:	3b 45 84             	cmp    -0x7c(%ebp),%eax
40004d36:	75 44                	jne    40004d7c <prepend_alloc+0x150>
40004d38:	8b 45 08             	mov    0x8(%ebp),%eax
40004d3b:	8b 40 08             	mov    0x8(%eax),%eax
40004d3e:	89 c2                	mov    %eax,%edx
40004d40:	03 55 90             	add    -0x70(%ebp),%edx
40004d43:	8b 45 08             	mov    0x8(%ebp),%eax
40004d46:	89 50 08             	mov    %edx,0x8(%eax)
40004d49:	8b 45 08             	mov    0x8(%ebp),%eax
40004d4c:	8b 40 08             	mov    0x8(%eax),%eax
40004d4f:	89 45 98             	mov    %eax,-0x68(%ebp)
40004d52:	8b 55 08             	mov    0x8(%ebp),%edx
40004d55:	8b 45 8c             	mov    -0x74(%ebp),%eax
40004d58:	89 42 14             	mov    %eax,0x14(%edx)
40004d5b:	8b 45 98             	mov    -0x68(%ebp),%eax
40004d5e:	89 c2                	mov    %eax,%edx
40004d60:	83 ca 01             	or     $0x1,%edx
40004d63:	8b 45 8c             	mov    -0x74(%ebp),%eax
40004d66:	89 50 04             	mov    %edx,0x4(%eax)
40004d69:	8b 55 98             	mov    -0x68(%ebp),%edx
40004d6c:	8b 45 8c             	mov    -0x74(%ebp),%eax
40004d6f:	8d 14 10             	lea    (%eax,%edx,1),%edx
40004d72:	8b 45 98             	mov    -0x68(%ebp),%eax
40004d75:	89 02                	mov    %eax,(%edx)
40004d77:	e9 50 06 00 00       	jmp    400053cc <prepend_alloc+0x7a0>
40004d7c:	8b 45 84             	mov    -0x7c(%ebp),%eax
40004d7f:	8b 40 04             	mov    0x4(%eax),%eax
40004d82:	83 e0 02             	and    $0x2,%eax
40004d85:	85 c0                	test   %eax,%eax
40004d87:	0f 85 5b 03 00 00    	jne    400050e8 <prepend_alloc+0x4bc>
40004d8d:	8b 45 84             	mov    -0x7c(%ebp),%eax
40004d90:	8b 40 04             	mov    0x4(%eax),%eax
40004d93:	83 e0 fc             	and    $0xfffffffc,%eax
40004d96:	89 45 9c             	mov    %eax,-0x64(%ebp)
40004d99:	8b 45 9c             	mov    -0x64(%ebp),%eax
40004d9c:	c1 e8 03             	shr    $0x3,%eax
40004d9f:	83 f8 1f             	cmp    $0x1f,%eax
40004da2:	0f 87 05 01 00 00    	ja     40004ead <prepend_alloc+0x281>
40004da8:	8b 45 84             	mov    -0x7c(%ebp),%eax
40004dab:	8b 40 08             	mov    0x8(%eax),%eax
40004dae:	89 45 a0             	mov    %eax,-0x60(%ebp)
40004db1:	8b 45 84             	mov    -0x7c(%ebp),%eax
40004db4:	8b 40 0c             	mov    0xc(%eax),%eax
40004db7:	89 45 a4             	mov    %eax,-0x5c(%ebp)
40004dba:	8b 45 9c             	mov    -0x64(%ebp),%eax
40004dbd:	c1 e8 03             	shr    $0x3,%eax
40004dc0:	89 45 a8             	mov    %eax,-0x58(%ebp)
40004dc3:	8b 45 a0             	mov    -0x60(%ebp),%eax
40004dc6:	3b 45 a4             	cmp    -0x5c(%ebp),%eax
40004dc9:	75 1d                	jne    40004de8 <prepend_alloc+0x1bc>
40004dcb:	8b 45 08             	mov    0x8(%ebp),%eax
40004dce:	8b 10                	mov    (%eax),%edx
40004dd0:	8b 4d a8             	mov    -0x58(%ebp),%ecx
40004dd3:	b8 01 00 00 00       	mov    $0x1,%eax
40004dd8:	d3 e0                	shl    %cl,%eax
40004dda:	f7 d0                	not    %eax
40004ddc:	21 c2                	and    %eax,%edx
40004dde:	8b 45 08             	mov    0x8(%ebp),%eax
40004de1:	89 10                	mov    %edx,(%eax)
40004de3:	e9 f4 02 00 00       	jmp    400050dc <prepend_alloc+0x4b0>
40004de8:	8b 45 08             	mov    0x8(%ebp),%eax
40004deb:	83 c0 24             	add    $0x24,%eax
40004dee:	89 c2                	mov    %eax,%edx
40004df0:	8b 45 a8             	mov    -0x58(%ebp),%eax
40004df3:	c1 e0 03             	shl    $0x3,%eax
40004df6:	8d 04 02             	lea    (%edx,%eax,1),%eax
40004df9:	3b 45 a0             	cmp    -0x60(%ebp),%eax
40004dfc:	0f 94 c0             	sete   %al
40004dff:	0f b6 c0             	movzbl %al,%eax
40004e02:	85 c0                	test   %eax,%eax
40004e04:	75 15                	jne    40004e1b <prepend_alloc+0x1ef>
40004e06:	8b 45 08             	mov    0x8(%ebp),%eax
40004e09:	8b 50 10             	mov    0x10(%eax),%edx
40004e0c:	8b 45 a0             	mov    -0x60(%ebp),%eax
40004e0f:	39 c2                	cmp    %eax,%edx
40004e11:	0f 96 c0             	setbe  %al
40004e14:	0f b6 c0             	movzbl %al,%eax
40004e17:	85 c0                	test   %eax,%eax
40004e19:	74 0c                	je     40004e27 <prepend_alloc+0x1fb>
40004e1b:	c7 85 74 ff ff ff 01 	movl   $0x1,-0x8c(%ebp)
40004e22:	00 00 00 
40004e25:	eb 0a                	jmp    40004e31 <prepend_alloc+0x205>
40004e27:	c7 85 74 ff ff ff 00 	movl   $0x0,-0x8c(%ebp)
40004e2e:	00 00 00 
40004e31:	83 bd 74 ff ff ff 00 	cmpl   $0x0,-0x8c(%ebp)
40004e38:	74 69                	je     40004ea3 <prepend_alloc+0x277>
40004e3a:	8b 45 08             	mov    0x8(%ebp),%eax
40004e3d:	83 c0 24             	add    $0x24,%eax
40004e40:	89 c2                	mov    %eax,%edx
40004e42:	8b 45 a8             	mov    -0x58(%ebp),%eax
40004e45:	c1 e0 03             	shl    $0x3,%eax
40004e48:	8d 04 02             	lea    (%edx,%eax,1),%eax
40004e4b:	3b 45 a4             	cmp    -0x5c(%ebp),%eax
40004e4e:	0f 94 c0             	sete   %al
40004e51:	0f b6 c0             	movzbl %al,%eax
40004e54:	85 c0                	test   %eax,%eax
40004e56:	75 15                	jne    40004e6d <prepend_alloc+0x241>
40004e58:	8b 45 08             	mov    0x8(%ebp),%eax
40004e5b:	8b 50 10             	mov    0x10(%eax),%edx
40004e5e:	8b 45 a4             	mov    -0x5c(%ebp),%eax
40004e61:	39 c2                	cmp    %eax,%edx
40004e63:	0f 96 c0             	setbe  %al
40004e66:	0f b6 c0             	movzbl %al,%eax
40004e69:	85 c0                	test   %eax,%eax
40004e6b:	74 0c                	je     40004e79 <prepend_alloc+0x24d>
40004e6d:	c7 85 78 ff ff ff 01 	movl   $0x1,-0x88(%ebp)
40004e74:	00 00 00 
40004e77:	eb 0a                	jmp    40004e83 <prepend_alloc+0x257>
40004e79:	c7 85 78 ff ff ff 00 	movl   $0x0,-0x88(%ebp)
40004e80:	00 00 00 
40004e83:	83 bd 78 ff ff ff 00 	cmpl   $0x0,-0x88(%ebp)
40004e8a:	74 17                	je     40004ea3 <prepend_alloc+0x277>
40004e8c:	8b 55 a0             	mov    -0x60(%ebp),%edx
40004e8f:	8b 45 a4             	mov    -0x5c(%ebp),%eax
40004e92:	89 42 0c             	mov    %eax,0xc(%edx)
40004e95:	8b 55 a4             	mov    -0x5c(%ebp),%edx
40004e98:	8b 45 a0             	mov    -0x60(%ebp),%eax
40004e9b:	89 42 08             	mov    %eax,0x8(%edx)
40004e9e:	e9 39 02 00 00       	jmp    400050dc <prepend_alloc+0x4b0>
40004ea3:	e8 28 7c 00 00       	call   4000cad0 <abort>
40004ea8:	e9 2f 02 00 00       	jmp    400050dc <prepend_alloc+0x4b0>
40004ead:	8b 45 84             	mov    -0x7c(%ebp),%eax
40004eb0:	89 45 ac             	mov    %eax,-0x54(%ebp)
40004eb3:	8b 45 ac             	mov    -0x54(%ebp),%eax
40004eb6:	8b 40 18             	mov    0x18(%eax),%eax
40004eb9:	89 45 b0             	mov    %eax,-0x50(%ebp)
40004ebc:	8b 45 ac             	mov    -0x54(%ebp),%eax
40004ebf:	8b 40 0c             	mov    0xc(%eax),%eax
40004ec2:	3b 45 ac             	cmp    -0x54(%ebp),%eax
40004ec5:	74 48                	je     40004f0f <prepend_alloc+0x2e3>
40004ec7:	8b 45 ac             	mov    -0x54(%ebp),%eax
40004eca:	8b 40 08             	mov    0x8(%eax),%eax
40004ecd:	89 45 b8             	mov    %eax,-0x48(%ebp)
40004ed0:	8b 45 ac             	mov    -0x54(%ebp),%eax
40004ed3:	8b 40 0c             	mov    0xc(%eax),%eax
40004ed6:	89 45 b4             	mov    %eax,-0x4c(%ebp)
40004ed9:	8b 45 08             	mov    0x8(%ebp),%eax
40004edc:	8b 50 10             	mov    0x10(%eax),%edx
40004edf:	8b 45 b8             	mov    -0x48(%ebp),%eax
40004ee2:	39 c2                	cmp    %eax,%edx
40004ee4:	0f 96 c0             	setbe  %al
40004ee7:	0f b6 c0             	movzbl %al,%eax
40004eea:	85 c0                	test   %eax,%eax
40004eec:	74 17                	je     40004f05 <prepend_alloc+0x2d9>
40004eee:	8b 55 b8             	mov    -0x48(%ebp),%edx
40004ef1:	8b 45 b4             	mov    -0x4c(%ebp),%eax
40004ef4:	89 42 0c             	mov    %eax,0xc(%edx)
40004ef7:	8b 55 b4             	mov    -0x4c(%ebp),%edx
40004efa:	8b 45 b8             	mov    -0x48(%ebp),%eax
40004efd:	89 42 08             	mov    %eax,0x8(%edx)
40004f00:	e9 91 00 00 00       	jmp    40004f96 <prepend_alloc+0x36a>
40004f05:	e8 c6 7b 00 00       	call   4000cad0 <abort>
40004f0a:	e9 87 00 00 00       	jmp    40004f96 <prepend_alloc+0x36a>
40004f0f:	8b 45 ac             	mov    -0x54(%ebp),%eax
40004f12:	83 c0 14             	add    $0x14,%eax
40004f15:	89 45 bc             	mov    %eax,-0x44(%ebp)
40004f18:	8b 45 bc             	mov    -0x44(%ebp),%eax
40004f1b:	8b 00                	mov    (%eax),%eax
40004f1d:	89 45 b4             	mov    %eax,-0x4c(%ebp)
40004f20:	83 7d b4 00          	cmpl   $0x0,-0x4c(%ebp)
40004f24:	75 27                	jne    40004f4d <prepend_alloc+0x321>
40004f26:	8b 45 ac             	mov    -0x54(%ebp),%eax
40004f29:	83 c0 10             	add    $0x10,%eax
40004f2c:	89 45 bc             	mov    %eax,-0x44(%ebp)
40004f2f:	8b 45 bc             	mov    -0x44(%ebp),%eax
40004f32:	8b 00                	mov    (%eax),%eax
40004f34:	89 45 b4             	mov    %eax,-0x4c(%ebp)
40004f37:	83 7d b4 00          	cmpl   $0x0,-0x4c(%ebp)
40004f3b:	74 59                	je     40004f96 <prepend_alloc+0x36a>
40004f3d:	eb 0e                	jmp    40004f4d <prepend_alloc+0x321>
40004f3f:	8b 45 c0             	mov    -0x40(%ebp),%eax
40004f42:	89 45 bc             	mov    %eax,-0x44(%ebp)
40004f45:	8b 45 bc             	mov    -0x44(%ebp),%eax
40004f48:	8b 00                	mov    (%eax),%eax
40004f4a:	89 45 b4             	mov    %eax,-0x4c(%ebp)
40004f4d:	8b 45 b4             	mov    -0x4c(%ebp),%eax
40004f50:	83 c0 14             	add    $0x14,%eax
40004f53:	89 45 c0             	mov    %eax,-0x40(%ebp)
40004f56:	8b 45 c0             	mov    -0x40(%ebp),%eax
40004f59:	8b 00                	mov    (%eax),%eax
40004f5b:	85 c0                	test   %eax,%eax
40004f5d:	75 e0                	jne    40004f3f <prepend_alloc+0x313>
40004f5f:	8b 45 b4             	mov    -0x4c(%ebp),%eax
40004f62:	83 c0 10             	add    $0x10,%eax
40004f65:	89 45 c0             	mov    %eax,-0x40(%ebp)
40004f68:	8b 45 c0             	mov    -0x40(%ebp),%eax
40004f6b:	8b 00                	mov    (%eax),%eax
40004f6d:	85 c0                	test   %eax,%eax
40004f6f:	75 ce                	jne    40004f3f <prepend_alloc+0x313>
40004f71:	8b 45 08             	mov    0x8(%ebp),%eax
40004f74:	8b 50 10             	mov    0x10(%eax),%edx
40004f77:	8b 45 bc             	mov    -0x44(%ebp),%eax
40004f7a:	39 c2                	cmp    %eax,%edx
40004f7c:	0f 96 c0             	setbe  %al
40004f7f:	0f b6 c0             	movzbl %al,%eax
40004f82:	85 c0                	test   %eax,%eax
40004f84:	74 0b                	je     40004f91 <prepend_alloc+0x365>
40004f86:	8b 45 bc             	mov    -0x44(%ebp),%eax
40004f89:	c7 00 00 00 00 00    	movl   $0x0,(%eax)
40004f8f:	eb 05                	jmp    40004f96 <prepend_alloc+0x36a>
40004f91:	e8 3a 7b 00 00       	call   4000cad0 <abort>
40004f96:	83 7d b0 00          	cmpl   $0x0,-0x50(%ebp)
40004f9a:	0f 84 3c 01 00 00    	je     400050dc <prepend_alloc+0x4b0>
40004fa0:	8b 45 08             	mov    0x8(%ebp),%eax
40004fa3:	8d 90 2c 01 00 00    	lea    0x12c(%eax),%edx
40004fa9:	8b 45 ac             	mov    -0x54(%ebp),%eax
40004fac:	8b 40 1c             	mov    0x1c(%eax),%eax
40004faf:	c1 e0 02             	shl    $0x2,%eax
40004fb2:	8d 04 02             	lea    (%edx,%eax,1),%eax
40004fb5:	89 45 c4             	mov    %eax,-0x3c(%ebp)
40004fb8:	8b 45 c4             	mov    -0x3c(%ebp),%eax
40004fbb:	8b 00                	mov    (%eax),%eax
40004fbd:	3b 45 ac             	cmp    -0x54(%ebp),%eax
40004fc0:	75 32                	jne    40004ff4 <prepend_alloc+0x3c8>
40004fc2:	8b 55 c4             	mov    -0x3c(%ebp),%edx
40004fc5:	8b 45 b4             	mov    -0x4c(%ebp),%eax
40004fc8:	89 02                	mov    %eax,(%edx)
40004fca:	8b 45 c4             	mov    -0x3c(%ebp),%eax
40004fcd:	8b 00                	mov    (%eax),%eax
40004fcf:	85 c0                	test   %eax,%eax
40004fd1:	75 5c                	jne    4000502f <prepend_alloc+0x403>
40004fd3:	8b 45 08             	mov    0x8(%ebp),%eax
40004fd6:	8b 50 04             	mov    0x4(%eax),%edx
40004fd9:	8b 45 ac             	mov    -0x54(%ebp),%eax
40004fdc:	8b 40 1c             	mov    0x1c(%eax),%eax
40004fdf:	89 c1                	mov    %eax,%ecx
40004fe1:	b8 01 00 00 00       	mov    $0x1,%eax
40004fe6:	d3 e0                	shl    %cl,%eax
40004fe8:	f7 d0                	not    %eax
40004fea:	21 c2                	and    %eax,%edx
40004fec:	8b 45 08             	mov    0x8(%ebp),%eax
40004fef:	89 50 04             	mov    %edx,0x4(%eax)
40004ff2:	eb 3b                	jmp    4000502f <prepend_alloc+0x403>
40004ff4:	8b 45 08             	mov    0x8(%ebp),%eax
40004ff7:	8b 50 10             	mov    0x10(%eax),%edx
40004ffa:	8b 45 b0             	mov    -0x50(%ebp),%eax
40004ffd:	39 c2                	cmp    %eax,%edx
40004fff:	0f 96 c0             	setbe  %al
40005002:	0f b6 c0             	movzbl %al,%eax
40005005:	85 c0                	test   %eax,%eax
40005007:	74 21                	je     4000502a <prepend_alloc+0x3fe>
40005009:	8b 45 b0             	mov    -0x50(%ebp),%eax
4000500c:	8b 40 10             	mov    0x10(%eax),%eax
4000500f:	3b 45 ac             	cmp    -0x54(%ebp),%eax
40005012:	75 0b                	jne    4000501f <prepend_alloc+0x3f3>
40005014:	8b 55 b0             	mov    -0x50(%ebp),%edx
40005017:	8b 45 b4             	mov    -0x4c(%ebp),%eax
4000501a:	89 42 10             	mov    %eax,0x10(%edx)
4000501d:	eb 10                	jmp    4000502f <prepend_alloc+0x403>
4000501f:	8b 55 b0             	mov    -0x50(%ebp),%edx
40005022:	8b 45 b4             	mov    -0x4c(%ebp),%eax
40005025:	89 42 14             	mov    %eax,0x14(%edx)
40005028:	eb 05                	jmp    4000502f <prepend_alloc+0x403>
4000502a:	e8 a1 7a 00 00       	call   4000cad0 <abort>
4000502f:	83 7d b4 00          	cmpl   $0x0,-0x4c(%ebp)
40005033:	0f 84 a3 00 00 00    	je     400050dc <prepend_alloc+0x4b0>
40005039:	8b 45 08             	mov    0x8(%ebp),%eax
4000503c:	8b 50 10             	mov    0x10(%eax),%edx
4000503f:	8b 45 b4             	mov    -0x4c(%ebp),%eax
40005042:	39 c2                	cmp    %eax,%edx
40005044:	0f 96 c0             	setbe  %al
40005047:	0f b6 c0             	movzbl %al,%eax
4000504a:	85 c0                	test   %eax,%eax
4000504c:	0f 84 85 00 00 00    	je     400050d7 <prepend_alloc+0x4ab>
40005052:	8b 55 b4             	mov    -0x4c(%ebp),%edx
40005055:	8b 45 b0             	mov    -0x50(%ebp),%eax
40005058:	89 42 18             	mov    %eax,0x18(%edx)
4000505b:	8b 45 ac             	mov    -0x54(%ebp),%eax
4000505e:	8b 40 10             	mov    0x10(%eax),%eax
40005061:	89 45 c8             	mov    %eax,-0x38(%ebp)
40005064:	83 7d c8 00          	cmpl   $0x0,-0x38(%ebp)
40005068:	74 2e                	je     40005098 <prepend_alloc+0x46c>
4000506a:	8b 45 08             	mov    0x8(%ebp),%eax
4000506d:	8b 50 10             	mov    0x10(%eax),%edx
40005070:	8b 45 c8             	mov    -0x38(%ebp),%eax
40005073:	39 c2                	cmp    %eax,%edx
40005075:	0f 96 c0             	setbe  %al
40005078:	0f b6 c0             	movzbl %al,%eax
4000507b:	85 c0                	test   %eax,%eax
4000507d:	74 14                	je     40005093 <prepend_alloc+0x467>
4000507f:	8b 55 b4             	mov    -0x4c(%ebp),%edx
40005082:	8b 45 c8             	mov    -0x38(%ebp),%eax
40005085:	89 42 10             	mov    %eax,0x10(%edx)
40005088:	8b 55 c8             	mov    -0x38(%ebp),%edx
4000508b:	8b 45 b4             	mov    -0x4c(%ebp),%eax
4000508e:	89 42 18             	mov    %eax,0x18(%edx)
40005091:	eb 05                	jmp    40005098 <prepend_alloc+0x46c>
40005093:	e8 38 7a 00 00       	call   4000cad0 <abort>
40005098:	8b 45 ac             	mov    -0x54(%ebp),%eax
4000509b:	8b 40 14             	mov    0x14(%eax),%eax
4000509e:	89 45 cc             	mov    %eax,-0x34(%ebp)
400050a1:	83 7d cc 00          	cmpl   $0x0,-0x34(%ebp)
400050a5:	74 35                	je     400050dc <prepend_alloc+0x4b0>
400050a7:	8b 45 08             	mov    0x8(%ebp),%eax
400050aa:	8b 50 10             	mov    0x10(%eax),%edx
400050ad:	8b 45 cc             	mov    -0x34(%ebp),%eax
400050b0:	39 c2                	cmp    %eax,%edx
400050b2:	0f 96 c0             	setbe  %al
400050b5:	0f b6 c0             	movzbl %al,%eax
400050b8:	85 c0                	test   %eax,%eax
400050ba:	74 14                	je     400050d0 <prepend_alloc+0x4a4>
400050bc:	8b 55 b4             	mov    -0x4c(%ebp),%edx
400050bf:	8b 45 cc             	mov    -0x34(%ebp),%eax
400050c2:	89 42 14             	mov    %eax,0x14(%edx)
400050c5:	8b 55 cc             	mov    -0x34(%ebp),%edx
400050c8:	8b 45 b4             	mov    -0x4c(%ebp),%eax
400050cb:	89 42 18             	mov    %eax,0x18(%edx)
400050ce:	eb 0c                	jmp    400050dc <prepend_alloc+0x4b0>
400050d0:	e8 fb 79 00 00       	call   4000cad0 <abort>
400050d5:	eb 05                	jmp    400050dc <prepend_alloc+0x4b0>
400050d7:	e8 f4 79 00 00       	call   4000cad0 <abort>
400050dc:	8b 45 9c             	mov    -0x64(%ebp),%eax
400050df:	01 45 84             	add    %eax,-0x7c(%ebp)
400050e2:	8b 45 9c             	mov    -0x64(%ebp),%eax
400050e5:	01 45 90             	add    %eax,-0x70(%ebp)
400050e8:	8b 45 84             	mov    -0x7c(%ebp),%eax
400050eb:	8b 40 04             	mov    0x4(%eax),%eax
400050ee:	89 c2                	mov    %eax,%edx
400050f0:	83 e2 fe             	and    $0xfffffffe,%edx
400050f3:	8b 45 84             	mov    -0x7c(%ebp),%eax
400050f6:	89 50 04             	mov    %edx,0x4(%eax)
400050f9:	8b 45 90             	mov    -0x70(%ebp),%eax
400050fc:	89 c2                	mov    %eax,%edx
400050fe:	83 ca 01             	or     $0x1,%edx
40005101:	8b 45 8c             	mov    -0x74(%ebp),%eax
40005104:	89 50 04             	mov    %edx,0x4(%eax)
40005107:	8b 55 90             	mov    -0x70(%ebp),%edx
4000510a:	8b 45 8c             	mov    -0x74(%ebp),%eax
4000510d:	8d 14 10             	lea    (%eax,%edx,1),%edx
40005110:	8b 45 90             	mov    -0x70(%ebp),%eax
40005113:	89 02                	mov    %eax,(%edx)
40005115:	8b 45 90             	mov    -0x70(%ebp),%eax
40005118:	c1 e8 03             	shr    $0x3,%eax
4000511b:	83 f8 1f             	cmp    $0x1f,%eax
4000511e:	0f 87 a3 00 00 00    	ja     400051c7 <prepend_alloc+0x59b>
40005124:	8b 45 90             	mov    -0x70(%ebp),%eax
40005127:	c1 e8 03             	shr    $0x3,%eax
4000512a:	89 45 d0             	mov    %eax,-0x30(%ebp)
4000512d:	8b 45 08             	mov    0x8(%ebp),%eax
40005130:	83 c0 24             	add    $0x24,%eax
40005133:	89 c2                	mov    %eax,%edx
40005135:	8b 45 d0             	mov    -0x30(%ebp),%eax
40005138:	c1 e0 03             	shl    $0x3,%eax
4000513b:	8d 04 02             	lea    (%edx,%eax,1),%eax
4000513e:	89 45 d4             	mov    %eax,-0x2c(%ebp)
40005141:	8b 45 d4             	mov    -0x2c(%ebp),%eax
40005144:	89 45 d8             	mov    %eax,-0x28(%ebp)
40005147:	8b 45 08             	mov    0x8(%ebp),%eax
4000514a:	8b 10                	mov    (%eax),%edx
4000514c:	8b 4d d0             	mov    -0x30(%ebp),%ecx
4000514f:	b8 01 00 00 00       	mov    $0x1,%eax
40005154:	d3 e0                	shl    %cl,%eax
40005156:	21 d0                	and    %edx,%eax
40005158:	85 c0                	test   %eax,%eax
4000515a:	75 18                	jne    40005174 <prepend_alloc+0x548>
4000515c:	8b 45 08             	mov    0x8(%ebp),%eax
4000515f:	8b 10                	mov    (%eax),%edx
40005161:	8b 4d d0             	mov    -0x30(%ebp),%ecx
40005164:	b8 01 00 00 00       	mov    $0x1,%eax
40005169:	d3 e0                	shl    %cl,%eax
4000516b:	09 c2                	or     %eax,%edx
4000516d:	8b 45 08             	mov    0x8(%ebp),%eax
40005170:	89 10                	mov    %edx,(%eax)
40005172:	eb 2a                	jmp    4000519e <prepend_alloc+0x572>
40005174:	8b 45 d4             	mov    -0x2c(%ebp),%eax
40005177:	8b 40 08             	mov    0x8(%eax),%eax
4000517a:	89 c2                	mov    %eax,%edx
4000517c:	8b 45 08             	mov    0x8(%ebp),%eax
4000517f:	8b 40 10             	mov    0x10(%eax),%eax
40005182:	39 c2                	cmp    %eax,%edx
40005184:	0f 93 c0             	setae  %al
40005187:	0f b6 c0             	movzbl %al,%eax
4000518a:	85 c0                	test   %eax,%eax
4000518c:	74 0b                	je     40005199 <prepend_alloc+0x56d>
4000518e:	8b 45 d4             	mov    -0x2c(%ebp),%eax
40005191:	8b 40 08             	mov    0x8(%eax),%eax
40005194:	89 45 d8             	mov    %eax,-0x28(%ebp)
40005197:	eb 05                	jmp    4000519e <prepend_alloc+0x572>
40005199:	e8 32 79 00 00       	call   4000cad0 <abort>
4000519e:	8b 55 d4             	mov    -0x2c(%ebp),%edx
400051a1:	8b 45 8c             	mov    -0x74(%ebp),%eax
400051a4:	89 42 08             	mov    %eax,0x8(%edx)
400051a7:	8b 55 d8             	mov    -0x28(%ebp),%edx
400051aa:	8b 45 8c             	mov    -0x74(%ebp),%eax
400051ad:	89 42 0c             	mov    %eax,0xc(%edx)
400051b0:	8b 55 8c             	mov    -0x74(%ebp),%edx
400051b3:	8b 45 d8             	mov    -0x28(%ebp),%eax
400051b6:	89 42 08             	mov    %eax,0x8(%edx)
400051b9:	8b 55 8c             	mov    -0x74(%ebp),%edx
400051bc:	8b 45 d4             	mov    -0x2c(%ebp),%eax
400051bf:	89 42 0c             	mov    %eax,0xc(%edx)
400051c2:	e9 05 02 00 00       	jmp    400053cc <prepend_alloc+0x7a0>
400051c7:	8b 45 8c             	mov    -0x74(%ebp),%eax
400051ca:	89 45 dc             	mov    %eax,-0x24(%ebp)
400051cd:	8b 45 90             	mov    -0x70(%ebp),%eax
400051d0:	c1 e8 08             	shr    $0x8,%eax
400051d3:	89 45 e8             	mov    %eax,-0x18(%ebp)
400051d6:	83 7d e8 00          	cmpl   $0x0,-0x18(%ebp)
400051da:	75 09                	jne    400051e5 <prepend_alloc+0x5b9>
400051dc:	c7 45 e4 00 00 00 00 	movl   $0x0,-0x1c(%ebp)
400051e3:	eb 35                	jmp    4000521a <prepend_alloc+0x5ee>
400051e5:	81 7d e8 ff ff 00 00 	cmpl   $0xffff,-0x18(%ebp)
400051ec:	76 09                	jbe    400051f7 <prepend_alloc+0x5cb>
400051ee:	c7 45 e4 1f 00 00 00 	movl   $0x1f,-0x1c(%ebp)
400051f5:	eb 23                	jmp    4000521a <prepend_alloc+0x5ee>
400051f7:	0f bd 45 e8          	bsr    -0x18(%ebp),%eax
400051fb:	89 45 ec             	mov    %eax,-0x14(%ebp)
400051fe:	8b 45 ec             	mov    -0x14(%ebp),%eax
40005201:	8d 14 00             	lea    (%eax,%eax,1),%edx
40005204:	8b 45 ec             	mov    -0x14(%ebp),%eax
40005207:	83 c0 07             	add    $0x7,%eax
4000520a:	89 c1                	mov    %eax,%ecx
4000520c:	8b 45 90             	mov    -0x70(%ebp),%eax
4000520f:	d3 e8                	shr    %cl,%eax
40005211:	83 e0 01             	and    $0x1,%eax
40005214:	8d 04 02             	lea    (%edx,%eax,1),%eax
40005217:	89 45 e4             	mov    %eax,-0x1c(%ebp)
4000521a:	8b 45 08             	mov    0x8(%ebp),%eax
4000521d:	8d 90 2c 01 00 00    	lea    0x12c(%eax),%edx
40005223:	8b 45 e4             	mov    -0x1c(%ebp),%eax
40005226:	c1 e0 02             	shl    $0x2,%eax
40005229:	8d 04 02             	lea    (%edx,%eax,1),%eax
4000522c:	89 45 e0             	mov    %eax,-0x20(%ebp)
4000522f:	8b 55 dc             	mov    -0x24(%ebp),%edx
40005232:	8b 45 e4             	mov    -0x1c(%ebp),%eax
40005235:	89 42 1c             	mov    %eax,0x1c(%edx)
40005238:	8b 45 dc             	mov    -0x24(%ebp),%eax
4000523b:	c7 40 14 00 00 00 00 	movl   $0x0,0x14(%eax)
40005242:	8b 45 dc             	mov    -0x24(%ebp),%eax
40005245:	8b 50 14             	mov    0x14(%eax),%edx
40005248:	8b 45 dc             	mov    -0x24(%ebp),%eax
4000524b:	89 50 10             	mov    %edx,0x10(%eax)
4000524e:	8b 45 08             	mov    0x8(%ebp),%eax
40005251:	8b 50 04             	mov    0x4(%eax),%edx
40005254:	8b 4d e4             	mov    -0x1c(%ebp),%ecx
40005257:	b8 01 00 00 00       	mov    $0x1,%eax
4000525c:	d3 e0                	shl    %cl,%eax
4000525e:	21 d0                	and    %edx,%eax
40005260:	85 c0                	test   %eax,%eax
40005262:	75 43                	jne    400052a7 <prepend_alloc+0x67b>
40005264:	8b 45 08             	mov    0x8(%ebp),%eax
40005267:	8b 50 04             	mov    0x4(%eax),%edx
4000526a:	8b 4d e4             	mov    -0x1c(%ebp),%ecx
4000526d:	b8 01 00 00 00       	mov    $0x1,%eax
40005272:	d3 e0                	shl    %cl,%eax
40005274:	09 c2                	or     %eax,%edx
40005276:	8b 45 08             	mov    0x8(%ebp),%eax
40005279:	89 50 04             	mov    %edx,0x4(%eax)
4000527c:	8b 55 e0             	mov    -0x20(%ebp),%edx
4000527f:	8b 45 dc             	mov    -0x24(%ebp),%eax
40005282:	89 02                	mov    %eax,(%edx)
40005284:	8b 55 e0             	mov    -0x20(%ebp),%edx
40005287:	8b 45 dc             	mov    -0x24(%ebp),%eax
4000528a:	89 50 18             	mov    %edx,0x18(%eax)
4000528d:	8b 55 dc             	mov    -0x24(%ebp),%edx
40005290:	8b 45 dc             	mov    -0x24(%ebp),%eax
40005293:	89 42 0c             	mov    %eax,0xc(%edx)
40005296:	8b 45 dc             	mov    -0x24(%ebp),%eax
40005299:	8b 50 0c             	mov    0xc(%eax),%edx
4000529c:	8b 45 dc             	mov    -0x24(%ebp),%eax
4000529f:	89 50 08             	mov    %edx,0x8(%eax)
400052a2:	e9 25 01 00 00       	jmp    400053cc <prepend_alloc+0x7a0>
400052a7:	8b 45 e0             	mov    -0x20(%ebp),%eax
400052aa:	8b 00                	mov    (%eax),%eax
400052ac:	89 45 f0             	mov    %eax,-0x10(%ebp)
400052af:	83 7d e4 1f          	cmpl   $0x1f,-0x1c(%ebp)
400052b3:	74 16                	je     400052cb <prepend_alloc+0x69f>
400052b5:	8b 45 e4             	mov    -0x1c(%ebp),%eax
400052b8:	89 c2                	mov    %eax,%edx
400052ba:	d1 ea                	shr    %edx
400052bc:	b8 19 00 00 00       	mov    $0x19,%eax
400052c1:	29 d0                	sub    %edx,%eax
400052c3:	89 85 7c ff ff ff    	mov    %eax,-0x84(%ebp)
400052c9:	eb 0a                	jmp    400052d5 <prepend_alloc+0x6a9>
400052cb:	c7 85 7c ff ff ff 00 	movl   $0x0,-0x84(%ebp)
400052d2:	00 00 00 
400052d5:	8b 45 90             	mov    -0x70(%ebp),%eax
400052d8:	0f b6 8d 7c ff ff ff 	movzbl -0x84(%ebp),%ecx
400052df:	d3 e0                	shl    %cl,%eax
400052e1:	89 45 f4             	mov    %eax,-0xc(%ebp)
400052e4:	8b 45 f0             	mov    -0x10(%ebp),%eax
400052e7:	8b 40 04             	mov    0x4(%eax),%eax
400052ea:	83 e0 fc             	and    $0xfffffffc,%eax
400052ed:	3b 45 90             	cmp    -0x70(%ebp),%eax
400052f0:	74 6f                	je     40005361 <prepend_alloc+0x735>
400052f2:	8b 45 f0             	mov    -0x10(%ebp),%eax
400052f5:	8d 50 10             	lea    0x10(%eax),%edx
400052f8:	8b 45 f4             	mov    -0xc(%ebp),%eax
400052fb:	c1 e8 1f             	shr    $0x1f,%eax
400052fe:	c1 e0 02             	shl    $0x2,%eax
40005301:	8d 04 02             	lea    (%edx,%eax,1),%eax
40005304:	89 45 f8             	mov    %eax,-0x8(%ebp)
40005307:	d1 65 f4             	shll   -0xc(%ebp)
4000530a:	8b 45 f8             	mov    -0x8(%ebp),%eax
4000530d:	8b 00                	mov    (%eax),%eax
4000530f:	85 c0                	test   %eax,%eax
40005311:	74 0a                	je     4000531d <prepend_alloc+0x6f1>
40005313:	8b 45 f8             	mov    -0x8(%ebp),%eax
40005316:	8b 00                	mov    (%eax),%eax
40005318:	89 45 f0             	mov    %eax,-0x10(%ebp)
4000531b:	eb c7                	jmp    400052e4 <prepend_alloc+0x6b8>
4000531d:	8b 45 08             	mov    0x8(%ebp),%eax
40005320:	8b 50 10             	mov    0x10(%eax),%edx
40005323:	8b 45 f8             	mov    -0x8(%ebp),%eax
40005326:	39 c2                	cmp    %eax,%edx
40005328:	0f 96 c0             	setbe  %al
4000532b:	0f b6 c0             	movzbl %al,%eax
4000532e:	85 c0                	test   %eax,%eax
40005330:	74 28                	je     4000535a <prepend_alloc+0x72e>
40005332:	8b 55 f8             	mov    -0x8(%ebp),%edx
40005335:	8b 45 dc             	mov    -0x24(%ebp),%eax
40005338:	89 02                	mov    %eax,(%edx)
4000533a:	8b 55 dc             	mov    -0x24(%ebp),%edx
4000533d:	8b 45 f0             	mov    -0x10(%ebp),%eax
40005340:	89 42 18             	mov    %eax,0x18(%edx)
40005343:	8b 55 dc             	mov    -0x24(%ebp),%edx
40005346:	8b 45 dc             	mov    -0x24(%ebp),%eax
40005349:	89 42 0c             	mov    %eax,0xc(%edx)
4000534c:	8b 45 dc             	mov    -0x24(%ebp),%eax
4000534f:	8b 50 0c             	mov    0xc(%eax),%edx
40005352:	8b 45 dc             	mov    -0x24(%ebp),%eax
40005355:	89 50 08             	mov    %edx,0x8(%eax)
40005358:	eb 72                	jmp    400053cc <prepend_alloc+0x7a0>
4000535a:	e8 71 77 00 00       	call   4000cad0 <abort>
4000535f:	eb 6b                	jmp    400053cc <prepend_alloc+0x7a0>
40005361:	8b 45 f0             	mov    -0x10(%ebp),%eax
40005364:	8b 40 08             	mov    0x8(%eax),%eax
40005367:	89 45 fc             	mov    %eax,-0x4(%ebp)
4000536a:	8b 45 08             	mov    0x8(%ebp),%eax
4000536d:	8b 50 10             	mov    0x10(%eax),%edx
40005370:	8b 45 f0             	mov    -0x10(%ebp),%eax
40005373:	39 c2                	cmp    %eax,%edx
40005375:	0f 96 c0             	setbe  %al
40005378:	0f b6 c0             	movzbl %al,%eax
4000537b:	85 c0                	test   %eax,%eax
4000537d:	74 48                	je     400053c7 <prepend_alloc+0x79b>
4000537f:	8b 45 08             	mov    0x8(%ebp),%eax
40005382:	8b 50 10             	mov    0x10(%eax),%edx
40005385:	8b 45 fc             	mov    -0x4(%ebp),%eax
40005388:	39 c2                	cmp    %eax,%edx
4000538a:	0f 96 c0             	setbe  %al
4000538d:	0f b6 c0             	movzbl %al,%eax
40005390:	85 c0                	test   %eax,%eax
40005392:	74 33                	je     400053c7 <prepend_alloc+0x79b>
40005394:	8b 55 fc             	mov    -0x4(%ebp),%edx
40005397:	8b 45 dc             	mov    -0x24(%ebp),%eax
4000539a:	89 42 0c             	mov    %eax,0xc(%edx)
4000539d:	8b 45 fc             	mov    -0x4(%ebp),%eax
400053a0:	8b 50 0c             	mov    0xc(%eax),%edx
400053a3:	8b 45 f0             	mov    -0x10(%ebp),%eax
400053a6:	89 50 08             	mov    %edx,0x8(%eax)
400053a9:	8b 55 dc             	mov    -0x24(%ebp),%edx
400053ac:	8b 45 fc             	mov    -0x4(%ebp),%eax
400053af:	89 42 08             	mov    %eax,0x8(%edx)
400053b2:	8b 55 dc             	mov    -0x24(%ebp),%edx
400053b5:	8b 45 f0             	mov    -0x10(%ebp),%eax
400053b8:	89 42 0c             	mov    %eax,0xc(%edx)
400053bb:	8b 45 dc             	mov    -0x24(%ebp),%eax
400053be:	c7 40 18 00 00 00 00 	movl   $0x0,0x18(%eax)
400053c5:	eb 05                	jmp    400053cc <prepend_alloc+0x7a0>
400053c7:	e8 04 77 00 00       	call   4000cad0 <abort>
400053cc:	8b 45 80             	mov    -0x80(%ebp),%eax
400053cf:	83 c0 08             	add    $0x8,%eax
400053d2:	c9                   	leave  
400053d3:	c3                   	ret    

400053d4 <add_segment>:
400053d4:	55                   	push   %ebp
400053d5:	89 e5                	mov    %esp,%ebp
400053d7:	81 ec 98 00 00 00    	sub    $0x98,%esp
400053dd:	8b 45 08             	mov    0x8(%ebp),%eax
400053e0:	8b 40 18             	mov    0x18(%eax),%eax
400053e3:	89 45 8c             	mov    %eax,-0x74(%ebp)
400053e6:	8b 45 8c             	mov    -0x74(%ebp),%eax
400053e9:	89 44 24 04          	mov    %eax,0x4(%esp)
400053ed:	8b 45 08             	mov    0x8(%ebp),%eax
400053f0:	89 04 24             	mov    %eax,(%esp)
400053f3:	e8 f0 ef ff ff       	call   400043e8 <segment_holding>
400053f8:	89 45 90             	mov    %eax,-0x70(%ebp)
400053fb:	8b 45 90             	mov    -0x70(%ebp),%eax
400053fe:	8b 10                	mov    (%eax),%edx
40005400:	8b 45 90             	mov    -0x70(%ebp),%eax
40005403:	8b 40 04             	mov    0x4(%eax),%eax
40005406:	8d 04 02             	lea    (%edx,%eax,1),%eax
40005409:	89 45 94             	mov    %eax,-0x6c(%ebp)
4000540c:	c7 45 98 18 00 00 00 	movl   $0x18,-0x68(%ebp)
40005413:	b8 e9 ff ff ff       	mov    $0xffffffe9,%eax
40005418:	2b 45 98             	sub    -0x68(%ebp),%eax
4000541b:	03 45 94             	add    -0x6c(%ebp),%eax
4000541e:	89 45 9c             	mov    %eax,-0x64(%ebp)
40005421:	8b 45 9c             	mov    -0x64(%ebp),%eax
40005424:	83 c0 08             	add    $0x8,%eax
40005427:	83 e0 07             	and    $0x7,%eax
4000542a:	85 c0                	test   %eax,%eax
4000542c:	74 1f                	je     4000544d <add_segment+0x79>
4000542e:	8b 45 9c             	mov    -0x64(%ebp),%eax
40005431:	83 c0 08             	add    $0x8,%eax
40005434:	89 c2                	mov    %eax,%edx
40005436:	83 e2 07             	and    $0x7,%edx
40005439:	b8 08 00 00 00       	mov    $0x8,%eax
4000543e:	29 d0                	sub    %edx,%eax
40005440:	89 c2                	mov    %eax,%edx
40005442:	83 e2 07             	and    $0x7,%edx
40005445:	89 95 74 ff ff ff    	mov    %edx,-0x8c(%ebp)
4000544b:	eb 0a                	jmp    40005457 <add_segment+0x83>
4000544d:	c7 85 74 ff ff ff 00 	movl   $0x0,-0x8c(%ebp)
40005454:	00 00 00 
40005457:	8b 8d 74 ff ff ff    	mov    -0x8c(%ebp),%ecx
4000545d:	89 4d a0             	mov    %ecx,-0x60(%ebp)
40005460:	8b 55 a0             	mov    -0x60(%ebp),%edx
40005463:	8b 45 9c             	mov    -0x64(%ebp),%eax
40005466:	01 d0                	add    %edx,%eax
40005468:	89 45 a4             	mov    %eax,-0x5c(%ebp)
4000546b:	8b 45 8c             	mov    -0x74(%ebp),%eax
4000546e:	83 c0 10             	add    $0x10,%eax
40005471:	3b 45 a4             	cmp    -0x5c(%ebp),%eax
40005474:	76 0b                	jbe    40005481 <add_segment+0xad>
40005476:	8b 45 8c             	mov    -0x74(%ebp),%eax
40005479:	89 85 78 ff ff ff    	mov    %eax,-0x88(%ebp)
4000547f:	eb 09                	jmp    4000548a <add_segment+0xb6>
40005481:	8b 55 a4             	mov    -0x5c(%ebp),%edx
40005484:	89 95 78 ff ff ff    	mov    %edx,-0x88(%ebp)
4000548a:	8b 8d 78 ff ff ff    	mov    -0x88(%ebp),%ecx
40005490:	89 4d a8             	mov    %ecx,-0x58(%ebp)
40005493:	8b 45 a8             	mov    -0x58(%ebp),%eax
40005496:	89 45 ac             	mov    %eax,-0x54(%ebp)
40005499:	8b 45 ac             	mov    -0x54(%ebp),%eax
4000549c:	83 c0 08             	add    $0x8,%eax
4000549f:	89 45 b0             	mov    %eax,-0x50(%ebp)
400054a2:	8b 55 98             	mov    -0x68(%ebp),%edx
400054a5:	8b 45 ac             	mov    -0x54(%ebp),%eax
400054a8:	01 d0                	add    %edx,%eax
400054aa:	89 45 b4             	mov    %eax,-0x4c(%ebp)
400054ad:	8b 45 b4             	mov    -0x4c(%ebp),%eax
400054b0:	89 45 b8             	mov    %eax,-0x48(%ebp)
400054b3:	c7 45 bc 00 00 00 00 	movl   $0x0,-0x44(%ebp)
400054ba:	8b 45 10             	mov    0x10(%ebp),%eax
400054bd:	83 e8 28             	sub    $0x28,%eax
400054c0:	8b 55 0c             	mov    0xc(%ebp),%edx
400054c3:	89 44 24 08          	mov    %eax,0x8(%esp)
400054c7:	89 54 24 04          	mov    %edx,0x4(%esp)
400054cb:	8b 45 08             	mov    0x8(%ebp),%eax
400054ce:	89 04 24             	mov    %eax,(%esp)
400054d1:	e8 8d f6 ff ff       	call   40004b63 <init_top>
400054d6:	8b 45 98             	mov    -0x68(%ebp),%eax
400054d9:	89 c2                	mov    %eax,%edx
400054db:	83 ca 03             	or     $0x3,%edx
400054de:	8b 45 ac             	mov    -0x54(%ebp),%eax
400054e1:	89 50 04             	mov    %edx,0x4(%eax)
400054e4:	8b 4d b0             	mov    -0x50(%ebp),%ecx
400054e7:	8b 55 08             	mov    0x8(%ebp),%edx
400054ea:	8b 82 b8 01 00 00    	mov    0x1b8(%edx),%eax
400054f0:	89 01                	mov    %eax,(%ecx)
400054f2:	8b 82 bc 01 00 00    	mov    0x1bc(%edx),%eax
400054f8:	89 41 04             	mov    %eax,0x4(%ecx)
400054fb:	8b 82 c0 01 00 00    	mov    0x1c0(%edx),%eax
40005501:	89 41 08             	mov    %eax,0x8(%ecx)
40005504:	8b 82 c4 01 00 00    	mov    0x1c4(%edx),%eax
4000550a:	89 41 0c             	mov    %eax,0xc(%ecx)
4000550d:	8b 55 08             	mov    0x8(%ebp),%edx
40005510:	8b 45 0c             	mov    0xc(%ebp),%eax
40005513:	89 82 b8 01 00 00    	mov    %eax,0x1b8(%edx)
40005519:	8b 55 08             	mov    0x8(%ebp),%edx
4000551c:	8b 45 10             	mov    0x10(%ebp),%eax
4000551f:	89 82 bc 01 00 00    	mov    %eax,0x1bc(%edx)
40005525:	8b 55 08             	mov    0x8(%ebp),%edx
40005528:	8b 45 14             	mov    0x14(%ebp),%eax
4000552b:	89 82 c4 01 00 00    	mov    %eax,0x1c4(%edx)
40005531:	8b 55 08             	mov    0x8(%ebp),%edx
40005534:	8b 45 b0             	mov    -0x50(%ebp),%eax
40005537:	89 82 c0 01 00 00    	mov    %eax,0x1c0(%edx)
4000553d:	8b 45 b8             	mov    -0x48(%ebp),%eax
40005540:	83 c0 04             	add    $0x4,%eax
40005543:	89 45 c0             	mov    %eax,-0x40(%ebp)
40005546:	8b 45 b8             	mov    -0x48(%ebp),%eax
40005549:	c7 40 04 07 00 00 00 	movl   $0x7,0x4(%eax)
40005550:	83 45 bc 01          	addl   $0x1,-0x44(%ebp)
40005554:	8b 45 c0             	mov    -0x40(%ebp),%eax
40005557:	83 c0 04             	add    $0x4,%eax
4000555a:	3b 45 94             	cmp    -0x6c(%ebp),%eax
4000555d:	73 08                	jae    40005567 <add_segment+0x193>
4000555f:	8b 45 c0             	mov    -0x40(%ebp),%eax
40005562:	89 45 b8             	mov    %eax,-0x48(%ebp)
40005565:	eb d6                	jmp    4000553d <add_segment+0x169>
40005567:	8b 45 a8             	mov    -0x58(%ebp),%eax
4000556a:	3b 45 8c             	cmp    -0x74(%ebp),%eax
4000556d:	0f 84 04 03 00 00    	je     40005877 <add_segment+0x4a3>
40005573:	8b 45 8c             	mov    -0x74(%ebp),%eax
40005576:	89 45 c4             	mov    %eax,-0x3c(%ebp)
40005579:	8b 55 a8             	mov    -0x58(%ebp),%edx
4000557c:	8b 45 8c             	mov    -0x74(%ebp),%eax
4000557f:	89 d1                	mov    %edx,%ecx
40005581:	29 c1                	sub    %eax,%ecx
40005583:	89 c8                	mov    %ecx,%eax
40005585:	89 45 c8             	mov    %eax,-0x38(%ebp)
40005588:	8b 55 c8             	mov    -0x38(%ebp),%edx
4000558b:	8b 45 c4             	mov    -0x3c(%ebp),%eax
4000558e:	01 d0                	add    %edx,%eax
40005590:	89 45 cc             	mov    %eax,-0x34(%ebp)
40005593:	8b 45 cc             	mov    -0x34(%ebp),%eax
40005596:	8b 40 04             	mov    0x4(%eax),%eax
40005599:	89 c2                	mov    %eax,%edx
4000559b:	83 e2 fe             	and    $0xfffffffe,%edx
4000559e:	8b 45 cc             	mov    -0x34(%ebp),%eax
400055a1:	89 50 04             	mov    %edx,0x4(%eax)
400055a4:	8b 45 c8             	mov    -0x38(%ebp),%eax
400055a7:	89 c2                	mov    %eax,%edx
400055a9:	83 ca 01             	or     $0x1,%edx
400055ac:	8b 45 c4             	mov    -0x3c(%ebp),%eax
400055af:	89 50 04             	mov    %edx,0x4(%eax)
400055b2:	8b 55 c8             	mov    -0x38(%ebp),%edx
400055b5:	8b 45 c4             	mov    -0x3c(%ebp),%eax
400055b8:	8d 14 10             	lea    (%eax,%edx,1),%edx
400055bb:	8b 45 c8             	mov    -0x38(%ebp),%eax
400055be:	89 02                	mov    %eax,(%edx)
400055c0:	8b 45 c8             	mov    -0x38(%ebp),%eax
400055c3:	c1 e8 03             	shr    $0x3,%eax
400055c6:	83 f8 1f             	cmp    $0x1f,%eax
400055c9:	0f 87 a3 00 00 00    	ja     40005672 <add_segment+0x29e>
400055cf:	8b 45 c8             	mov    -0x38(%ebp),%eax
400055d2:	c1 e8 03             	shr    $0x3,%eax
400055d5:	89 45 d0             	mov    %eax,-0x30(%ebp)
400055d8:	8b 45 08             	mov    0x8(%ebp),%eax
400055db:	83 c0 24             	add    $0x24,%eax
400055de:	89 c2                	mov    %eax,%edx
400055e0:	8b 45 d0             	mov    -0x30(%ebp),%eax
400055e3:	c1 e0 03             	shl    $0x3,%eax
400055e6:	8d 04 02             	lea    (%edx,%eax,1),%eax
400055e9:	89 45 d4             	mov    %eax,-0x2c(%ebp)
400055ec:	8b 45 d4             	mov    -0x2c(%ebp),%eax
400055ef:	89 45 d8             	mov    %eax,-0x28(%ebp)
400055f2:	8b 45 08             	mov    0x8(%ebp),%eax
400055f5:	8b 10                	mov    (%eax),%edx
400055f7:	8b 4d d0             	mov    -0x30(%ebp),%ecx
400055fa:	b8 01 00 00 00       	mov    $0x1,%eax
400055ff:	d3 e0                	shl    %cl,%eax
40005601:	21 d0                	and    %edx,%eax
40005603:	85 c0                	test   %eax,%eax
40005605:	75 18                	jne    4000561f <add_segment+0x24b>
40005607:	8b 45 08             	mov    0x8(%ebp),%eax
4000560a:	8b 10                	mov    (%eax),%edx
4000560c:	8b 4d d0             	mov    -0x30(%ebp),%ecx
4000560f:	b8 01 00 00 00       	mov    $0x1,%eax
40005614:	d3 e0                	shl    %cl,%eax
40005616:	09 c2                	or     %eax,%edx
40005618:	8b 45 08             	mov    0x8(%ebp),%eax
4000561b:	89 10                	mov    %edx,(%eax)
4000561d:	eb 2a                	jmp    40005649 <add_segment+0x275>
4000561f:	8b 45 d4             	mov    -0x2c(%ebp),%eax
40005622:	8b 40 08             	mov    0x8(%eax),%eax
40005625:	89 c2                	mov    %eax,%edx
40005627:	8b 45 08             	mov    0x8(%ebp),%eax
4000562a:	8b 40 10             	mov    0x10(%eax),%eax
4000562d:	39 c2                	cmp    %eax,%edx
4000562f:	0f 93 c0             	setae  %al
40005632:	0f b6 c0             	movzbl %al,%eax
40005635:	85 c0                	test   %eax,%eax
40005637:	74 0b                	je     40005644 <add_segment+0x270>
40005639:	8b 45 d4             	mov    -0x2c(%ebp),%eax
4000563c:	8b 40 08             	mov    0x8(%eax),%eax
4000563f:	89 45 d8             	mov    %eax,-0x28(%ebp)
40005642:	eb 05                	jmp    40005649 <add_segment+0x275>
40005644:	e8 87 74 00 00       	call   4000cad0 <abort>
40005649:	8b 55 d4             	mov    -0x2c(%ebp),%edx
4000564c:	8b 45 c4             	mov    -0x3c(%ebp),%eax
4000564f:	89 42 08             	mov    %eax,0x8(%edx)
40005652:	8b 55 d8             	mov    -0x28(%ebp),%edx
40005655:	8b 45 c4             	mov    -0x3c(%ebp),%eax
40005658:	89 42 0c             	mov    %eax,0xc(%edx)
4000565b:	8b 55 c4             	mov    -0x3c(%ebp),%edx
4000565e:	8b 45 d8             	mov    -0x28(%ebp),%eax
40005661:	89 42 08             	mov    %eax,0x8(%edx)
40005664:	8b 55 c4             	mov    -0x3c(%ebp),%edx
40005667:	8b 45 d4             	mov    -0x2c(%ebp),%eax
4000566a:	89 42 0c             	mov    %eax,0xc(%edx)
4000566d:	e9 05 02 00 00       	jmp    40005877 <add_segment+0x4a3>
40005672:	8b 45 c4             	mov    -0x3c(%ebp),%eax
40005675:	89 45 dc             	mov    %eax,-0x24(%ebp)
40005678:	8b 45 c8             	mov    -0x38(%ebp),%eax
4000567b:	c1 e8 08             	shr    $0x8,%eax
4000567e:	89 45 e8             	mov    %eax,-0x18(%ebp)
40005681:	83 7d e8 00          	cmpl   $0x0,-0x18(%ebp)
40005685:	75 09                	jne    40005690 <add_segment+0x2bc>
40005687:	c7 45 e4 00 00 00 00 	movl   $0x0,-0x1c(%ebp)
4000568e:	eb 35                	jmp    400056c5 <add_segment+0x2f1>
40005690:	81 7d e8 ff ff 00 00 	cmpl   $0xffff,-0x18(%ebp)
40005697:	76 09                	jbe    400056a2 <add_segment+0x2ce>
40005699:	c7 45 e4 1f 00 00 00 	movl   $0x1f,-0x1c(%ebp)
400056a0:	eb 23                	jmp    400056c5 <add_segment+0x2f1>
400056a2:	0f bd 45 e8          	bsr    -0x18(%ebp),%eax
400056a6:	89 45 ec             	mov    %eax,-0x14(%ebp)
400056a9:	8b 45 ec             	mov    -0x14(%ebp),%eax
400056ac:	8d 14 00             	lea    (%eax,%eax,1),%edx
400056af:	8b 45 ec             	mov    -0x14(%ebp),%eax
400056b2:	83 c0 07             	add    $0x7,%eax
400056b5:	89 c1                	mov    %eax,%ecx
400056b7:	8b 45 c8             	mov    -0x38(%ebp),%eax
400056ba:	d3 e8                	shr    %cl,%eax
400056bc:	83 e0 01             	and    $0x1,%eax
400056bf:	8d 04 02             	lea    (%edx,%eax,1),%eax
400056c2:	89 45 e4             	mov    %eax,-0x1c(%ebp)
400056c5:	8b 45 08             	mov    0x8(%ebp),%eax
400056c8:	8d 90 2c 01 00 00    	lea    0x12c(%eax),%edx
400056ce:	8b 45 e4             	mov    -0x1c(%ebp),%eax
400056d1:	c1 e0 02             	shl    $0x2,%eax
400056d4:	8d 04 02             	lea    (%edx,%eax,1),%eax
400056d7:	89 45 e0             	mov    %eax,-0x20(%ebp)
400056da:	8b 55 dc             	mov    -0x24(%ebp),%edx
400056dd:	8b 45 e4             	mov    -0x1c(%ebp),%eax
400056e0:	89 42 1c             	mov    %eax,0x1c(%edx)
400056e3:	8b 45 dc             	mov    -0x24(%ebp),%eax
400056e6:	c7 40 14 00 00 00 00 	movl   $0x0,0x14(%eax)
400056ed:	8b 45 dc             	mov    -0x24(%ebp),%eax
400056f0:	8b 50 14             	mov    0x14(%eax),%edx
400056f3:	8b 45 dc             	mov    -0x24(%ebp),%eax
400056f6:	89 50 10             	mov    %edx,0x10(%eax)
400056f9:	8b 45 08             	mov    0x8(%ebp),%eax
400056fc:	8b 50 04             	mov    0x4(%eax),%edx
400056ff:	8b 4d e4             	mov    -0x1c(%ebp),%ecx
40005702:	b8 01 00 00 00       	mov    $0x1,%eax
40005707:	d3 e0                	shl    %cl,%eax
40005709:	21 d0                	and    %edx,%eax
4000570b:	85 c0                	test   %eax,%eax
4000570d:	75 43                	jne    40005752 <add_segment+0x37e>
4000570f:	8b 45 08             	mov    0x8(%ebp),%eax
40005712:	8b 50 04             	mov    0x4(%eax),%edx
40005715:	8b 4d e4             	mov    -0x1c(%ebp),%ecx
40005718:	b8 01 00 00 00       	mov    $0x1,%eax
4000571d:	d3 e0                	shl    %cl,%eax
4000571f:	09 c2                	or     %eax,%edx
40005721:	8b 45 08             	mov    0x8(%ebp),%eax
40005724:	89 50 04             	mov    %edx,0x4(%eax)
40005727:	8b 55 e0             	mov    -0x20(%ebp),%edx
4000572a:	8b 45 dc             	mov    -0x24(%ebp),%eax
4000572d:	89 02                	mov    %eax,(%edx)
4000572f:	8b 55 e0             	mov    -0x20(%ebp),%edx
40005732:	8b 45 dc             	mov    -0x24(%ebp),%eax
40005735:	89 50 18             	mov    %edx,0x18(%eax)
40005738:	8b 55 dc             	mov    -0x24(%ebp),%edx
4000573b:	8b 45 dc             	mov    -0x24(%ebp),%eax
4000573e:	89 42 0c             	mov    %eax,0xc(%edx)
40005741:	8b 45 dc             	mov    -0x24(%ebp),%eax
40005744:	8b 50 0c             	mov    0xc(%eax),%edx
40005747:	8b 45 dc             	mov    -0x24(%ebp),%eax
4000574a:	89 50 08             	mov    %edx,0x8(%eax)
4000574d:	e9 25 01 00 00       	jmp    40005877 <add_segment+0x4a3>
40005752:	8b 45 e0             	mov    -0x20(%ebp),%eax
40005755:	8b 00                	mov    (%eax),%eax
40005757:	89 45 f0             	mov    %eax,-0x10(%ebp)
4000575a:	83 7d e4 1f          	cmpl   $0x1f,-0x1c(%ebp)
4000575e:	74 16                	je     40005776 <add_segment+0x3a2>
40005760:	8b 45 e4             	mov    -0x1c(%ebp),%eax
40005763:	89 c2                	mov    %eax,%edx
40005765:	d1 ea                	shr    %edx
40005767:	b8 19 00 00 00       	mov    $0x19,%eax
4000576c:	29 d0                	sub    %edx,%eax
4000576e:	89 85 7c ff ff ff    	mov    %eax,-0x84(%ebp)
40005774:	eb 0a                	jmp    40005780 <add_segment+0x3ac>
40005776:	c7 85 7c ff ff ff 00 	movl   $0x0,-0x84(%ebp)
4000577d:	00 00 00 
40005780:	8b 45 c8             	mov    -0x38(%ebp),%eax
40005783:	0f b6 8d 7c ff ff ff 	movzbl -0x84(%ebp),%ecx
4000578a:	d3 e0                	shl    %cl,%eax
4000578c:	89 45 f4             	mov    %eax,-0xc(%ebp)
4000578f:	8b 45 f0             	mov    -0x10(%ebp),%eax
40005792:	8b 40 04             	mov    0x4(%eax),%eax
40005795:	83 e0 fc             	and    $0xfffffffc,%eax
40005798:	3b 45 c8             	cmp    -0x38(%ebp),%eax
4000579b:	74 6f                	je     4000580c <add_segment+0x438>
4000579d:	8b 45 f0             	mov    -0x10(%ebp),%eax
400057a0:	8d 50 10             	lea    0x10(%eax),%edx
400057a3:	8b 45 f4             	mov    -0xc(%ebp),%eax
400057a6:	c1 e8 1f             	shr    $0x1f,%eax
400057a9:	c1 e0 02             	shl    $0x2,%eax
400057ac:	8d 04 02             	lea    (%edx,%eax,1),%eax
400057af:	89 45 f8             	mov    %eax,-0x8(%ebp)
400057b2:	d1 65 f4             	shll   -0xc(%ebp)
400057b5:	8b 45 f8             	mov    -0x8(%ebp),%eax
400057b8:	8b 00                	mov    (%eax),%eax
400057ba:	85 c0                	test   %eax,%eax
400057bc:	74 0a                	je     400057c8 <add_segment+0x3f4>
400057be:	8b 45 f8             	mov    -0x8(%ebp),%eax
400057c1:	8b 00                	mov    (%eax),%eax
400057c3:	89 45 f0             	mov    %eax,-0x10(%ebp)
400057c6:	eb c7                	jmp    4000578f <add_segment+0x3bb>
400057c8:	8b 45 08             	mov    0x8(%ebp),%eax
400057cb:	8b 50 10             	mov    0x10(%eax),%edx
400057ce:	8b 45 f8             	mov    -0x8(%ebp),%eax
400057d1:	39 c2                	cmp    %eax,%edx
400057d3:	0f 96 c0             	setbe  %al
400057d6:	0f b6 c0             	movzbl %al,%eax
400057d9:	85 c0                	test   %eax,%eax
400057db:	74 28                	je     40005805 <add_segment+0x431>
400057dd:	8b 55 f8             	mov    -0x8(%ebp),%edx
400057e0:	8b 45 dc             	mov    -0x24(%ebp),%eax
400057e3:	89 02                	mov    %eax,(%edx)
400057e5:	8b 55 dc             	mov    -0x24(%ebp),%edx
400057e8:	8b 45 f0             	mov    -0x10(%ebp),%eax
400057eb:	89 42 18             	mov    %eax,0x18(%edx)
400057ee:	8b 55 dc             	mov    -0x24(%ebp),%edx
400057f1:	8b 45 dc             	mov    -0x24(%ebp),%eax
400057f4:	89 42 0c             	mov    %eax,0xc(%edx)
400057f7:	8b 45 dc             	mov    -0x24(%ebp),%eax
400057fa:	8b 50 0c             	mov    0xc(%eax),%edx
400057fd:	8b 45 dc             	mov    -0x24(%ebp),%eax
40005800:	89 50 08             	mov    %edx,0x8(%eax)
40005803:	eb 72                	jmp    40005877 <add_segment+0x4a3>
40005805:	e8 c6 72 00 00       	call   4000cad0 <abort>
4000580a:	eb 6b                	jmp    40005877 <add_segment+0x4a3>
4000580c:	8b 45 f0             	mov    -0x10(%ebp),%eax
4000580f:	8b 40 08             	mov    0x8(%eax),%eax
40005812:	89 45 fc             	mov    %eax,-0x4(%ebp)
40005815:	8b 45 08             	mov    0x8(%ebp),%eax
40005818:	8b 50 10             	mov    0x10(%eax),%edx
4000581b:	8b 45 f0             	mov    -0x10(%ebp),%eax
4000581e:	39 c2                	cmp    %eax,%edx
40005820:	0f 96 c0             	setbe  %al
40005823:	0f b6 c0             	movzbl %al,%eax
40005826:	85 c0                	test   %eax,%eax
40005828:	74 48                	je     40005872 <add_segment+0x49e>
4000582a:	8b 45 08             	mov    0x8(%ebp),%eax
4000582d:	8b 50 10             	mov    0x10(%eax),%edx
40005830:	8b 45 fc             	mov    -0x4(%ebp),%eax
40005833:	39 c2                	cmp    %eax,%edx
40005835:	0f 96 c0             	setbe  %al
40005838:	0f b6 c0             	movzbl %al,%eax
4000583b:	85 c0                	test   %eax,%eax
4000583d:	74 33                	je     40005872 <add_segment+0x49e>
4000583f:	8b 55 fc             	mov    -0x4(%ebp),%edx
40005842:	8b 45 dc             	mov    -0x24(%ebp),%eax
40005845:	89 42 0c             	mov    %eax,0xc(%edx)
40005848:	8b 45 fc             	mov    -0x4(%ebp),%eax
4000584b:	8b 50 0c             	mov    0xc(%eax),%edx
4000584e:	8b 45 f0             	mov    -0x10(%ebp),%eax
40005851:	89 50 08             	mov    %edx,0x8(%eax)
40005854:	8b 55 dc             	mov    -0x24(%ebp),%edx
40005857:	8b 45 fc             	mov    -0x4(%ebp),%eax
4000585a:	89 42 08             	mov    %eax,0x8(%edx)
4000585d:	8b 55 dc             	mov    -0x24(%ebp),%edx
40005860:	8b 45 f0             	mov    -0x10(%ebp),%eax
40005863:	89 42 0c             	mov    %eax,0xc(%edx)
40005866:	8b 45 dc             	mov    -0x24(%ebp),%eax
40005869:	c7 40 18 00 00 00 00 	movl   $0x0,0x18(%eax)
40005870:	eb 05                	jmp    40005877 <add_segment+0x4a3>
40005872:	e8 59 72 00 00       	call   4000cad0 <abort>
40005877:	c9                   	leave  
40005878:	c3                   	ret    

40005879 <sys_alloc>:
40005879:	55                   	push   %ebp
4000587a:	89 e5                	mov    %esp,%ebp
4000587c:	83 ec 68             	sub    $0x68,%esp
4000587f:	c7 45 b4 ff ff ff ff 	movl   $0xffffffff,-0x4c(%ebp)
40005886:	c7 45 b8 00 00 00 00 	movl   $0x0,-0x48(%ebp)
4000588d:	c7 45 bc 00 00 00 00 	movl   $0x0,-0x44(%ebp)
40005894:	e8 f5 eb ff ff       	call   4000448e <init_mparams>
40005899:	8b 45 08             	mov    0x8(%ebp),%eax
4000589c:	8b 80 b4 01 00 00    	mov    0x1b4(%eax),%eax
400058a2:	83 e0 04             	and    $0x4,%eax
400058a5:	85 c0                	test   %eax,%eax
400058a7:	0f 85 e1 01 00 00    	jne    40005a8e <sys_alloc+0x215>
400058ad:	c7 45 c0 ff ff ff ff 	movl   $0xffffffff,-0x40(%ebp)
400058b4:	8b 45 08             	mov    0x8(%ebp),%eax
400058b7:	8b 40 18             	mov    0x18(%eax),%eax
400058ba:	85 c0                	test   %eax,%eax
400058bc:	74 1a                	je     400058d8 <sys_alloc+0x5f>
400058be:	8b 45 08             	mov    0x8(%ebp),%eax
400058c1:	8b 40 18             	mov    0x18(%eax),%eax
400058c4:	89 44 24 04          	mov    %eax,0x4(%esp)
400058c8:	8b 45 08             	mov    0x8(%ebp),%eax
400058cb:	89 04 24             	mov    %eax,(%esp)
400058ce:	e8 15 eb ff ff       	call   400043e8 <segment_holding>
400058d3:	89 45 ac             	mov    %eax,-0x54(%ebp)
400058d6:	eb 07                	jmp    400058df <sys_alloc+0x66>
400058d8:	c7 45 ac 00 00 00 00 	movl   $0x0,-0x54(%ebp)
400058df:	8b 45 ac             	mov    -0x54(%ebp),%eax
400058e2:	89 45 c4             	mov    %eax,-0x3c(%ebp)
400058e5:	c7 45 c8 00 00 00 00 	movl   $0x0,-0x38(%ebp)
400058ec:	83 7d c4 00          	cmpl   $0x0,-0x3c(%ebp)
400058f0:	0f 85 91 00 00 00    	jne    40005987 <sys_alloc+0x10e>
400058f6:	c7 04 24 00 00 00 00 	movl   $0x0,(%esp)
400058fd:	e8 36 3d 00 00       	call   40009638 <sbrk>
40005902:	89 45 cc             	mov    %eax,-0x34(%ebp)
40005905:	83 7d cc ff          	cmpl   $0xffffffff,-0x34(%ebp)
40005909:	0f 84 d4 00 00 00    	je     400059e3 <sys_alloc+0x16a>
4000590f:	a1 48 05 01 40       	mov    0x40010548,%eax
40005914:	03 45 0c             	add    0xc(%ebp),%eax
40005917:	8d 50 29             	lea    0x29(%eax),%edx
4000591a:	a1 48 05 01 40       	mov    0x40010548,%eax
4000591f:	f7 d8                	neg    %eax
40005921:	21 d0                	and    %edx,%eax
40005923:	89 45 c8             	mov    %eax,-0x38(%ebp)
40005926:	a1 44 05 01 40       	mov    0x40010544,%eax
4000592b:	8d 50 ff             	lea    -0x1(%eax),%edx
4000592e:	8b 45 cc             	mov    -0x34(%ebp),%eax
40005931:	21 d0                	and    %edx,%eax
40005933:	85 c0                	test   %eax,%eax
40005935:	74 1f                	je     40005956 <sys_alloc+0xdd>
40005937:	a1 44 05 01 40       	mov    0x40010544,%eax
4000593c:	03 45 cc             	add    -0x34(%ebp),%eax
4000593f:	89 c2                	mov    %eax,%edx
40005941:	a1 44 05 01 40       	mov    0x40010544,%eax
40005946:	f7 d8                	neg    %eax
40005948:	21 c2                	and    %eax,%edx
4000594a:	8b 45 cc             	mov    -0x34(%ebp),%eax
4000594d:	89 d1                	mov    %edx,%ecx
4000594f:	29 c1                	sub    %eax,%ecx
40005951:	89 c8                	mov    %ecx,%eax
40005953:	01 45 c8             	add    %eax,-0x38(%ebp)
40005956:	81 7d c8 fe ff ff 7f 	cmpl   $0x7ffffffe,-0x38(%ebp)
4000595d:	0f 87 80 00 00 00    	ja     400059e3 <sys_alloc+0x16a>
40005963:	8b 45 c8             	mov    -0x38(%ebp),%eax
40005966:	89 04 24             	mov    %eax,(%esp)
40005969:	e8 ca 3c 00 00       	call   40009638 <sbrk>
4000596e:	89 45 c0             	mov    %eax,-0x40(%ebp)
40005971:	8b 45 c0             	mov    -0x40(%ebp),%eax
40005974:	3b 45 cc             	cmp    -0x34(%ebp),%eax
40005977:	75 6a                	jne    400059e3 <sys_alloc+0x16a>
40005979:	8b 45 cc             	mov    -0x34(%ebp),%eax
4000597c:	89 45 b4             	mov    %eax,-0x4c(%ebp)
4000597f:	8b 45 c8             	mov    -0x38(%ebp),%eax
40005982:	89 45 b8             	mov    %eax,-0x48(%ebp)
40005985:	eb 5c                	jmp    400059e3 <sys_alloc+0x16a>
40005987:	8b 45 08             	mov    0x8(%ebp),%eax
4000598a:	8b 50 0c             	mov    0xc(%eax),%edx
4000598d:	8b 45 0c             	mov    0xc(%ebp),%eax
40005990:	89 c1                	mov    %eax,%ecx
40005992:	29 d1                	sub    %edx,%ecx
40005994:	89 ca                	mov    %ecx,%edx
40005996:	a1 48 05 01 40       	mov    0x40010548,%eax
4000599b:	8d 04 02             	lea    (%edx,%eax,1),%eax
4000599e:	8d 50 29             	lea    0x29(%eax),%edx
400059a1:	a1 48 05 01 40       	mov    0x40010548,%eax
400059a6:	f7 d8                	neg    %eax
400059a8:	21 d0                	and    %edx,%eax
400059aa:	89 45 c8             	mov    %eax,-0x38(%ebp)
400059ad:	81 7d c8 fe ff ff 7f 	cmpl   $0x7ffffffe,-0x38(%ebp)
400059b4:	77 2d                	ja     400059e3 <sys_alloc+0x16a>
400059b6:	8b 45 c8             	mov    -0x38(%ebp),%eax
400059b9:	89 04 24             	mov    %eax,(%esp)
400059bc:	e8 77 3c 00 00       	call   40009638 <sbrk>
400059c1:	89 45 c0             	mov    %eax,-0x40(%ebp)
400059c4:	8b 45 c4             	mov    -0x3c(%ebp),%eax
400059c7:	8b 10                	mov    (%eax),%edx
400059c9:	8b 45 c4             	mov    -0x3c(%ebp),%eax
400059cc:	8b 40 04             	mov    0x4(%eax),%eax
400059cf:	8d 04 02             	lea    (%edx,%eax,1),%eax
400059d2:	39 45 c0             	cmp    %eax,-0x40(%ebp)
400059d5:	75 0c                	jne    400059e3 <sys_alloc+0x16a>
400059d7:	8b 45 c0             	mov    -0x40(%ebp),%eax
400059da:	89 45 b4             	mov    %eax,-0x4c(%ebp)
400059dd:	8b 45 c8             	mov    -0x38(%ebp),%eax
400059e0:	89 45 b8             	mov    %eax,-0x48(%ebp)
400059e3:	83 7d b4 ff          	cmpl   $0xffffffff,-0x4c(%ebp)
400059e7:	0f 85 a1 00 00 00    	jne    40005a8e <sys_alloc+0x215>
400059ed:	83 7d c0 ff          	cmpl   $0xffffffff,-0x40(%ebp)
400059f1:	74 70                	je     40005a63 <sys_alloc+0x1ea>
400059f3:	81 7d c8 fe ff ff 7f 	cmpl   $0x7ffffffe,-0x38(%ebp)
400059fa:	77 67                	ja     40005a63 <sys_alloc+0x1ea>
400059fc:	8b 45 0c             	mov    0xc(%ebp),%eax
400059ff:	83 c0 29             	add    $0x29,%eax
40005a02:	3b 45 c8             	cmp    -0x38(%ebp),%eax
40005a05:	76 5c                	jbe    40005a63 <sys_alloc+0x1ea>
40005a07:	8b 55 c8             	mov    -0x38(%ebp),%edx
40005a0a:	8b 45 0c             	mov    0xc(%ebp),%eax
40005a0d:	89 c1                	mov    %eax,%ecx
40005a0f:	29 d1                	sub    %edx,%ecx
40005a11:	89 ca                	mov    %ecx,%edx
40005a13:	a1 48 05 01 40       	mov    0x40010548,%eax
40005a18:	8d 04 02             	lea    (%edx,%eax,1),%eax
40005a1b:	8d 50 29             	lea    0x29(%eax),%edx
40005a1e:	a1 48 05 01 40       	mov    0x40010548,%eax
40005a23:	f7 d8                	neg    %eax
40005a25:	21 d0                	and    %edx,%eax
40005a27:	89 45 d0             	mov    %eax,-0x30(%ebp)
40005a2a:	81 7d d0 fe ff ff 7f 	cmpl   $0x7ffffffe,-0x30(%ebp)
40005a31:	77 30                	ja     40005a63 <sys_alloc+0x1ea>
40005a33:	8b 45 d0             	mov    -0x30(%ebp),%eax
40005a36:	89 04 24             	mov    %eax,(%esp)
40005a39:	e8 fa 3b 00 00       	call   40009638 <sbrk>
40005a3e:	89 45 d4             	mov    %eax,-0x2c(%ebp)
40005a41:	83 7d d4 ff          	cmpl   $0xffffffff,-0x2c(%ebp)
40005a45:	74 08                	je     40005a4f <sys_alloc+0x1d6>
40005a47:	8b 45 d0             	mov    -0x30(%ebp),%eax
40005a4a:	01 45 c8             	add    %eax,-0x38(%ebp)
40005a4d:	eb 14                	jmp    40005a63 <sys_alloc+0x1ea>
40005a4f:	8b 45 c8             	mov    -0x38(%ebp),%eax
40005a52:	f7 d8                	neg    %eax
40005a54:	89 04 24             	mov    %eax,(%esp)
40005a57:	e8 dc 3b 00 00       	call   40009638 <sbrk>
40005a5c:	c7 45 c0 ff ff ff ff 	movl   $0xffffffff,-0x40(%ebp)
40005a63:	83 7d c0 ff          	cmpl   $0xffffffff,-0x40(%ebp)
40005a67:	74 0e                	je     40005a77 <sys_alloc+0x1fe>
40005a69:	8b 45 c0             	mov    -0x40(%ebp),%eax
40005a6c:	89 45 b4             	mov    %eax,-0x4c(%ebp)
40005a6f:	8b 45 c8             	mov    -0x38(%ebp),%eax
40005a72:	89 45 b8             	mov    %eax,-0x48(%ebp)
40005a75:	eb 17                	jmp    40005a8e <sys_alloc+0x215>
40005a77:	8b 45 08             	mov    0x8(%ebp),%eax
40005a7a:	8b 80 b4 01 00 00    	mov    0x1b4(%eax),%eax
40005a80:	89 c2                	mov    %eax,%edx
40005a82:	83 ca 04             	or     $0x4,%edx
40005a85:	8b 45 08             	mov    0x8(%ebp),%eax
40005a88:	89 90 b4 01 00 00    	mov    %edx,0x1b4(%eax)
40005a8e:	83 7d b4 ff          	cmpl   $0xffffffff,-0x4c(%ebp)
40005a92:	0f 85 85 00 00 00    	jne    40005b1d <sys_alloc+0x2a4>
40005a98:	a1 48 05 01 40       	mov    0x40010548,%eax
40005a9d:	03 45 0c             	add    0xc(%ebp),%eax
40005aa0:	8d 50 29             	lea    0x29(%eax),%edx
40005aa3:	a1 48 05 01 40       	mov    0x40010548,%eax
40005aa8:	f7 d8                	neg    %eax
40005aaa:	21 d0                	and    %edx,%eax
40005aac:	89 45 d8             	mov    %eax,-0x28(%ebp)
40005aaf:	81 7d d8 fe ff ff 7f 	cmpl   $0x7ffffffe,-0x28(%ebp)
40005ab6:	77 65                	ja     40005b1d <sys_alloc+0x2a4>
40005ab8:	c7 45 dc ff ff ff ff 	movl   $0xffffffff,-0x24(%ebp)
40005abf:	c7 45 e0 ff ff ff ff 	movl   $0xffffffff,-0x20(%ebp)
40005ac6:	8b 45 d8             	mov    -0x28(%ebp),%eax
40005ac9:	89 04 24             	mov    %eax,(%esp)
40005acc:	e8 67 3b 00 00       	call   40009638 <sbrk>
40005ad1:	89 45 dc             	mov    %eax,-0x24(%ebp)
40005ad4:	c7 04 24 00 00 00 00 	movl   $0x0,(%esp)
40005adb:	e8 58 3b 00 00       	call   40009638 <sbrk>
40005ae0:	89 45 e0             	mov    %eax,-0x20(%ebp)
40005ae3:	83 7d dc ff          	cmpl   $0xffffffff,-0x24(%ebp)
40005ae7:	74 34                	je     40005b1d <sys_alloc+0x2a4>
40005ae9:	83 7d e0 ff          	cmpl   $0xffffffff,-0x20(%ebp)
40005aed:	74 2e                	je     40005b1d <sys_alloc+0x2a4>
40005aef:	8b 45 dc             	mov    -0x24(%ebp),%eax
40005af2:	3b 45 e0             	cmp    -0x20(%ebp),%eax
40005af5:	73 26                	jae    40005b1d <sys_alloc+0x2a4>
40005af7:	8b 55 e0             	mov    -0x20(%ebp),%edx
40005afa:	8b 45 dc             	mov    -0x24(%ebp),%eax
40005afd:	89 d1                	mov    %edx,%ecx
40005aff:	29 c1                	sub    %eax,%ecx
40005b01:	89 c8                	mov    %ecx,%eax
40005b03:	89 45 e4             	mov    %eax,-0x1c(%ebp)
40005b06:	8b 45 0c             	mov    0xc(%ebp),%eax
40005b09:	83 c0 28             	add    $0x28,%eax
40005b0c:	3b 45 e4             	cmp    -0x1c(%ebp),%eax
40005b0f:	73 0c                	jae    40005b1d <sys_alloc+0x2a4>
40005b11:	8b 45 dc             	mov    -0x24(%ebp),%eax
40005b14:	89 45 b4             	mov    %eax,-0x4c(%ebp)
40005b17:	8b 45 e4             	mov    -0x1c(%ebp),%eax
40005b1a:	89 45 b8             	mov    %eax,-0x48(%ebp)
40005b1d:	83 7d b4 ff          	cmpl   $0xffffffff,-0x4c(%ebp)
40005b21:	0f 84 e4 02 00 00    	je     40005e0b <sys_alloc+0x592>
40005b27:	8b 45 08             	mov    0x8(%ebp),%eax
40005b2a:	8b 80 ac 01 00 00    	mov    0x1ac(%eax),%eax
40005b30:	89 c2                	mov    %eax,%edx
40005b32:	03 55 b8             	add    -0x48(%ebp),%edx
40005b35:	8b 45 08             	mov    0x8(%ebp),%eax
40005b38:	89 90 ac 01 00 00    	mov    %edx,0x1ac(%eax)
40005b3e:	8b 45 08             	mov    0x8(%ebp),%eax
40005b41:	8b 90 ac 01 00 00    	mov    0x1ac(%eax),%edx
40005b47:	8b 45 08             	mov    0x8(%ebp),%eax
40005b4a:	8b 80 b0 01 00 00    	mov    0x1b0(%eax),%eax
40005b50:	39 c2                	cmp    %eax,%edx
40005b52:	76 12                	jbe    40005b66 <sys_alloc+0x2ed>
40005b54:	8b 45 08             	mov    0x8(%ebp),%eax
40005b57:	8b 90 ac 01 00 00    	mov    0x1ac(%eax),%edx
40005b5d:	8b 45 08             	mov    0x8(%ebp),%eax
40005b60:	89 90 b0 01 00 00    	mov    %edx,0x1b0(%eax)
40005b66:	8b 45 08             	mov    0x8(%ebp),%eax
40005b69:	8b 40 18             	mov    0x18(%eax),%eax
40005b6c:	85 c0                	test   %eax,%eax
40005b6e:	0f 85 ba 00 00 00    	jne    40005c2e <sys_alloc+0x3b5>
40005b74:	8b 55 08             	mov    0x8(%ebp),%edx
40005b77:	8b 45 b4             	mov    -0x4c(%ebp),%eax
40005b7a:	89 42 10             	mov    %eax,0x10(%edx)
40005b7d:	8b 45 08             	mov    0x8(%ebp),%eax
40005b80:	8b 50 10             	mov    0x10(%eax),%edx
40005b83:	8b 45 08             	mov    0x8(%ebp),%eax
40005b86:	89 90 b8 01 00 00    	mov    %edx,0x1b8(%eax)
40005b8c:	8b 55 08             	mov    0x8(%ebp),%edx
40005b8f:	8b 45 b8             	mov    -0x48(%ebp),%eax
40005b92:	89 82 bc 01 00 00    	mov    %eax,0x1bc(%edx)
40005b98:	8b 55 08             	mov    0x8(%ebp),%edx
40005b9b:	8b 45 bc             	mov    -0x44(%ebp),%eax
40005b9e:	89 82 c4 01 00 00    	mov    %eax,0x1c4(%edx)
40005ba4:	8b 15 40 05 01 40    	mov    0x40010540,%edx
40005baa:	8b 45 08             	mov    0x8(%ebp),%eax
40005bad:	89 50 20             	mov    %edx,0x20(%eax)
40005bb0:	8b 45 08             	mov    0x8(%ebp),%eax
40005bb3:	89 04 24             	mov    %eax,(%esp)
40005bb6:	e8 2d f0 ff ff       	call   40004be8 <init_bins>
40005bbb:	81 7d 08 60 05 01 40 	cmpl   $0x40010560,0x8(%ebp)
40005bc2:	75 21                	jne    40005be5 <sys_alloc+0x36c>
40005bc4:	8b 45 b8             	mov    -0x48(%ebp),%eax
40005bc7:	83 e8 28             	sub    $0x28,%eax
40005bca:	8b 55 b4             	mov    -0x4c(%ebp),%edx
40005bcd:	89 44 24 08          	mov    %eax,0x8(%esp)
40005bd1:	89 54 24 04          	mov    %edx,0x4(%esp)
40005bd5:	8b 45 08             	mov    0x8(%ebp),%eax
40005bd8:	89 04 24             	mov    %eax,(%esp)
40005bdb:	e8 83 ef ff ff       	call   40004b63 <init_top>
40005be0:	e9 b9 01 00 00       	jmp    40005d9e <sys_alloc+0x525>
40005be5:	8b 55 08             	mov    0x8(%ebp),%edx
40005be8:	8b 45 08             	mov    0x8(%ebp),%eax
40005beb:	83 e8 08             	sub    $0x8,%eax
40005bee:	8b 40 04             	mov    0x4(%eax),%eax
40005bf1:	83 e0 fc             	and    $0xfffffffc,%eax
40005bf4:	83 e8 08             	sub    $0x8,%eax
40005bf7:	8d 04 02             	lea    (%edx,%eax,1),%eax
40005bfa:	89 45 e8             	mov    %eax,-0x18(%ebp)
40005bfd:	8b 55 b8             	mov    -0x48(%ebp),%edx
40005c00:	8b 45 b4             	mov    -0x4c(%ebp),%eax
40005c03:	01 d0                	add    %edx,%eax
40005c05:	89 c2                	mov    %eax,%edx
40005c07:	8b 45 e8             	mov    -0x18(%ebp),%eax
40005c0a:	89 d1                	mov    %edx,%ecx
40005c0c:	29 c1                	sub    %eax,%ecx
40005c0e:	89 c8                	mov    %ecx,%eax
40005c10:	83 e8 28             	sub    $0x28,%eax
40005c13:	89 44 24 08          	mov    %eax,0x8(%esp)
40005c17:	8b 45 e8             	mov    -0x18(%ebp),%eax
40005c1a:	89 44 24 04          	mov    %eax,0x4(%esp)
40005c1e:	8b 45 08             	mov    0x8(%ebp),%eax
40005c21:	89 04 24             	mov    %eax,(%esp)
40005c24:	e8 3a ef ff ff       	call   40004b63 <init_top>
40005c29:	e9 70 01 00 00       	jmp    40005d9e <sys_alloc+0x525>
40005c2e:	8b 45 08             	mov    0x8(%ebp),%eax
40005c31:	05 b8 01 00 00       	add    $0x1b8,%eax
40005c36:	89 45 ec             	mov    %eax,-0x14(%ebp)
40005c39:	eb 09                	jmp    40005c44 <sys_alloc+0x3cb>
40005c3b:	8b 45 ec             	mov    -0x14(%ebp),%eax
40005c3e:	8b 40 08             	mov    0x8(%eax),%eax
40005c41:	89 45 ec             	mov    %eax,-0x14(%ebp)
40005c44:	83 7d ec 00          	cmpl   $0x0,-0x14(%ebp)
40005c48:	74 13                	je     40005c5d <sys_alloc+0x3e4>
40005c4a:	8b 45 ec             	mov    -0x14(%ebp),%eax
40005c4d:	8b 10                	mov    (%eax),%edx
40005c4f:	8b 45 ec             	mov    -0x14(%ebp),%eax
40005c52:	8b 40 04             	mov    0x4(%eax),%eax
40005c55:	8d 04 02             	lea    (%edx,%eax,1),%eax
40005c58:	3b 45 b4             	cmp    -0x4c(%ebp),%eax
40005c5b:	75 de                	jne    40005c3b <sys_alloc+0x3c2>
40005c5d:	83 7d ec 00          	cmpl   $0x0,-0x14(%ebp)
40005c61:	74 78                	je     40005cdb <sys_alloc+0x462>
40005c63:	8b 45 ec             	mov    -0x14(%ebp),%eax
40005c66:	8b 40 0c             	mov    0xc(%eax),%eax
40005c69:	83 e0 08             	and    $0x8,%eax
40005c6c:	85 c0                	test   %eax,%eax
40005c6e:	75 6b                	jne    40005cdb <sys_alloc+0x462>
40005c70:	83 7d bc 00          	cmpl   $0x0,-0x44(%ebp)
40005c74:	75 65                	jne    40005cdb <sys_alloc+0x462>
40005c76:	8b 45 08             	mov    0x8(%ebp),%eax
40005c79:	8b 40 18             	mov    0x18(%eax),%eax
40005c7c:	89 c2                	mov    %eax,%edx
40005c7e:	8b 45 ec             	mov    -0x14(%ebp),%eax
40005c81:	8b 00                	mov    (%eax),%eax
40005c83:	39 c2                	cmp    %eax,%edx
40005c85:	72 54                	jb     40005cdb <sys_alloc+0x462>
40005c87:	8b 45 08             	mov    0x8(%ebp),%eax
40005c8a:	8b 40 18             	mov    0x18(%eax),%eax
40005c8d:	89 c1                	mov    %eax,%ecx
40005c8f:	8b 45 ec             	mov    -0x14(%ebp),%eax
40005c92:	8b 10                	mov    (%eax),%edx
40005c94:	8b 45 ec             	mov    -0x14(%ebp),%eax
40005c97:	8b 40 04             	mov    0x4(%eax),%eax
40005c9a:	8d 04 02             	lea    (%edx,%eax,1),%eax
40005c9d:	39 c1                	cmp    %eax,%ecx
40005c9f:	73 3a                	jae    40005cdb <sys_alloc+0x462>
40005ca1:	8b 45 ec             	mov    -0x14(%ebp),%eax
40005ca4:	8b 40 04             	mov    0x4(%eax),%eax
40005ca7:	89 c2                	mov    %eax,%edx
40005ca9:	03 55 b8             	add    -0x48(%ebp),%edx
40005cac:	8b 45 ec             	mov    -0x14(%ebp),%eax
40005caf:	89 50 04             	mov    %edx,0x4(%eax)
40005cb2:	8b 45 08             	mov    0x8(%ebp),%eax
40005cb5:	8b 40 0c             	mov    0xc(%eax),%eax
40005cb8:	89 c2                	mov    %eax,%edx
40005cba:	03 55 b8             	add    -0x48(%ebp),%edx
40005cbd:	8b 45 08             	mov    0x8(%ebp),%eax
40005cc0:	8b 40 18             	mov    0x18(%eax),%eax
40005cc3:	89 54 24 08          	mov    %edx,0x8(%esp)
40005cc7:	89 44 24 04          	mov    %eax,0x4(%esp)
40005ccb:	8b 45 08             	mov    0x8(%ebp),%eax
40005cce:	89 04 24             	mov    %eax,(%esp)
40005cd1:	e8 8d ee ff ff       	call   40004b63 <init_top>
40005cd6:	e9 c3 00 00 00       	jmp    40005d9e <sys_alloc+0x525>
40005cdb:	8b 45 08             	mov    0x8(%ebp),%eax
40005cde:	8b 40 10             	mov    0x10(%eax),%eax
40005ce1:	3b 45 b4             	cmp    -0x4c(%ebp),%eax
40005ce4:	76 09                	jbe    40005cef <sys_alloc+0x476>
40005ce6:	8b 55 08             	mov    0x8(%ebp),%edx
40005ce9:	8b 45 b4             	mov    -0x4c(%ebp),%eax
40005cec:	89 42 10             	mov    %eax,0x10(%edx)
40005cef:	8b 45 08             	mov    0x8(%ebp),%eax
40005cf2:	05 b8 01 00 00       	add    $0x1b8,%eax
40005cf7:	89 45 ec             	mov    %eax,-0x14(%ebp)
40005cfa:	eb 09                	jmp    40005d05 <sys_alloc+0x48c>
40005cfc:	8b 45 ec             	mov    -0x14(%ebp),%eax
40005cff:	8b 40 08             	mov    0x8(%eax),%eax
40005d02:	89 45 ec             	mov    %eax,-0x14(%ebp)
40005d05:	83 7d ec 00          	cmpl   $0x0,-0x14(%ebp)
40005d09:	74 11                	je     40005d1c <sys_alloc+0x4a3>
40005d0b:	8b 45 ec             	mov    -0x14(%ebp),%eax
40005d0e:	8b 08                	mov    (%eax),%ecx
40005d10:	8b 55 b8             	mov    -0x48(%ebp),%edx
40005d13:	8b 45 b4             	mov    -0x4c(%ebp),%eax
40005d16:	01 d0                	add    %edx,%eax
40005d18:	39 c1                	cmp    %eax,%ecx
40005d1a:	75 e0                	jne    40005cfc <sys_alloc+0x483>
40005d1c:	83 7d ec 00          	cmpl   $0x0,-0x14(%ebp)
40005d20:	74 5c                	je     40005d7e <sys_alloc+0x505>
40005d22:	8b 45 ec             	mov    -0x14(%ebp),%eax
40005d25:	8b 40 0c             	mov    0xc(%eax),%eax
40005d28:	83 e0 08             	and    $0x8,%eax
40005d2b:	85 c0                	test   %eax,%eax
40005d2d:	75 4f                	jne    40005d7e <sys_alloc+0x505>
40005d2f:	83 7d bc 00          	cmpl   $0x0,-0x44(%ebp)
40005d33:	75 49                	jne    40005d7e <sys_alloc+0x505>
40005d35:	8b 45 ec             	mov    -0x14(%ebp),%eax
40005d38:	8b 00                	mov    (%eax),%eax
40005d3a:	89 45 f0             	mov    %eax,-0x10(%ebp)
40005d3d:	8b 55 ec             	mov    -0x14(%ebp),%edx
40005d40:	8b 45 b4             	mov    -0x4c(%ebp),%eax
40005d43:	89 02                	mov    %eax,(%edx)
40005d45:	8b 45 ec             	mov    -0x14(%ebp),%eax
40005d48:	8b 40 04             	mov    0x4(%eax),%eax
40005d4b:	89 c2                	mov    %eax,%edx
40005d4d:	03 55 b8             	add    -0x48(%ebp),%edx
40005d50:	8b 45 ec             	mov    -0x14(%ebp),%eax
40005d53:	89 50 04             	mov    %edx,0x4(%eax)
40005d56:	8b 45 0c             	mov    0xc(%ebp),%eax
40005d59:	89 44 24 0c          	mov    %eax,0xc(%esp)
40005d5d:	8b 45 f0             	mov    -0x10(%ebp),%eax
40005d60:	89 44 24 08          	mov    %eax,0x8(%esp)
40005d64:	8b 45 b4             	mov    -0x4c(%ebp),%eax
40005d67:	89 44 24 04          	mov    %eax,0x4(%esp)
40005d6b:	8b 45 08             	mov    0x8(%ebp),%eax
40005d6e:	89 04 24             	mov    %eax,(%esp)
40005d71:	e8 b6 ee ff ff       	call   40004c2c <prepend_alloc>
40005d76:	89 45 a8             	mov    %eax,-0x58(%ebp)
40005d79:	e9 9e 00 00 00       	jmp    40005e1c <sys_alloc+0x5a3>
40005d7e:	8b 45 bc             	mov    -0x44(%ebp),%eax
40005d81:	89 44 24 0c          	mov    %eax,0xc(%esp)
40005d85:	8b 45 b8             	mov    -0x48(%ebp),%eax
40005d88:	89 44 24 08          	mov    %eax,0x8(%esp)
40005d8c:	8b 45 b4             	mov    -0x4c(%ebp),%eax
40005d8f:	89 44 24 04          	mov    %eax,0x4(%esp)
40005d93:	8b 45 08             	mov    0x8(%ebp),%eax
40005d96:	89 04 24             	mov    %eax,(%esp)
40005d99:	e8 36 f6 ff ff       	call   400053d4 <add_segment>
40005d9e:	8b 45 08             	mov    0x8(%ebp),%eax
40005da1:	8b 40 0c             	mov    0xc(%eax),%eax
40005da4:	3b 45 0c             	cmp    0xc(%ebp),%eax
40005da7:	76 62                	jbe    40005e0b <sys_alloc+0x592>
40005da9:	8b 45 08             	mov    0x8(%ebp),%eax
40005dac:	8b 40 0c             	mov    0xc(%eax),%eax
40005daf:	89 c2                	mov    %eax,%edx
40005db1:	2b 55 0c             	sub    0xc(%ebp),%edx
40005db4:	8b 45 08             	mov    0x8(%ebp),%eax
40005db7:	89 50 0c             	mov    %edx,0xc(%eax)
40005dba:	8b 45 08             	mov    0x8(%ebp),%eax
40005dbd:	8b 40 0c             	mov    0xc(%eax),%eax
40005dc0:	89 45 f4             	mov    %eax,-0xc(%ebp)
40005dc3:	8b 45 08             	mov    0x8(%ebp),%eax
40005dc6:	8b 40 18             	mov    0x18(%eax),%eax
40005dc9:	89 45 f8             	mov    %eax,-0x8(%ebp)
40005dcc:	8b 55 0c             	mov    0xc(%ebp),%edx
40005dcf:	8b 45 f8             	mov    -0x8(%ebp),%eax
40005dd2:	8d 14 10             	lea    (%eax,%edx,1),%edx
40005dd5:	8b 45 08             	mov    0x8(%ebp),%eax
40005dd8:	89 50 18             	mov    %edx,0x18(%eax)
40005ddb:	8b 45 08             	mov    0x8(%ebp),%eax
40005dde:	8b 40 18             	mov    0x18(%eax),%eax
40005de1:	89 45 fc             	mov    %eax,-0x4(%ebp)
40005de4:	8b 45 f4             	mov    -0xc(%ebp),%eax
40005de7:	89 c2                	mov    %eax,%edx
40005de9:	83 ca 01             	or     $0x1,%edx
40005dec:	8b 45 fc             	mov    -0x4(%ebp),%eax
40005def:	89 50 04             	mov    %edx,0x4(%eax)
40005df2:	8b 45 0c             	mov    0xc(%ebp),%eax
40005df5:	89 c2                	mov    %eax,%edx
40005df7:	83 ca 03             	or     $0x3,%edx
40005dfa:	8b 45 f8             	mov    -0x8(%ebp),%eax
40005dfd:	89 50 04             	mov    %edx,0x4(%eax)
40005e00:	8b 45 f8             	mov    -0x8(%ebp),%eax
40005e03:	83 c0 08             	add    $0x8,%eax
40005e06:	89 45 a8             	mov    %eax,-0x58(%ebp)
40005e09:	eb 11                	jmp    40005e1c <sys_alloc+0x5a3>
40005e0b:	c7 05 10 1c 01 40 31 	movl   $0x31,0x40011c10
40005e12:	00 00 00 
40005e15:	c7 45 a8 00 00 00 00 	movl   $0x0,-0x58(%ebp)
40005e1c:	8b 45 a8             	mov    -0x58(%ebp),%eax
40005e1f:	c9                   	leave  
40005e20:	c3                   	ret    

40005e21 <release_unused_segments>:
40005e21:	55                   	push   %ebp
40005e22:	89 e5                	mov    %esp,%ebp
40005e24:	83 ec 70             	sub    $0x70,%esp
40005e27:	c7 45 9c 00 00 00 00 	movl   $0x0,-0x64(%ebp)
40005e2e:	8b 45 08             	mov    0x8(%ebp),%eax
40005e31:	05 b8 01 00 00       	add    $0x1b8,%eax
40005e36:	89 45 a0             	mov    %eax,-0x60(%ebp)
40005e39:	8b 45 a0             	mov    -0x60(%ebp),%eax
40005e3c:	8b 40 08             	mov    0x8(%eax),%eax
40005e3f:	89 45 a4             	mov    %eax,-0x5c(%ebp)
40005e42:	eb 26                	jmp    40005e6a <release_unused_segments+0x49>
40005e44:	8b 45 a4             	mov    -0x5c(%ebp),%eax
40005e47:	8b 00                	mov    (%eax),%eax
40005e49:	89 45 a8             	mov    %eax,-0x58(%ebp)
40005e4c:	8b 45 a4             	mov    -0x5c(%ebp),%eax
40005e4f:	8b 40 04             	mov    0x4(%eax),%eax
40005e52:	89 45 ac             	mov    %eax,-0x54(%ebp)
40005e55:	8b 45 a4             	mov    -0x5c(%ebp),%eax
40005e58:	8b 40 08             	mov    0x8(%eax),%eax
40005e5b:	89 45 b0             	mov    %eax,-0x50(%ebp)
40005e5e:	8b 45 a4             	mov    -0x5c(%ebp),%eax
40005e61:	89 45 a0             	mov    %eax,-0x60(%ebp)
40005e64:	8b 45 b0             	mov    -0x50(%ebp),%eax
40005e67:	89 45 a4             	mov    %eax,-0x5c(%ebp)
40005e6a:	83 7d a4 00          	cmpl   $0x0,-0x5c(%ebp)
40005e6e:	75 d4                	jne    40005e44 <release_unused_segments+0x23>
40005e70:	8b 45 9c             	mov    -0x64(%ebp),%eax
40005e73:	c9                   	leave  
40005e74:	c3                   	ret    

40005e75 <sys_trim>:
40005e75:	55                   	push   %ebp
40005e76:	89 e5                	mov    %esp,%ebp
40005e78:	83 ec 38             	sub    $0x38,%esp
40005e7b:	c7 45 e4 00 00 00 00 	movl   $0x0,-0x1c(%ebp)
40005e82:	83 7d 0c bf          	cmpl   $0xffffffbf,0xc(%ebp)
40005e86:	0f 87 3f 01 00 00    	ja     40005fcb <sys_trim+0x156>
40005e8c:	8b 45 08             	mov    0x8(%ebp),%eax
40005e8f:	8b 40 18             	mov    0x18(%eax),%eax
40005e92:	85 c0                	test   %eax,%eax
40005e94:	0f 84 31 01 00 00    	je     40005fcb <sys_trim+0x156>
40005e9a:	83 45 0c 28          	addl   $0x28,0xc(%ebp)
40005e9e:	8b 45 08             	mov    0x8(%ebp),%eax
40005ea1:	8b 40 0c             	mov    0xc(%eax),%eax
40005ea4:	3b 45 0c             	cmp    0xc(%ebp),%eax
40005ea7:	0f 86 0e 01 00 00    	jbe    40005fbb <sys_trim+0x146>
40005ead:	a1 48 05 01 40       	mov    0x40010548,%eax
40005eb2:	89 45 e8             	mov    %eax,-0x18(%ebp)
40005eb5:	8b 45 08             	mov    0x8(%ebp),%eax
40005eb8:	8b 40 0c             	mov    0xc(%eax),%eax
40005ebb:	2b 45 0c             	sub    0xc(%ebp),%eax
40005ebe:	03 45 e8             	add    -0x18(%ebp),%eax
40005ec1:	83 e8 01             	sub    $0x1,%eax
40005ec4:	ba 00 00 00 00       	mov    $0x0,%edx
40005ec9:	f7 75 e8             	divl   -0x18(%ebp)
40005ecc:	83 e8 01             	sub    $0x1,%eax
40005ecf:	0f af 45 e8          	imul   -0x18(%ebp),%eax
40005ed3:	89 45 ec             	mov    %eax,-0x14(%ebp)
40005ed6:	8b 45 08             	mov    0x8(%ebp),%eax
40005ed9:	8b 40 18             	mov    0x18(%eax),%eax
40005edc:	89 44 24 04          	mov    %eax,0x4(%esp)
40005ee0:	8b 45 08             	mov    0x8(%ebp),%eax
40005ee3:	89 04 24             	mov    %eax,(%esp)
40005ee6:	e8 fd e4 ff ff       	call   400043e8 <segment_holding>
40005eeb:	89 45 f0             	mov    %eax,-0x10(%ebp)
40005eee:	8b 45 f0             	mov    -0x10(%ebp),%eax
40005ef1:	8b 40 0c             	mov    0xc(%eax),%eax
40005ef4:	83 e0 08             	and    $0x8,%eax
40005ef7:	85 c0                	test   %eax,%eax
40005ef9:	75 6e                	jne    40005f69 <sys_trim+0xf4>
40005efb:	81 7d ec fe ff ff 7f 	cmpl   $0x7ffffffe,-0x14(%ebp)
40005f02:	76 0b                	jbe    40005f0f <sys_trim+0x9a>
40005f04:	b8 00 00 00 80       	mov    $0x80000000,%eax
40005f09:	2b 45 e8             	sub    -0x18(%ebp),%eax
40005f0c:	89 45 ec             	mov    %eax,-0x14(%ebp)
40005f0f:	c7 04 24 00 00 00 00 	movl   $0x0,(%esp)
40005f16:	e8 1d 37 00 00       	call   40009638 <sbrk>
40005f1b:	89 45 f4             	mov    %eax,-0xc(%ebp)
40005f1e:	8b 45 f0             	mov    -0x10(%ebp),%eax
40005f21:	8b 10                	mov    (%eax),%edx
40005f23:	8b 45 f0             	mov    -0x10(%ebp),%eax
40005f26:	8b 40 04             	mov    0x4(%eax),%eax
40005f29:	8d 04 02             	lea    (%edx,%eax,1),%eax
40005f2c:	3b 45 f4             	cmp    -0xc(%ebp),%eax
40005f2f:	75 38                	jne    40005f69 <sys_trim+0xf4>
40005f31:	8b 45 ec             	mov    -0x14(%ebp),%eax
40005f34:	f7 d8                	neg    %eax
40005f36:	89 04 24             	mov    %eax,(%esp)
40005f39:	e8 fa 36 00 00       	call   40009638 <sbrk>
40005f3e:	89 45 f8             	mov    %eax,-0x8(%ebp)
40005f41:	c7 04 24 00 00 00 00 	movl   $0x0,(%esp)
40005f48:	e8 eb 36 00 00       	call   40009638 <sbrk>
40005f4d:	89 45 fc             	mov    %eax,-0x4(%ebp)
40005f50:	83 7d f8 ff          	cmpl   $0xffffffff,-0x8(%ebp)
40005f54:	74 13                	je     40005f69 <sys_trim+0xf4>
40005f56:	8b 45 fc             	mov    -0x4(%ebp),%eax
40005f59:	3b 45 f4             	cmp    -0xc(%ebp),%eax
40005f5c:	73 0b                	jae    40005f69 <sys_trim+0xf4>
40005f5e:	8b 45 f4             	mov    -0xc(%ebp),%eax
40005f61:	8b 55 fc             	mov    -0x4(%ebp),%edx
40005f64:	29 d0                	sub    %edx,%eax
40005f66:	89 45 e4             	mov    %eax,-0x1c(%ebp)
40005f69:	83 7d e4 00          	cmpl   $0x0,-0x1c(%ebp)
40005f6d:	74 4c                	je     40005fbb <sys_trim+0x146>
40005f6f:	8b 45 f0             	mov    -0x10(%ebp),%eax
40005f72:	8b 40 04             	mov    0x4(%eax),%eax
40005f75:	89 c2                	mov    %eax,%edx
40005f77:	2b 55 e4             	sub    -0x1c(%ebp),%edx
40005f7a:	8b 45 f0             	mov    -0x10(%ebp),%eax
40005f7d:	89 50 04             	mov    %edx,0x4(%eax)
40005f80:	8b 45 08             	mov    0x8(%ebp),%eax
40005f83:	8b 80 ac 01 00 00    	mov    0x1ac(%eax),%eax
40005f89:	89 c2                	mov    %eax,%edx
40005f8b:	2b 55 e4             	sub    -0x1c(%ebp),%edx
40005f8e:	8b 45 08             	mov    0x8(%ebp),%eax
40005f91:	89 90 ac 01 00 00    	mov    %edx,0x1ac(%eax)
40005f97:	8b 45 08             	mov    0x8(%ebp),%eax
40005f9a:	8b 40 0c             	mov    0xc(%eax),%eax
40005f9d:	89 c2                	mov    %eax,%edx
40005f9f:	2b 55 e4             	sub    -0x1c(%ebp),%edx
40005fa2:	8b 45 08             	mov    0x8(%ebp),%eax
40005fa5:	8b 40 18             	mov    0x18(%eax),%eax
40005fa8:	89 54 24 08          	mov    %edx,0x8(%esp)
40005fac:	89 44 24 04          	mov    %eax,0x4(%esp)
40005fb0:	8b 45 08             	mov    0x8(%ebp),%eax
40005fb3:	89 04 24             	mov    %eax,(%esp)
40005fb6:	e8 a8 eb ff ff       	call   40004b63 <init_top>
40005fbb:	83 7d e4 00          	cmpl   $0x0,-0x1c(%ebp)
40005fbf:	75 0a                	jne    40005fcb <sys_trim+0x156>
40005fc1:	8b 45 08             	mov    0x8(%ebp),%eax
40005fc4:	c7 40 1c ff ff ff ff 	movl   $0xffffffff,0x1c(%eax)
40005fcb:	83 7d e4 00          	cmpl   $0x0,-0x1c(%ebp)
40005fcf:	0f 95 c0             	setne  %al
40005fd2:	0f b6 c0             	movzbl %al,%eax
40005fd5:	c9                   	leave  
40005fd6:	c3                   	ret    

40005fd7 <tmalloc_large>:
40005fd7:	55                   	push   %ebp
40005fd8:	89 e5                	mov    %esp,%ebp
40005fda:	53                   	push   %ebx
40005fdb:	81 ec a4 00 00 00    	sub    $0xa4,%esp
40005fe1:	c7 85 6c ff ff ff 00 	movl   $0x0,-0x94(%ebp)
40005fe8:	00 00 00 
40005feb:	8b 45 0c             	mov    0xc(%ebp),%eax
40005fee:	f7 d8                	neg    %eax
40005ff0:	89 85 70 ff ff ff    	mov    %eax,-0x90(%ebp)
40005ff6:	8b 45 0c             	mov    0xc(%ebp),%eax
40005ff9:	c1 e8 08             	shr    $0x8,%eax
40005ffc:	89 85 7c ff ff ff    	mov    %eax,-0x84(%ebp)
40006002:	83 bd 7c ff ff ff 00 	cmpl   $0x0,-0x84(%ebp)
40006009:	75 0c                	jne    40006017 <tmalloc_large+0x40>
4000600b:	c7 85 78 ff ff ff 00 	movl   $0x0,-0x88(%ebp)
40006012:	00 00 00 
40006015:	eb 41                	jmp    40006058 <tmalloc_large+0x81>
40006017:	81 bd 7c ff ff ff ff 	cmpl   $0xffff,-0x84(%ebp)
4000601e:	ff 00 00 
40006021:	76 0c                	jbe    4000602f <tmalloc_large+0x58>
40006023:	c7 85 78 ff ff ff 1f 	movl   $0x1f,-0x88(%ebp)
4000602a:	00 00 00 
4000602d:	eb 29                	jmp    40006058 <tmalloc_large+0x81>
4000602f:	0f bd 85 7c ff ff ff 	bsr    -0x84(%ebp),%eax
40006036:	89 45 80             	mov    %eax,-0x80(%ebp)
40006039:	8b 45 80             	mov    -0x80(%ebp),%eax
4000603c:	8d 14 00             	lea    (%eax,%eax,1),%edx
4000603f:	8b 45 80             	mov    -0x80(%ebp),%eax
40006042:	83 c0 07             	add    $0x7,%eax
40006045:	89 c1                	mov    %eax,%ecx
40006047:	8b 45 0c             	mov    0xc(%ebp),%eax
4000604a:	d3 e8                	shr    %cl,%eax
4000604c:	83 e0 01             	and    $0x1,%eax
4000604f:	8d 04 02             	lea    (%edx,%eax,1),%eax
40006052:	89 85 78 ff ff ff    	mov    %eax,-0x88(%ebp)
40006058:	8b 45 08             	mov    0x8(%ebp),%eax
4000605b:	8d 90 2c 01 00 00    	lea    0x12c(%eax),%edx
40006061:	8b 85 78 ff ff ff    	mov    -0x88(%ebp),%eax
40006067:	c1 e0 02             	shl    $0x2,%eax
4000606a:	8d 04 02             	lea    (%edx,%eax,1),%eax
4000606d:	8b 00                	mov    (%eax),%eax
4000606f:	89 85 74 ff ff ff    	mov    %eax,-0x8c(%ebp)
40006075:	83 bd 74 ff ff ff 00 	cmpl   $0x0,-0x8c(%ebp)
4000607c:	0f 84 d4 00 00 00    	je     40006156 <tmalloc_large+0x17f>
40006082:	83 bd 78 ff ff ff 1f 	cmpl   $0x1f,-0x88(%ebp)
40006089:	74 19                	je     400060a4 <tmalloc_large+0xcd>
4000608b:	8b 85 78 ff ff ff    	mov    -0x88(%ebp),%eax
40006091:	89 c2                	mov    %eax,%edx
40006093:	d1 ea                	shr    %edx
40006095:	b8 19 00 00 00       	mov    $0x19,%eax
4000609a:	29 d0                	sub    %edx,%eax
4000609c:	89 85 5c ff ff ff    	mov    %eax,-0xa4(%ebp)
400060a2:	eb 0a                	jmp    400060ae <tmalloc_large+0xd7>
400060a4:	c7 85 5c ff ff ff 00 	movl   $0x0,-0xa4(%ebp)
400060ab:	00 00 00 
400060ae:	8b 45 0c             	mov    0xc(%ebp),%eax
400060b1:	0f b6 8d 5c ff ff ff 	movzbl -0xa4(%ebp),%ecx
400060b8:	d3 e0                	shl    %cl,%eax
400060ba:	89 45 84             	mov    %eax,-0x7c(%ebp)
400060bd:	c7 45 88 00 00 00 00 	movl   $0x0,-0x78(%ebp)
400060c4:	8b 85 74 ff ff ff    	mov    -0x8c(%ebp),%eax
400060ca:	8b 40 04             	mov    0x4(%eax),%eax
400060cd:	83 e0 fc             	and    $0xfffffffc,%eax
400060d0:	2b 45 0c             	sub    0xc(%ebp),%eax
400060d3:	89 45 90             	mov    %eax,-0x70(%ebp)
400060d6:	8b 45 90             	mov    -0x70(%ebp),%eax
400060d9:	3b 85 70 ff ff ff    	cmp    -0x90(%ebp),%eax
400060df:	73 1e                	jae    400060ff <tmalloc_large+0x128>
400060e1:	8b 85 74 ff ff ff    	mov    -0x8c(%ebp),%eax
400060e7:	89 85 6c ff ff ff    	mov    %eax,-0x94(%ebp)
400060ed:	8b 45 90             	mov    -0x70(%ebp),%eax
400060f0:	89 85 70 ff ff ff    	mov    %eax,-0x90(%ebp)
400060f6:	83 bd 70 ff ff ff 00 	cmpl   $0x0,-0x90(%ebp)
400060fd:	74 57                	je     40006156 <tmalloc_large+0x17f>
400060ff:	8b 85 74 ff ff ff    	mov    -0x8c(%ebp),%eax
40006105:	8b 40 14             	mov    0x14(%eax),%eax
40006108:	89 45 8c             	mov    %eax,-0x74(%ebp)
4000610b:	8b 45 84             	mov    -0x7c(%ebp),%eax
4000610e:	c1 e8 1f             	shr    $0x1f,%eax
40006111:	8b 95 74 ff ff ff    	mov    -0x8c(%ebp),%edx
40006117:	83 c0 04             	add    $0x4,%eax
4000611a:	8b 04 82             	mov    (%edx,%eax,4),%eax
4000611d:	89 85 74 ff ff ff    	mov    %eax,-0x8c(%ebp)
40006123:	83 7d 8c 00          	cmpl   $0x0,-0x74(%ebp)
40006127:	74 11                	je     4000613a <tmalloc_large+0x163>
40006129:	8b 45 8c             	mov    -0x74(%ebp),%eax
4000612c:	3b 85 74 ff ff ff    	cmp    -0x8c(%ebp),%eax
40006132:	74 06                	je     4000613a <tmalloc_large+0x163>
40006134:	8b 45 8c             	mov    -0x74(%ebp),%eax
40006137:	89 45 88             	mov    %eax,-0x78(%ebp)
4000613a:	83 bd 74 ff ff ff 00 	cmpl   $0x0,-0x8c(%ebp)
40006141:	75 0b                	jne    4000614e <tmalloc_large+0x177>
40006143:	8b 45 88             	mov    -0x78(%ebp),%eax
40006146:	89 85 74 ff ff ff    	mov    %eax,-0x8c(%ebp)
4000614c:	eb 08                	jmp    40006156 <tmalloc_large+0x17f>
4000614e:	d1 65 84             	shll   -0x7c(%ebp)
40006151:	e9 6e ff ff ff       	jmp    400060c4 <tmalloc_large+0xed>
40006156:	83 bd 74 ff ff ff 00 	cmpl   $0x0,-0x8c(%ebp)
4000615d:	0f 85 e4 00 00 00    	jne    40006247 <tmalloc_large+0x270>
40006163:	83 bd 6c ff ff ff 00 	cmpl   $0x0,-0x94(%ebp)
4000616a:	0f 85 d7 00 00 00    	jne    40006247 <tmalloc_large+0x270>
40006170:	8b 8d 78 ff ff ff    	mov    -0x88(%ebp),%ecx
40006176:	b8 01 00 00 00       	mov    $0x1,%eax
4000617b:	d3 e0                	shl    %cl,%eax
4000617d:	8d 14 00             	lea    (%eax,%eax,1),%edx
40006180:	8b 8d 78 ff ff ff    	mov    -0x88(%ebp),%ecx
40006186:	b8 01 00 00 00       	mov    $0x1,%eax
4000618b:	d3 e0                	shl    %cl,%eax
4000618d:	01 c0                	add    %eax,%eax
4000618f:	f7 d8                	neg    %eax
40006191:	09 c2                	or     %eax,%edx
40006193:	8b 45 08             	mov    0x8(%ebp),%eax
40006196:	8b 40 04             	mov    0x4(%eax),%eax
40006199:	21 d0                	and    %edx,%eax
4000619b:	89 45 94             	mov    %eax,-0x6c(%ebp)
4000619e:	83 7d 94 00          	cmpl   $0x0,-0x6c(%ebp)
400061a2:	0f 84 9f 00 00 00    	je     40006247 <tmalloc_large+0x270>
400061a8:	8b 45 94             	mov    -0x6c(%ebp),%eax
400061ab:	f7 d8                	neg    %eax
400061ad:	23 45 94             	and    -0x6c(%ebp),%eax
400061b0:	89 45 9c             	mov    %eax,-0x64(%ebp)
400061b3:	0f bc 45 9c          	bsf    -0x64(%ebp),%eax
400061b7:	89 45 a0             	mov    %eax,-0x60(%ebp)
400061ba:	8b 45 a0             	mov    -0x60(%ebp),%eax
400061bd:	89 45 98             	mov    %eax,-0x68(%ebp)
400061c0:	8b 45 08             	mov    0x8(%ebp),%eax
400061c3:	8d 90 2c 01 00 00    	lea    0x12c(%eax),%edx
400061c9:	8b 45 98             	mov    -0x68(%ebp),%eax
400061cc:	c1 e0 02             	shl    $0x2,%eax
400061cf:	8d 04 02             	lea    (%edx,%eax,1),%eax
400061d2:	8b 00                	mov    (%eax),%eax
400061d4:	89 85 74 ff ff ff    	mov    %eax,-0x8c(%ebp)
400061da:	eb 6b                	jmp    40006247 <tmalloc_large+0x270>
400061dc:	8b 85 74 ff ff ff    	mov    -0x8c(%ebp),%eax
400061e2:	8b 40 04             	mov    0x4(%eax),%eax
400061e5:	83 e0 fc             	and    $0xfffffffc,%eax
400061e8:	2b 45 0c             	sub    0xc(%ebp),%eax
400061eb:	89 45 a4             	mov    %eax,-0x5c(%ebp)
400061ee:	8b 45 a4             	mov    -0x5c(%ebp),%eax
400061f1:	3b 85 70 ff ff ff    	cmp    -0x90(%ebp),%eax
400061f7:	73 15                	jae    4000620e <tmalloc_large+0x237>
400061f9:	8b 45 a4             	mov    -0x5c(%ebp),%eax
400061fc:	89 85 70 ff ff ff    	mov    %eax,-0x90(%ebp)
40006202:	8b 85 74 ff ff ff    	mov    -0x8c(%ebp),%eax
40006208:	89 85 6c ff ff ff    	mov    %eax,-0x94(%ebp)
4000620e:	8b 85 74 ff ff ff    	mov    -0x8c(%ebp),%eax
40006214:	8b 40 10             	mov    0x10(%eax),%eax
40006217:	85 c0                	test   %eax,%eax
40006219:	74 11                	je     4000622c <tmalloc_large+0x255>
4000621b:	8b 85 74 ff ff ff    	mov    -0x8c(%ebp),%eax
40006221:	8b 40 10             	mov    0x10(%eax),%eax
40006224:	89 85 60 ff ff ff    	mov    %eax,-0xa0(%ebp)
4000622a:	eb 0f                	jmp    4000623b <tmalloc_large+0x264>
4000622c:	8b 85 74 ff ff ff    	mov    -0x8c(%ebp),%eax
40006232:	8b 40 14             	mov    0x14(%eax),%eax
40006235:	89 85 60 ff ff ff    	mov    %eax,-0xa0(%ebp)
4000623b:	8b 85 60 ff ff ff    	mov    -0xa0(%ebp),%eax
40006241:	89 85 74 ff ff ff    	mov    %eax,-0x8c(%ebp)
40006247:	83 bd 74 ff ff ff 00 	cmpl   $0x0,-0x8c(%ebp)
4000624e:	75 8c                	jne    400061dc <tmalloc_large+0x205>
40006250:	83 bd 6c ff ff ff 00 	cmpl   $0x0,-0x94(%ebp)
40006257:	0f 84 13 06 00 00    	je     40006870 <tmalloc_large+0x899>
4000625d:	8b 45 08             	mov    0x8(%ebp),%eax
40006260:	8b 40 08             	mov    0x8(%eax),%eax
40006263:	2b 45 0c             	sub    0xc(%ebp),%eax
40006266:	3b 85 70 ff ff ff    	cmp    -0x90(%ebp),%eax
4000626c:	0f 86 fe 05 00 00    	jbe    40006870 <tmalloc_large+0x899>
40006272:	8b 45 08             	mov    0x8(%ebp),%eax
40006275:	8b 50 10             	mov    0x10(%eax),%edx
40006278:	8b 85 6c ff ff ff    	mov    -0x94(%ebp),%eax
4000627e:	39 c2                	cmp    %eax,%edx
40006280:	0f 96 c0             	setbe  %al
40006283:	0f b6 c0             	movzbl %al,%eax
40006286:	85 c0                	test   %eax,%eax
40006288:	0f 84 dd 05 00 00    	je     4000686b <tmalloc_large+0x894>
4000628e:	8b 85 6c ff ff ff    	mov    -0x94(%ebp),%eax
40006294:	03 45 0c             	add    0xc(%ebp),%eax
40006297:	89 45 a8             	mov    %eax,-0x58(%ebp)
4000629a:	8b 95 6c ff ff ff    	mov    -0x94(%ebp),%edx
400062a0:	8b 45 a8             	mov    -0x58(%ebp),%eax
400062a3:	39 c2                	cmp    %eax,%edx
400062a5:	0f 92 c0             	setb   %al
400062a8:	0f b6 c0             	movzbl %al,%eax
400062ab:	85 c0                	test   %eax,%eax
400062ad:	0f 84 b8 05 00 00    	je     4000686b <tmalloc_large+0x894>
400062b3:	8b 85 6c ff ff ff    	mov    -0x94(%ebp),%eax
400062b9:	8b 40 18             	mov    0x18(%eax),%eax
400062bc:	89 45 ac             	mov    %eax,-0x54(%ebp)
400062bf:	8b 85 6c ff ff ff    	mov    -0x94(%ebp),%eax
400062c5:	8b 40 0c             	mov    0xc(%eax),%eax
400062c8:	3b 85 6c ff ff ff    	cmp    -0x94(%ebp),%eax
400062ce:	74 4e                	je     4000631e <tmalloc_large+0x347>
400062d0:	8b 85 6c ff ff ff    	mov    -0x94(%ebp),%eax
400062d6:	8b 40 08             	mov    0x8(%eax),%eax
400062d9:	89 45 b4             	mov    %eax,-0x4c(%ebp)
400062dc:	8b 85 6c ff ff ff    	mov    -0x94(%ebp),%eax
400062e2:	8b 40 0c             	mov    0xc(%eax),%eax
400062e5:	89 45 b0             	mov    %eax,-0x50(%ebp)
400062e8:	8b 45 08             	mov    0x8(%ebp),%eax
400062eb:	8b 50 10             	mov    0x10(%eax),%edx
400062ee:	8b 45 b4             	mov    -0x4c(%ebp),%eax
400062f1:	39 c2                	cmp    %eax,%edx
400062f3:	0f 96 c0             	setbe  %al
400062f6:	0f b6 c0             	movzbl %al,%eax
400062f9:	85 c0                	test   %eax,%eax
400062fb:	74 17                	je     40006314 <tmalloc_large+0x33d>
400062fd:	8b 55 b4             	mov    -0x4c(%ebp),%edx
40006300:	8b 45 b0             	mov    -0x50(%ebp),%eax
40006303:	89 42 0c             	mov    %eax,0xc(%edx)
40006306:	8b 55 b0             	mov    -0x50(%ebp),%edx
40006309:	8b 45 b4             	mov    -0x4c(%ebp),%eax
4000630c:	89 42 08             	mov    %eax,0x8(%edx)
4000630f:	e9 97 00 00 00       	jmp    400063ab <tmalloc_large+0x3d4>
40006314:	e8 b7 67 00 00       	call   4000cad0 <abort>
40006319:	e9 8d 00 00 00       	jmp    400063ab <tmalloc_large+0x3d4>
4000631e:	8b 85 6c ff ff ff    	mov    -0x94(%ebp),%eax
40006324:	83 c0 14             	add    $0x14,%eax
40006327:	89 45 b8             	mov    %eax,-0x48(%ebp)
4000632a:	8b 45 b8             	mov    -0x48(%ebp),%eax
4000632d:	8b 00                	mov    (%eax),%eax
4000632f:	89 45 b0             	mov    %eax,-0x50(%ebp)
40006332:	83 7d b0 00          	cmpl   $0x0,-0x50(%ebp)
40006336:	75 2a                	jne    40006362 <tmalloc_large+0x38b>
40006338:	8b 85 6c ff ff ff    	mov    -0x94(%ebp),%eax
4000633e:	83 c0 10             	add    $0x10,%eax
40006341:	89 45 b8             	mov    %eax,-0x48(%ebp)
40006344:	8b 45 b8             	mov    -0x48(%ebp),%eax
40006347:	8b 00                	mov    (%eax),%eax
40006349:	89 45 b0             	mov    %eax,-0x50(%ebp)
4000634c:	83 7d b0 00          	cmpl   $0x0,-0x50(%ebp)
40006350:	74 59                	je     400063ab <tmalloc_large+0x3d4>
40006352:	eb 0e                	jmp    40006362 <tmalloc_large+0x38b>
40006354:	8b 45 bc             	mov    -0x44(%ebp),%eax
40006357:	89 45 b8             	mov    %eax,-0x48(%ebp)
4000635a:	8b 45 b8             	mov    -0x48(%ebp),%eax
4000635d:	8b 00                	mov    (%eax),%eax
4000635f:	89 45 b0             	mov    %eax,-0x50(%ebp)
40006362:	8b 45 b0             	mov    -0x50(%ebp),%eax
40006365:	83 c0 14             	add    $0x14,%eax
40006368:	89 45 bc             	mov    %eax,-0x44(%ebp)
4000636b:	8b 45 bc             	mov    -0x44(%ebp),%eax
4000636e:	8b 00                	mov    (%eax),%eax
40006370:	85 c0                	test   %eax,%eax
40006372:	75 e0                	jne    40006354 <tmalloc_large+0x37d>
40006374:	8b 45 b0             	mov    -0x50(%ebp),%eax
40006377:	83 c0 10             	add    $0x10,%eax
4000637a:	89 45 bc             	mov    %eax,-0x44(%ebp)
4000637d:	8b 45 bc             	mov    -0x44(%ebp),%eax
40006380:	8b 00                	mov    (%eax),%eax
40006382:	85 c0                	test   %eax,%eax
40006384:	75 ce                	jne    40006354 <tmalloc_large+0x37d>
40006386:	8b 45 08             	mov    0x8(%ebp),%eax
40006389:	8b 50 10             	mov    0x10(%eax),%edx
4000638c:	8b 45 b8             	mov    -0x48(%ebp),%eax
4000638f:	39 c2                	cmp    %eax,%edx
40006391:	0f 96 c0             	setbe  %al
40006394:	0f b6 c0             	movzbl %al,%eax
40006397:	85 c0                	test   %eax,%eax
40006399:	74 0b                	je     400063a6 <tmalloc_large+0x3cf>
4000639b:	8b 45 b8             	mov    -0x48(%ebp),%eax
4000639e:	c7 00 00 00 00 00    	movl   $0x0,(%eax)
400063a4:	eb 05                	jmp    400063ab <tmalloc_large+0x3d4>
400063a6:	e8 25 67 00 00       	call   4000cad0 <abort>
400063ab:	83 7d ac 00          	cmpl   $0x0,-0x54(%ebp)
400063af:	0f 84 4e 01 00 00    	je     40006503 <tmalloc_large+0x52c>
400063b5:	8b 45 08             	mov    0x8(%ebp),%eax
400063b8:	8d 90 2c 01 00 00    	lea    0x12c(%eax),%edx
400063be:	8b 85 6c ff ff ff    	mov    -0x94(%ebp),%eax
400063c4:	8b 40 1c             	mov    0x1c(%eax),%eax
400063c7:	c1 e0 02             	shl    $0x2,%eax
400063ca:	8d 04 02             	lea    (%edx,%eax,1),%eax
400063cd:	89 45 c0             	mov    %eax,-0x40(%ebp)
400063d0:	8b 45 c0             	mov    -0x40(%ebp),%eax
400063d3:	8b 00                	mov    (%eax),%eax
400063d5:	3b 85 6c ff ff ff    	cmp    -0x94(%ebp),%eax
400063db:	75 35                	jne    40006412 <tmalloc_large+0x43b>
400063dd:	8b 55 c0             	mov    -0x40(%ebp),%edx
400063e0:	8b 45 b0             	mov    -0x50(%ebp),%eax
400063e3:	89 02                	mov    %eax,(%edx)
400063e5:	8b 45 c0             	mov    -0x40(%ebp),%eax
400063e8:	8b 00                	mov    (%eax),%eax
400063ea:	85 c0                	test   %eax,%eax
400063ec:	75 62                	jne    40006450 <tmalloc_large+0x479>
400063ee:	8b 45 08             	mov    0x8(%ebp),%eax
400063f1:	8b 50 04             	mov    0x4(%eax),%edx
400063f4:	8b 85 6c ff ff ff    	mov    -0x94(%ebp),%eax
400063fa:	8b 40 1c             	mov    0x1c(%eax),%eax
400063fd:	89 c1                	mov    %eax,%ecx
400063ff:	b8 01 00 00 00       	mov    $0x1,%eax
40006404:	d3 e0                	shl    %cl,%eax
40006406:	f7 d0                	not    %eax
40006408:	21 c2                	and    %eax,%edx
4000640a:	8b 45 08             	mov    0x8(%ebp),%eax
4000640d:	89 50 04             	mov    %edx,0x4(%eax)
40006410:	eb 3e                	jmp    40006450 <tmalloc_large+0x479>
40006412:	8b 45 08             	mov    0x8(%ebp),%eax
40006415:	8b 50 10             	mov    0x10(%eax),%edx
40006418:	8b 45 ac             	mov    -0x54(%ebp),%eax
4000641b:	39 c2                	cmp    %eax,%edx
4000641d:	0f 96 c0             	setbe  %al
40006420:	0f b6 c0             	movzbl %al,%eax
40006423:	85 c0                	test   %eax,%eax
40006425:	74 24                	je     4000644b <tmalloc_large+0x474>
40006427:	8b 45 ac             	mov    -0x54(%ebp),%eax
4000642a:	8b 40 10             	mov    0x10(%eax),%eax
4000642d:	3b 85 6c ff ff ff    	cmp    -0x94(%ebp),%eax
40006433:	75 0b                	jne    40006440 <tmalloc_large+0x469>
40006435:	8b 55 ac             	mov    -0x54(%ebp),%edx
40006438:	8b 45 b0             	mov    -0x50(%ebp),%eax
4000643b:	89 42 10             	mov    %eax,0x10(%edx)
4000643e:	eb 10                	jmp    40006450 <tmalloc_large+0x479>
40006440:	8b 55 ac             	mov    -0x54(%ebp),%edx
40006443:	8b 45 b0             	mov    -0x50(%ebp),%eax
40006446:	89 42 14             	mov    %eax,0x14(%edx)
40006449:	eb 05                	jmp    40006450 <tmalloc_large+0x479>
4000644b:	e8 80 66 00 00       	call   4000cad0 <abort>
40006450:	83 7d b0 00          	cmpl   $0x0,-0x50(%ebp)
40006454:	0f 84 a9 00 00 00    	je     40006503 <tmalloc_large+0x52c>
4000645a:	8b 45 08             	mov    0x8(%ebp),%eax
4000645d:	8b 50 10             	mov    0x10(%eax),%edx
40006460:	8b 45 b0             	mov    -0x50(%ebp),%eax
40006463:	39 c2                	cmp    %eax,%edx
40006465:	0f 96 c0             	setbe  %al
40006468:	0f b6 c0             	movzbl %al,%eax
4000646b:	85 c0                	test   %eax,%eax
4000646d:	0f 84 8b 00 00 00    	je     400064fe <tmalloc_large+0x527>
40006473:	8b 55 b0             	mov    -0x50(%ebp),%edx
40006476:	8b 45 ac             	mov    -0x54(%ebp),%eax
40006479:	89 42 18             	mov    %eax,0x18(%edx)
4000647c:	8b 85 6c ff ff ff    	mov    -0x94(%ebp),%eax
40006482:	8b 40 10             	mov    0x10(%eax),%eax
40006485:	89 45 c4             	mov    %eax,-0x3c(%ebp)
40006488:	83 7d c4 00          	cmpl   $0x0,-0x3c(%ebp)
4000648c:	74 2e                	je     400064bc <tmalloc_large+0x4e5>
4000648e:	8b 45 08             	mov    0x8(%ebp),%eax
40006491:	8b 50 10             	mov    0x10(%eax),%edx
40006494:	8b 45 c4             	mov    -0x3c(%ebp),%eax
40006497:	39 c2                	cmp    %eax,%edx
40006499:	0f 96 c0             	setbe  %al
4000649c:	0f b6 c0             	movzbl %al,%eax
4000649f:	85 c0                	test   %eax,%eax
400064a1:	74 14                	je     400064b7 <tmalloc_large+0x4e0>
400064a3:	8b 55 b0             	mov    -0x50(%ebp),%edx
400064a6:	8b 45 c4             	mov    -0x3c(%ebp),%eax
400064a9:	89 42 10             	mov    %eax,0x10(%edx)
400064ac:	8b 55 c4             	mov    -0x3c(%ebp),%edx
400064af:	8b 45 b0             	mov    -0x50(%ebp),%eax
400064b2:	89 42 18             	mov    %eax,0x18(%edx)
400064b5:	eb 05                	jmp    400064bc <tmalloc_large+0x4e5>
400064b7:	e8 14 66 00 00       	call   4000cad0 <abort>
400064bc:	8b 85 6c ff ff ff    	mov    -0x94(%ebp),%eax
400064c2:	8b 40 14             	mov    0x14(%eax),%eax
400064c5:	89 45 c8             	mov    %eax,-0x38(%ebp)
400064c8:	83 7d c8 00          	cmpl   $0x0,-0x38(%ebp)
400064cc:	74 35                	je     40006503 <tmalloc_large+0x52c>
400064ce:	8b 45 08             	mov    0x8(%ebp),%eax
400064d1:	8b 50 10             	mov    0x10(%eax),%edx
400064d4:	8b 45 c8             	mov    -0x38(%ebp),%eax
400064d7:	39 c2                	cmp    %eax,%edx
400064d9:	0f 96 c0             	setbe  %al
400064dc:	0f b6 c0             	movzbl %al,%eax
400064df:	85 c0                	test   %eax,%eax
400064e1:	74 14                	je     400064f7 <tmalloc_large+0x520>
400064e3:	8b 55 b0             	mov    -0x50(%ebp),%edx
400064e6:	8b 45 c8             	mov    -0x38(%ebp),%eax
400064e9:	89 42 14             	mov    %eax,0x14(%edx)
400064ec:	8b 55 c8             	mov    -0x38(%ebp),%edx
400064ef:	8b 45 b0             	mov    -0x50(%ebp),%eax
400064f2:	89 42 18             	mov    %eax,0x18(%edx)
400064f5:	eb 0c                	jmp    40006503 <tmalloc_large+0x52c>
400064f7:	e8 d4 65 00 00       	call   4000cad0 <abort>
400064fc:	eb 05                	jmp    40006503 <tmalloc_large+0x52c>
400064fe:	e8 cd 65 00 00       	call   4000cad0 <abort>
40006503:	83 bd 70 ff ff ff 0f 	cmpl   $0xf,-0x90(%ebp)
4000650a:	77 4f                	ja     4000655b <tmalloc_large+0x584>
4000650c:	8b 55 0c             	mov    0xc(%ebp),%edx
4000650f:	8b 85 70 ff ff ff    	mov    -0x90(%ebp),%eax
40006515:	01 d0                	add    %edx,%eax
40006517:	89 c2                	mov    %eax,%edx
40006519:	83 ca 03             	or     $0x3,%edx
4000651c:	8b 85 6c ff ff ff    	mov    -0x94(%ebp),%eax
40006522:	89 50 04             	mov    %edx,0x4(%eax)
40006525:	8b 8d 6c ff ff ff    	mov    -0x94(%ebp),%ecx
4000652b:	8b 55 0c             	mov    0xc(%ebp),%edx
4000652e:	8b 85 70 ff ff ff    	mov    -0x90(%ebp),%eax
40006534:	01 d0                	add    %edx,%eax
40006536:	8d 1c 01             	lea    (%ecx,%eax,1),%ebx
40006539:	8b 8d 6c ff ff ff    	mov    -0x94(%ebp),%ecx
4000653f:	8b 55 0c             	mov    0xc(%ebp),%edx
40006542:	8b 85 70 ff ff ff    	mov    -0x90(%ebp),%eax
40006548:	01 d0                	add    %edx,%eax
4000654a:	8d 04 01             	lea    (%ecx,%eax,1),%eax
4000654d:	8b 40 04             	mov    0x4(%eax),%eax
40006550:	83 c8 01             	or     $0x1,%eax
40006553:	89 43 04             	mov    %eax,0x4(%ebx)
40006556:	e9 ff 02 00 00       	jmp    4000685a <tmalloc_large+0x883>
4000655b:	8b 45 0c             	mov    0xc(%ebp),%eax
4000655e:	89 c2                	mov    %eax,%edx
40006560:	83 ca 03             	or     $0x3,%edx
40006563:	8b 85 6c ff ff ff    	mov    -0x94(%ebp),%eax
40006569:	89 50 04             	mov    %edx,0x4(%eax)
4000656c:	8b 85 70 ff ff ff    	mov    -0x90(%ebp),%eax
40006572:	89 c2                	mov    %eax,%edx
40006574:	83 ca 01             	or     $0x1,%edx
40006577:	8b 45 a8             	mov    -0x58(%ebp),%eax
4000657a:	89 50 04             	mov    %edx,0x4(%eax)
4000657d:	8b 95 70 ff ff ff    	mov    -0x90(%ebp),%edx
40006583:	8b 45 a8             	mov    -0x58(%ebp),%eax
40006586:	8d 14 10             	lea    (%eax,%edx,1),%edx
40006589:	8b 85 70 ff ff ff    	mov    -0x90(%ebp),%eax
4000658f:	89 02                	mov    %eax,(%edx)
40006591:	8b 85 70 ff ff ff    	mov    -0x90(%ebp),%eax
40006597:	c1 e8 03             	shr    $0x3,%eax
4000659a:	83 f8 1f             	cmp    $0x1f,%eax
4000659d:	0f 87 a6 00 00 00    	ja     40006649 <tmalloc_large+0x672>
400065a3:	8b 85 70 ff ff ff    	mov    -0x90(%ebp),%eax
400065a9:	c1 e8 03             	shr    $0x3,%eax
400065ac:	89 45 cc             	mov    %eax,-0x34(%ebp)
400065af:	8b 45 08             	mov    0x8(%ebp),%eax
400065b2:	83 c0 24             	add    $0x24,%eax
400065b5:	89 c2                	mov    %eax,%edx
400065b7:	8b 45 cc             	mov    -0x34(%ebp),%eax
400065ba:	c1 e0 03             	shl    $0x3,%eax
400065bd:	8d 04 02             	lea    (%edx,%eax,1),%eax
400065c0:	89 45 d0             	mov    %eax,-0x30(%ebp)
400065c3:	8b 45 d0             	mov    -0x30(%ebp),%eax
400065c6:	89 45 d4             	mov    %eax,-0x2c(%ebp)
400065c9:	8b 45 08             	mov    0x8(%ebp),%eax
400065cc:	8b 10                	mov    (%eax),%edx
400065ce:	8b 4d cc             	mov    -0x34(%ebp),%ecx
400065d1:	b8 01 00 00 00       	mov    $0x1,%eax
400065d6:	d3 e0                	shl    %cl,%eax
400065d8:	21 d0                	and    %edx,%eax
400065da:	85 c0                	test   %eax,%eax
400065dc:	75 18                	jne    400065f6 <tmalloc_large+0x61f>
400065de:	8b 45 08             	mov    0x8(%ebp),%eax
400065e1:	8b 10                	mov    (%eax),%edx
400065e3:	8b 4d cc             	mov    -0x34(%ebp),%ecx
400065e6:	b8 01 00 00 00       	mov    $0x1,%eax
400065eb:	d3 e0                	shl    %cl,%eax
400065ed:	09 c2                	or     %eax,%edx
400065ef:	8b 45 08             	mov    0x8(%ebp),%eax
400065f2:	89 10                	mov    %edx,(%eax)
400065f4:	eb 2a                	jmp    40006620 <tmalloc_large+0x649>
400065f6:	8b 45 d0             	mov    -0x30(%ebp),%eax
400065f9:	8b 40 08             	mov    0x8(%eax),%eax
400065fc:	89 c2                	mov    %eax,%edx
400065fe:	8b 45 08             	mov    0x8(%ebp),%eax
40006601:	8b 40 10             	mov    0x10(%eax),%eax
40006604:	39 c2                	cmp    %eax,%edx
40006606:	0f 93 c0             	setae  %al
40006609:	0f b6 c0             	movzbl %al,%eax
4000660c:	85 c0                	test   %eax,%eax
4000660e:	74 0b                	je     4000661b <tmalloc_large+0x644>
40006610:	8b 45 d0             	mov    -0x30(%ebp),%eax
40006613:	8b 40 08             	mov    0x8(%eax),%eax
40006616:	89 45 d4             	mov    %eax,-0x2c(%ebp)
40006619:	eb 05                	jmp    40006620 <tmalloc_large+0x649>
4000661b:	e8 b0 64 00 00       	call   4000cad0 <abort>
40006620:	8b 55 d0             	mov    -0x30(%ebp),%edx
40006623:	8b 45 a8             	mov    -0x58(%ebp),%eax
40006626:	89 42 08             	mov    %eax,0x8(%edx)
40006629:	8b 55 d4             	mov    -0x2c(%ebp),%edx
4000662c:	8b 45 a8             	mov    -0x58(%ebp),%eax
4000662f:	89 42 0c             	mov    %eax,0xc(%edx)
40006632:	8b 55 a8             	mov    -0x58(%ebp),%edx
40006635:	8b 45 d4             	mov    -0x2c(%ebp),%eax
40006638:	89 42 08             	mov    %eax,0x8(%edx)
4000663b:	8b 55 a8             	mov    -0x58(%ebp),%edx
4000663e:	8b 45 d0             	mov    -0x30(%ebp),%eax
40006641:	89 42 0c             	mov    %eax,0xc(%edx)
40006644:	e9 11 02 00 00       	jmp    4000685a <tmalloc_large+0x883>
40006649:	8b 45 a8             	mov    -0x58(%ebp),%eax
4000664c:	89 45 d8             	mov    %eax,-0x28(%ebp)
4000664f:	8b 85 70 ff ff ff    	mov    -0x90(%ebp),%eax
40006655:	c1 e8 08             	shr    $0x8,%eax
40006658:	89 45 e4             	mov    %eax,-0x1c(%ebp)
4000665b:	83 7d e4 00          	cmpl   $0x0,-0x1c(%ebp)
4000665f:	75 09                	jne    4000666a <tmalloc_large+0x693>
40006661:	c7 45 e0 00 00 00 00 	movl   $0x0,-0x20(%ebp)
40006668:	eb 38                	jmp    400066a2 <tmalloc_large+0x6cb>
4000666a:	81 7d e4 ff ff 00 00 	cmpl   $0xffff,-0x1c(%ebp)
40006671:	76 09                	jbe    4000667c <tmalloc_large+0x6a5>
40006673:	c7 45 e0 1f 00 00 00 	movl   $0x1f,-0x20(%ebp)
4000667a:	eb 26                	jmp    400066a2 <tmalloc_large+0x6cb>
4000667c:	0f bd 45 e4          	bsr    -0x1c(%ebp),%eax
40006680:	89 45 e8             	mov    %eax,-0x18(%ebp)
40006683:	8b 45 e8             	mov    -0x18(%ebp),%eax
40006686:	8d 14 00             	lea    (%eax,%eax,1),%edx
40006689:	8b 45 e8             	mov    -0x18(%ebp),%eax
4000668c:	83 c0 07             	add    $0x7,%eax
4000668f:	89 c1                	mov    %eax,%ecx
40006691:	8b 85 70 ff ff ff    	mov    -0x90(%ebp),%eax
40006697:	d3 e8                	shr    %cl,%eax
40006699:	83 e0 01             	and    $0x1,%eax
4000669c:	8d 04 02             	lea    (%edx,%eax,1),%eax
4000669f:	89 45 e0             	mov    %eax,-0x20(%ebp)
400066a2:	8b 45 08             	mov    0x8(%ebp),%eax
400066a5:	8d 90 2c 01 00 00    	lea    0x12c(%eax),%edx
400066ab:	8b 45 e0             	mov    -0x20(%ebp),%eax
400066ae:	c1 e0 02             	shl    $0x2,%eax
400066b1:	8d 04 02             	lea    (%edx,%eax,1),%eax
400066b4:	89 45 dc             	mov    %eax,-0x24(%ebp)
400066b7:	8b 55 d8             	mov    -0x28(%ebp),%edx
400066ba:	8b 45 e0             	mov    -0x20(%ebp),%eax
400066bd:	89 42 1c             	mov    %eax,0x1c(%edx)
400066c0:	8b 45 d8             	mov    -0x28(%ebp),%eax
400066c3:	c7 40 14 00 00 00 00 	movl   $0x0,0x14(%eax)
400066ca:	8b 45 d8             	mov    -0x28(%ebp),%eax
400066cd:	8b 50 14             	mov    0x14(%eax),%edx
400066d0:	8b 45 d8             	mov    -0x28(%ebp),%eax
400066d3:	89 50 10             	mov    %edx,0x10(%eax)
400066d6:	8b 45 08             	mov    0x8(%ebp),%eax
400066d9:	8b 50 04             	mov    0x4(%eax),%edx
400066dc:	8b 4d e0             	mov    -0x20(%ebp),%ecx
400066df:	b8 01 00 00 00       	mov    $0x1,%eax
400066e4:	d3 e0                	shl    %cl,%eax
400066e6:	21 d0                	and    %edx,%eax
400066e8:	85 c0                	test   %eax,%eax
400066ea:	75 43                	jne    4000672f <tmalloc_large+0x758>
400066ec:	8b 45 08             	mov    0x8(%ebp),%eax
400066ef:	8b 50 04             	mov    0x4(%eax),%edx
400066f2:	8b 4d e0             	mov    -0x20(%ebp),%ecx
400066f5:	b8 01 00 00 00       	mov    $0x1,%eax
400066fa:	d3 e0                	shl    %cl,%eax
400066fc:	09 c2                	or     %eax,%edx
400066fe:	8b 45 08             	mov    0x8(%ebp),%eax
40006701:	89 50 04             	mov    %edx,0x4(%eax)
40006704:	8b 55 dc             	mov    -0x24(%ebp),%edx
40006707:	8b 45 d8             	mov    -0x28(%ebp),%eax
4000670a:	89 02                	mov    %eax,(%edx)
4000670c:	8b 55 dc             	mov    -0x24(%ebp),%edx
4000670f:	8b 45 d8             	mov    -0x28(%ebp),%eax
40006712:	89 50 18             	mov    %edx,0x18(%eax)
40006715:	8b 55 d8             	mov    -0x28(%ebp),%edx
40006718:	8b 45 d8             	mov    -0x28(%ebp),%eax
4000671b:	89 42 0c             	mov    %eax,0xc(%edx)
4000671e:	8b 45 d8             	mov    -0x28(%ebp),%eax
40006721:	8b 50 0c             	mov    0xc(%eax),%edx
40006724:	8b 45 d8             	mov    -0x28(%ebp),%eax
40006727:	89 50 08             	mov    %edx,0x8(%eax)
4000672a:	e9 2b 01 00 00       	jmp    4000685a <tmalloc_large+0x883>
4000672f:	8b 45 dc             	mov    -0x24(%ebp),%eax
40006732:	8b 00                	mov    (%eax),%eax
40006734:	89 45 ec             	mov    %eax,-0x14(%ebp)
40006737:	83 7d e0 1f          	cmpl   $0x1f,-0x20(%ebp)
4000673b:	74 16                	je     40006753 <tmalloc_large+0x77c>
4000673d:	8b 45 e0             	mov    -0x20(%ebp),%eax
40006740:	89 c2                	mov    %eax,%edx
40006742:	d1 ea                	shr    %edx
40006744:	b8 19 00 00 00       	mov    $0x19,%eax
40006749:	29 d0                	sub    %edx,%eax
4000674b:	89 85 64 ff ff ff    	mov    %eax,-0x9c(%ebp)
40006751:	eb 0a                	jmp    4000675d <tmalloc_large+0x786>
40006753:	c7 85 64 ff ff ff 00 	movl   $0x0,-0x9c(%ebp)
4000675a:	00 00 00 
4000675d:	8b 85 70 ff ff ff    	mov    -0x90(%ebp),%eax
40006763:	0f b6 8d 64 ff ff ff 	movzbl -0x9c(%ebp),%ecx
4000676a:	d3 e0                	shl    %cl,%eax
4000676c:	89 45 f0             	mov    %eax,-0x10(%ebp)
4000676f:	8b 45 ec             	mov    -0x14(%ebp),%eax
40006772:	8b 40 04             	mov    0x4(%eax),%eax
40006775:	83 e0 fc             	and    $0xfffffffc,%eax
40006778:	3b 85 70 ff ff ff    	cmp    -0x90(%ebp),%eax
4000677e:	74 6f                	je     400067ef <tmalloc_large+0x818>
40006780:	8b 45 ec             	mov    -0x14(%ebp),%eax
40006783:	8d 50 10             	lea    0x10(%eax),%edx
40006786:	8b 45 f0             	mov    -0x10(%ebp),%eax
40006789:	c1 e8 1f             	shr    $0x1f,%eax
4000678c:	c1 e0 02             	shl    $0x2,%eax
4000678f:	8d 04 02             	lea    (%edx,%eax,1),%eax
40006792:	89 45 f4             	mov    %eax,-0xc(%ebp)
40006795:	d1 65 f0             	shll   -0x10(%ebp)
40006798:	8b 45 f4             	mov    -0xc(%ebp),%eax
4000679b:	8b 00                	mov    (%eax),%eax
4000679d:	85 c0                	test   %eax,%eax
4000679f:	74 0a                	je     400067ab <tmalloc_large+0x7d4>
400067a1:	8b 45 f4             	mov    -0xc(%ebp),%eax
400067a4:	8b 00                	mov    (%eax),%eax
400067a6:	89 45 ec             	mov    %eax,-0x14(%ebp)
400067a9:	eb c4                	jmp    4000676f <tmalloc_large+0x798>
400067ab:	8b 45 08             	mov    0x8(%ebp),%eax
400067ae:	8b 50 10             	mov    0x10(%eax),%edx
400067b1:	8b 45 f4             	mov    -0xc(%ebp),%eax
400067b4:	39 c2                	cmp    %eax,%edx
400067b6:	0f 96 c0             	setbe  %al
400067b9:	0f b6 c0             	movzbl %al,%eax
400067bc:	85 c0                	test   %eax,%eax
400067be:	74 28                	je     400067e8 <tmalloc_large+0x811>
400067c0:	8b 55 f4             	mov    -0xc(%ebp),%edx
400067c3:	8b 45 d8             	mov    -0x28(%ebp),%eax
400067c6:	89 02                	mov    %eax,(%edx)
400067c8:	8b 55 d8             	mov    -0x28(%ebp),%edx
400067cb:	8b 45 ec             	mov    -0x14(%ebp),%eax
400067ce:	89 42 18             	mov    %eax,0x18(%edx)
400067d1:	8b 55 d8             	mov    -0x28(%ebp),%edx
400067d4:	8b 45 d8             	mov    -0x28(%ebp),%eax
400067d7:	89 42 0c             	mov    %eax,0xc(%edx)
400067da:	8b 45 d8             	mov    -0x28(%ebp),%eax
400067dd:	8b 50 0c             	mov    0xc(%eax),%edx
400067e0:	8b 45 d8             	mov    -0x28(%ebp),%eax
400067e3:	89 50 08             	mov    %edx,0x8(%eax)
400067e6:	eb 72                	jmp    4000685a <tmalloc_large+0x883>
400067e8:	e8 e3 62 00 00       	call   4000cad0 <abort>
400067ed:	eb 6b                	jmp    4000685a <tmalloc_large+0x883>
400067ef:	8b 45 ec             	mov    -0x14(%ebp),%eax
400067f2:	8b 40 08             	mov    0x8(%eax),%eax
400067f5:	89 45 f8             	mov    %eax,-0x8(%ebp)
400067f8:	8b 45 08             	mov    0x8(%ebp),%eax
400067fb:	8b 50 10             	mov    0x10(%eax),%edx
400067fe:	8b 45 ec             	mov    -0x14(%ebp),%eax
40006801:	39 c2                	cmp    %eax,%edx
40006803:	0f 96 c0             	setbe  %al
40006806:	0f b6 c0             	movzbl %al,%eax
40006809:	85 c0                	test   %eax,%eax
4000680b:	74 48                	je     40006855 <tmalloc_large+0x87e>
4000680d:	8b 45 08             	mov    0x8(%ebp),%eax
40006810:	8b 50 10             	mov    0x10(%eax),%edx
40006813:	8b 45 f8             	mov    -0x8(%ebp),%eax
40006816:	39 c2                	cmp    %eax,%edx
40006818:	0f 96 c0             	setbe  %al
4000681b:	0f b6 c0             	movzbl %al,%eax
4000681e:	85 c0                	test   %eax,%eax
40006820:	74 33                	je     40006855 <tmalloc_large+0x87e>
40006822:	8b 55 f8             	mov    -0x8(%ebp),%edx
40006825:	8b 45 d8             	mov    -0x28(%ebp),%eax
40006828:	89 42 0c             	mov    %eax,0xc(%edx)
4000682b:	8b 45 f8             	mov    -0x8(%ebp),%eax
4000682e:	8b 50 0c             	mov    0xc(%eax),%edx
40006831:	8b 45 ec             	mov    -0x14(%ebp),%eax
40006834:	89 50 08             	mov    %edx,0x8(%eax)
40006837:	8b 55 d8             	mov    -0x28(%ebp),%edx
4000683a:	8b 45 f8             	mov    -0x8(%ebp),%eax
4000683d:	89 42 08             	mov    %eax,0x8(%edx)
40006840:	8b 55 d8             	mov    -0x28(%ebp),%edx
40006843:	8b 45 ec             	mov    -0x14(%ebp),%eax
40006846:	89 42 0c             	mov    %eax,0xc(%edx)
40006849:	8b 45 d8             	mov    -0x28(%ebp),%eax
4000684c:	c7 40 18 00 00 00 00 	movl   $0x0,0x18(%eax)
40006853:	eb 05                	jmp    4000685a <tmalloc_large+0x883>
40006855:	e8 76 62 00 00       	call   4000cad0 <abort>
4000685a:	8b 85 6c ff ff ff    	mov    -0x94(%ebp),%eax
40006860:	83 c0 08             	add    $0x8,%eax
40006863:	89 85 68 ff ff ff    	mov    %eax,-0x98(%ebp)
40006869:	eb 0f                	jmp    4000687a <tmalloc_large+0x8a3>
4000686b:	e8 60 62 00 00       	call   4000cad0 <abort>
40006870:	c7 85 68 ff ff ff 00 	movl   $0x0,-0x98(%ebp)
40006877:	00 00 00 
4000687a:	8b 85 68 ff ff ff    	mov    -0x98(%ebp),%eax
40006880:	81 c4 a4 00 00 00    	add    $0xa4,%esp
40006886:	5b                   	pop    %ebx
40006887:	5d                   	pop    %ebp
40006888:	c3                   	ret    

40006889 <tmalloc_small>:
40006889:	55                   	push   %ebp
4000688a:	89 e5                	mov    %esp,%ebp
4000688c:	53                   	push   %ebx
4000688d:	83 ec 74             	sub    $0x74,%esp
40006890:	8b 45 08             	mov    0x8(%ebp),%eax
40006893:	8b 50 04             	mov    0x4(%eax),%edx
40006896:	8b 45 08             	mov    0x8(%ebp),%eax
40006899:	8b 40 04             	mov    0x4(%eax),%eax
4000689c:	f7 d8                	neg    %eax
4000689e:	21 d0                	and    %edx,%eax
400068a0:	89 45 b8             	mov    %eax,-0x48(%ebp)
400068a3:	0f bc 45 b8          	bsf    -0x48(%ebp),%eax
400068a7:	89 45 bc             	mov    %eax,-0x44(%ebp)
400068aa:	8b 45 bc             	mov    -0x44(%ebp),%eax
400068ad:	89 45 b4             	mov    %eax,-0x4c(%ebp)
400068b0:	8b 45 08             	mov    0x8(%ebp),%eax
400068b3:	8d 90 2c 01 00 00    	lea    0x12c(%eax),%edx
400068b9:	8b 45 b4             	mov    -0x4c(%ebp),%eax
400068bc:	c1 e0 02             	shl    $0x2,%eax
400068bf:	8d 04 02             	lea    (%edx,%eax,1),%eax
400068c2:	8b 00                	mov    (%eax),%eax
400068c4:	89 45 a8             	mov    %eax,-0x58(%ebp)
400068c7:	8b 45 a8             	mov    -0x58(%ebp),%eax
400068ca:	89 45 ac             	mov    %eax,-0x54(%ebp)
400068cd:	8b 45 a8             	mov    -0x58(%ebp),%eax
400068d0:	8b 40 04             	mov    0x4(%eax),%eax
400068d3:	83 e0 fc             	and    $0xfffffffc,%eax
400068d6:	2b 45 0c             	sub    0xc(%ebp),%eax
400068d9:	89 45 b0             	mov    %eax,-0x50(%ebp)
400068dc:	eb 23                	jmp    40006901 <tmalloc_small+0x78>
400068de:	8b 45 a8             	mov    -0x58(%ebp),%eax
400068e1:	8b 40 04             	mov    0x4(%eax),%eax
400068e4:	83 e0 fc             	and    $0xfffffffc,%eax
400068e7:	2b 45 0c             	sub    0xc(%ebp),%eax
400068ea:	89 45 c0             	mov    %eax,-0x40(%ebp)
400068ed:	8b 45 c0             	mov    -0x40(%ebp),%eax
400068f0:	3b 45 b0             	cmp    -0x50(%ebp),%eax
400068f3:	73 0c                	jae    40006901 <tmalloc_small+0x78>
400068f5:	8b 45 c0             	mov    -0x40(%ebp),%eax
400068f8:	89 45 b0             	mov    %eax,-0x50(%ebp)
400068fb:	8b 45 a8             	mov    -0x58(%ebp),%eax
400068fe:	89 45 ac             	mov    %eax,-0x54(%ebp)
40006901:	8b 45 a8             	mov    -0x58(%ebp),%eax
40006904:	8b 40 10             	mov    0x10(%eax),%eax
40006907:	85 c0                	test   %eax,%eax
40006909:	74 0b                	je     40006916 <tmalloc_small+0x8d>
4000690b:	8b 45 a8             	mov    -0x58(%ebp),%eax
4000690e:	8b 40 10             	mov    0x10(%eax),%eax
40006911:	89 45 94             	mov    %eax,-0x6c(%ebp)
40006914:	eb 09                	jmp    4000691f <tmalloc_small+0x96>
40006916:	8b 45 a8             	mov    -0x58(%ebp),%eax
40006919:	8b 40 14             	mov    0x14(%eax),%eax
4000691c:	89 45 94             	mov    %eax,-0x6c(%ebp)
4000691f:	8b 45 94             	mov    -0x6c(%ebp),%eax
40006922:	89 45 a8             	mov    %eax,-0x58(%ebp)
40006925:	83 7d a8 00          	cmpl   $0x0,-0x58(%ebp)
40006929:	75 b3                	jne    400068de <tmalloc_small+0x55>
4000692b:	8b 45 08             	mov    0x8(%ebp),%eax
4000692e:	8b 50 10             	mov    0x10(%eax),%edx
40006931:	8b 45 ac             	mov    -0x54(%ebp),%eax
40006934:	39 c2                	cmp    %eax,%edx
40006936:	0f 96 c0             	setbe  %al
40006939:	0f b6 c0             	movzbl %al,%eax
4000693c:	85 c0                	test   %eax,%eax
4000693e:	0f 84 8c 03 00 00    	je     40006cd0 <tmalloc_small+0x447>
40006944:	8b 45 ac             	mov    -0x54(%ebp),%eax
40006947:	03 45 0c             	add    0xc(%ebp),%eax
4000694a:	89 45 c4             	mov    %eax,-0x3c(%ebp)
4000694d:	8b 55 ac             	mov    -0x54(%ebp),%edx
40006950:	8b 45 c4             	mov    -0x3c(%ebp),%eax
40006953:	39 c2                	cmp    %eax,%edx
40006955:	0f 92 c0             	setb   %al
40006958:	0f b6 c0             	movzbl %al,%eax
4000695b:	85 c0                	test   %eax,%eax
4000695d:	0f 84 6d 03 00 00    	je     40006cd0 <tmalloc_small+0x447>
40006963:	8b 45 ac             	mov    -0x54(%ebp),%eax
40006966:	8b 40 18             	mov    0x18(%eax),%eax
40006969:	89 45 c8             	mov    %eax,-0x38(%ebp)
4000696c:	8b 45 ac             	mov    -0x54(%ebp),%eax
4000696f:	8b 40 0c             	mov    0xc(%eax),%eax
40006972:	3b 45 ac             	cmp    -0x54(%ebp),%eax
40006975:	74 48                	je     400069bf <tmalloc_small+0x136>
40006977:	8b 45 ac             	mov    -0x54(%ebp),%eax
4000697a:	8b 40 08             	mov    0x8(%eax),%eax
4000697d:	89 45 d0             	mov    %eax,-0x30(%ebp)
40006980:	8b 45 ac             	mov    -0x54(%ebp),%eax
40006983:	8b 40 0c             	mov    0xc(%eax),%eax
40006986:	89 45 cc             	mov    %eax,-0x34(%ebp)
40006989:	8b 45 08             	mov    0x8(%ebp),%eax
4000698c:	8b 50 10             	mov    0x10(%eax),%edx
4000698f:	8b 45 d0             	mov    -0x30(%ebp),%eax
40006992:	39 c2                	cmp    %eax,%edx
40006994:	0f 96 c0             	setbe  %al
40006997:	0f b6 c0             	movzbl %al,%eax
4000699a:	85 c0                	test   %eax,%eax
4000699c:	74 17                	je     400069b5 <tmalloc_small+0x12c>
4000699e:	8b 55 d0             	mov    -0x30(%ebp),%edx
400069a1:	8b 45 cc             	mov    -0x34(%ebp),%eax
400069a4:	89 42 0c             	mov    %eax,0xc(%edx)
400069a7:	8b 55 cc             	mov    -0x34(%ebp),%edx
400069aa:	8b 45 d0             	mov    -0x30(%ebp),%eax
400069ad:	89 42 08             	mov    %eax,0x8(%edx)
400069b0:	e9 91 00 00 00       	jmp    40006a46 <tmalloc_small+0x1bd>
400069b5:	e8 16 61 00 00       	call   4000cad0 <abort>
400069ba:	e9 87 00 00 00       	jmp    40006a46 <tmalloc_small+0x1bd>
400069bf:	8b 45 ac             	mov    -0x54(%ebp),%eax
400069c2:	83 c0 14             	add    $0x14,%eax
400069c5:	89 45 d4             	mov    %eax,-0x2c(%ebp)
400069c8:	8b 45 d4             	mov    -0x2c(%ebp),%eax
400069cb:	8b 00                	mov    (%eax),%eax
400069cd:	89 45 cc             	mov    %eax,-0x34(%ebp)
400069d0:	83 7d cc 00          	cmpl   $0x0,-0x34(%ebp)
400069d4:	75 27                	jne    400069fd <tmalloc_small+0x174>
400069d6:	8b 45 ac             	mov    -0x54(%ebp),%eax
400069d9:	83 c0 10             	add    $0x10,%eax
400069dc:	89 45 d4             	mov    %eax,-0x2c(%ebp)
400069df:	8b 45 d4             	mov    -0x2c(%ebp),%eax
400069e2:	8b 00                	mov    (%eax),%eax
400069e4:	89 45 cc             	mov    %eax,-0x34(%ebp)
400069e7:	83 7d cc 00          	cmpl   $0x0,-0x34(%ebp)
400069eb:	74 59                	je     40006a46 <tmalloc_small+0x1bd>
400069ed:	eb 0e                	jmp    400069fd <tmalloc_small+0x174>
400069ef:	8b 45 d8             	mov    -0x28(%ebp),%eax
400069f2:	89 45 d4             	mov    %eax,-0x2c(%ebp)
400069f5:	8b 45 d4             	mov    -0x2c(%ebp),%eax
400069f8:	8b 00                	mov    (%eax),%eax
400069fa:	89 45 cc             	mov    %eax,-0x34(%ebp)
400069fd:	8b 45 cc             	mov    -0x34(%ebp),%eax
40006a00:	83 c0 14             	add    $0x14,%eax
40006a03:	89 45 d8             	mov    %eax,-0x28(%ebp)
40006a06:	8b 45 d8             	mov    -0x28(%ebp),%eax
40006a09:	8b 00                	mov    (%eax),%eax
40006a0b:	85 c0                	test   %eax,%eax
40006a0d:	75 e0                	jne    400069ef <tmalloc_small+0x166>
40006a0f:	8b 45 cc             	mov    -0x34(%ebp),%eax
40006a12:	83 c0 10             	add    $0x10,%eax
40006a15:	89 45 d8             	mov    %eax,-0x28(%ebp)
40006a18:	8b 45 d8             	mov    -0x28(%ebp),%eax
40006a1b:	8b 00                	mov    (%eax),%eax
40006a1d:	85 c0                	test   %eax,%eax
40006a1f:	75 ce                	jne    400069ef <tmalloc_small+0x166>
40006a21:	8b 45 08             	mov    0x8(%ebp),%eax
40006a24:	8b 50 10             	mov    0x10(%eax),%edx
40006a27:	8b 45 d4             	mov    -0x2c(%ebp),%eax
40006a2a:	39 c2                	cmp    %eax,%edx
40006a2c:	0f 96 c0             	setbe  %al
40006a2f:	0f b6 c0             	movzbl %al,%eax
40006a32:	85 c0                	test   %eax,%eax
40006a34:	74 0b                	je     40006a41 <tmalloc_small+0x1b8>
40006a36:	8b 45 d4             	mov    -0x2c(%ebp),%eax
40006a39:	c7 00 00 00 00 00    	movl   $0x0,(%eax)
40006a3f:	eb 05                	jmp    40006a46 <tmalloc_small+0x1bd>
40006a41:	e8 8a 60 00 00       	call   4000cad0 <abort>
40006a46:	83 7d c8 00          	cmpl   $0x0,-0x38(%ebp)
40006a4a:	0f 84 3c 01 00 00    	je     40006b8c <tmalloc_small+0x303>
40006a50:	8b 45 08             	mov    0x8(%ebp),%eax
40006a53:	8d 90 2c 01 00 00    	lea    0x12c(%eax),%edx
40006a59:	8b 45 ac             	mov    -0x54(%ebp),%eax
40006a5c:	8b 40 1c             	mov    0x1c(%eax),%eax
40006a5f:	c1 e0 02             	shl    $0x2,%eax
40006a62:	8d 04 02             	lea    (%edx,%eax,1),%eax
40006a65:	89 45 dc             	mov    %eax,-0x24(%ebp)
40006a68:	8b 45 dc             	mov    -0x24(%ebp),%eax
40006a6b:	8b 00                	mov    (%eax),%eax
40006a6d:	3b 45 ac             	cmp    -0x54(%ebp),%eax
40006a70:	75 32                	jne    40006aa4 <tmalloc_small+0x21b>
40006a72:	8b 55 dc             	mov    -0x24(%ebp),%edx
40006a75:	8b 45 cc             	mov    -0x34(%ebp),%eax
40006a78:	89 02                	mov    %eax,(%edx)
40006a7a:	8b 45 dc             	mov    -0x24(%ebp),%eax
40006a7d:	8b 00                	mov    (%eax),%eax
40006a7f:	85 c0                	test   %eax,%eax
40006a81:	75 5c                	jne    40006adf <tmalloc_small+0x256>
40006a83:	8b 45 08             	mov    0x8(%ebp),%eax
40006a86:	8b 50 04             	mov    0x4(%eax),%edx
40006a89:	8b 45 ac             	mov    -0x54(%ebp),%eax
40006a8c:	8b 40 1c             	mov    0x1c(%eax),%eax
40006a8f:	89 c1                	mov    %eax,%ecx
40006a91:	b8 01 00 00 00       	mov    $0x1,%eax
40006a96:	d3 e0                	shl    %cl,%eax
40006a98:	f7 d0                	not    %eax
40006a9a:	21 c2                	and    %eax,%edx
40006a9c:	8b 45 08             	mov    0x8(%ebp),%eax
40006a9f:	89 50 04             	mov    %edx,0x4(%eax)
40006aa2:	eb 3b                	jmp    40006adf <tmalloc_small+0x256>
40006aa4:	8b 45 08             	mov    0x8(%ebp),%eax
40006aa7:	8b 50 10             	mov    0x10(%eax),%edx
40006aaa:	8b 45 c8             	mov    -0x38(%ebp),%eax
40006aad:	39 c2                	cmp    %eax,%edx
40006aaf:	0f 96 c0             	setbe  %al
40006ab2:	0f b6 c0             	movzbl %al,%eax
40006ab5:	85 c0                	test   %eax,%eax
40006ab7:	74 21                	je     40006ada <tmalloc_small+0x251>
40006ab9:	8b 45 c8             	mov    -0x38(%ebp),%eax
40006abc:	8b 40 10             	mov    0x10(%eax),%eax
40006abf:	3b 45 ac             	cmp    -0x54(%ebp),%eax
40006ac2:	75 0b                	jne    40006acf <tmalloc_small+0x246>
40006ac4:	8b 55 c8             	mov    -0x38(%ebp),%edx
40006ac7:	8b 45 cc             	mov    -0x34(%ebp),%eax
40006aca:	89 42 10             	mov    %eax,0x10(%edx)
40006acd:	eb 10                	jmp    40006adf <tmalloc_small+0x256>
40006acf:	8b 55 c8             	mov    -0x38(%ebp),%edx
40006ad2:	8b 45 cc             	mov    -0x34(%ebp),%eax
40006ad5:	89 42 14             	mov    %eax,0x14(%edx)
40006ad8:	eb 05                	jmp    40006adf <tmalloc_small+0x256>
40006ada:	e8 f1 5f 00 00       	call   4000cad0 <abort>
40006adf:	83 7d cc 00          	cmpl   $0x0,-0x34(%ebp)
40006ae3:	0f 84 a3 00 00 00    	je     40006b8c <tmalloc_small+0x303>
40006ae9:	8b 45 08             	mov    0x8(%ebp),%eax
40006aec:	8b 50 10             	mov    0x10(%eax),%edx
40006aef:	8b 45 cc             	mov    -0x34(%ebp),%eax
40006af2:	39 c2                	cmp    %eax,%edx
40006af4:	0f 96 c0             	setbe  %al
40006af7:	0f b6 c0             	movzbl %al,%eax
40006afa:	85 c0                	test   %eax,%eax
40006afc:	0f 84 85 00 00 00    	je     40006b87 <tmalloc_small+0x2fe>
40006b02:	8b 55 cc             	mov    -0x34(%ebp),%edx
40006b05:	8b 45 c8             	mov    -0x38(%ebp),%eax
40006b08:	89 42 18             	mov    %eax,0x18(%edx)
40006b0b:	8b 45 ac             	mov    -0x54(%ebp),%eax
40006b0e:	8b 40 10             	mov    0x10(%eax),%eax
40006b11:	89 45 e0             	mov    %eax,-0x20(%ebp)
40006b14:	83 7d e0 00          	cmpl   $0x0,-0x20(%ebp)
40006b18:	74 2e                	je     40006b48 <tmalloc_small+0x2bf>
40006b1a:	8b 45 08             	mov    0x8(%ebp),%eax
40006b1d:	8b 50 10             	mov    0x10(%eax),%edx
40006b20:	8b 45 e0             	mov    -0x20(%ebp),%eax
40006b23:	39 c2                	cmp    %eax,%edx
40006b25:	0f 96 c0             	setbe  %al
40006b28:	0f b6 c0             	movzbl %al,%eax
40006b2b:	85 c0                	test   %eax,%eax
40006b2d:	74 14                	je     40006b43 <tmalloc_small+0x2ba>
40006b2f:	8b 55 cc             	mov    -0x34(%ebp),%edx
40006b32:	8b 45 e0             	mov    -0x20(%ebp),%eax
40006b35:	89 42 10             	mov    %eax,0x10(%edx)
40006b38:	8b 55 e0             	mov    -0x20(%ebp),%edx
40006b3b:	8b 45 cc             	mov    -0x34(%ebp),%eax
40006b3e:	89 42 18             	mov    %eax,0x18(%edx)
40006b41:	eb 05                	jmp    40006b48 <tmalloc_small+0x2bf>
40006b43:	e8 88 5f 00 00       	call   4000cad0 <abort>
40006b48:	8b 45 ac             	mov    -0x54(%ebp),%eax
40006b4b:	8b 40 14             	mov    0x14(%eax),%eax
40006b4e:	89 45 e4             	mov    %eax,-0x1c(%ebp)
40006b51:	83 7d e4 00          	cmpl   $0x0,-0x1c(%ebp)
40006b55:	74 35                	je     40006b8c <tmalloc_small+0x303>
40006b57:	8b 45 08             	mov    0x8(%ebp),%eax
40006b5a:	8b 50 10             	mov    0x10(%eax),%edx
40006b5d:	8b 45 e4             	mov    -0x1c(%ebp),%eax
40006b60:	39 c2                	cmp    %eax,%edx
40006b62:	0f 96 c0             	setbe  %al
40006b65:	0f b6 c0             	movzbl %al,%eax
40006b68:	85 c0                	test   %eax,%eax
40006b6a:	74 14                	je     40006b80 <tmalloc_small+0x2f7>
40006b6c:	8b 55 cc             	mov    -0x34(%ebp),%edx
40006b6f:	8b 45 e4             	mov    -0x1c(%ebp),%eax
40006b72:	89 42 14             	mov    %eax,0x14(%edx)
40006b75:	8b 55 e4             	mov    -0x1c(%ebp),%edx
40006b78:	8b 45 cc             	mov    -0x34(%ebp),%eax
40006b7b:	89 42 18             	mov    %eax,0x18(%edx)
40006b7e:	eb 0c                	jmp    40006b8c <tmalloc_small+0x303>
40006b80:	e8 4b 5f 00 00       	call   4000cad0 <abort>
40006b85:	eb 05                	jmp    40006b8c <tmalloc_small+0x303>
40006b87:	e8 44 5f 00 00       	call   4000cad0 <abort>
40006b8c:	83 7d b0 0f          	cmpl   $0xf,-0x50(%ebp)
40006b90:	77 3d                	ja     40006bcf <tmalloc_small+0x346>
40006b92:	8b 55 0c             	mov    0xc(%ebp),%edx
40006b95:	8b 45 b0             	mov    -0x50(%ebp),%eax
40006b98:	01 d0                	add    %edx,%eax
40006b9a:	89 c2                	mov    %eax,%edx
40006b9c:	83 ca 03             	or     $0x3,%edx
40006b9f:	8b 45 ac             	mov    -0x54(%ebp),%eax
40006ba2:	89 50 04             	mov    %edx,0x4(%eax)
40006ba5:	8b 4d ac             	mov    -0x54(%ebp),%ecx
40006ba8:	8b 55 0c             	mov    0xc(%ebp),%edx
40006bab:	8b 45 b0             	mov    -0x50(%ebp),%eax
40006bae:	01 d0                	add    %edx,%eax
40006bb0:	8d 1c 01             	lea    (%ecx,%eax,1),%ebx
40006bb3:	8b 4d ac             	mov    -0x54(%ebp),%ecx
40006bb6:	8b 55 0c             	mov    0xc(%ebp),%edx
40006bb9:	8b 45 b0             	mov    -0x50(%ebp),%eax
40006bbc:	01 d0                	add    %edx,%eax
40006bbe:	8d 04 01             	lea    (%ecx,%eax,1),%eax
40006bc1:	8b 40 04             	mov    0x4(%eax),%eax
40006bc4:	83 c8 01             	or     $0x1,%eax
40006bc7:	89 43 04             	mov    %eax,0x4(%ebx)
40006bca:	e9 f6 00 00 00       	jmp    40006cc5 <tmalloc_small+0x43c>
40006bcf:	8b 45 0c             	mov    0xc(%ebp),%eax
40006bd2:	89 c2                	mov    %eax,%edx
40006bd4:	83 ca 03             	or     $0x3,%edx
40006bd7:	8b 45 ac             	mov    -0x54(%ebp),%eax
40006bda:	89 50 04             	mov    %edx,0x4(%eax)
40006bdd:	8b 45 b0             	mov    -0x50(%ebp),%eax
40006be0:	89 c2                	mov    %eax,%edx
40006be2:	83 ca 01             	or     $0x1,%edx
40006be5:	8b 45 c4             	mov    -0x3c(%ebp),%eax
40006be8:	89 50 04             	mov    %edx,0x4(%eax)
40006beb:	8b 55 b0             	mov    -0x50(%ebp),%edx
40006bee:	8b 45 c4             	mov    -0x3c(%ebp),%eax
40006bf1:	8d 14 10             	lea    (%eax,%edx,1),%edx
40006bf4:	8b 45 b0             	mov    -0x50(%ebp),%eax
40006bf7:	89 02                	mov    %eax,(%edx)
40006bf9:	8b 45 08             	mov    0x8(%ebp),%eax
40006bfc:	8b 40 08             	mov    0x8(%eax),%eax
40006bff:	89 45 e8             	mov    %eax,-0x18(%ebp)
40006c02:	83 7d e8 00          	cmpl   $0x0,-0x18(%ebp)
40006c06:	0f 84 a7 00 00 00    	je     40006cb3 <tmalloc_small+0x42a>
40006c0c:	8b 45 08             	mov    0x8(%ebp),%eax
40006c0f:	8b 40 14             	mov    0x14(%eax),%eax
40006c12:	89 45 ec             	mov    %eax,-0x14(%ebp)
40006c15:	8b 45 e8             	mov    -0x18(%ebp),%eax
40006c18:	c1 e8 03             	shr    $0x3,%eax
40006c1b:	89 45 f0             	mov    %eax,-0x10(%ebp)
40006c1e:	8b 45 08             	mov    0x8(%ebp),%eax
40006c21:	83 c0 24             	add    $0x24,%eax
40006c24:	89 c2                	mov    %eax,%edx
40006c26:	8b 45 f0             	mov    -0x10(%ebp),%eax
40006c29:	c1 e0 03             	shl    $0x3,%eax
40006c2c:	8d 04 02             	lea    (%edx,%eax,1),%eax
40006c2f:	89 45 f4             	mov    %eax,-0xc(%ebp)
40006c32:	8b 45 f4             	mov    -0xc(%ebp),%eax
40006c35:	89 45 f8             	mov    %eax,-0x8(%ebp)
40006c38:	8b 45 08             	mov    0x8(%ebp),%eax
40006c3b:	8b 10                	mov    (%eax),%edx
40006c3d:	8b 4d f0             	mov    -0x10(%ebp),%ecx
40006c40:	b8 01 00 00 00       	mov    $0x1,%eax
40006c45:	d3 e0                	shl    %cl,%eax
40006c47:	21 d0                	and    %edx,%eax
40006c49:	85 c0                	test   %eax,%eax
40006c4b:	75 18                	jne    40006c65 <tmalloc_small+0x3dc>
40006c4d:	8b 45 08             	mov    0x8(%ebp),%eax
40006c50:	8b 10                	mov    (%eax),%edx
40006c52:	8b 4d f0             	mov    -0x10(%ebp),%ecx
40006c55:	b8 01 00 00 00       	mov    $0x1,%eax
40006c5a:	d3 e0                	shl    %cl,%eax
40006c5c:	09 c2                	or     %eax,%edx
40006c5e:	8b 45 08             	mov    0x8(%ebp),%eax
40006c61:	89 10                	mov    %edx,(%eax)
40006c63:	eb 2a                	jmp    40006c8f <tmalloc_small+0x406>
40006c65:	8b 45 f4             	mov    -0xc(%ebp),%eax
40006c68:	8b 40 08             	mov    0x8(%eax),%eax
40006c6b:	89 c2                	mov    %eax,%edx
40006c6d:	8b 45 08             	mov    0x8(%ebp),%eax
40006c70:	8b 40 10             	mov    0x10(%eax),%eax
40006c73:	39 c2                	cmp    %eax,%edx
40006c75:	0f 93 c0             	setae  %al
40006c78:	0f b6 c0             	movzbl %al,%eax
40006c7b:	85 c0                	test   %eax,%eax
40006c7d:	74 0b                	je     40006c8a <tmalloc_small+0x401>
40006c7f:	8b 45 f4             	mov    -0xc(%ebp),%eax
40006c82:	8b 40 08             	mov    0x8(%eax),%eax
40006c85:	89 45 f8             	mov    %eax,-0x8(%ebp)
40006c88:	eb 05                	jmp    40006c8f <tmalloc_small+0x406>
40006c8a:	e8 41 5e 00 00       	call   4000cad0 <abort>
40006c8f:	8b 55 f4             	mov    -0xc(%ebp),%edx
40006c92:	8b 45 ec             	mov    -0x14(%ebp),%eax
40006c95:	89 42 08             	mov    %eax,0x8(%edx)
40006c98:	8b 55 f8             	mov    -0x8(%ebp),%edx
40006c9b:	8b 45 ec             	mov    -0x14(%ebp),%eax
40006c9e:	89 42 0c             	mov    %eax,0xc(%edx)
40006ca1:	8b 55 ec             	mov    -0x14(%ebp),%edx
40006ca4:	8b 45 f8             	mov    -0x8(%ebp),%eax
40006ca7:	89 42 08             	mov    %eax,0x8(%edx)
40006caa:	8b 55 ec             	mov    -0x14(%ebp),%edx
40006cad:	8b 45 f4             	mov    -0xc(%ebp),%eax
40006cb0:	89 42 0c             	mov    %eax,0xc(%edx)
40006cb3:	8b 55 08             	mov    0x8(%ebp),%edx
40006cb6:	8b 45 b0             	mov    -0x50(%ebp),%eax
40006cb9:	89 42 08             	mov    %eax,0x8(%edx)
40006cbc:	8b 55 08             	mov    0x8(%ebp),%edx
40006cbf:	8b 45 c4             	mov    -0x3c(%ebp),%eax
40006cc2:	89 42 14             	mov    %eax,0x14(%edx)
40006cc5:	8b 45 ac             	mov    -0x54(%ebp),%eax
40006cc8:	83 c0 08             	add    $0x8,%eax
40006ccb:	89 45 98             	mov    %eax,-0x68(%ebp)
40006cce:	eb 0c                	jmp    40006cdc <tmalloc_small+0x453>
40006cd0:	e8 fb 5d 00 00       	call   4000cad0 <abort>
40006cd5:	c7 45 98 00 00 00 00 	movl   $0x0,-0x68(%ebp)
40006cdc:	8b 45 98             	mov    -0x68(%ebp),%eax
40006cdf:	83 c4 74             	add    $0x74,%esp
40006ce2:	5b                   	pop    %ebx
40006ce3:	5d                   	pop    %ebp
40006ce4:	c3                   	ret    

40006ce5 <internal_realloc>:
40006ce5:	55                   	push   %ebp
40006ce6:	89 e5                	mov    %esp,%ebp
40006ce8:	83 ec 68             	sub    $0x68,%esp
40006ceb:	83 7d 10 bf          	cmpl   $0xffffffbf,0x10(%ebp)
40006cef:	76 16                	jbe    40006d07 <internal_realloc+0x22>
40006cf1:	c7 05 10 1c 01 40 31 	movl   $0x31,0x40011c10
40006cf8:	00 00 00 
40006cfb:	c7 45 ac 00 00 00 00 	movl   $0x0,-0x54(%ebp)
40006d02:	e9 99 02 00 00       	jmp    40006fa0 <internal_realloc+0x2bb>
40006d07:	8b 45 0c             	mov    0xc(%ebp),%eax
40006d0a:	83 e8 08             	sub    $0x8,%eax
40006d0d:	89 45 cc             	mov    %eax,-0x34(%ebp)
40006d10:	8b 45 cc             	mov    -0x34(%ebp),%eax
40006d13:	8b 40 04             	mov    0x4(%eax),%eax
40006d16:	83 e0 fc             	and    $0xfffffffc,%eax
40006d19:	89 45 d0             	mov    %eax,-0x30(%ebp)
40006d1c:	8b 55 d0             	mov    -0x30(%ebp),%edx
40006d1f:	8b 45 cc             	mov    -0x34(%ebp),%eax
40006d22:	01 d0                	add    %edx,%eax
40006d24:	89 45 d4             	mov    %eax,-0x2c(%ebp)
40006d27:	c7 45 d8 00 00 00 00 	movl   $0x0,-0x28(%ebp)
40006d2e:	c7 45 dc 00 00 00 00 	movl   $0x0,-0x24(%ebp)
40006d35:	8b 45 08             	mov    0x8(%ebp),%eax
40006d38:	8b 50 10             	mov    0x10(%eax),%edx
40006d3b:	8b 45 cc             	mov    -0x34(%ebp),%eax
40006d3e:	39 c2                	cmp    %eax,%edx
40006d40:	0f 96 c0             	setbe  %al
40006d43:	0f b6 c0             	movzbl %al,%eax
40006d46:	85 c0                	test   %eax,%eax
40006d48:	74 1e                	je     40006d68 <internal_realloc+0x83>
40006d4a:	8b 45 cc             	mov    -0x34(%ebp),%eax
40006d4d:	8b 40 04             	mov    0x4(%eax),%eax
40006d50:	83 e0 02             	and    $0x2,%eax
40006d53:	85 c0                	test   %eax,%eax
40006d55:	0f 95 c0             	setne  %al
40006d58:	0f b6 c0             	movzbl %al,%eax
40006d5b:	85 c0                	test   %eax,%eax
40006d5d:	74 09                	je     40006d68 <internal_realloc+0x83>
40006d5f:	c7 45 b4 01 00 00 00 	movl   $0x1,-0x4c(%ebp)
40006d66:	eb 07                	jmp    40006d6f <internal_realloc+0x8a>
40006d68:	c7 45 b4 00 00 00 00 	movl   $0x0,-0x4c(%ebp)
40006d6f:	83 7d b4 00          	cmpl   $0x0,-0x4c(%ebp)
40006d73:	74 1b                	je     40006d90 <internal_realloc+0xab>
40006d75:	8b 55 cc             	mov    -0x34(%ebp),%edx
40006d78:	8b 45 d4             	mov    -0x2c(%ebp),%eax
40006d7b:	39 c2                	cmp    %eax,%edx
40006d7d:	0f 92 c0             	setb   %al
40006d80:	0f b6 c0             	movzbl %al,%eax
40006d83:	85 c0                	test   %eax,%eax
40006d85:	74 09                	je     40006d90 <internal_realloc+0xab>
40006d87:	c7 45 b0 01 00 00 00 	movl   $0x1,-0x50(%ebp)
40006d8e:	eb 07                	jmp    40006d97 <internal_realloc+0xb2>
40006d90:	c7 45 b0 00 00 00 00 	movl   $0x0,-0x50(%ebp)
40006d97:	83 7d b0 00          	cmpl   $0x0,-0x50(%ebp)
40006d9b:	0f 84 74 01 00 00    	je     40006f15 <internal_realloc+0x230>
40006da1:	8b 45 d4             	mov    -0x2c(%ebp),%eax
40006da4:	8b 40 04             	mov    0x4(%eax),%eax
40006da7:	83 e0 01             	and    $0x1,%eax
40006daa:	85 c0                	test   %eax,%eax
40006dac:	0f 84 63 01 00 00    	je     40006f15 <internal_realloc+0x230>
40006db2:	83 7d 10 0a          	cmpl   $0xa,0x10(%ebp)
40006db6:	76 10                	jbe    40006dc8 <internal_realloc+0xe3>
40006db8:	8b 45 10             	mov    0x10(%ebp),%eax
40006dbb:	83 c0 0b             	add    $0xb,%eax
40006dbe:	89 c2                	mov    %eax,%edx
40006dc0:	83 e2 f8             	and    $0xfffffff8,%edx
40006dc3:	89 55 b8             	mov    %edx,-0x48(%ebp)
40006dc6:	eb 07                	jmp    40006dcf <internal_realloc+0xea>
40006dc8:	c7 45 b8 10 00 00 00 	movl   $0x10,-0x48(%ebp)
40006dcf:	8b 45 b8             	mov    -0x48(%ebp),%eax
40006dd2:	89 45 e0             	mov    %eax,-0x20(%ebp)
40006dd5:	8b 45 d0             	mov    -0x30(%ebp),%eax
40006dd8:	3b 45 e0             	cmp    -0x20(%ebp),%eax
40006ddb:	0f 82 96 00 00 00    	jb     40006e77 <internal_realloc+0x192>
40006de1:	8b 55 e0             	mov    -0x20(%ebp),%edx
40006de4:	8b 45 d0             	mov    -0x30(%ebp),%eax
40006de7:	29 d0                	sub    %edx,%eax
40006de9:	89 45 e4             	mov    %eax,-0x1c(%ebp)
40006dec:	8b 45 cc             	mov    -0x34(%ebp),%eax
40006def:	89 45 d8             	mov    %eax,-0x28(%ebp)
40006df2:	83 7d e4 0f          	cmpl   $0xf,-0x1c(%ebp)
40006df6:	0f 86 11 01 00 00    	jbe    40006f0d <internal_realloc+0x228>
40006dfc:	8b 55 e0             	mov    -0x20(%ebp),%edx
40006dff:	8b 45 d8             	mov    -0x28(%ebp),%eax
40006e02:	01 d0                	add    %edx,%eax
40006e04:	89 45 e8             	mov    %eax,-0x18(%ebp)
40006e07:	8b 45 d8             	mov    -0x28(%ebp),%eax
40006e0a:	8b 40 04             	mov    0x4(%eax),%eax
40006e0d:	83 e0 01             	and    $0x1,%eax
40006e10:	0b 45 e0             	or     -0x20(%ebp),%eax
40006e13:	89 c2                	mov    %eax,%edx
40006e15:	83 ca 02             	or     $0x2,%edx
40006e18:	8b 45 d8             	mov    -0x28(%ebp),%eax
40006e1b:	89 50 04             	mov    %edx,0x4(%eax)
40006e1e:	8b 55 e0             	mov    -0x20(%ebp),%edx
40006e21:	8b 45 d8             	mov    -0x28(%ebp),%eax
40006e24:	8d 0c 10             	lea    (%eax,%edx,1),%ecx
40006e27:	8b 55 e0             	mov    -0x20(%ebp),%edx
40006e2a:	8b 45 d8             	mov    -0x28(%ebp),%eax
40006e2d:	01 d0                	add    %edx,%eax
40006e2f:	8b 40 04             	mov    0x4(%eax),%eax
40006e32:	83 c8 01             	or     $0x1,%eax
40006e35:	89 41 04             	mov    %eax,0x4(%ecx)
40006e38:	8b 45 e8             	mov    -0x18(%ebp),%eax
40006e3b:	8b 40 04             	mov    0x4(%eax),%eax
40006e3e:	83 e0 01             	and    $0x1,%eax
40006e41:	0b 45 e4             	or     -0x1c(%ebp),%eax
40006e44:	89 c2                	mov    %eax,%edx
40006e46:	83 ca 02             	or     $0x2,%edx
40006e49:	8b 45 e8             	mov    -0x18(%ebp),%eax
40006e4c:	89 50 04             	mov    %edx,0x4(%eax)
40006e4f:	8b 55 e4             	mov    -0x1c(%ebp),%edx
40006e52:	8b 45 e8             	mov    -0x18(%ebp),%eax
40006e55:	8d 0c 10             	lea    (%eax,%edx,1),%ecx
40006e58:	8b 55 e4             	mov    -0x1c(%ebp),%edx
40006e5b:	8b 45 e8             	mov    -0x18(%ebp),%eax
40006e5e:	01 d0                	add    %edx,%eax
40006e60:	8b 40 04             	mov    0x4(%eax),%eax
40006e63:	83 c8 01             	or     $0x1,%eax
40006e66:	89 41 04             	mov    %eax,0x4(%ecx)
40006e69:	8b 45 e8             	mov    -0x18(%ebp),%eax
40006e6c:	83 c0 08             	add    $0x8,%eax
40006e6f:	89 45 dc             	mov    %eax,-0x24(%ebp)
40006e72:	e9 96 00 00 00       	jmp    40006f0d <internal_realloc+0x228>
40006e77:	8b 45 08             	mov    0x8(%ebp),%eax
40006e7a:	8b 40 18             	mov    0x18(%eax),%eax
40006e7d:	3b 45 d4             	cmp    -0x2c(%ebp),%eax
40006e80:	0f 85 87 00 00 00    	jne    40006f0d <internal_realloc+0x228>
40006e86:	8b 45 08             	mov    0x8(%ebp),%eax
40006e89:	8b 40 0c             	mov    0xc(%eax),%eax
40006e8c:	03 45 d0             	add    -0x30(%ebp),%eax
40006e8f:	3b 45 e0             	cmp    -0x20(%ebp),%eax
40006e92:	76 79                	jbe    40006f0d <internal_realloc+0x228>
40006e94:	8b 45 08             	mov    0x8(%ebp),%eax
40006e97:	8b 40 0c             	mov    0xc(%eax),%eax
40006e9a:	03 45 d0             	add    -0x30(%ebp),%eax
40006e9d:	89 45 ec             	mov    %eax,-0x14(%ebp)
40006ea0:	8b 55 e0             	mov    -0x20(%ebp),%edx
40006ea3:	8b 45 ec             	mov    -0x14(%ebp),%eax
40006ea6:	29 d0                	sub    %edx,%eax
40006ea8:	89 45 f0             	mov    %eax,-0x10(%ebp)
40006eab:	8b 55 e0             	mov    -0x20(%ebp),%edx
40006eae:	8b 45 cc             	mov    -0x34(%ebp),%eax
40006eb1:	01 d0                	add    %edx,%eax
40006eb3:	89 45 f4             	mov    %eax,-0xc(%ebp)
40006eb6:	8b 45 cc             	mov    -0x34(%ebp),%eax
40006eb9:	8b 40 04             	mov    0x4(%eax),%eax
40006ebc:	83 e0 01             	and    $0x1,%eax
40006ebf:	0b 45 e0             	or     -0x20(%ebp),%eax
40006ec2:	89 c2                	mov    %eax,%edx
40006ec4:	83 ca 02             	or     $0x2,%edx
40006ec7:	8b 45 cc             	mov    -0x34(%ebp),%eax
40006eca:	89 50 04             	mov    %edx,0x4(%eax)
40006ecd:	8b 55 e0             	mov    -0x20(%ebp),%edx
40006ed0:	8b 45 cc             	mov    -0x34(%ebp),%eax
40006ed3:	8d 0c 10             	lea    (%eax,%edx,1),%ecx
40006ed6:	8b 55 e0             	mov    -0x20(%ebp),%edx
40006ed9:	8b 45 cc             	mov    -0x34(%ebp),%eax
40006edc:	01 d0                	add    %edx,%eax
40006ede:	8b 40 04             	mov    0x4(%eax),%eax
40006ee1:	83 c8 01             	or     $0x1,%eax
40006ee4:	89 41 04             	mov    %eax,0x4(%ecx)
40006ee7:	8b 45 f0             	mov    -0x10(%ebp),%eax
40006eea:	89 c2                	mov    %eax,%edx
40006eec:	83 ca 01             	or     $0x1,%edx
40006eef:	8b 45 f4             	mov    -0xc(%ebp),%eax
40006ef2:	89 50 04             	mov    %edx,0x4(%eax)
40006ef5:	8b 55 08             	mov    0x8(%ebp),%edx
40006ef8:	8b 45 f4             	mov    -0xc(%ebp),%eax
40006efb:	89 42 18             	mov    %eax,0x18(%edx)
40006efe:	8b 55 08             	mov    0x8(%ebp),%edx
40006f01:	8b 45 f0             	mov    -0x10(%ebp),%eax
40006f04:	89 42 0c             	mov    %eax,0xc(%edx)
40006f07:	8b 45 cc             	mov    -0x34(%ebp),%eax
40006f0a:	89 45 d8             	mov    %eax,-0x28(%ebp)
40006f0d:	83 7d d8 00          	cmpl   $0x0,-0x28(%ebp)
40006f11:	75 10                	jne    40006f23 <internal_realloc+0x23e>
40006f13:	eb 2a                	jmp    40006f3f <internal_realloc+0x25a>
40006f15:	e8 b6 5b 00 00       	call   4000cad0 <abort>
40006f1a:	c7 45 ac 00 00 00 00 	movl   $0x0,-0x54(%ebp)
40006f21:	eb 7d                	jmp    40006fa0 <internal_realloc+0x2bb>
40006f23:	83 7d dc 00          	cmpl   $0x0,-0x24(%ebp)
40006f27:	74 0b                	je     40006f34 <internal_realloc+0x24f>
40006f29:	8b 45 dc             	mov    -0x24(%ebp),%eax
40006f2c:	89 04 24             	mov    %eax,(%esp)
40006f2f:	e8 57 0a 00 00       	call   4000798b <free>
40006f34:	8b 45 d8             	mov    -0x28(%ebp),%eax
40006f37:	83 c0 08             	add    $0x8,%eax
40006f3a:	89 45 ac             	mov    %eax,-0x54(%ebp)
40006f3d:	eb 61                	jmp    40006fa0 <internal_realloc+0x2bb>
40006f3f:	8b 45 10             	mov    0x10(%ebp),%eax
40006f42:	89 04 24             	mov    %eax,(%esp)
40006f45:	e8 8a 05 00 00       	call   400074d4 <malloc>
40006f4a:	89 45 f8             	mov    %eax,-0x8(%ebp)
40006f4d:	83 7d f8 00          	cmpl   $0x0,-0x8(%ebp)
40006f51:	74 47                	je     40006f9a <internal_realloc+0x2b5>
40006f53:	8b 45 d0             	mov    -0x30(%ebp),%eax
40006f56:	83 e8 04             	sub    $0x4,%eax
40006f59:	89 45 fc             	mov    %eax,-0x4(%ebp)
40006f5c:	8b 55 fc             	mov    -0x4(%ebp),%edx
40006f5f:	89 55 a8             	mov    %edx,-0x58(%ebp)
40006f62:	8b 45 10             	mov    0x10(%ebp),%eax
40006f65:	89 45 bc             	mov    %eax,-0x44(%ebp)
40006f68:	8b 55 a8             	mov    -0x58(%ebp),%edx
40006f6b:	39 55 bc             	cmp    %edx,-0x44(%ebp)
40006f6e:	76 06                	jbe    40006f76 <internal_realloc+0x291>
40006f70:	8b 45 a8             	mov    -0x58(%ebp),%eax
40006f73:	89 45 bc             	mov    %eax,-0x44(%ebp)
40006f76:	8b 55 bc             	mov    -0x44(%ebp),%edx
40006f79:	89 54 24 08          	mov    %edx,0x8(%esp)
40006f7d:	8b 45 0c             	mov    0xc(%ebp),%eax
40006f80:	89 44 24 04          	mov    %eax,0x4(%esp)
40006f84:	8b 45 f8             	mov    -0x8(%ebp),%eax
40006f87:	89 04 24             	mov    %eax,(%esp)
40006f8a:	e8 dd 36 00 00       	call   4000a66c <memcpy>
40006f8f:	8b 45 0c             	mov    0xc(%ebp),%eax
40006f92:	89 04 24             	mov    %eax,(%esp)
40006f95:	e8 f1 09 00 00       	call   4000798b <free>
40006f9a:	8b 45 f8             	mov    -0x8(%ebp),%eax
40006f9d:	89 45 ac             	mov    %eax,-0x54(%ebp)
40006fa0:	8b 45 ac             	mov    -0x54(%ebp),%eax
40006fa3:	c9                   	leave  
40006fa4:	c3                   	ret    

40006fa5 <internal_memalign>:
40006fa5:	55                   	push   %ebp
40006fa6:	89 e5                	mov    %esp,%ebp
40006fa8:	83 ec 58             	sub    $0x58,%esp
40006fab:	83 7d 0c 08          	cmpl   $0x8,0xc(%ebp)
40006faf:	77 13                	ja     40006fc4 <internal_memalign+0x1f>
40006fb1:	8b 45 10             	mov    0x10(%ebp),%eax
40006fb4:	89 04 24             	mov    %eax,(%esp)
40006fb7:	e8 18 05 00 00       	call   400074d4 <malloc>
40006fbc:	89 45 b4             	mov    %eax,-0x4c(%ebp)
40006fbf:	e9 7c 02 00 00       	jmp    40007240 <internal_memalign+0x29b>
40006fc4:	83 7d 0c 0f          	cmpl   $0xf,0xc(%ebp)
40006fc8:	77 07                	ja     40006fd1 <internal_memalign+0x2c>
40006fca:	c7 45 0c 10 00 00 00 	movl   $0x10,0xc(%ebp)
40006fd1:	8b 45 0c             	mov    0xc(%ebp),%eax
40006fd4:	83 e8 01             	sub    $0x1,%eax
40006fd7:	23 45 0c             	and    0xc(%ebp),%eax
40006fda:	85 c0                	test   %eax,%eax
40006fdc:	74 1a                	je     40006ff8 <internal_memalign+0x53>
40006fde:	c7 45 c4 10 00 00 00 	movl   $0x10,-0x3c(%ebp)
40006fe5:	eb 03                	jmp    40006fea <internal_memalign+0x45>
40006fe7:	d1 65 c4             	shll   -0x3c(%ebp)
40006fea:	8b 45 c4             	mov    -0x3c(%ebp),%eax
40006fed:	3b 45 0c             	cmp    0xc(%ebp),%eax
40006ff0:	72 f5                	jb     40006fe7 <internal_memalign+0x42>
40006ff2:	8b 45 c4             	mov    -0x3c(%ebp),%eax
40006ff5:	89 45 0c             	mov    %eax,0xc(%ebp)
40006ff8:	b8 c0 ff ff ff       	mov    $0xffffffc0,%eax
40006ffd:	2b 45 0c             	sub    0xc(%ebp),%eax
40007000:	3b 45 10             	cmp    0x10(%ebp),%eax
40007003:	77 19                	ja     4000701e <internal_memalign+0x79>
40007005:	83 7d 08 00          	cmpl   $0x0,0x8(%ebp)
40007009:	0f 84 2a 02 00 00    	je     40007239 <internal_memalign+0x294>
4000700f:	c7 05 10 1c 01 40 31 	movl   $0x31,0x40011c10
40007016:	00 00 00 
40007019:	e9 1b 02 00 00       	jmp    40007239 <internal_memalign+0x294>
4000701e:	83 7d 10 0a          	cmpl   $0xa,0x10(%ebp)
40007022:	76 10                	jbe    40007034 <internal_memalign+0x8f>
40007024:	8b 45 10             	mov    0x10(%ebp),%eax
40007027:	83 c0 0b             	add    $0xb,%eax
4000702a:	89 c2                	mov    %eax,%edx
4000702c:	83 e2 f8             	and    $0xfffffff8,%edx
4000702f:	89 55 b8             	mov    %edx,-0x48(%ebp)
40007032:	eb 07                	jmp    4000703b <internal_memalign+0x96>
40007034:	c7 45 b8 10 00 00 00 	movl   $0x10,-0x48(%ebp)
4000703b:	8b 4d b8             	mov    -0x48(%ebp),%ecx
4000703e:	89 4d c8             	mov    %ecx,-0x38(%ebp)
40007041:	8b 55 0c             	mov    0xc(%ebp),%edx
40007044:	8b 45 c8             	mov    -0x38(%ebp),%eax
40007047:	01 d0                	add    %edx,%eax
40007049:	83 c0 0c             	add    $0xc,%eax
4000704c:	89 45 cc             	mov    %eax,-0x34(%ebp)
4000704f:	8b 45 cc             	mov    -0x34(%ebp),%eax
40007052:	89 04 24             	mov    %eax,(%esp)
40007055:	e8 7a 04 00 00       	call   400074d4 <malloc>
4000705a:	89 45 d0             	mov    %eax,-0x30(%ebp)
4000705d:	83 7d d0 00          	cmpl   $0x0,-0x30(%ebp)
40007061:	0f 84 d2 01 00 00    	je     40007239 <internal_memalign+0x294>
40007067:	c7 45 d4 00 00 00 00 	movl   $0x0,-0x2c(%ebp)
4000706e:	c7 45 d8 00 00 00 00 	movl   $0x0,-0x28(%ebp)
40007075:	8b 45 d0             	mov    -0x30(%ebp),%eax
40007078:	83 e8 08             	sub    $0x8,%eax
4000707b:	89 45 dc             	mov    %eax,-0x24(%ebp)
4000707e:	8b 45 d0             	mov    -0x30(%ebp),%eax
40007081:	89 45 ac             	mov    %eax,-0x54(%ebp)
40007084:	8b 45 ac             	mov    -0x54(%ebp),%eax
40007087:	ba 00 00 00 00       	mov    $0x0,%edx
4000708c:	f7 75 0c             	divl   0xc(%ebp)
4000708f:	89 d0                	mov    %edx,%eax
40007091:	85 c0                	test   %eax,%eax
40007093:	0f 84 d7 00 00 00    	je     40007170 <internal_memalign+0x1cb>
40007099:	8b 45 0c             	mov    0xc(%ebp),%eax
4000709c:	83 e8 01             	sub    $0x1,%eax
4000709f:	03 45 d0             	add    -0x30(%ebp),%eax
400070a2:	89 c2                	mov    %eax,%edx
400070a4:	8b 45 0c             	mov    0xc(%ebp),%eax
400070a7:	f7 d8                	neg    %eax
400070a9:	21 d0                	and    %edx,%eax
400070ab:	83 e8 08             	sub    $0x8,%eax
400070ae:	89 45 e0             	mov    %eax,-0x20(%ebp)
400070b1:	8b 55 e0             	mov    -0x20(%ebp),%edx
400070b4:	8b 45 dc             	mov    -0x24(%ebp),%eax
400070b7:	89 d1                	mov    %edx,%ecx
400070b9:	29 c1                	sub    %eax,%ecx
400070bb:	89 c8                	mov    %ecx,%eax
400070bd:	83 f8 0f             	cmp    $0xf,%eax
400070c0:	77 0d                	ja     400070cf <internal_memalign+0x12a>
400070c2:	8b 55 0c             	mov    0xc(%ebp),%edx
400070c5:	8b 45 e0             	mov    -0x20(%ebp),%eax
400070c8:	01 d0                	add    %edx,%eax
400070ca:	89 45 bc             	mov    %eax,-0x44(%ebp)
400070cd:	eb 06                	jmp    400070d5 <internal_memalign+0x130>
400070cf:	8b 45 e0             	mov    -0x20(%ebp),%eax
400070d2:	89 45 bc             	mov    %eax,-0x44(%ebp)
400070d5:	8b 55 bc             	mov    -0x44(%ebp),%edx
400070d8:	89 55 e4             	mov    %edx,-0x1c(%ebp)
400070db:	8b 45 e4             	mov    -0x1c(%ebp),%eax
400070de:	89 45 e8             	mov    %eax,-0x18(%ebp)
400070e1:	8b 55 e4             	mov    -0x1c(%ebp),%edx
400070e4:	8b 45 dc             	mov    -0x24(%ebp),%eax
400070e7:	89 d1                	mov    %edx,%ecx
400070e9:	29 c1                	sub    %eax,%ecx
400070eb:	89 c8                	mov    %ecx,%eax
400070ed:	89 45 ec             	mov    %eax,-0x14(%ebp)
400070f0:	8b 45 dc             	mov    -0x24(%ebp),%eax
400070f3:	8b 40 04             	mov    0x4(%eax),%eax
400070f6:	83 e0 fc             	and    $0xfffffffc,%eax
400070f9:	2b 45 ec             	sub    -0x14(%ebp),%eax
400070fc:	89 45 f0             	mov    %eax,-0x10(%ebp)
400070ff:	8b 45 e8             	mov    -0x18(%ebp),%eax
40007102:	8b 40 04             	mov    0x4(%eax),%eax
40007105:	83 e0 01             	and    $0x1,%eax
40007108:	0b 45 f0             	or     -0x10(%ebp),%eax
4000710b:	89 c2                	mov    %eax,%edx
4000710d:	83 ca 02             	or     $0x2,%edx
40007110:	8b 45 e8             	mov    -0x18(%ebp),%eax
40007113:	89 50 04             	mov    %edx,0x4(%eax)
40007116:	8b 55 f0             	mov    -0x10(%ebp),%edx
40007119:	8b 45 e8             	mov    -0x18(%ebp),%eax
4000711c:	8d 0c 10             	lea    (%eax,%edx,1),%ecx
4000711f:	8b 55 f0             	mov    -0x10(%ebp),%edx
40007122:	8b 45 e8             	mov    -0x18(%ebp),%eax
40007125:	01 d0                	add    %edx,%eax
40007127:	8b 40 04             	mov    0x4(%eax),%eax
4000712a:	83 c8 01             	or     $0x1,%eax
4000712d:	89 41 04             	mov    %eax,0x4(%ecx)
40007130:	8b 45 dc             	mov    -0x24(%ebp),%eax
40007133:	8b 40 04             	mov    0x4(%eax),%eax
40007136:	83 e0 01             	and    $0x1,%eax
40007139:	0b 45 ec             	or     -0x14(%ebp),%eax
4000713c:	89 c2                	mov    %eax,%edx
4000713e:	83 ca 02             	or     $0x2,%edx
40007141:	8b 45 dc             	mov    -0x24(%ebp),%eax
40007144:	89 50 04             	mov    %edx,0x4(%eax)
40007147:	8b 55 ec             	mov    -0x14(%ebp),%edx
4000714a:	8b 45 dc             	mov    -0x24(%ebp),%eax
4000714d:	8d 0c 10             	lea    (%eax,%edx,1),%ecx
40007150:	8b 55 ec             	mov    -0x14(%ebp),%edx
40007153:	8b 45 dc             	mov    -0x24(%ebp),%eax
40007156:	01 d0                	add    %edx,%eax
40007158:	8b 40 04             	mov    0x4(%eax),%eax
4000715b:	83 c8 01             	or     $0x1,%eax
4000715e:	89 41 04             	mov    %eax,0x4(%ecx)
40007161:	8b 45 dc             	mov    -0x24(%ebp),%eax
40007164:	83 c0 08             	add    $0x8,%eax
40007167:	89 45 d4             	mov    %eax,-0x2c(%ebp)
4000716a:	8b 45 e8             	mov    -0x18(%ebp),%eax
4000716d:	89 45 dc             	mov    %eax,-0x24(%ebp)
40007170:	8b 45 dc             	mov    -0x24(%ebp),%eax
40007173:	8b 40 04             	mov    0x4(%eax),%eax
40007176:	83 e0 fc             	and    $0xfffffffc,%eax
40007179:	89 45 f4             	mov    %eax,-0xc(%ebp)
4000717c:	8b 45 c8             	mov    -0x38(%ebp),%eax
4000717f:	83 c0 10             	add    $0x10,%eax
40007182:	3b 45 f4             	cmp    -0xc(%ebp),%eax
40007185:	0f 83 81 00 00 00    	jae    4000720c <internal_memalign+0x267>
4000718b:	8b 55 c8             	mov    -0x38(%ebp),%edx
4000718e:	8b 45 f4             	mov    -0xc(%ebp),%eax
40007191:	29 d0                	sub    %edx,%eax
40007193:	89 45 f8             	mov    %eax,-0x8(%ebp)
40007196:	8b 55 c8             	mov    -0x38(%ebp),%edx
40007199:	8b 45 dc             	mov    -0x24(%ebp),%eax
4000719c:	01 d0                	add    %edx,%eax
4000719e:	89 45 fc             	mov    %eax,-0x4(%ebp)
400071a1:	8b 45 dc             	mov    -0x24(%ebp),%eax
400071a4:	8b 40 04             	mov    0x4(%eax),%eax
400071a7:	83 e0 01             	and    $0x1,%eax
400071aa:	0b 45 c8             	or     -0x38(%ebp),%eax
400071ad:	89 c2                	mov    %eax,%edx
400071af:	83 ca 02             	or     $0x2,%edx
400071b2:	8b 45 dc             	mov    -0x24(%ebp),%eax
400071b5:	89 50 04             	mov    %edx,0x4(%eax)
400071b8:	8b 55 c8             	mov    -0x38(%ebp),%edx
400071bb:	8b 45 dc             	mov    -0x24(%ebp),%eax
400071be:	8d 0c 10             	lea    (%eax,%edx,1),%ecx
400071c1:	8b 55 c8             	mov    -0x38(%ebp),%edx
400071c4:	8b 45 dc             	mov    -0x24(%ebp),%eax
400071c7:	01 d0                	add    %edx,%eax
400071c9:	8b 40 04             	mov    0x4(%eax),%eax
400071cc:	83 c8 01             	or     $0x1,%eax
400071cf:	89 41 04             	mov    %eax,0x4(%ecx)
400071d2:	8b 45 fc             	mov    -0x4(%ebp),%eax
400071d5:	8b 40 04             	mov    0x4(%eax),%eax
400071d8:	83 e0 01             	and    $0x1,%eax
400071db:	0b 45 f8             	or     -0x8(%ebp),%eax
400071de:	89 c2                	mov    %eax,%edx
400071e0:	83 ca 02             	or     $0x2,%edx
400071e3:	8b 45 fc             	mov    -0x4(%ebp),%eax
400071e6:	89 50 04             	mov    %edx,0x4(%eax)
400071e9:	8b 55 f8             	mov    -0x8(%ebp),%edx
400071ec:	8b 45 fc             	mov    -0x4(%ebp),%eax
400071ef:	8d 0c 10             	lea    (%eax,%edx,1),%ecx
400071f2:	8b 55 f8             	mov    -0x8(%ebp),%edx
400071f5:	8b 45 fc             	mov    -0x4(%ebp),%eax
400071f8:	01 d0                	add    %edx,%eax
400071fa:	8b 40 04             	mov    0x4(%eax),%eax
400071fd:	83 c8 01             	or     $0x1,%eax
40007200:	89 41 04             	mov    %eax,0x4(%ecx)
40007203:	8b 45 fc             	mov    -0x4(%ebp),%eax
40007206:	83 c0 08             	add    $0x8,%eax
40007209:	89 45 d8             	mov    %eax,-0x28(%ebp)
4000720c:	83 7d d4 00          	cmpl   $0x0,-0x2c(%ebp)
40007210:	74 0b                	je     4000721d <internal_memalign+0x278>
40007212:	8b 45 d4             	mov    -0x2c(%ebp),%eax
40007215:	89 04 24             	mov    %eax,(%esp)
40007218:	e8 6e 07 00 00       	call   4000798b <free>
4000721d:	83 7d d8 00          	cmpl   $0x0,-0x28(%ebp)
40007221:	74 0b                	je     4000722e <internal_memalign+0x289>
40007223:	8b 45 d8             	mov    -0x28(%ebp),%eax
40007226:	89 04 24             	mov    %eax,(%esp)
40007229:	e8 5d 07 00 00       	call   4000798b <free>
4000722e:	8b 45 dc             	mov    -0x24(%ebp),%eax
40007231:	83 c0 08             	add    $0x8,%eax
40007234:	89 45 b4             	mov    %eax,-0x4c(%ebp)
40007237:	eb 07                	jmp    40007240 <internal_memalign+0x29b>
40007239:	c7 45 b4 00 00 00 00 	movl   $0x0,-0x4c(%ebp)
40007240:	8b 45 b4             	mov    -0x4c(%ebp),%eax
40007243:	c9                   	leave  
40007244:	c3                   	ret    

40007245 <ialloc>:
40007245:	55                   	push   %ebp
40007246:	89 e5                	mov    %esp,%ebp
40007248:	83 ec 58             	sub    $0x58,%esp
4000724b:	83 7d 18 00          	cmpl   $0x0,0x18(%ebp)
4000724f:	74 20                	je     40007271 <ialloc+0x2c>
40007251:	83 7d 0c 00          	cmpl   $0x0,0xc(%ebp)
40007255:	75 0b                	jne    40007262 <ialloc+0x1d>
40007257:	8b 45 18             	mov    0x18(%ebp),%eax
4000725a:	89 45 bc             	mov    %eax,-0x44(%ebp)
4000725d:	e9 6d 02 00 00       	jmp    400074cf <ialloc+0x28a>
40007262:	8b 45 18             	mov    0x18(%ebp),%eax
40007265:	89 45 e8             	mov    %eax,-0x18(%ebp)
40007268:	c7 45 d8 00 00 00 00 	movl   $0x0,-0x28(%ebp)
4000726f:	eb 4f                	jmp    400072c0 <ialloc+0x7b>
40007271:	83 7d 0c 00          	cmpl   $0x0,0xc(%ebp)
40007275:	75 14                	jne    4000728b <ialloc+0x46>
40007277:	c7 04 24 00 00 00 00 	movl   $0x0,(%esp)
4000727e:	e8 51 02 00 00       	call   400074d4 <malloc>
40007283:	89 45 bc             	mov    %eax,-0x44(%ebp)
40007286:	e9 44 02 00 00       	jmp    400074cf <ialloc+0x28a>
4000728b:	c7 45 e8 00 00 00 00 	movl   $0x0,-0x18(%ebp)
40007292:	8b 45 0c             	mov    0xc(%ebp),%eax
40007295:	c1 e0 02             	shl    $0x2,%eax
40007298:	83 f8 0a             	cmp    $0xa,%eax
4000729b:	76 16                	jbe    400072b3 <ialloc+0x6e>
4000729d:	8b 45 0c             	mov    0xc(%ebp),%eax
400072a0:	83 c0 01             	add    $0x1,%eax
400072a3:	c1 e0 02             	shl    $0x2,%eax
400072a6:	83 c0 07             	add    $0x7,%eax
400072a9:	89 c2                	mov    %eax,%edx
400072ab:	83 e2 f8             	and    $0xfffffff8,%edx
400072ae:	89 55 c0             	mov    %edx,-0x40(%ebp)
400072b1:	eb 07                	jmp    400072ba <ialloc+0x75>
400072b3:	c7 45 c0 10 00 00 00 	movl   $0x10,-0x40(%ebp)
400072ba:	8b 45 c0             	mov    -0x40(%ebp),%eax
400072bd:	89 45 d8             	mov    %eax,-0x28(%ebp)
400072c0:	8b 45 14             	mov    0x14(%ebp),%eax
400072c3:	83 e0 01             	and    $0x1,%eax
400072c6:	84 c0                	test   %al,%al
400072c8:	74 35                	je     400072ff <ialloc+0xba>
400072ca:	8b 45 10             	mov    0x10(%ebp),%eax
400072cd:	8b 00                	mov    (%eax),%eax
400072cf:	83 f8 0a             	cmp    $0xa,%eax
400072d2:	76 12                	jbe    400072e6 <ialloc+0xa1>
400072d4:	8b 45 10             	mov    0x10(%ebp),%eax
400072d7:	8b 00                	mov    (%eax),%eax
400072d9:	83 c0 0b             	add    $0xb,%eax
400072dc:	89 c2                	mov    %eax,%edx
400072de:	83 e2 f8             	and    $0xfffffff8,%edx
400072e1:	89 55 c4             	mov    %edx,-0x3c(%ebp)
400072e4:	eb 07                	jmp    400072ed <ialloc+0xa8>
400072e6:	c7 45 c4 10 00 00 00 	movl   $0x10,-0x3c(%ebp)
400072ed:	8b 45 c4             	mov    -0x3c(%ebp),%eax
400072f0:	89 45 d0             	mov    %eax,-0x30(%ebp)
400072f3:	8b 45 0c             	mov    0xc(%ebp),%eax
400072f6:	0f af 45 d0          	imul   -0x30(%ebp),%eax
400072fa:	89 45 d4             	mov    %eax,-0x2c(%ebp)
400072fd:	eb 58                	jmp    40007357 <ialloc+0x112>
400072ff:	c7 45 d0 00 00 00 00 	movl   $0x0,-0x30(%ebp)
40007306:	c7 45 d4 00 00 00 00 	movl   $0x0,-0x2c(%ebp)
4000730d:	c7 45 f8 00 00 00 00 	movl   $0x0,-0x8(%ebp)
40007314:	eb 39                	jmp    4000734f <ialloc+0x10a>
40007316:	8b 45 f8             	mov    -0x8(%ebp),%eax
40007319:	c1 e0 02             	shl    $0x2,%eax
4000731c:	03 45 10             	add    0x10(%ebp),%eax
4000731f:	8b 00                	mov    (%eax),%eax
40007321:	83 f8 0a             	cmp    $0xa,%eax
40007324:	76 18                	jbe    4000733e <ialloc+0xf9>
40007326:	8b 45 f8             	mov    -0x8(%ebp),%eax
40007329:	c1 e0 02             	shl    $0x2,%eax
4000732c:	03 45 10             	add    0x10(%ebp),%eax
4000732f:	8b 00                	mov    (%eax),%eax
40007331:	83 c0 0b             	add    $0xb,%eax
40007334:	89 c2                	mov    %eax,%edx
40007336:	83 e2 f8             	and    $0xfffffff8,%edx
40007339:	89 55 c8             	mov    %edx,-0x38(%ebp)
4000733c:	eb 07                	jmp    40007345 <ialloc+0x100>
4000733e:	c7 45 c8 10 00 00 00 	movl   $0x10,-0x38(%ebp)
40007345:	8b 45 c8             	mov    -0x38(%ebp),%eax
40007348:	01 45 d4             	add    %eax,-0x2c(%ebp)
4000734b:	83 45 f8 01          	addl   $0x1,-0x8(%ebp)
4000734f:	8b 45 f8             	mov    -0x8(%ebp),%eax
40007352:	3b 45 0c             	cmp    0xc(%ebp),%eax
40007355:	75 bf                	jne    40007316 <ialloc+0xd1>
40007357:	8b 55 d8             	mov    -0x28(%ebp),%edx
4000735a:	8b 45 d4             	mov    -0x2c(%ebp),%eax
4000735d:	01 d0                	add    %edx,%eax
4000735f:	89 45 f4             	mov    %eax,-0xc(%ebp)
40007362:	c7 45 f0 00 00 00 00 	movl   $0x0,-0x10(%ebp)
40007369:	8b 45 08             	mov    0x8(%ebp),%eax
4000736c:	8b 90 b4 01 00 00    	mov    0x1b4(%eax),%edx
40007372:	8b 45 08             	mov    0x8(%ebp),%eax
40007375:	89 90 b4 01 00 00    	mov    %edx,0x1b4(%eax)
4000737b:	8b 45 f4             	mov    -0xc(%ebp),%eax
4000737e:	83 e8 04             	sub    $0x4,%eax
40007381:	89 04 24             	mov    %eax,(%esp)
40007384:	e8 4b 01 00 00       	call   400074d4 <malloc>
40007389:	89 45 dc             	mov    %eax,-0x24(%ebp)
4000738c:	83 7d f0 00          	cmpl   $0x0,-0x10(%ebp)
40007390:	74 12                	je     400073a4 <ialloc+0x15f>
40007392:	8b 45 08             	mov    0x8(%ebp),%eax
40007395:	8b 90 b4 01 00 00    	mov    0x1b4(%eax),%edx
4000739b:	8b 45 08             	mov    0x8(%ebp),%eax
4000739e:	89 90 b4 01 00 00    	mov    %edx,0x1b4(%eax)
400073a4:	83 7d dc 00          	cmpl   $0x0,-0x24(%ebp)
400073a8:	75 0c                	jne    400073b6 <ialloc+0x171>
400073aa:	c7 45 bc 00 00 00 00 	movl   $0x0,-0x44(%ebp)
400073b1:	e9 19 01 00 00       	jmp    400074cf <ialloc+0x28a>
400073b6:	8b 45 dc             	mov    -0x24(%ebp),%eax
400073b9:	83 e8 08             	sub    $0x8,%eax
400073bc:	89 45 e0             	mov    %eax,-0x20(%ebp)
400073bf:	8b 45 e0             	mov    -0x20(%ebp),%eax
400073c2:	8b 40 04             	mov    0x4(%eax),%eax
400073c5:	83 e0 fc             	and    $0xfffffffc,%eax
400073c8:	89 45 e4             	mov    %eax,-0x1c(%ebp)
400073cb:	8b 45 14             	mov    0x14(%ebp),%eax
400073ce:	83 e0 02             	and    $0x2,%eax
400073d1:	85 c0                	test   %eax,%eax
400073d3:	74 22                	je     400073f7 <ialloc+0x1b2>
400073d5:	8b 55 d8             	mov    -0x28(%ebp),%edx
400073d8:	8b 45 e4             	mov    -0x1c(%ebp),%eax
400073db:	29 d0                	sub    %edx,%eax
400073dd:	83 e8 04             	sub    $0x4,%eax
400073e0:	89 44 24 08          	mov    %eax,0x8(%esp)
400073e4:	c7 44 24 04 00 00 00 	movl   $0x0,0x4(%esp)
400073eb:	00 
400073ec:	8b 45 dc             	mov    -0x24(%ebp),%eax
400073ef:	89 04 24             	mov    %eax,(%esp)
400073f2:	e8 52 34 00 00       	call   4000a849 <memset>
400073f7:	83 7d e8 00          	cmpl   $0x0,-0x18(%ebp)
400073fb:	75 33                	jne    40007430 <ialloc+0x1eb>
400073fd:	8b 55 d4             	mov    -0x2c(%ebp),%edx
40007400:	8b 45 e0             	mov    -0x20(%ebp),%eax
40007403:	01 d0                	add    %edx,%eax
40007405:	89 45 ec             	mov    %eax,-0x14(%ebp)
40007408:	8b 55 d4             	mov    -0x2c(%ebp),%edx
4000740b:	8b 45 e4             	mov    -0x1c(%ebp),%eax
4000740e:	29 d0                	sub    %edx,%eax
40007410:	89 45 fc             	mov    %eax,-0x4(%ebp)
40007413:	8b 45 ec             	mov    -0x14(%ebp),%eax
40007416:	83 c0 08             	add    $0x8,%eax
40007419:	89 45 e8             	mov    %eax,-0x18(%ebp)
4000741c:	8b 45 fc             	mov    -0x4(%ebp),%eax
4000741f:	89 c2                	mov    %eax,%edx
40007421:	83 ca 03             	or     $0x3,%edx
40007424:	8b 45 ec             	mov    -0x14(%ebp),%eax
40007427:	89 50 04             	mov    %edx,0x4(%eax)
4000742a:	8b 45 d4             	mov    -0x2c(%ebp),%eax
4000742d:	89 45 e4             	mov    %eax,-0x1c(%ebp)
40007430:	c7 45 f8 00 00 00 00 	movl   $0x0,-0x8(%ebp)
40007437:	8b 45 f8             	mov    -0x8(%ebp),%eax
4000743a:	c1 e0 02             	shl    $0x2,%eax
4000743d:	89 c2                	mov    %eax,%edx
4000743f:	03 55 e8             	add    -0x18(%ebp),%edx
40007442:	8b 45 e0             	mov    -0x20(%ebp),%eax
40007445:	83 c0 08             	add    $0x8,%eax
40007448:	89 02                	mov    %eax,(%edx)
4000744a:	8b 45 0c             	mov    0xc(%ebp),%eax
4000744d:	83 e8 01             	sub    $0x1,%eax
40007450:	3b 45 f8             	cmp    -0x8(%ebp),%eax
40007453:	74 66                	je     400074bb <ialloc+0x276>
40007455:	83 7d d0 00          	cmpl   $0x0,-0x30(%ebp)
40007459:	74 08                	je     40007463 <ialloc+0x21e>
4000745b:	8b 45 d0             	mov    -0x30(%ebp),%eax
4000745e:	89 45 f4             	mov    %eax,-0xc(%ebp)
40007461:	eb 35                	jmp    40007498 <ialloc+0x253>
40007463:	8b 45 f8             	mov    -0x8(%ebp),%eax
40007466:	c1 e0 02             	shl    $0x2,%eax
40007469:	03 45 10             	add    0x10(%ebp),%eax
4000746c:	8b 00                	mov    (%eax),%eax
4000746e:	83 f8 0a             	cmp    $0xa,%eax
40007471:	76 18                	jbe    4000748b <ialloc+0x246>
40007473:	8b 45 f8             	mov    -0x8(%ebp),%eax
40007476:	c1 e0 02             	shl    $0x2,%eax
40007479:	03 45 10             	add    0x10(%ebp),%eax
4000747c:	8b 00                	mov    (%eax),%eax
4000747e:	83 c0 0b             	add    $0xb,%eax
40007481:	89 c2                	mov    %eax,%edx
40007483:	83 e2 f8             	and    $0xfffffff8,%edx
40007486:	89 55 cc             	mov    %edx,-0x34(%ebp)
40007489:	eb 07                	jmp    40007492 <ialloc+0x24d>
4000748b:	c7 45 cc 10 00 00 00 	movl   $0x10,-0x34(%ebp)
40007492:	8b 45 cc             	mov    -0x34(%ebp),%eax
40007495:	89 45 f4             	mov    %eax,-0xc(%ebp)
40007498:	8b 45 f4             	mov    -0xc(%ebp),%eax
4000749b:	29 45 e4             	sub    %eax,-0x1c(%ebp)
4000749e:	8b 45 f4             	mov    -0xc(%ebp),%eax
400074a1:	89 c2                	mov    %eax,%edx
400074a3:	83 ca 03             	or     $0x3,%edx
400074a6:	8b 45 e0             	mov    -0x20(%ebp),%eax
400074a9:	89 50 04             	mov    %edx,0x4(%eax)
400074ac:	8b 45 f4             	mov    -0xc(%ebp),%eax
400074af:	01 45 e0             	add    %eax,-0x20(%ebp)
400074b2:	83 45 f8 01          	addl   $0x1,-0x8(%ebp)
400074b6:	e9 7c ff ff ff       	jmp    40007437 <ialloc+0x1f2>
400074bb:	8b 45 e4             	mov    -0x1c(%ebp),%eax
400074be:	89 c2                	mov    %eax,%edx
400074c0:	83 ca 03             	or     $0x3,%edx
400074c3:	8b 45 e0             	mov    -0x20(%ebp),%eax
400074c6:	89 50 04             	mov    %edx,0x4(%eax)
400074c9:	8b 55 e8             	mov    -0x18(%ebp),%edx
400074cc:	89 55 bc             	mov    %edx,-0x44(%ebp)
400074cf:	8b 45 bc             	mov    -0x44(%ebp),%eax
400074d2:	c9                   	leave  
400074d3:	c3                   	ret    

400074d4 <malloc>:
400074d4:	55                   	push   %ebp
400074d5:	89 e5                	mov    %esp,%ebp
400074d7:	53                   	push   %ebx
400074d8:	81 ec 84 00 00 00    	sub    $0x84,%esp
400074de:	81 7d 08 f4 00 00 00 	cmpl   $0xf4,0x8(%ebp)
400074e5:	0f 87 18 03 00 00    	ja     40007803 <malloc+0x32f>
400074eb:	83 7d 08 0a          	cmpl   $0xa,0x8(%ebp)
400074ef:	76 10                	jbe    40007501 <malloc+0x2d>
400074f1:	8b 45 08             	mov    0x8(%ebp),%eax
400074f4:	83 c0 0b             	add    $0xb,%eax
400074f7:	89 c2                	mov    %eax,%edx
400074f9:	83 e2 f8             	and    $0xfffffff8,%edx
400074fc:	89 55 88             	mov    %edx,-0x78(%ebp)
400074ff:	eb 07                	jmp    40007508 <malloc+0x34>
40007501:	c7 45 88 10 00 00 00 	movl   $0x10,-0x78(%ebp)
40007508:	8b 45 88             	mov    -0x78(%ebp),%eax
4000750b:	89 45 90             	mov    %eax,-0x70(%ebp)
4000750e:	8b 45 90             	mov    -0x70(%ebp),%eax
40007511:	c1 e8 03             	shr    $0x3,%eax
40007514:	89 45 94             	mov    %eax,-0x6c(%ebp)
40007517:	a1 60 05 01 40       	mov    0x40010560,%eax
4000751c:	8b 4d 94             	mov    -0x6c(%ebp),%ecx
4000751f:	d3 e8                	shr    %cl,%eax
40007521:	89 45 98             	mov    %eax,-0x68(%ebp)
40007524:	8b 45 98             	mov    -0x68(%ebp),%eax
40007527:	83 e0 03             	and    $0x3,%eax
4000752a:	85 c0                	test   %eax,%eax
4000752c:	0f 84 c1 00 00 00    	je     400075f3 <malloc+0x11f>
40007532:	8b 45 98             	mov    -0x68(%ebp),%eax
40007535:	83 e0 01             	and    $0x1,%eax
40007538:	85 c0                	test   %eax,%eax
4000753a:	0f 94 c0             	sete   %al
4000753d:	0f b6 c0             	movzbl %al,%eax
40007540:	01 45 94             	add    %eax,-0x6c(%ebp)
40007543:	ba 84 05 01 40       	mov    $0x40010584,%edx
40007548:	8b 45 94             	mov    -0x6c(%ebp),%eax
4000754b:	c1 e0 03             	shl    $0x3,%eax
4000754e:	8d 04 02             	lea    (%edx,%eax,1),%eax
40007551:	89 45 9c             	mov    %eax,-0x64(%ebp)
40007554:	8b 45 9c             	mov    -0x64(%ebp),%eax
40007557:	8b 40 08             	mov    0x8(%eax),%eax
4000755a:	89 45 a0             	mov    %eax,-0x60(%ebp)
4000755d:	8b 45 a0             	mov    -0x60(%ebp),%eax
40007560:	8b 40 08             	mov    0x8(%eax),%eax
40007563:	89 45 a4             	mov    %eax,-0x5c(%ebp)
40007566:	8b 45 9c             	mov    -0x64(%ebp),%eax
40007569:	3b 45 a4             	cmp    -0x5c(%ebp),%eax
4000756c:	75 1b                	jne    40007589 <malloc+0xb5>
4000756e:	8b 15 60 05 01 40    	mov    0x40010560,%edx
40007574:	8b 4d 94             	mov    -0x6c(%ebp),%ecx
40007577:	b8 01 00 00 00       	mov    $0x1,%eax
4000757c:	d3 e0                	shl    %cl,%eax
4000757e:	f7 d0                	not    %eax
40007580:	21 d0                	and    %edx,%eax
40007582:	a3 60 05 01 40       	mov    %eax,0x40010560
40007587:	eb 2e                	jmp    400075b7 <malloc+0xe3>
40007589:	8b 15 70 05 01 40    	mov    0x40010570,%edx
4000758f:	8b 45 a4             	mov    -0x5c(%ebp),%eax
40007592:	39 c2                	cmp    %eax,%edx
40007594:	0f 96 c0             	setbe  %al
40007597:	0f b6 c0             	movzbl %al,%eax
4000759a:	85 c0                	test   %eax,%eax
4000759c:	74 14                	je     400075b2 <malloc+0xde>
4000759e:	8b 55 9c             	mov    -0x64(%ebp),%edx
400075a1:	8b 45 a4             	mov    -0x5c(%ebp),%eax
400075a4:	89 42 08             	mov    %eax,0x8(%edx)
400075a7:	8b 55 a4             	mov    -0x5c(%ebp),%edx
400075aa:	8b 45 9c             	mov    -0x64(%ebp),%eax
400075ad:	89 42 0c             	mov    %eax,0xc(%edx)
400075b0:	eb 05                	jmp    400075b7 <malloc+0xe3>
400075b2:	e8 19 55 00 00       	call   4000cad0 <abort>
400075b7:	8b 45 94             	mov    -0x6c(%ebp),%eax
400075ba:	c1 e0 03             	shl    $0x3,%eax
400075bd:	89 c2                	mov    %eax,%edx
400075bf:	83 ca 03             	or     $0x3,%edx
400075c2:	8b 45 a0             	mov    -0x60(%ebp),%eax
400075c5:	89 50 04             	mov    %edx,0x4(%eax)
400075c8:	8b 45 94             	mov    -0x6c(%ebp),%eax
400075cb:	c1 e0 03             	shl    $0x3,%eax
400075ce:	89 c2                	mov    %eax,%edx
400075d0:	03 55 a0             	add    -0x60(%ebp),%edx
400075d3:	8b 45 94             	mov    -0x6c(%ebp),%eax
400075d6:	c1 e0 03             	shl    $0x3,%eax
400075d9:	03 45 a0             	add    -0x60(%ebp),%eax
400075dc:	8b 40 04             	mov    0x4(%eax),%eax
400075df:	83 c8 01             	or     $0x1,%eax
400075e2:	89 42 04             	mov    %eax,0x4(%edx)
400075e5:	8b 45 a0             	mov    -0x60(%ebp),%eax
400075e8:	83 c0 08             	add    $0x8,%eax
400075eb:	89 45 8c             	mov    %eax,-0x74(%ebp)
400075ee:	e9 8c 03 00 00       	jmp    4000797f <malloc+0x4ab>
400075f3:	a1 68 05 01 40       	mov    0x40010568,%eax
400075f8:	3b 45 90             	cmp    -0x70(%ebp),%eax
400075fb:	0f 83 46 02 00 00    	jae    40007847 <malloc+0x373>
40007601:	83 7d 98 00          	cmpl   $0x0,-0x68(%ebp)
40007605:	0f 84 cd 01 00 00    	je     400077d8 <malloc+0x304>
4000760b:	8b 4d 94             	mov    -0x6c(%ebp),%ecx
4000760e:	8b 45 98             	mov    -0x68(%ebp),%eax
40007611:	89 c3                	mov    %eax,%ebx
40007613:	d3 e3                	shl    %cl,%ebx
40007615:	8b 4d 94             	mov    -0x6c(%ebp),%ecx
40007618:	b8 01 00 00 00       	mov    $0x1,%eax
4000761d:	d3 e0                	shl    %cl,%eax
4000761f:	8d 14 00             	lea    (%eax,%eax,1),%edx
40007622:	8b 4d 94             	mov    -0x6c(%ebp),%ecx
40007625:	b8 01 00 00 00       	mov    $0x1,%eax
4000762a:	d3 e0                	shl    %cl,%eax
4000762c:	01 c0                	add    %eax,%eax
4000762e:	f7 d8                	neg    %eax
40007630:	09 d0                	or     %edx,%eax
40007632:	21 d8                	and    %ebx,%eax
40007634:	89 45 bc             	mov    %eax,-0x44(%ebp)
40007637:	8b 45 bc             	mov    -0x44(%ebp),%eax
4000763a:	f7 d8                	neg    %eax
4000763c:	23 45 bc             	and    -0x44(%ebp),%eax
4000763f:	89 45 c0             	mov    %eax,-0x40(%ebp)
40007642:	0f bc 45 c0          	bsf    -0x40(%ebp),%eax
40007646:	89 45 c4             	mov    %eax,-0x3c(%ebp)
40007649:	8b 45 c4             	mov    -0x3c(%ebp),%eax
4000764c:	89 45 b8             	mov    %eax,-0x48(%ebp)
4000764f:	ba 84 05 01 40       	mov    $0x40010584,%edx
40007654:	8b 45 b8             	mov    -0x48(%ebp),%eax
40007657:	c1 e0 03             	shl    $0x3,%eax
4000765a:	8d 04 02             	lea    (%edx,%eax,1),%eax
4000765d:	89 45 a8             	mov    %eax,-0x58(%ebp)
40007660:	8b 45 a8             	mov    -0x58(%ebp),%eax
40007663:	8b 40 08             	mov    0x8(%eax),%eax
40007666:	89 45 ac             	mov    %eax,-0x54(%ebp)
40007669:	8b 45 ac             	mov    -0x54(%ebp),%eax
4000766c:	8b 40 08             	mov    0x8(%eax),%eax
4000766f:	89 45 c8             	mov    %eax,-0x38(%ebp)
40007672:	8b 45 a8             	mov    -0x58(%ebp),%eax
40007675:	3b 45 c8             	cmp    -0x38(%ebp),%eax
40007678:	75 1b                	jne    40007695 <malloc+0x1c1>
4000767a:	8b 15 60 05 01 40    	mov    0x40010560,%edx
40007680:	8b 4d b8             	mov    -0x48(%ebp),%ecx
40007683:	b8 01 00 00 00       	mov    $0x1,%eax
40007688:	d3 e0                	shl    %cl,%eax
4000768a:	f7 d0                	not    %eax
4000768c:	21 d0                	and    %edx,%eax
4000768e:	a3 60 05 01 40       	mov    %eax,0x40010560
40007693:	eb 2e                	jmp    400076c3 <malloc+0x1ef>
40007695:	8b 15 70 05 01 40    	mov    0x40010570,%edx
4000769b:	8b 45 c8             	mov    -0x38(%ebp),%eax
4000769e:	39 c2                	cmp    %eax,%edx
400076a0:	0f 96 c0             	setbe  %al
400076a3:	0f b6 c0             	movzbl %al,%eax
400076a6:	85 c0                	test   %eax,%eax
400076a8:	74 14                	je     400076be <malloc+0x1ea>
400076aa:	8b 55 a8             	mov    -0x58(%ebp),%edx
400076ad:	8b 45 c8             	mov    -0x38(%ebp),%eax
400076b0:	89 42 08             	mov    %eax,0x8(%edx)
400076b3:	8b 55 c8             	mov    -0x38(%ebp),%edx
400076b6:	8b 45 a8             	mov    -0x58(%ebp),%eax
400076b9:	89 42 0c             	mov    %eax,0xc(%edx)
400076bc:	eb 05                	jmp    400076c3 <malloc+0x1ef>
400076be:	e8 0d 54 00 00       	call   4000cad0 <abort>
400076c3:	8b 45 b8             	mov    -0x48(%ebp),%eax
400076c6:	c1 e0 03             	shl    $0x3,%eax
400076c9:	2b 45 90             	sub    -0x70(%ebp),%eax
400076cc:	89 45 b4             	mov    %eax,-0x4c(%ebp)
400076cf:	8b 45 90             	mov    -0x70(%ebp),%eax
400076d2:	89 c2                	mov    %eax,%edx
400076d4:	83 ca 03             	or     $0x3,%edx
400076d7:	8b 45 ac             	mov    -0x54(%ebp),%eax
400076da:	89 50 04             	mov    %edx,0x4(%eax)
400076dd:	8b 55 90             	mov    -0x70(%ebp),%edx
400076e0:	8b 45 ac             	mov    -0x54(%ebp),%eax
400076e3:	01 d0                	add    %edx,%eax
400076e5:	89 45 b0             	mov    %eax,-0x50(%ebp)
400076e8:	8b 45 b4             	mov    -0x4c(%ebp),%eax
400076eb:	89 c2                	mov    %eax,%edx
400076ed:	83 ca 01             	or     $0x1,%edx
400076f0:	8b 45 b0             	mov    -0x50(%ebp),%eax
400076f3:	89 50 04             	mov    %edx,0x4(%eax)
400076f6:	8b 55 b4             	mov    -0x4c(%ebp),%edx
400076f9:	8b 45 b0             	mov    -0x50(%ebp),%eax
400076fc:	8d 14 10             	lea    (%eax,%edx,1),%edx
400076ff:	8b 45 b4             	mov    -0x4c(%ebp),%eax
40007702:	89 02                	mov    %eax,(%edx)
40007704:	a1 68 05 01 40       	mov    0x40010568,%eax
40007709:	89 45 cc             	mov    %eax,-0x34(%ebp)
4000770c:	83 7d cc 00          	cmpl   $0x0,-0x34(%ebp)
40007710:	0f 84 a4 00 00 00    	je     400077ba <malloc+0x2e6>
40007716:	a1 74 05 01 40       	mov    0x40010574,%eax
4000771b:	89 45 d0             	mov    %eax,-0x30(%ebp)
4000771e:	8b 45 cc             	mov    -0x34(%ebp),%eax
40007721:	c1 e8 03             	shr    $0x3,%eax
40007724:	89 45 d4             	mov    %eax,-0x2c(%ebp)
40007727:	ba 84 05 01 40       	mov    $0x40010584,%edx
4000772c:	8b 45 d4             	mov    -0x2c(%ebp),%eax
4000772f:	c1 e0 03             	shl    $0x3,%eax
40007732:	8d 04 02             	lea    (%edx,%eax,1),%eax
40007735:	89 45 d8             	mov    %eax,-0x28(%ebp)
40007738:	8b 45 d8             	mov    -0x28(%ebp),%eax
4000773b:	89 45 dc             	mov    %eax,-0x24(%ebp)
4000773e:	8b 15 60 05 01 40    	mov    0x40010560,%edx
40007744:	8b 4d d4             	mov    -0x2c(%ebp),%ecx
40007747:	b8 01 00 00 00       	mov    $0x1,%eax
4000774c:	d3 e0                	shl    %cl,%eax
4000774e:	21 d0                	and    %edx,%eax
40007750:	85 c0                	test   %eax,%eax
40007752:	75 19                	jne    4000776d <malloc+0x299>
40007754:	8b 15 60 05 01 40    	mov    0x40010560,%edx
4000775a:	8b 4d d4             	mov    -0x2c(%ebp),%ecx
4000775d:	b8 01 00 00 00       	mov    $0x1,%eax
40007762:	d3 e0                	shl    %cl,%eax
40007764:	09 d0                	or     %edx,%eax
40007766:	a3 60 05 01 40       	mov    %eax,0x40010560
4000776b:	eb 29                	jmp    40007796 <malloc+0x2c2>
4000776d:	8b 45 d8             	mov    -0x28(%ebp),%eax
40007770:	8b 40 08             	mov    0x8(%eax),%eax
40007773:	89 c2                	mov    %eax,%edx
40007775:	a1 70 05 01 40       	mov    0x40010570,%eax
4000777a:	39 c2                	cmp    %eax,%edx
4000777c:	0f 93 c0             	setae  %al
4000777f:	0f b6 c0             	movzbl %al,%eax
40007782:	85 c0                	test   %eax,%eax
40007784:	74 0b                	je     40007791 <malloc+0x2bd>
40007786:	8b 45 d8             	mov    -0x28(%ebp),%eax
40007789:	8b 40 08             	mov    0x8(%eax),%eax
4000778c:	89 45 dc             	mov    %eax,-0x24(%ebp)
4000778f:	eb 05                	jmp    40007796 <malloc+0x2c2>
40007791:	e8 3a 53 00 00       	call   4000cad0 <abort>
40007796:	8b 55 d8             	mov    -0x28(%ebp),%edx
40007799:	8b 45 d0             	mov    -0x30(%ebp),%eax
4000779c:	89 42 08             	mov    %eax,0x8(%edx)
4000779f:	8b 55 dc             	mov    -0x24(%ebp),%edx
400077a2:	8b 45 d0             	mov    -0x30(%ebp),%eax
400077a5:	89 42 0c             	mov    %eax,0xc(%edx)
400077a8:	8b 55 d0             	mov    -0x30(%ebp),%edx
400077ab:	8b 45 dc             	mov    -0x24(%ebp),%eax
400077ae:	89 42 08             	mov    %eax,0x8(%edx)
400077b1:	8b 55 d0             	mov    -0x30(%ebp),%edx
400077b4:	8b 45 d8             	mov    -0x28(%ebp),%eax
400077b7:	89 42 0c             	mov    %eax,0xc(%edx)
400077ba:	8b 45 b4             	mov    -0x4c(%ebp),%eax
400077bd:	a3 68 05 01 40       	mov    %eax,0x40010568
400077c2:	8b 45 b0             	mov    -0x50(%ebp),%eax
400077c5:	a3 74 05 01 40       	mov    %eax,0x40010574
400077ca:	8b 45 ac             	mov    -0x54(%ebp),%eax
400077cd:	83 c0 08             	add    $0x8,%eax
400077d0:	89 45 8c             	mov    %eax,-0x74(%ebp)
400077d3:	e9 a7 01 00 00       	jmp    4000797f <malloc+0x4ab>
400077d8:	a1 64 05 01 40       	mov    0x40010564,%eax
400077dd:	85 c0                	test   %eax,%eax
400077df:	74 66                	je     40007847 <malloc+0x373>
400077e1:	8b 45 90             	mov    -0x70(%ebp),%eax
400077e4:	89 44 24 04          	mov    %eax,0x4(%esp)
400077e8:	c7 04 24 60 05 01 40 	movl   $0x40010560,(%esp)
400077ef:	e8 95 f0 ff ff       	call   40006889 <tmalloc_small>
400077f4:	89 45 8c             	mov    %eax,-0x74(%ebp)
400077f7:	83 7d 8c 00          	cmpl   $0x0,-0x74(%ebp)
400077fb:	0f 85 7e 01 00 00    	jne    4000797f <malloc+0x4ab>
40007801:	eb 44                	jmp    40007847 <malloc+0x373>
40007803:	83 7d 08 bf          	cmpl   $0xffffffbf,0x8(%ebp)
40007807:	76 09                	jbe    40007812 <malloc+0x33e>
40007809:	c7 45 90 ff ff ff ff 	movl   $0xffffffff,-0x70(%ebp)
40007810:	eb 35                	jmp    40007847 <malloc+0x373>
40007812:	8b 45 08             	mov    0x8(%ebp),%eax
40007815:	83 c0 0b             	add    $0xb,%eax
40007818:	83 e0 f8             	and    $0xfffffff8,%eax
4000781b:	89 45 90             	mov    %eax,-0x70(%ebp)
4000781e:	a1 64 05 01 40       	mov    0x40010564,%eax
40007823:	85 c0                	test   %eax,%eax
40007825:	74 20                	je     40007847 <malloc+0x373>
40007827:	8b 45 90             	mov    -0x70(%ebp),%eax
4000782a:	89 44 24 04          	mov    %eax,0x4(%esp)
4000782e:	c7 04 24 60 05 01 40 	movl   $0x40010560,(%esp)
40007835:	e8 9d e7 ff ff       	call   40005fd7 <tmalloc_large>
4000783a:	89 45 8c             	mov    %eax,-0x74(%ebp)
4000783d:	83 7d 8c 00          	cmpl   $0x0,-0x74(%ebp)
40007841:	0f 85 38 01 00 00    	jne    4000797f <malloc+0x4ab>
40007847:	a1 68 05 01 40       	mov    0x40010568,%eax
4000784c:	3b 45 90             	cmp    -0x70(%ebp),%eax
4000784f:	0f 82 b1 00 00 00    	jb     40007906 <malloc+0x432>
40007855:	a1 68 05 01 40       	mov    0x40010568,%eax
4000785a:	2b 45 90             	sub    -0x70(%ebp),%eax
4000785d:	89 45 e0             	mov    %eax,-0x20(%ebp)
40007860:	a1 74 05 01 40       	mov    0x40010574,%eax
40007865:	89 45 e4             	mov    %eax,-0x1c(%ebp)
40007868:	83 7d e0 0f          	cmpl   $0xf,-0x20(%ebp)
4000786c:	76 49                	jbe    400078b7 <malloc+0x3e3>
4000786e:	8b 55 90             	mov    -0x70(%ebp),%edx
40007871:	8b 45 e4             	mov    -0x1c(%ebp),%eax
40007874:	01 d0                	add    %edx,%eax
40007876:	a3 74 05 01 40       	mov    %eax,0x40010574
4000787b:	a1 74 05 01 40       	mov    0x40010574,%eax
40007880:	89 45 e8             	mov    %eax,-0x18(%ebp)
40007883:	8b 45 e0             	mov    -0x20(%ebp),%eax
40007886:	a3 68 05 01 40       	mov    %eax,0x40010568
4000788b:	8b 45 e0             	mov    -0x20(%ebp),%eax
4000788e:	89 c2                	mov    %eax,%edx
40007890:	83 ca 01             	or     $0x1,%edx
40007893:	8b 45 e8             	mov    -0x18(%ebp),%eax
40007896:	89 50 04             	mov    %edx,0x4(%eax)
40007899:	8b 55 e0             	mov    -0x20(%ebp),%edx
4000789c:	8b 45 e8             	mov    -0x18(%ebp),%eax
4000789f:	8d 14 10             	lea    (%eax,%edx,1),%edx
400078a2:	8b 45 e0             	mov    -0x20(%ebp),%eax
400078a5:	89 02                	mov    %eax,(%edx)
400078a7:	8b 45 90             	mov    -0x70(%ebp),%eax
400078aa:	89 c2                	mov    %eax,%edx
400078ac:	83 ca 03             	or     $0x3,%edx
400078af:	8b 45 e4             	mov    -0x1c(%ebp),%eax
400078b2:	89 50 04             	mov    %edx,0x4(%eax)
400078b5:	eb 44                	jmp    400078fb <malloc+0x427>
400078b7:	a1 68 05 01 40       	mov    0x40010568,%eax
400078bc:	89 45 ec             	mov    %eax,-0x14(%ebp)
400078bf:	c7 05 68 05 01 40 00 	movl   $0x0,0x40010568
400078c6:	00 00 00 
400078c9:	c7 05 74 05 01 40 00 	movl   $0x0,0x40010574
400078d0:	00 00 00 
400078d3:	8b 45 ec             	mov    -0x14(%ebp),%eax
400078d6:	89 c2                	mov    %eax,%edx
400078d8:	83 ca 03             	or     $0x3,%edx
400078db:	8b 45 e4             	mov    -0x1c(%ebp),%eax
400078de:	89 50 04             	mov    %edx,0x4(%eax)
400078e1:	8b 55 ec             	mov    -0x14(%ebp),%edx
400078e4:	8b 45 e4             	mov    -0x1c(%ebp),%eax
400078e7:	8d 0c 10             	lea    (%eax,%edx,1),%ecx
400078ea:	8b 55 ec             	mov    -0x14(%ebp),%edx
400078ed:	8b 45 e4             	mov    -0x1c(%ebp),%eax
400078f0:	01 d0                	add    %edx,%eax
400078f2:	8b 40 04             	mov    0x4(%eax),%eax
400078f5:	83 c8 01             	or     $0x1,%eax
400078f8:	89 41 04             	mov    %eax,0x4(%ecx)
400078fb:	8b 45 e4             	mov    -0x1c(%ebp),%eax
400078fe:	83 c0 08             	add    $0x8,%eax
40007901:	89 45 8c             	mov    %eax,-0x74(%ebp)
40007904:	eb 79                	jmp    4000797f <malloc+0x4ab>
40007906:	a1 6c 05 01 40       	mov    0x4001056c,%eax
4000790b:	3b 45 90             	cmp    -0x70(%ebp),%eax
4000790e:	76 59                	jbe    40007969 <malloc+0x495>
40007910:	a1 6c 05 01 40       	mov    0x4001056c,%eax
40007915:	2b 45 90             	sub    -0x70(%ebp),%eax
40007918:	a3 6c 05 01 40       	mov    %eax,0x4001056c
4000791d:	a1 6c 05 01 40       	mov    0x4001056c,%eax
40007922:	89 45 f0             	mov    %eax,-0x10(%ebp)
40007925:	a1 78 05 01 40       	mov    0x40010578,%eax
4000792a:	89 45 f4             	mov    %eax,-0xc(%ebp)
4000792d:	8b 55 90             	mov    -0x70(%ebp),%edx
40007930:	8b 45 f4             	mov    -0xc(%ebp),%eax
40007933:	01 d0                	add    %edx,%eax
40007935:	a3 78 05 01 40       	mov    %eax,0x40010578
4000793a:	a1 78 05 01 40       	mov    0x40010578,%eax
4000793f:	89 45 f8             	mov    %eax,-0x8(%ebp)
40007942:	8b 45 f0             	mov    -0x10(%ebp),%eax
40007945:	89 c2                	mov    %eax,%edx
40007947:	83 ca 01             	or     $0x1,%edx
4000794a:	8b 45 f8             	mov    -0x8(%ebp),%eax
4000794d:	89 50 04             	mov    %edx,0x4(%eax)
40007950:	8b 45 90             	mov    -0x70(%ebp),%eax
40007953:	89 c2                	mov    %eax,%edx
40007955:	83 ca 03             	or     $0x3,%edx
40007958:	8b 45 f4             	mov    -0xc(%ebp),%eax
4000795b:	89 50 04             	mov    %edx,0x4(%eax)
4000795e:	8b 45 f4             	mov    -0xc(%ebp),%eax
40007961:	83 c0 08             	add    $0x8,%eax
40007964:	89 45 8c             	mov    %eax,-0x74(%ebp)
40007967:	eb 16                	jmp    4000797f <malloc+0x4ab>
40007969:	8b 45 90             	mov    -0x70(%ebp),%eax
4000796c:	89 44 24 04          	mov    %eax,0x4(%esp)
40007970:	c7 04 24 60 05 01 40 	movl   $0x40010560,(%esp)
40007977:	e8 fd de ff ff       	call   40005879 <sys_alloc>
4000797c:	89 45 8c             	mov    %eax,-0x74(%ebp)
4000797f:	8b 45 8c             	mov    -0x74(%ebp),%eax
40007982:	81 c4 84 00 00 00    	add    $0x84,%esp
40007988:	5b                   	pop    %ebx
40007989:	5d                   	pop    %ebp
4000798a:	c3                   	ret    

4000798b <free>:
4000798b:	55                   	push   %ebp
4000798c:	89 e5                	mov    %esp,%ebp
4000798e:	81 ec c8 00 00 00    	sub    $0xc8,%esp
40007994:	83 7d 08 00          	cmpl   $0x0,0x8(%ebp)
40007998:	0f 84 06 0d 00 00    	je     400086a4 <free+0xd19>
4000799e:	8b 45 08             	mov    0x8(%ebp),%eax
400079a1:	83 e8 08             	sub    $0x8,%eax
400079a4:	89 85 50 ff ff ff    	mov    %eax,-0xb0(%ebp)
400079aa:	8b 15 70 05 01 40    	mov    0x40010570,%edx
400079b0:	8b 85 50 ff ff ff    	mov    -0xb0(%ebp),%eax
400079b6:	39 c2                	cmp    %eax,%edx
400079b8:	0f 96 c0             	setbe  %al
400079bb:	0f b6 c0             	movzbl %al,%eax
400079be:	85 c0                	test   %eax,%eax
400079c0:	0f 84 d9 0c 00 00    	je     4000869f <free+0xd14>
400079c6:	8b 85 50 ff ff ff    	mov    -0xb0(%ebp),%eax
400079cc:	8b 40 04             	mov    0x4(%eax),%eax
400079cf:	83 e0 02             	and    $0x2,%eax
400079d2:	85 c0                	test   %eax,%eax
400079d4:	0f 95 c0             	setne  %al
400079d7:	0f b6 c0             	movzbl %al,%eax
400079da:	85 c0                	test   %eax,%eax
400079dc:	0f 84 bd 0c 00 00    	je     4000869f <free+0xd14>
400079e2:	8b 85 50 ff ff ff    	mov    -0xb0(%ebp),%eax
400079e8:	8b 40 04             	mov    0x4(%eax),%eax
400079eb:	83 e0 fc             	and    $0xfffffffc,%eax
400079ee:	89 85 54 ff ff ff    	mov    %eax,-0xac(%ebp)
400079f4:	8b 95 54 ff ff ff    	mov    -0xac(%ebp),%edx
400079fa:	8b 85 50 ff ff ff    	mov    -0xb0(%ebp),%eax
40007a00:	01 d0                	add    %edx,%eax
40007a02:	89 85 58 ff ff ff    	mov    %eax,-0xa8(%ebp)
40007a08:	8b 85 50 ff ff ff    	mov    -0xb0(%ebp),%eax
40007a0e:	8b 40 04             	mov    0x4(%eax),%eax
40007a11:	83 e0 01             	and    $0x1,%eax
40007a14:	85 c0                	test   %eax,%eax
40007a16:	0f 85 cc 04 00 00    	jne    40007ee8 <free+0x55d>
40007a1c:	8b 85 50 ff ff ff    	mov    -0xb0(%ebp),%eax
40007a22:	8b 00                	mov    (%eax),%eax
40007a24:	89 85 5c ff ff ff    	mov    %eax,-0xa4(%ebp)
40007a2a:	8b 85 5c ff ff ff    	mov    -0xa4(%ebp),%eax
40007a30:	f7 d8                	neg    %eax
40007a32:	03 85 50 ff ff ff    	add    -0xb0(%ebp),%eax
40007a38:	89 85 60 ff ff ff    	mov    %eax,-0xa0(%ebp)
40007a3e:	8b 85 5c ff ff ff    	mov    -0xa4(%ebp),%eax
40007a44:	01 85 54 ff ff ff    	add    %eax,-0xac(%ebp)
40007a4a:	8b 85 60 ff ff ff    	mov    -0xa0(%ebp),%eax
40007a50:	89 85 50 ff ff ff    	mov    %eax,-0xb0(%ebp)
40007a56:	8b 15 70 05 01 40    	mov    0x40010570,%edx
40007a5c:	8b 85 60 ff ff ff    	mov    -0xa0(%ebp),%eax
40007a62:	39 c2                	cmp    %eax,%edx
40007a64:	0f 96 c0             	setbe  %al
40007a67:	0f b6 c0             	movzbl %al,%eax
40007a6a:	85 c0                	test   %eax,%eax
40007a6c:	0f 84 2d 0c 00 00    	je     4000869f <free+0xd14>
40007a72:	a1 74 05 01 40       	mov    0x40010574,%eax
40007a77:	3b 85 50 ff ff ff    	cmp    -0xb0(%ebp),%eax
40007a7d:	0f 84 02 04 00 00    	je     40007e85 <free+0x4fa>
40007a83:	8b 85 5c ff ff ff    	mov    -0xa4(%ebp),%eax
40007a89:	c1 e8 03             	shr    $0x3,%eax
40007a8c:	83 f8 1f             	cmp    $0x1f,%eax
40007a8f:	0f 87 39 01 00 00    	ja     40007bce <free+0x243>
40007a95:	8b 85 50 ff ff ff    	mov    -0xb0(%ebp),%eax
40007a9b:	8b 40 08             	mov    0x8(%eax),%eax
40007a9e:	89 85 64 ff ff ff    	mov    %eax,-0x9c(%ebp)
40007aa4:	8b 85 50 ff ff ff    	mov    -0xb0(%ebp),%eax
40007aaa:	8b 40 0c             	mov    0xc(%eax),%eax
40007aad:	89 85 68 ff ff ff    	mov    %eax,-0x98(%ebp)
40007ab3:	8b 85 5c ff ff ff    	mov    -0xa4(%ebp),%eax
40007ab9:	c1 e8 03             	shr    $0x3,%eax
40007abc:	89 85 6c ff ff ff    	mov    %eax,-0x94(%ebp)
40007ac2:	8b 85 64 ff ff ff    	mov    -0x9c(%ebp),%eax
40007ac8:	3b 85 68 ff ff ff    	cmp    -0x98(%ebp),%eax
40007ace:	75 21                	jne    40007af1 <free+0x166>
40007ad0:	8b 15 60 05 01 40    	mov    0x40010560,%edx
40007ad6:	8b 8d 6c ff ff ff    	mov    -0x94(%ebp),%ecx
40007adc:	b8 01 00 00 00       	mov    $0x1,%eax
40007ae1:	d3 e0                	shl    %cl,%eax
40007ae3:	f7 d0                	not    %eax
40007ae5:	21 d0                	and    %edx,%eax
40007ae7:	a3 60 05 01 40       	mov    %eax,0x40010560
40007aec:	e9 f7 03 00 00       	jmp    40007ee8 <free+0x55d>
40007af1:	ba 84 05 01 40       	mov    $0x40010584,%edx
40007af6:	8b 85 6c ff ff ff    	mov    -0x94(%ebp),%eax
40007afc:	c1 e0 03             	shl    $0x3,%eax
40007aff:	8d 04 02             	lea    (%edx,%eax,1),%eax
40007b02:	3b 85 64 ff ff ff    	cmp    -0x9c(%ebp),%eax
40007b08:	0f 94 c0             	sete   %al
40007b0b:	0f b6 c0             	movzbl %al,%eax
40007b0e:	85 c0                	test   %eax,%eax
40007b10:	75 18                	jne    40007b2a <free+0x19f>
40007b12:	8b 15 70 05 01 40    	mov    0x40010570,%edx
40007b18:	8b 85 64 ff ff ff    	mov    -0x9c(%ebp),%eax
40007b1e:	39 c2                	cmp    %eax,%edx
40007b20:	0f 96 c0             	setbe  %al
40007b23:	0f b6 c0             	movzbl %al,%eax
40007b26:	85 c0                	test   %eax,%eax
40007b28:	74 0c                	je     40007b36 <free+0x1ab>
40007b2a:	c7 85 3c ff ff ff 01 	movl   $0x1,-0xc4(%ebp)
40007b31:	00 00 00 
40007b34:	eb 0a                	jmp    40007b40 <free+0x1b5>
40007b36:	c7 85 3c ff ff ff 00 	movl   $0x0,-0xc4(%ebp)
40007b3d:	00 00 00 
40007b40:	83 bd 3c ff ff ff 00 	cmpl   $0x0,-0xc4(%ebp)
40007b47:	74 7b                	je     40007bc4 <free+0x239>
40007b49:	ba 84 05 01 40       	mov    $0x40010584,%edx
40007b4e:	8b 85 6c ff ff ff    	mov    -0x94(%ebp),%eax
40007b54:	c1 e0 03             	shl    $0x3,%eax
40007b57:	8d 04 02             	lea    (%edx,%eax,1),%eax
40007b5a:	3b 85 68 ff ff ff    	cmp    -0x98(%ebp),%eax
40007b60:	0f 94 c0             	sete   %al
40007b63:	0f b6 c0             	movzbl %al,%eax
40007b66:	85 c0                	test   %eax,%eax
40007b68:	75 18                	jne    40007b82 <free+0x1f7>
40007b6a:	8b 15 70 05 01 40    	mov    0x40010570,%edx
40007b70:	8b 85 68 ff ff ff    	mov    -0x98(%ebp),%eax
40007b76:	39 c2                	cmp    %eax,%edx
40007b78:	0f 96 c0             	setbe  %al
40007b7b:	0f b6 c0             	movzbl %al,%eax
40007b7e:	85 c0                	test   %eax,%eax
40007b80:	74 0c                	je     40007b8e <free+0x203>
40007b82:	c7 85 40 ff ff ff 01 	movl   $0x1,-0xc0(%ebp)
40007b89:	00 00 00 
40007b8c:	eb 0a                	jmp    40007b98 <free+0x20d>
40007b8e:	c7 85 40 ff ff ff 00 	movl   $0x0,-0xc0(%ebp)
40007b95:	00 00 00 
40007b98:	83 bd 40 ff ff ff 00 	cmpl   $0x0,-0xc0(%ebp)
40007b9f:	74 23                	je     40007bc4 <free+0x239>
40007ba1:	8b 95 64 ff ff ff    	mov    -0x9c(%ebp),%edx
40007ba7:	8b 85 68 ff ff ff    	mov    -0x98(%ebp),%eax
40007bad:	89 42 0c             	mov    %eax,0xc(%edx)
40007bb0:	8b 95 68 ff ff ff    	mov    -0x98(%ebp),%edx
40007bb6:	8b 85 64 ff ff ff    	mov    -0x9c(%ebp),%eax
40007bbc:	89 42 08             	mov    %eax,0x8(%edx)
40007bbf:	e9 24 03 00 00       	jmp    40007ee8 <free+0x55d>
40007bc4:	e8 07 4f 00 00       	call   4000cad0 <abort>
40007bc9:	e9 1a 03 00 00       	jmp    40007ee8 <free+0x55d>
40007bce:	8b 85 50 ff ff ff    	mov    -0xb0(%ebp),%eax
40007bd4:	89 85 70 ff ff ff    	mov    %eax,-0x90(%ebp)
40007bda:	8b 85 70 ff ff ff    	mov    -0x90(%ebp),%eax
40007be0:	8b 40 18             	mov    0x18(%eax),%eax
40007be3:	89 85 74 ff ff ff    	mov    %eax,-0x8c(%ebp)
40007be9:	8b 85 70 ff ff ff    	mov    -0x90(%ebp),%eax
40007bef:	8b 40 0c             	mov    0xc(%eax),%eax
40007bf2:	3b 85 70 ff ff ff    	cmp    -0x90(%ebp),%eax
40007bf8:	74 63                	je     40007c5d <free+0x2d2>
40007bfa:	8b 85 70 ff ff ff    	mov    -0x90(%ebp),%eax
40007c00:	8b 40 08             	mov    0x8(%eax),%eax
40007c03:	89 85 7c ff ff ff    	mov    %eax,-0x84(%ebp)
40007c09:	8b 85 70 ff ff ff    	mov    -0x90(%ebp),%eax
40007c0f:	8b 40 0c             	mov    0xc(%eax),%eax
40007c12:	89 85 78 ff ff ff    	mov    %eax,-0x88(%ebp)
40007c18:	8b 15 70 05 01 40    	mov    0x40010570,%edx
40007c1e:	8b 85 7c ff ff ff    	mov    -0x84(%ebp),%eax
40007c24:	39 c2                	cmp    %eax,%edx
40007c26:	0f 96 c0             	setbe  %al
40007c29:	0f b6 c0             	movzbl %al,%eax
40007c2c:	85 c0                	test   %eax,%eax
40007c2e:	74 23                	je     40007c53 <free+0x2c8>
40007c30:	8b 95 7c ff ff ff    	mov    -0x84(%ebp),%edx
40007c36:	8b 85 78 ff ff ff    	mov    -0x88(%ebp),%eax
40007c3c:	89 42 0c             	mov    %eax,0xc(%edx)
40007c3f:	8b 95 78 ff ff ff    	mov    -0x88(%ebp),%edx
40007c45:	8b 85 7c ff ff ff    	mov    -0x84(%ebp),%eax
40007c4b:	89 42 08             	mov    %eax,0x8(%edx)
40007c4e:	e9 ac 00 00 00       	jmp    40007cff <free+0x374>
40007c53:	e8 78 4e 00 00       	call   4000cad0 <abort>
40007c58:	e9 a2 00 00 00       	jmp    40007cff <free+0x374>
40007c5d:	8b 85 70 ff ff ff    	mov    -0x90(%ebp),%eax
40007c63:	83 c0 14             	add    $0x14,%eax
40007c66:	89 45 80             	mov    %eax,-0x80(%ebp)
40007c69:	8b 45 80             	mov    -0x80(%ebp),%eax
40007c6c:	8b 00                	mov    (%eax),%eax
40007c6e:	89 85 78 ff ff ff    	mov    %eax,-0x88(%ebp)
40007c74:	83 bd 78 ff ff ff 00 	cmpl   $0x0,-0x88(%ebp)
40007c7b:	75 33                	jne    40007cb0 <free+0x325>
40007c7d:	8b 85 70 ff ff ff    	mov    -0x90(%ebp),%eax
40007c83:	83 c0 10             	add    $0x10,%eax
40007c86:	89 45 80             	mov    %eax,-0x80(%ebp)
40007c89:	8b 45 80             	mov    -0x80(%ebp),%eax
40007c8c:	8b 00                	mov    (%eax),%eax
40007c8e:	89 85 78 ff ff ff    	mov    %eax,-0x88(%ebp)
40007c94:	83 bd 78 ff ff ff 00 	cmpl   $0x0,-0x88(%ebp)
40007c9b:	74 62                	je     40007cff <free+0x374>
40007c9d:	eb 11                	jmp    40007cb0 <free+0x325>
40007c9f:	8b 45 84             	mov    -0x7c(%ebp),%eax
40007ca2:	89 45 80             	mov    %eax,-0x80(%ebp)
40007ca5:	8b 45 80             	mov    -0x80(%ebp),%eax
40007ca8:	8b 00                	mov    (%eax),%eax
40007caa:	89 85 78 ff ff ff    	mov    %eax,-0x88(%ebp)
40007cb0:	8b 85 78 ff ff ff    	mov    -0x88(%ebp),%eax
40007cb6:	83 c0 14             	add    $0x14,%eax
40007cb9:	89 45 84             	mov    %eax,-0x7c(%ebp)
40007cbc:	8b 45 84             	mov    -0x7c(%ebp),%eax
40007cbf:	8b 00                	mov    (%eax),%eax
40007cc1:	85 c0                	test   %eax,%eax
40007cc3:	75 da                	jne    40007c9f <free+0x314>
40007cc5:	8b 85 78 ff ff ff    	mov    -0x88(%ebp),%eax
40007ccb:	83 c0 10             	add    $0x10,%eax
40007cce:	89 45 84             	mov    %eax,-0x7c(%ebp)
40007cd1:	8b 45 84             	mov    -0x7c(%ebp),%eax
40007cd4:	8b 00                	mov    (%eax),%eax
40007cd6:	85 c0                	test   %eax,%eax
40007cd8:	75 c5                	jne    40007c9f <free+0x314>
40007cda:	8b 15 70 05 01 40    	mov    0x40010570,%edx
40007ce0:	8b 45 80             	mov    -0x80(%ebp),%eax
40007ce3:	39 c2                	cmp    %eax,%edx
40007ce5:	0f 96 c0             	setbe  %al
40007ce8:	0f b6 c0             	movzbl %al,%eax
40007ceb:	85 c0                	test   %eax,%eax
40007ced:	74 0b                	je     40007cfa <free+0x36f>
40007cef:	8b 45 80             	mov    -0x80(%ebp),%eax
40007cf2:	c7 00 00 00 00 00    	movl   $0x0,(%eax)
40007cf8:	eb 05                	jmp    40007cff <free+0x374>
40007cfa:	e8 d1 4d 00 00       	call   4000cad0 <abort>
40007cff:	83 bd 74 ff ff ff 00 	cmpl   $0x0,-0x8c(%ebp)
40007d06:	0f 84 dc 01 00 00    	je     40007ee8 <free+0x55d>
40007d0c:	8b 85 70 ff ff ff    	mov    -0x90(%ebp),%eax
40007d12:	8b 40 1c             	mov    0x1c(%eax),%eax
40007d15:	c1 e0 02             	shl    $0x2,%eax
40007d18:	05 8c 06 01 40       	add    $0x4001068c,%eax
40007d1d:	89 45 88             	mov    %eax,-0x78(%ebp)
40007d20:	8b 45 88             	mov    -0x78(%ebp),%eax
40007d23:	8b 00                	mov    (%eax),%eax
40007d25:	3b 85 70 ff ff ff    	cmp    -0x90(%ebp),%eax
40007d2b:	75 37                	jne    40007d64 <free+0x3d9>
40007d2d:	8b 55 88             	mov    -0x78(%ebp),%edx
40007d30:	8b 85 78 ff ff ff    	mov    -0x88(%ebp),%eax
40007d36:	89 02                	mov    %eax,(%edx)
40007d38:	8b 45 88             	mov    -0x78(%ebp),%eax
40007d3b:	8b 00                	mov    (%eax),%eax
40007d3d:	85 c0                	test   %eax,%eax
40007d3f:	75 73                	jne    40007db4 <free+0x429>
40007d41:	8b 15 64 05 01 40    	mov    0x40010564,%edx
40007d47:	8b 85 70 ff ff ff    	mov    -0x90(%ebp),%eax
40007d4d:	8b 40 1c             	mov    0x1c(%eax),%eax
40007d50:	89 c1                	mov    %eax,%ecx
40007d52:	b8 01 00 00 00       	mov    $0x1,%eax
40007d57:	d3 e0                	shl    %cl,%eax
40007d59:	f7 d0                	not    %eax
40007d5b:	21 d0                	and    %edx,%eax
40007d5d:	a3 64 05 01 40       	mov    %eax,0x40010564
40007d62:	eb 50                	jmp    40007db4 <free+0x429>
40007d64:	8b 15 70 05 01 40    	mov    0x40010570,%edx
40007d6a:	8b 85 74 ff ff ff    	mov    -0x8c(%ebp),%eax
40007d70:	39 c2                	cmp    %eax,%edx
40007d72:	0f 96 c0             	setbe  %al
40007d75:	0f b6 c0             	movzbl %al,%eax
40007d78:	85 c0                	test   %eax,%eax
40007d7a:	74 33                	je     40007daf <free+0x424>
40007d7c:	8b 85 74 ff ff ff    	mov    -0x8c(%ebp),%eax
40007d82:	8b 40 10             	mov    0x10(%eax),%eax
40007d85:	3b 85 70 ff ff ff    	cmp    -0x90(%ebp),%eax
40007d8b:	75 11                	jne    40007d9e <free+0x413>
40007d8d:	8b 95 74 ff ff ff    	mov    -0x8c(%ebp),%edx
40007d93:	8b 85 78 ff ff ff    	mov    -0x88(%ebp),%eax
40007d99:	89 42 10             	mov    %eax,0x10(%edx)
40007d9c:	eb 16                	jmp    40007db4 <free+0x429>
40007d9e:	8b 95 74 ff ff ff    	mov    -0x8c(%ebp),%edx
40007da4:	8b 85 78 ff ff ff    	mov    -0x88(%ebp),%eax
40007daa:	89 42 14             	mov    %eax,0x14(%edx)
40007dad:	eb 05                	jmp    40007db4 <free+0x429>
40007daf:	e8 1c 4d 00 00       	call   4000cad0 <abort>
40007db4:	83 bd 78 ff ff ff 00 	cmpl   $0x0,-0x88(%ebp)
40007dbb:	0f 84 27 01 00 00    	je     40007ee8 <free+0x55d>
40007dc1:	8b 15 70 05 01 40    	mov    0x40010570,%edx
40007dc7:	8b 85 78 ff ff ff    	mov    -0x88(%ebp),%eax
40007dcd:	39 c2                	cmp    %eax,%edx
40007dcf:	0f 96 c0             	setbe  %al
40007dd2:	0f b6 c0             	movzbl %al,%eax
40007dd5:	85 c0                	test   %eax,%eax
40007dd7:	0f 84 a1 00 00 00    	je     40007e7e <free+0x4f3>
40007ddd:	8b 95 78 ff ff ff    	mov    -0x88(%ebp),%edx
40007de3:	8b 85 74 ff ff ff    	mov    -0x8c(%ebp),%eax
40007de9:	89 42 18             	mov    %eax,0x18(%edx)
40007dec:	8b 85 70 ff ff ff    	mov    -0x90(%ebp),%eax
40007df2:	8b 40 10             	mov    0x10(%eax),%eax
40007df5:	89 45 8c             	mov    %eax,-0x74(%ebp)
40007df8:	83 7d 8c 00          	cmpl   $0x0,-0x74(%ebp)
40007dfc:	74 34                	je     40007e32 <free+0x4a7>
40007dfe:	8b 15 70 05 01 40    	mov    0x40010570,%edx
40007e04:	8b 45 8c             	mov    -0x74(%ebp),%eax
40007e07:	39 c2                	cmp    %eax,%edx
40007e09:	0f 96 c0             	setbe  %al
40007e0c:	0f b6 c0             	movzbl %al,%eax
40007e0f:	85 c0                	test   %eax,%eax
40007e11:	74 1a                	je     40007e2d <free+0x4a2>
40007e13:	8b 95 78 ff ff ff    	mov    -0x88(%ebp),%edx
40007e19:	8b 45 8c             	mov    -0x74(%ebp),%eax
40007e1c:	89 42 10             	mov    %eax,0x10(%edx)
40007e1f:	8b 55 8c             	mov    -0x74(%ebp),%edx
40007e22:	8b 85 78 ff ff ff    	mov    -0x88(%ebp),%eax
40007e28:	89 42 18             	mov    %eax,0x18(%edx)
40007e2b:	eb 05                	jmp    40007e32 <free+0x4a7>
40007e2d:	e8 9e 4c 00 00       	call   4000cad0 <abort>
40007e32:	8b 85 70 ff ff ff    	mov    -0x90(%ebp),%eax
40007e38:	8b 40 14             	mov    0x14(%eax),%eax
40007e3b:	89 45 90             	mov    %eax,-0x70(%ebp)
40007e3e:	83 7d 90 00          	cmpl   $0x0,-0x70(%ebp)
40007e42:	0f 84 a0 00 00 00    	je     40007ee8 <free+0x55d>
40007e48:	8b 15 70 05 01 40    	mov    0x40010570,%edx
40007e4e:	8b 45 90             	mov    -0x70(%ebp),%eax
40007e51:	39 c2                	cmp    %eax,%edx
40007e53:	0f 96 c0             	setbe  %al
40007e56:	0f b6 c0             	movzbl %al,%eax
40007e59:	85 c0                	test   %eax,%eax
40007e5b:	74 1a                	je     40007e77 <free+0x4ec>
40007e5d:	8b 95 78 ff ff ff    	mov    -0x88(%ebp),%edx
40007e63:	8b 45 90             	mov    -0x70(%ebp),%eax
40007e66:	89 42 14             	mov    %eax,0x14(%edx)
40007e69:	8b 55 90             	mov    -0x70(%ebp),%edx
40007e6c:	8b 85 78 ff ff ff    	mov    -0x88(%ebp),%eax
40007e72:	89 42 18             	mov    %eax,0x18(%edx)
40007e75:	eb 71                	jmp    40007ee8 <free+0x55d>
40007e77:	e8 54 4c 00 00       	call   4000cad0 <abort>
40007e7c:	eb 6a                	jmp    40007ee8 <free+0x55d>
40007e7e:	e8 4d 4c 00 00       	call   4000cad0 <abort>
40007e83:	eb 63                	jmp    40007ee8 <free+0x55d>
40007e85:	8b 85 58 ff ff ff    	mov    -0xa8(%ebp),%eax
40007e8b:	8b 40 04             	mov    0x4(%eax),%eax
40007e8e:	83 e0 03             	and    $0x3,%eax
40007e91:	83 f8 03             	cmp    $0x3,%eax
40007e94:	75 52                	jne    40007ee8 <free+0x55d>
40007e96:	8b 85 54 ff ff ff    	mov    -0xac(%ebp),%eax
40007e9c:	a3 68 05 01 40       	mov    %eax,0x40010568
40007ea1:	8b 85 58 ff ff ff    	mov    -0xa8(%ebp),%eax
40007ea7:	8b 40 04             	mov    0x4(%eax),%eax
40007eaa:	89 c2                	mov    %eax,%edx
40007eac:	83 e2 fe             	and    $0xfffffffe,%edx
40007eaf:	8b 85 58 ff ff ff    	mov    -0xa8(%ebp),%eax
40007eb5:	89 50 04             	mov    %edx,0x4(%eax)
40007eb8:	8b 85 54 ff ff ff    	mov    -0xac(%ebp),%eax
40007ebe:	89 c2                	mov    %eax,%edx
40007ec0:	83 ca 01             	or     $0x1,%edx
40007ec3:	8b 85 50 ff ff ff    	mov    -0xb0(%ebp),%eax
40007ec9:	89 50 04             	mov    %edx,0x4(%eax)
40007ecc:	8b 95 54 ff ff ff    	mov    -0xac(%ebp),%edx
40007ed2:	8b 85 50 ff ff ff    	mov    -0xb0(%ebp),%eax
40007ed8:	8d 14 10             	lea    (%eax,%edx,1),%edx
40007edb:	8b 85 54 ff ff ff    	mov    -0xac(%ebp),%eax
40007ee1:	89 02                	mov    %eax,(%edx)
40007ee3:	e9 bc 07 00 00       	jmp    400086a4 <free+0xd19>
40007ee8:	8b 95 50 ff ff ff    	mov    -0xb0(%ebp),%edx
40007eee:	8b 85 58 ff ff ff    	mov    -0xa8(%ebp),%eax
40007ef4:	39 c2                	cmp    %eax,%edx
40007ef6:	0f 92 c0             	setb   %al
40007ef9:	0f b6 c0             	movzbl %al,%eax
40007efc:	85 c0                	test   %eax,%eax
40007efe:	0f 84 9b 07 00 00    	je     4000869f <free+0xd14>
40007f04:	8b 85 58 ff ff ff    	mov    -0xa8(%ebp),%eax
40007f0a:	8b 40 04             	mov    0x4(%eax),%eax
40007f0d:	83 e0 01             	and    $0x1,%eax
40007f10:	85 c0                	test   %eax,%eax
40007f12:	0f 84 87 07 00 00    	je     4000869f <free+0xd14>
40007f18:	8b 85 58 ff ff ff    	mov    -0xa8(%ebp),%eax
40007f1e:	8b 40 04             	mov    0x4(%eax),%eax
40007f21:	83 e0 02             	and    $0x2,%eax
40007f24:	85 c0                	test   %eax,%eax
40007f26:	0f 85 61 04 00 00    	jne    4000838d <free+0xa02>
40007f2c:	a1 78 05 01 40       	mov    0x40010578,%eax
40007f31:	3b 85 58 ff ff ff    	cmp    -0xa8(%ebp),%eax
40007f37:	75 5e                	jne    40007f97 <free+0x60c>
40007f39:	a1 6c 05 01 40       	mov    0x4001056c,%eax
40007f3e:	03 85 54 ff ff ff    	add    -0xac(%ebp),%eax
40007f44:	a3 6c 05 01 40       	mov    %eax,0x4001056c
40007f49:	a1 6c 05 01 40       	mov    0x4001056c,%eax
40007f4e:	89 45 94             	mov    %eax,-0x6c(%ebp)
40007f51:	8b 85 50 ff ff ff    	mov    -0xb0(%ebp),%eax
40007f57:	a3 78 05 01 40       	mov    %eax,0x40010578
40007f5c:	8b 45 94             	mov    -0x6c(%ebp),%eax
40007f5f:	89 c2                	mov    %eax,%edx
40007f61:	83 ca 01             	or     $0x1,%edx
40007f64:	8b 85 50 ff ff ff    	mov    -0xb0(%ebp),%eax
40007f6a:	89 50 04             	mov    %edx,0x4(%eax)
40007f6d:	a1 74 05 01 40       	mov    0x40010574,%eax
40007f72:	3b 85 50 ff ff ff    	cmp    -0xb0(%ebp),%eax
40007f78:	0f 85 26 07 00 00    	jne    400086a4 <free+0xd19>
40007f7e:	c7 05 74 05 01 40 00 	movl   $0x0,0x40010574
40007f85:	00 00 00 
40007f88:	c7 05 68 05 01 40 00 	movl   $0x0,0x40010568
40007f8f:	00 00 00 
40007f92:	e9 0d 07 00 00       	jmp    400086a4 <free+0xd19>
40007f97:	a1 74 05 01 40       	mov    0x40010574,%eax
40007f9c:	3b 85 58 ff ff ff    	cmp    -0xa8(%ebp),%eax
40007fa2:	75 4a                	jne    40007fee <free+0x663>
40007fa4:	a1 68 05 01 40       	mov    0x40010568,%eax
40007fa9:	03 85 54 ff ff ff    	add    -0xac(%ebp),%eax
40007faf:	a3 68 05 01 40       	mov    %eax,0x40010568
40007fb4:	a1 68 05 01 40       	mov    0x40010568,%eax
40007fb9:	89 45 98             	mov    %eax,-0x68(%ebp)
40007fbc:	8b 85 50 ff ff ff    	mov    -0xb0(%ebp),%eax
40007fc2:	a3 74 05 01 40       	mov    %eax,0x40010574
40007fc7:	8b 45 98             	mov    -0x68(%ebp),%eax
40007fca:	89 c2                	mov    %eax,%edx
40007fcc:	83 ca 01             	or     $0x1,%edx
40007fcf:	8b 85 50 ff ff ff    	mov    -0xb0(%ebp),%eax
40007fd5:	89 50 04             	mov    %edx,0x4(%eax)
40007fd8:	8b 55 98             	mov    -0x68(%ebp),%edx
40007fdb:	8b 85 50 ff ff ff    	mov    -0xb0(%ebp),%eax
40007fe1:	8d 14 10             	lea    (%eax,%edx,1),%edx
40007fe4:	8b 45 98             	mov    -0x68(%ebp),%eax
40007fe7:	89 02                	mov    %eax,(%edx)
40007fe9:	e9 b6 06 00 00       	jmp    400086a4 <free+0xd19>
40007fee:	8b 85 58 ff ff ff    	mov    -0xa8(%ebp),%eax
40007ff4:	8b 40 04             	mov    0x4(%eax),%eax
40007ff7:	83 e0 fc             	and    $0xfffffffc,%eax
40007ffa:	89 45 9c             	mov    %eax,-0x64(%ebp)
40007ffd:	8b 45 9c             	mov    -0x64(%ebp),%eax
40008000:	01 85 54 ff ff ff    	add    %eax,-0xac(%ebp)
40008006:	8b 45 9c             	mov    -0x64(%ebp),%eax
40008009:	c1 e8 03             	shr    $0x3,%eax
4000800c:	83 f8 1f             	cmp    $0x1f,%eax
4000800f:	0f 87 06 01 00 00    	ja     4000811b <free+0x790>
40008015:	8b 85 58 ff ff ff    	mov    -0xa8(%ebp),%eax
4000801b:	8b 40 08             	mov    0x8(%eax),%eax
4000801e:	89 45 a0             	mov    %eax,-0x60(%ebp)
40008021:	8b 85 58 ff ff ff    	mov    -0xa8(%ebp),%eax
40008027:	8b 40 0c             	mov    0xc(%eax),%eax
4000802a:	89 45 a4             	mov    %eax,-0x5c(%ebp)
4000802d:	8b 45 9c             	mov    -0x64(%ebp),%eax
40008030:	c1 e8 03             	shr    $0x3,%eax
40008033:	89 45 a8             	mov    %eax,-0x58(%ebp)
40008036:	8b 45 a0             	mov    -0x60(%ebp),%eax
40008039:	3b 45 a4             	cmp    -0x5c(%ebp),%eax
4000803c:	75 1e                	jne    4000805c <free+0x6d1>
4000803e:	8b 15 60 05 01 40    	mov    0x40010560,%edx
40008044:	8b 4d a8             	mov    -0x58(%ebp),%ecx
40008047:	b8 01 00 00 00       	mov    $0x1,%eax
4000804c:	d3 e0                	shl    %cl,%eax
4000804e:	f7 d0                	not    %eax
40008050:	21 d0                	and    %edx,%eax
40008052:	a3 60 05 01 40       	mov    %eax,0x40010560
40008057:	e9 e9 02 00 00       	jmp    40008345 <free+0x9ba>
4000805c:	ba 84 05 01 40       	mov    $0x40010584,%edx
40008061:	8b 45 a8             	mov    -0x58(%ebp),%eax
40008064:	c1 e0 03             	shl    $0x3,%eax
40008067:	8d 04 02             	lea    (%edx,%eax,1),%eax
4000806a:	3b 45 a0             	cmp    -0x60(%ebp),%eax
4000806d:	0f 94 c0             	sete   %al
40008070:	0f b6 c0             	movzbl %al,%eax
40008073:	85 c0                	test   %eax,%eax
40008075:	75 15                	jne    4000808c <free+0x701>
40008077:	8b 15 70 05 01 40    	mov    0x40010570,%edx
4000807d:	8b 45 a0             	mov    -0x60(%ebp),%eax
40008080:	39 c2                	cmp    %eax,%edx
40008082:	0f 96 c0             	setbe  %al
40008085:	0f b6 c0             	movzbl %al,%eax
40008088:	85 c0                	test   %eax,%eax
4000808a:	74 0c                	je     40008098 <free+0x70d>
4000808c:	c7 85 44 ff ff ff 01 	movl   $0x1,-0xbc(%ebp)
40008093:	00 00 00 
40008096:	eb 0a                	jmp    400080a2 <free+0x717>
40008098:	c7 85 44 ff ff ff 00 	movl   $0x0,-0xbc(%ebp)
4000809f:	00 00 00 
400080a2:	83 bd 44 ff ff ff 00 	cmpl   $0x0,-0xbc(%ebp)
400080a9:	74 66                	je     40008111 <free+0x786>
400080ab:	ba 84 05 01 40       	mov    $0x40010584,%edx
400080b0:	8b 45 a8             	mov    -0x58(%ebp),%eax
400080b3:	c1 e0 03             	shl    $0x3,%eax
400080b6:	8d 04 02             	lea    (%edx,%eax,1),%eax
400080b9:	3b 45 a4             	cmp    -0x5c(%ebp),%eax
400080bc:	0f 94 c0             	sete   %al
400080bf:	0f b6 c0             	movzbl %al,%eax
400080c2:	85 c0                	test   %eax,%eax
400080c4:	75 15                	jne    400080db <free+0x750>
400080c6:	8b 15 70 05 01 40    	mov    0x40010570,%edx
400080cc:	8b 45 a4             	mov    -0x5c(%ebp),%eax
400080cf:	39 c2                	cmp    %eax,%edx
400080d1:	0f 96 c0             	setbe  %al
400080d4:	0f b6 c0             	movzbl %al,%eax
400080d7:	85 c0                	test   %eax,%eax
400080d9:	74 0c                	je     400080e7 <free+0x75c>
400080db:	c7 85 48 ff ff ff 01 	movl   $0x1,-0xb8(%ebp)
400080e2:	00 00 00 
400080e5:	eb 0a                	jmp    400080f1 <free+0x766>
400080e7:	c7 85 48 ff ff ff 00 	movl   $0x0,-0xb8(%ebp)
400080ee:	00 00 00 
400080f1:	83 bd 48 ff ff ff 00 	cmpl   $0x0,-0xb8(%ebp)
400080f8:	74 17                	je     40008111 <free+0x786>
400080fa:	8b 55 a0             	mov    -0x60(%ebp),%edx
400080fd:	8b 45 a4             	mov    -0x5c(%ebp),%eax
40008100:	89 42 0c             	mov    %eax,0xc(%edx)
40008103:	8b 55 a4             	mov    -0x5c(%ebp),%edx
40008106:	8b 45 a0             	mov    -0x60(%ebp),%eax
40008109:	89 42 08             	mov    %eax,0x8(%edx)
4000810c:	e9 34 02 00 00       	jmp    40008345 <free+0x9ba>
40008111:	e8 ba 49 00 00       	call   4000cad0 <abort>
40008116:	e9 2a 02 00 00       	jmp    40008345 <free+0x9ba>
4000811b:	8b 85 58 ff ff ff    	mov    -0xa8(%ebp),%eax
40008121:	89 45 ac             	mov    %eax,-0x54(%ebp)
40008124:	8b 45 ac             	mov    -0x54(%ebp),%eax
40008127:	8b 40 18             	mov    0x18(%eax),%eax
4000812a:	89 45 b0             	mov    %eax,-0x50(%ebp)
4000812d:	8b 45 ac             	mov    -0x54(%ebp),%eax
40008130:	8b 40 0c             	mov    0xc(%eax),%eax
40008133:	3b 45 ac             	cmp    -0x54(%ebp),%eax
40008136:	74 48                	je     40008180 <free+0x7f5>
40008138:	8b 45 ac             	mov    -0x54(%ebp),%eax
4000813b:	8b 40 08             	mov    0x8(%eax),%eax
4000813e:	89 45 b8             	mov    %eax,-0x48(%ebp)
40008141:	8b 45 ac             	mov    -0x54(%ebp),%eax
40008144:	8b 40 0c             	mov    0xc(%eax),%eax
40008147:	89 45 b4             	mov    %eax,-0x4c(%ebp)
4000814a:	8b 15 70 05 01 40    	mov    0x40010570,%edx
40008150:	8b 45 b8             	mov    -0x48(%ebp),%eax
40008153:	39 c2                	cmp    %eax,%edx
40008155:	0f 96 c0             	setbe  %al
40008158:	0f b6 c0             	movzbl %al,%eax
4000815b:	85 c0                	test   %eax,%eax
4000815d:	74 17                	je     40008176 <free+0x7eb>
4000815f:	8b 55 b8             	mov    -0x48(%ebp),%edx
40008162:	8b 45 b4             	mov    -0x4c(%ebp),%eax
40008165:	89 42 0c             	mov    %eax,0xc(%edx)
40008168:	8b 55 b4             	mov    -0x4c(%ebp),%edx
4000816b:	8b 45 b8             	mov    -0x48(%ebp),%eax
4000816e:	89 42 08             	mov    %eax,0x8(%edx)
40008171:	e9 91 00 00 00       	jmp    40008207 <free+0x87c>
40008176:	e8 55 49 00 00       	call   4000cad0 <abort>
4000817b:	e9 87 00 00 00       	jmp    40008207 <free+0x87c>
40008180:	8b 45 ac             	mov    -0x54(%ebp),%eax
40008183:	83 c0 14             	add    $0x14,%eax
40008186:	89 45 bc             	mov    %eax,-0x44(%ebp)
40008189:	8b 45 bc             	mov    -0x44(%ebp),%eax
4000818c:	8b 00                	mov    (%eax),%eax
4000818e:	89 45 b4             	mov    %eax,-0x4c(%ebp)
40008191:	83 7d b4 00          	cmpl   $0x0,-0x4c(%ebp)
40008195:	75 27                	jne    400081be <free+0x833>
40008197:	8b 45 ac             	mov    -0x54(%ebp),%eax
4000819a:	83 c0 10             	add    $0x10,%eax
4000819d:	89 45 bc             	mov    %eax,-0x44(%ebp)
400081a0:	8b 45 bc             	mov    -0x44(%ebp),%eax
400081a3:	8b 00                	mov    (%eax),%eax
400081a5:	89 45 b4             	mov    %eax,-0x4c(%ebp)
400081a8:	83 7d b4 00          	cmpl   $0x0,-0x4c(%ebp)
400081ac:	74 59                	je     40008207 <free+0x87c>
400081ae:	eb 0e                	jmp    400081be <free+0x833>
400081b0:	8b 45 c0             	mov    -0x40(%ebp),%eax
400081b3:	89 45 bc             	mov    %eax,-0x44(%ebp)
400081b6:	8b 45 bc             	mov    -0x44(%ebp),%eax
400081b9:	8b 00                	mov    (%eax),%eax
400081bb:	89 45 b4             	mov    %eax,-0x4c(%ebp)
400081be:	8b 45 b4             	mov    -0x4c(%ebp),%eax
400081c1:	83 c0 14             	add    $0x14,%eax
400081c4:	89 45 c0             	mov    %eax,-0x40(%ebp)
400081c7:	8b 45 c0             	mov    -0x40(%ebp),%eax
400081ca:	8b 00                	mov    (%eax),%eax
400081cc:	85 c0                	test   %eax,%eax
400081ce:	75 e0                	jne    400081b0 <free+0x825>
400081d0:	8b 45 b4             	mov    -0x4c(%ebp),%eax
400081d3:	83 c0 10             	add    $0x10,%eax
400081d6:	89 45 c0             	mov    %eax,-0x40(%ebp)
400081d9:	8b 45 c0             	mov    -0x40(%ebp),%eax
400081dc:	8b 00                	mov    (%eax),%eax
400081de:	85 c0                	test   %eax,%eax
400081e0:	75 ce                	jne    400081b0 <free+0x825>
400081e2:	8b 15 70 05 01 40    	mov    0x40010570,%edx
400081e8:	8b 45 bc             	mov    -0x44(%ebp),%eax
400081eb:	39 c2                	cmp    %eax,%edx
400081ed:	0f 96 c0             	setbe  %al
400081f0:	0f b6 c0             	movzbl %al,%eax
400081f3:	85 c0                	test   %eax,%eax
400081f5:	74 0b                	je     40008202 <free+0x877>
400081f7:	8b 45 bc             	mov    -0x44(%ebp),%eax
400081fa:	c7 00 00 00 00 00    	movl   $0x0,(%eax)
40008200:	eb 05                	jmp    40008207 <free+0x87c>
40008202:	e8 c9 48 00 00       	call   4000cad0 <abort>
40008207:	83 7d b0 00          	cmpl   $0x0,-0x50(%ebp)
4000820b:	0f 84 34 01 00 00    	je     40008345 <free+0x9ba>
40008211:	8b 45 ac             	mov    -0x54(%ebp),%eax
40008214:	8b 40 1c             	mov    0x1c(%eax),%eax
40008217:	c1 e0 02             	shl    $0x2,%eax
4000821a:	05 8c 06 01 40       	add    $0x4001068c,%eax
4000821f:	89 45 c4             	mov    %eax,-0x3c(%ebp)
40008222:	8b 45 c4             	mov    -0x3c(%ebp),%eax
40008225:	8b 00                	mov    (%eax),%eax
40008227:	3b 45 ac             	cmp    -0x54(%ebp),%eax
4000822a:	75 31                	jne    4000825d <free+0x8d2>
4000822c:	8b 55 c4             	mov    -0x3c(%ebp),%edx
4000822f:	8b 45 b4             	mov    -0x4c(%ebp),%eax
40008232:	89 02                	mov    %eax,(%edx)
40008234:	8b 45 c4             	mov    -0x3c(%ebp),%eax
40008237:	8b 00                	mov    (%eax),%eax
40008239:	85 c0                	test   %eax,%eax
4000823b:	75 5b                	jne    40008298 <free+0x90d>
4000823d:	8b 15 64 05 01 40    	mov    0x40010564,%edx
40008243:	8b 45 ac             	mov    -0x54(%ebp),%eax
40008246:	8b 40 1c             	mov    0x1c(%eax),%eax
40008249:	89 c1                	mov    %eax,%ecx
4000824b:	b8 01 00 00 00       	mov    $0x1,%eax
40008250:	d3 e0                	shl    %cl,%eax
40008252:	f7 d0                	not    %eax
40008254:	21 d0                	and    %edx,%eax
40008256:	a3 64 05 01 40       	mov    %eax,0x40010564
4000825b:	eb 3b                	jmp    40008298 <free+0x90d>
4000825d:	8b 15 70 05 01 40    	mov    0x40010570,%edx
40008263:	8b 45 b0             	mov    -0x50(%ebp),%eax
40008266:	39 c2                	cmp    %eax,%edx
40008268:	0f 96 c0             	setbe  %al
4000826b:	0f b6 c0             	movzbl %al,%eax
4000826e:	85 c0                	test   %eax,%eax
40008270:	74 21                	je     40008293 <free+0x908>
40008272:	8b 45 b0             	mov    -0x50(%ebp),%eax
40008275:	8b 40 10             	mov    0x10(%eax),%eax
40008278:	3b 45 ac             	cmp    -0x54(%ebp),%eax
4000827b:	75 0b                	jne    40008288 <free+0x8fd>
4000827d:	8b 55 b0             	mov    -0x50(%ebp),%edx
40008280:	8b 45 b4             	mov    -0x4c(%ebp),%eax
40008283:	89 42 10             	mov    %eax,0x10(%edx)
40008286:	eb 10                	jmp    40008298 <free+0x90d>
40008288:	8b 55 b0             	mov    -0x50(%ebp),%edx
4000828b:	8b 45 b4             	mov    -0x4c(%ebp),%eax
4000828e:	89 42 14             	mov    %eax,0x14(%edx)
40008291:	eb 05                	jmp    40008298 <free+0x90d>
40008293:	e8 38 48 00 00       	call   4000cad0 <abort>
40008298:	83 7d b4 00          	cmpl   $0x0,-0x4c(%ebp)
4000829c:	0f 84 a3 00 00 00    	je     40008345 <free+0x9ba>
400082a2:	8b 15 70 05 01 40    	mov    0x40010570,%edx
400082a8:	8b 45 b4             	mov    -0x4c(%ebp),%eax
400082ab:	39 c2                	cmp    %eax,%edx
400082ad:	0f 96 c0             	setbe  %al
400082b0:	0f b6 c0             	movzbl %al,%eax
400082b3:	85 c0                	test   %eax,%eax
400082b5:	0f 84 85 00 00 00    	je     40008340 <free+0x9b5>
400082bb:	8b 55 b4             	mov    -0x4c(%ebp),%edx
400082be:	8b 45 b0             	mov    -0x50(%ebp),%eax
400082c1:	89 42 18             	mov    %eax,0x18(%edx)
400082c4:	8b 45 ac             	mov    -0x54(%ebp),%eax
400082c7:	8b 40 10             	mov    0x10(%eax),%eax
400082ca:	89 45 c8             	mov    %eax,-0x38(%ebp)
400082cd:	83 7d c8 00          	cmpl   $0x0,-0x38(%ebp)
400082d1:	74 2e                	je     40008301 <free+0x976>
400082d3:	8b 15 70 05 01 40    	mov    0x40010570,%edx
400082d9:	8b 45 c8             	mov    -0x38(%ebp),%eax
400082dc:	39 c2                	cmp    %eax,%edx
400082de:	0f 96 c0             	setbe  %al
400082e1:	0f b6 c0             	movzbl %al,%eax
400082e4:	85 c0                	test   %eax,%eax
400082e6:	74 14                	je     400082fc <free+0x971>
400082e8:	8b 55 b4             	mov    -0x4c(%ebp),%edx
400082eb:	8b 45 c8             	mov    -0x38(%ebp),%eax
400082ee:	89 42 10             	mov    %eax,0x10(%edx)
400082f1:	8b 55 c8             	mov    -0x38(%ebp),%edx
400082f4:	8b 45 b4             	mov    -0x4c(%ebp),%eax
400082f7:	89 42 18             	mov    %eax,0x18(%edx)
400082fa:	eb 05                	jmp    40008301 <free+0x976>
400082fc:	e8 cf 47 00 00       	call   4000cad0 <abort>
40008301:	8b 45 ac             	mov    -0x54(%ebp),%eax
40008304:	8b 40 14             	mov    0x14(%eax),%eax
40008307:	89 45 cc             	mov    %eax,-0x34(%ebp)
4000830a:	83 7d cc 00          	cmpl   $0x0,-0x34(%ebp)
4000830e:	74 35                	je     40008345 <free+0x9ba>
40008310:	8b 15 70 05 01 40    	mov    0x40010570,%edx
40008316:	8b 45 cc             	mov    -0x34(%ebp),%eax
40008319:	39 c2                	cmp    %eax,%edx
4000831b:	0f 96 c0             	setbe  %al
4000831e:	0f b6 c0             	movzbl %al,%eax
40008321:	85 c0                	test   %eax,%eax
40008323:	74 14                	je     40008339 <free+0x9ae>
40008325:	8b 55 b4             	mov    -0x4c(%ebp),%edx
40008328:	8b 45 cc             	mov    -0x34(%ebp),%eax
4000832b:	89 42 14             	mov    %eax,0x14(%edx)
4000832e:	8b 55 cc             	mov    -0x34(%ebp),%edx
40008331:	8b 45 b4             	mov    -0x4c(%ebp),%eax
40008334:	89 42 18             	mov    %eax,0x18(%edx)
40008337:	eb 0c                	jmp    40008345 <free+0x9ba>
40008339:	e8 92 47 00 00       	call   4000cad0 <abort>
4000833e:	eb 05                	jmp    40008345 <free+0x9ba>
40008340:	e8 8b 47 00 00       	call   4000cad0 <abort>
40008345:	8b 85 54 ff ff ff    	mov    -0xac(%ebp),%eax
4000834b:	89 c2                	mov    %eax,%edx
4000834d:	83 ca 01             	or     $0x1,%edx
40008350:	8b 85 50 ff ff ff    	mov    -0xb0(%ebp),%eax
40008356:	89 50 04             	mov    %edx,0x4(%eax)
40008359:	8b 95 54 ff ff ff    	mov    -0xac(%ebp),%edx
4000835f:	8b 85 50 ff ff ff    	mov    -0xb0(%ebp),%eax
40008365:	8d 14 10             	lea    (%eax,%edx,1),%edx
40008368:	8b 85 54 ff ff ff    	mov    -0xac(%ebp),%eax
4000836e:	89 02                	mov    %eax,(%edx)
40008370:	a1 74 05 01 40       	mov    0x40010574,%eax
40008375:	3b 85 50 ff ff ff    	cmp    -0xb0(%ebp),%eax
4000837b:	75 52                	jne    400083cf <free+0xa44>
4000837d:	8b 85 54 ff ff ff    	mov    -0xac(%ebp),%eax
40008383:	a3 68 05 01 40       	mov    %eax,0x40010568
40008388:	e9 17 03 00 00       	jmp    400086a4 <free+0xd19>
4000838d:	8b 85 58 ff ff ff    	mov    -0xa8(%ebp),%eax
40008393:	8b 40 04             	mov    0x4(%eax),%eax
40008396:	89 c2                	mov    %eax,%edx
40008398:	83 e2 fe             	and    $0xfffffffe,%edx
4000839b:	8b 85 58 ff ff ff    	mov    -0xa8(%ebp),%eax
400083a1:	89 50 04             	mov    %edx,0x4(%eax)
400083a4:	8b 85 54 ff ff ff    	mov    -0xac(%ebp),%eax
400083aa:	89 c2                	mov    %eax,%edx
400083ac:	83 ca 01             	or     $0x1,%edx
400083af:	8b 85 50 ff ff ff    	mov    -0xb0(%ebp),%eax
400083b5:	89 50 04             	mov    %edx,0x4(%eax)
400083b8:	8b 95 54 ff ff ff    	mov    -0xac(%ebp),%edx
400083be:	8b 85 50 ff ff ff    	mov    -0xb0(%ebp),%eax
400083c4:	8d 14 10             	lea    (%eax,%edx,1),%edx
400083c7:	8b 85 54 ff ff ff    	mov    -0xac(%ebp),%eax
400083cd:	89 02                	mov    %eax,(%edx)
400083cf:	8b 85 54 ff ff ff    	mov    -0xac(%ebp),%eax
400083d5:	c1 e8 03             	shr    $0x3,%eax
400083d8:	83 f8 1f             	cmp    $0x1f,%eax
400083db:	0f 87 b0 00 00 00    	ja     40008491 <free+0xb06>
400083e1:	8b 85 54 ff ff ff    	mov    -0xac(%ebp),%eax
400083e7:	c1 e8 03             	shr    $0x3,%eax
400083ea:	89 45 d0             	mov    %eax,-0x30(%ebp)
400083ed:	ba 84 05 01 40       	mov    $0x40010584,%edx
400083f2:	8b 45 d0             	mov    -0x30(%ebp),%eax
400083f5:	c1 e0 03             	shl    $0x3,%eax
400083f8:	8d 04 02             	lea    (%edx,%eax,1),%eax
400083fb:	89 45 d4             	mov    %eax,-0x2c(%ebp)
400083fe:	8b 45 d4             	mov    -0x2c(%ebp),%eax
40008401:	89 45 d8             	mov    %eax,-0x28(%ebp)
40008404:	8b 15 60 05 01 40    	mov    0x40010560,%edx
4000840a:	8b 4d d0             	mov    -0x30(%ebp),%ecx
4000840d:	b8 01 00 00 00       	mov    $0x1,%eax
40008412:	d3 e0                	shl    %cl,%eax
40008414:	21 d0                	and    %edx,%eax
40008416:	85 c0                	test   %eax,%eax
40008418:	75 19                	jne    40008433 <free+0xaa8>
4000841a:	8b 15 60 05 01 40    	mov    0x40010560,%edx
40008420:	8b 4d d0             	mov    -0x30(%ebp),%ecx
40008423:	b8 01 00 00 00       	mov    $0x1,%eax
40008428:	d3 e0                	shl    %cl,%eax
4000842a:	09 d0                	or     %edx,%eax
4000842c:	a3 60 05 01 40       	mov    %eax,0x40010560
40008431:	eb 29                	jmp    4000845c <free+0xad1>
40008433:	8b 45 d4             	mov    -0x2c(%ebp),%eax
40008436:	8b 40 08             	mov    0x8(%eax),%eax
40008439:	89 c2                	mov    %eax,%edx
4000843b:	a1 70 05 01 40       	mov    0x40010570,%eax
40008440:	39 c2                	cmp    %eax,%edx
40008442:	0f 93 c0             	setae  %al
40008445:	0f b6 c0             	movzbl %al,%eax
40008448:	85 c0                	test   %eax,%eax
4000844a:	74 0b                	je     40008457 <free+0xacc>
4000844c:	8b 45 d4             	mov    -0x2c(%ebp),%eax
4000844f:	8b 40 08             	mov    0x8(%eax),%eax
40008452:	89 45 d8             	mov    %eax,-0x28(%ebp)
40008455:	eb 05                	jmp    4000845c <free+0xad1>
40008457:	e8 74 46 00 00       	call   4000cad0 <abort>
4000845c:	8b 55 d4             	mov    -0x2c(%ebp),%edx
4000845f:	8b 85 50 ff ff ff    	mov    -0xb0(%ebp),%eax
40008465:	89 42 08             	mov    %eax,0x8(%edx)
40008468:	8b 55 d8             	mov    -0x28(%ebp),%edx
4000846b:	8b 85 50 ff ff ff    	mov    -0xb0(%ebp),%eax
40008471:	89 42 0c             	mov    %eax,0xc(%edx)
40008474:	8b 95 50 ff ff ff    	mov    -0xb0(%ebp),%edx
4000847a:	8b 45 d8             	mov    -0x28(%ebp),%eax
4000847d:	89 42 08             	mov    %eax,0x8(%edx)
40008480:	8b 95 50 ff ff ff    	mov    -0xb0(%ebp),%edx
40008486:	8b 45 d4             	mov    -0x2c(%ebp),%eax
40008489:	89 42 0c             	mov    %eax,0xc(%edx)
4000848c:	e9 13 02 00 00       	jmp    400086a4 <free+0xd19>
40008491:	8b 85 50 ff ff ff    	mov    -0xb0(%ebp),%eax
40008497:	89 45 dc             	mov    %eax,-0x24(%ebp)
4000849a:	8b 85 54 ff ff ff    	mov    -0xac(%ebp),%eax
400084a0:	c1 e8 08             	shr    $0x8,%eax
400084a3:	89 45 e8             	mov    %eax,-0x18(%ebp)
400084a6:	83 7d e8 00          	cmpl   $0x0,-0x18(%ebp)
400084aa:	75 09                	jne    400084b5 <free+0xb2a>
400084ac:	c7 45 e4 00 00 00 00 	movl   $0x0,-0x1c(%ebp)
400084b3:	eb 38                	jmp    400084ed <free+0xb62>
400084b5:	81 7d e8 ff ff 00 00 	cmpl   $0xffff,-0x18(%ebp)
400084bc:	76 09                	jbe    400084c7 <free+0xb3c>
400084be:	c7 45 e4 1f 00 00 00 	movl   $0x1f,-0x1c(%ebp)
400084c5:	eb 26                	jmp    400084ed <free+0xb62>
400084c7:	0f bd 45 e8          	bsr    -0x18(%ebp),%eax
400084cb:	89 45 ec             	mov    %eax,-0x14(%ebp)
400084ce:	8b 45 ec             	mov    -0x14(%ebp),%eax
400084d1:	8d 14 00             	lea    (%eax,%eax,1),%edx
400084d4:	8b 45 ec             	mov    -0x14(%ebp),%eax
400084d7:	83 c0 07             	add    $0x7,%eax
400084da:	89 c1                	mov    %eax,%ecx
400084dc:	8b 85 54 ff ff ff    	mov    -0xac(%ebp),%eax
400084e2:	d3 e8                	shr    %cl,%eax
400084e4:	83 e0 01             	and    $0x1,%eax
400084e7:	8d 04 02             	lea    (%edx,%eax,1),%eax
400084ea:	89 45 e4             	mov    %eax,-0x1c(%ebp)
400084ed:	8b 45 e4             	mov    -0x1c(%ebp),%eax
400084f0:	c1 e0 02             	shl    $0x2,%eax
400084f3:	05 8c 06 01 40       	add    $0x4001068c,%eax
400084f8:	89 45 e0             	mov    %eax,-0x20(%ebp)
400084fb:	8b 55 dc             	mov    -0x24(%ebp),%edx
400084fe:	8b 45 e4             	mov    -0x1c(%ebp),%eax
40008501:	89 42 1c             	mov    %eax,0x1c(%edx)
40008504:	8b 45 dc             	mov    -0x24(%ebp),%eax
40008507:	c7 40 14 00 00 00 00 	movl   $0x0,0x14(%eax)
4000850e:	8b 45 dc             	mov    -0x24(%ebp),%eax
40008511:	8b 50 14             	mov    0x14(%eax),%edx
40008514:	8b 45 dc             	mov    -0x24(%ebp),%eax
40008517:	89 50 10             	mov    %edx,0x10(%eax)
4000851a:	8b 15 64 05 01 40    	mov    0x40010564,%edx
40008520:	8b 4d e4             	mov    -0x1c(%ebp),%ecx
40008523:	b8 01 00 00 00       	mov    $0x1,%eax
40008528:	d3 e0                	shl    %cl,%eax
4000852a:	21 d0                	and    %edx,%eax
4000852c:	85 c0                	test   %eax,%eax
4000852e:	75 42                	jne    40008572 <free+0xbe7>
40008530:	8b 15 64 05 01 40    	mov    0x40010564,%edx
40008536:	8b 4d e4             	mov    -0x1c(%ebp),%ecx
40008539:	b8 01 00 00 00       	mov    $0x1,%eax
4000853e:	d3 e0                	shl    %cl,%eax
40008540:	09 d0                	or     %edx,%eax
40008542:	a3 64 05 01 40       	mov    %eax,0x40010564
40008547:	8b 55 e0             	mov    -0x20(%ebp),%edx
4000854a:	8b 45 dc             	mov    -0x24(%ebp),%eax
4000854d:	89 02                	mov    %eax,(%edx)
4000854f:	8b 55 e0             	mov    -0x20(%ebp),%edx
40008552:	8b 45 dc             	mov    -0x24(%ebp),%eax
40008555:	89 50 18             	mov    %edx,0x18(%eax)
40008558:	8b 55 dc             	mov    -0x24(%ebp),%edx
4000855b:	8b 45 dc             	mov    -0x24(%ebp),%eax
4000855e:	89 42 0c             	mov    %eax,0xc(%edx)
40008561:	8b 45 dc             	mov    -0x24(%ebp),%eax
40008564:	8b 50 0c             	mov    0xc(%eax),%edx
40008567:	8b 45 dc             	mov    -0x24(%ebp),%eax
4000856a:	89 50 08             	mov    %edx,0x8(%eax)
4000856d:	e9 32 01 00 00       	jmp    400086a4 <free+0xd19>
40008572:	8b 45 e0             	mov    -0x20(%ebp),%eax
40008575:	8b 00                	mov    (%eax),%eax
40008577:	89 45 f0             	mov    %eax,-0x10(%ebp)
4000857a:	83 7d e4 1f          	cmpl   $0x1f,-0x1c(%ebp)
4000857e:	74 16                	je     40008596 <free+0xc0b>
40008580:	8b 45 e4             	mov    -0x1c(%ebp),%eax
40008583:	89 c2                	mov    %eax,%edx
40008585:	d1 ea                	shr    %edx
40008587:	b8 19 00 00 00       	mov    $0x19,%eax
4000858c:	29 d0                	sub    %edx,%eax
4000858e:	89 85 4c ff ff ff    	mov    %eax,-0xb4(%ebp)
40008594:	eb 0a                	jmp    400085a0 <free+0xc15>
40008596:	c7 85 4c ff ff ff 00 	movl   $0x0,-0xb4(%ebp)
4000859d:	00 00 00 
400085a0:	8b 85 54 ff ff ff    	mov    -0xac(%ebp),%eax
400085a6:	0f b6 8d 4c ff ff ff 	movzbl -0xb4(%ebp),%ecx
400085ad:	d3 e0                	shl    %cl,%eax
400085af:	89 45 f4             	mov    %eax,-0xc(%ebp)
400085b2:	8b 45 f0             	mov    -0x10(%ebp),%eax
400085b5:	8b 40 04             	mov    0x4(%eax),%eax
400085b8:	83 e0 fc             	and    $0xfffffffc,%eax
400085bb:	3b 85 54 ff ff ff    	cmp    -0xac(%ebp),%eax
400085c1:	74 6f                	je     40008632 <free+0xca7>
400085c3:	8b 45 f0             	mov    -0x10(%ebp),%eax
400085c6:	8d 50 10             	lea    0x10(%eax),%edx
400085c9:	8b 45 f4             	mov    -0xc(%ebp),%eax
400085cc:	c1 e8 1f             	shr    $0x1f,%eax
400085cf:	c1 e0 02             	shl    $0x2,%eax
400085d2:	8d 04 02             	lea    (%edx,%eax,1),%eax
400085d5:	89 45 f8             	mov    %eax,-0x8(%ebp)
400085d8:	d1 65 f4             	shll   -0xc(%ebp)
400085db:	8b 45 f8             	mov    -0x8(%ebp),%eax
400085de:	8b 00                	mov    (%eax),%eax
400085e0:	85 c0                	test   %eax,%eax
400085e2:	74 0a                	je     400085ee <free+0xc63>
400085e4:	8b 45 f8             	mov    -0x8(%ebp),%eax
400085e7:	8b 00                	mov    (%eax),%eax
400085e9:	89 45 f0             	mov    %eax,-0x10(%ebp)
400085ec:	eb c4                	jmp    400085b2 <free+0xc27>
400085ee:	8b 15 70 05 01 40    	mov    0x40010570,%edx
400085f4:	8b 45 f8             	mov    -0x8(%ebp),%eax
400085f7:	39 c2                	cmp    %eax,%edx
400085f9:	0f 96 c0             	setbe  %al
400085fc:	0f b6 c0             	movzbl %al,%eax
400085ff:	85 c0                	test   %eax,%eax
40008601:	74 28                	je     4000862b <free+0xca0>
40008603:	8b 55 f8             	mov    -0x8(%ebp),%edx
40008606:	8b 45 dc             	mov    -0x24(%ebp),%eax
40008609:	89 02                	mov    %eax,(%edx)
4000860b:	8b 55 dc             	mov    -0x24(%ebp),%edx
4000860e:	8b 45 f0             	mov    -0x10(%ebp),%eax
40008611:	89 42 18             	mov    %eax,0x18(%edx)
40008614:	8b 55 dc             	mov    -0x24(%ebp),%edx
40008617:	8b 45 dc             	mov    -0x24(%ebp),%eax
4000861a:	89 42 0c             	mov    %eax,0xc(%edx)
4000861d:	8b 45 dc             	mov    -0x24(%ebp),%eax
40008620:	8b 50 0c             	mov    0xc(%eax),%edx
40008623:	8b 45 dc             	mov    -0x24(%ebp),%eax
40008626:	89 50 08             	mov    %edx,0x8(%eax)
40008629:	eb 79                	jmp    400086a4 <free+0xd19>
4000862b:	e8 a0 44 00 00       	call   4000cad0 <abort>
40008630:	eb 72                	jmp    400086a4 <free+0xd19>
40008632:	8b 45 f0             	mov    -0x10(%ebp),%eax
40008635:	8b 40 08             	mov    0x8(%eax),%eax
40008638:	89 45 fc             	mov    %eax,-0x4(%ebp)
4000863b:	8b 15 70 05 01 40    	mov    0x40010570,%edx
40008641:	8b 45 f0             	mov    -0x10(%ebp),%eax
40008644:	39 c2                	cmp    %eax,%edx
40008646:	0f 96 c0             	setbe  %al
40008649:	0f b6 c0             	movzbl %al,%eax
4000864c:	85 c0                	test   %eax,%eax
4000864e:	74 48                	je     40008698 <free+0xd0d>
40008650:	8b 15 70 05 01 40    	mov    0x40010570,%edx
40008656:	8b 45 fc             	mov    -0x4(%ebp),%eax
40008659:	39 c2                	cmp    %eax,%edx
4000865b:	0f 96 c0             	setbe  %al
4000865e:	0f b6 c0             	movzbl %al,%eax
40008661:	85 c0                	test   %eax,%eax
40008663:	74 33                	je     40008698 <free+0xd0d>
40008665:	8b 55 fc             	mov    -0x4(%ebp),%edx
40008668:	8b 45 dc             	mov    -0x24(%ebp),%eax
4000866b:	89 42 0c             	mov    %eax,0xc(%edx)
4000866e:	8b 45 fc             	mov    -0x4(%ebp),%eax
40008671:	8b 50 0c             	mov    0xc(%eax),%edx
40008674:	8b 45 f0             	mov    -0x10(%ebp),%eax
40008677:	89 50 08             	mov    %edx,0x8(%eax)
4000867a:	8b 55 dc             	mov    -0x24(%ebp),%edx
4000867d:	8b 45 fc             	mov    -0x4(%ebp),%eax
40008680:	89 42 08             	mov    %eax,0x8(%edx)
40008683:	8b 55 dc             	mov    -0x24(%ebp),%edx
40008686:	8b 45 f0             	mov    -0x10(%ebp),%eax
40008689:	89 42 0c             	mov    %eax,0xc(%edx)
4000868c:	8b 45 dc             	mov    -0x24(%ebp),%eax
4000868f:	c7 40 18 00 00 00 00 	movl   $0x0,0x18(%eax)
40008696:	eb 0c                	jmp    400086a4 <free+0xd19>
40008698:	e8 33 44 00 00       	call   4000cad0 <abort>
4000869d:	eb 05                	jmp    400086a4 <free+0xd19>
4000869f:	e8 2c 44 00 00       	call   4000cad0 <abort>
400086a4:	c9                   	leave  
400086a5:	c3                   	ret    

400086a6 <calloc>:
400086a6:	55                   	push   %ebp
400086a7:	89 e5                	mov    %esp,%ebp
400086a9:	83 ec 28             	sub    $0x28,%esp
400086ac:	c7 45 fc 00 00 00 00 	movl   $0x0,-0x4(%ebp)
400086b3:	83 7d 08 00          	cmpl   $0x0,0x8(%ebp)
400086b7:	74 31                	je     400086ea <calloc+0x44>
400086b9:	8b 45 08             	mov    0x8(%ebp),%eax
400086bc:	0f af 45 0c          	imul   0xc(%ebp),%eax
400086c0:	89 45 fc             	mov    %eax,-0x4(%ebp)
400086c3:	8b 55 0c             	mov    0xc(%ebp),%edx
400086c6:	8b 45 08             	mov    0x8(%ebp),%eax
400086c9:	09 d0                	or     %edx,%eax
400086cb:	66 b8 00 00          	mov    $0x0,%ax
400086cf:	85 c0                	test   %eax,%eax
400086d1:	74 17                	je     400086ea <calloc+0x44>
400086d3:	8b 45 fc             	mov    -0x4(%ebp),%eax
400086d6:	ba 00 00 00 00       	mov    $0x0,%edx
400086db:	f7 75 08             	divl   0x8(%ebp)
400086de:	3b 45 0c             	cmp    0xc(%ebp),%eax
400086e1:	74 07                	je     400086ea <calloc+0x44>
400086e3:	c7 45 fc ff ff ff ff 	movl   $0xffffffff,-0x4(%ebp)
400086ea:	8b 45 fc             	mov    -0x4(%ebp),%eax
400086ed:	89 04 24             	mov    %eax,(%esp)
400086f0:	e8 df ed ff ff       	call   400074d4 <malloc>
400086f5:	89 45 f8             	mov    %eax,-0x8(%ebp)
400086f8:	83 7d f8 00          	cmpl   $0x0,-0x8(%ebp)
400086fc:	74 1a                	je     40008718 <calloc+0x72>
400086fe:	8b 45 fc             	mov    -0x4(%ebp),%eax
40008701:	89 44 24 08          	mov    %eax,0x8(%esp)
40008705:	c7 44 24 04 00 00 00 	movl   $0x0,0x4(%esp)
4000870c:	00 
4000870d:	8b 45 f8             	mov    -0x8(%ebp),%eax
40008710:	89 04 24             	mov    %eax,(%esp)
40008713:	e8 31 21 00 00       	call   4000a849 <memset>
40008718:	8b 45 f8             	mov    -0x8(%ebp),%eax
4000871b:	c9                   	leave  
4000871c:	c3                   	ret    

4000871d <realloc>:
4000871d:	55                   	push   %ebp
4000871e:	89 e5                	mov    %esp,%ebp
40008720:	83 ec 28             	sub    $0x28,%esp
40008723:	83 7d 08 00          	cmpl   $0x0,0x8(%ebp)
40008727:	75 10                	jne    40008739 <realloc+0x1c>
40008729:	8b 45 0c             	mov    0xc(%ebp),%eax
4000872c:	89 04 24             	mov    %eax,(%esp)
4000872f:	e8 a0 ed ff ff       	call   400074d4 <malloc>
40008734:	89 45 ec             	mov    %eax,-0x14(%ebp)
40008737:	eb 23                	jmp    4000875c <realloc+0x3f>
40008739:	c7 45 fc 60 05 01 40 	movl   $0x40010560,-0x4(%ebp)
40008740:	8b 45 0c             	mov    0xc(%ebp),%eax
40008743:	89 44 24 08          	mov    %eax,0x8(%esp)
40008747:	8b 45 08             	mov    0x8(%ebp),%eax
4000874a:	89 44 24 04          	mov    %eax,0x4(%esp)
4000874e:	8b 45 fc             	mov    -0x4(%ebp),%eax
40008751:	89 04 24             	mov    %eax,(%esp)
40008754:	e8 8c e5 ff ff       	call   40006ce5 <internal_realloc>
40008759:	89 45 ec             	mov    %eax,-0x14(%ebp)
4000875c:	8b 45 ec             	mov    -0x14(%ebp),%eax
4000875f:	c9                   	leave  
40008760:	c3                   	ret    

40008761 <memalign>:
40008761:	55                   	push   %ebp
40008762:	89 e5                	mov    %esp,%ebp
40008764:	83 ec 18             	sub    $0x18,%esp
40008767:	8b 45 0c             	mov    0xc(%ebp),%eax
4000876a:	89 44 24 08          	mov    %eax,0x8(%esp)
4000876e:	8b 45 08             	mov    0x8(%ebp),%eax
40008771:	89 44 24 04          	mov    %eax,0x4(%esp)
40008775:	c7 04 24 60 05 01 40 	movl   $0x40010560,(%esp)
4000877c:	e8 24 e8 ff ff       	call   40006fa5 <internal_memalign>
40008781:	c9                   	leave  
40008782:	c3                   	ret    

40008783 <independent_calloc>:
40008783:	55                   	push   %ebp
40008784:	89 e5                	mov    %esp,%ebp
40008786:	83 ec 28             	sub    $0x28,%esp
40008789:	8b 45 0c             	mov    0xc(%ebp),%eax
4000878c:	89 45 fc             	mov    %eax,-0x4(%ebp)
4000878f:	8b 45 10             	mov    0x10(%ebp),%eax
40008792:	89 44 24 10          	mov    %eax,0x10(%esp)
40008796:	c7 44 24 0c 03 00 00 	movl   $0x3,0xc(%esp)
4000879d:	00 
4000879e:	8d 45 fc             	lea    -0x4(%ebp),%eax
400087a1:	89 44 24 08          	mov    %eax,0x8(%esp)
400087a5:	8b 45 08             	mov    0x8(%ebp),%eax
400087a8:	89 44 24 04          	mov    %eax,0x4(%esp)
400087ac:	c7 04 24 60 05 01 40 	movl   $0x40010560,(%esp)
400087b3:	e8 8d ea ff ff       	call   40007245 <ialloc>
400087b8:	c9                   	leave  
400087b9:	c3                   	ret    

400087ba <independent_comalloc>:
400087ba:	55                   	push   %ebp
400087bb:	89 e5                	mov    %esp,%ebp
400087bd:	83 ec 18             	sub    $0x18,%esp
400087c0:	8b 45 10             	mov    0x10(%ebp),%eax
400087c3:	89 44 24 10          	mov    %eax,0x10(%esp)
400087c7:	c7 44 24 0c 00 00 00 	movl   $0x0,0xc(%esp)
400087ce:	00 
400087cf:	8b 45 0c             	mov    0xc(%ebp),%eax
400087d2:	89 44 24 08          	mov    %eax,0x8(%esp)
400087d6:	8b 45 08             	mov    0x8(%ebp),%eax
400087d9:	89 44 24 04          	mov    %eax,0x4(%esp)
400087dd:	c7 04 24 60 05 01 40 	movl   $0x40010560,(%esp)
400087e4:	e8 5c ea ff ff       	call   40007245 <ialloc>
400087e9:	c9                   	leave  
400087ea:	c3                   	ret    

400087eb <valloc>:
400087eb:	55                   	push   %ebp
400087ec:	89 e5                	mov    %esp,%ebp
400087ee:	83 ec 18             	sub    $0x18,%esp
400087f1:	e8 98 bc ff ff       	call   4000448e <init_mparams>
400087f6:	a1 44 05 01 40       	mov    0x40010544,%eax
400087fb:	89 45 fc             	mov    %eax,-0x4(%ebp)
400087fe:	8b 45 08             	mov    0x8(%ebp),%eax
40008801:	89 44 24 04          	mov    %eax,0x4(%esp)
40008805:	8b 45 fc             	mov    -0x4(%ebp),%eax
40008808:	89 04 24             	mov    %eax,(%esp)
4000880b:	e8 51 ff ff ff       	call   40008761 <memalign>
40008810:	c9                   	leave  
40008811:	c3                   	ret    

40008812 <pvalloc>:
40008812:	55                   	push   %ebp
40008813:	89 e5                	mov    %esp,%ebp
40008815:	83 ec 18             	sub    $0x18,%esp
40008818:	e8 71 bc ff ff       	call   4000448e <init_mparams>
4000881d:	a1 44 05 01 40       	mov    0x40010544,%eax
40008822:	89 45 fc             	mov    %eax,-0x4(%ebp)
40008825:	8b 55 fc             	mov    -0x4(%ebp),%edx
40008828:	8b 45 08             	mov    0x8(%ebp),%eax
4000882b:	01 d0                	add    %edx,%eax
4000882d:	8d 50 ff             	lea    -0x1(%eax),%edx
40008830:	8b 45 fc             	mov    -0x4(%ebp),%eax
40008833:	f7 d8                	neg    %eax
40008835:	21 d0                	and    %edx,%eax
40008837:	89 44 24 04          	mov    %eax,0x4(%esp)
4000883b:	8b 45 fc             	mov    -0x4(%ebp),%eax
4000883e:	89 04 24             	mov    %eax,(%esp)
40008841:	e8 1b ff ff ff       	call   40008761 <memalign>
40008846:	c9                   	leave  
40008847:	c3                   	ret    

40008848 <malloc_trim>:
40008848:	55                   	push   %ebp
40008849:	89 e5                	mov    %esp,%ebp
4000884b:	83 ec 18             	sub    $0x18,%esp
4000884e:	c7 45 fc 00 00 00 00 	movl   $0x0,-0x4(%ebp)
40008855:	8b 45 08             	mov    0x8(%ebp),%eax
40008858:	89 44 24 04          	mov    %eax,0x4(%esp)
4000885c:	c7 04 24 60 05 01 40 	movl   $0x40010560,(%esp)
40008863:	e8 0d d6 ff ff       	call   40005e75 <sys_trim>
40008868:	89 45 fc             	mov    %eax,-0x4(%ebp)
4000886b:	8b 45 fc             	mov    -0x4(%ebp),%eax
4000886e:	c9                   	leave  
4000886f:	c3                   	ret    

40008870 <malloc_footprint>:
40008870:	55                   	push   %ebp
40008871:	89 e5                	mov    %esp,%ebp
40008873:	a1 0c 07 01 40       	mov    0x4001070c,%eax
40008878:	5d                   	pop    %ebp
40008879:	c3                   	ret    

4000887a <malloc_max_footprint>:
4000887a:	55                   	push   %ebp
4000887b:	89 e5                	mov    %esp,%ebp
4000887d:	a1 10 07 01 40       	mov    0x40010710,%eax
40008882:	5d                   	pop    %ebp
40008883:	c3                   	ret    

40008884 <mallinfo>:
40008884:	55                   	push   %ebp
40008885:	89 e5                	mov    %esp,%ebp
40008887:	53                   	push   %ebx
40008888:	83 ec 08             	sub    $0x8,%esp
4000888b:	8b 5d 08             	mov    0x8(%ebp),%ebx
4000888e:	c7 44 24 04 60 05 01 	movl   $0x40010560,0x4(%esp)
40008895:	40 
40008896:	89 1c 24             	mov    %ebx,(%esp)
40008899:	e8 15 bd ff ff       	call   400045b3 <internal_mallinfo>
4000889e:	83 ec 04             	sub    $0x4,%esp
400088a1:	89 d8                	mov    %ebx,%eax
400088a3:	8b 5d fc             	mov    -0x4(%ebp),%ebx
400088a6:	c9                   	leave  
400088a7:	c2 04 00             	ret    $0x4

400088aa <malloc_stats>:
400088aa:	55                   	push   %ebp
400088ab:	89 e5                	mov    %esp,%ebp
400088ad:	83 ec 08             	sub    $0x8,%esp
400088b0:	c7 04 24 60 05 01 40 	movl   $0x40010560,(%esp)
400088b7:	e8 cc be ff ff       	call   40004788 <internal_malloc_stats>
400088bc:	c9                   	leave  
400088bd:	c3                   	ret    

400088be <malloc_usable_size>:
400088be:	55                   	push   %ebp
400088bf:	89 e5                	mov    %esp,%ebp
400088c1:	83 ec 14             	sub    $0x14,%esp
400088c4:	83 7d 08 00          	cmpl   $0x0,0x8(%ebp)
400088c8:	74 27                	je     400088f1 <malloc_usable_size+0x33>
400088ca:	8b 45 08             	mov    0x8(%ebp),%eax
400088cd:	83 e8 08             	sub    $0x8,%eax
400088d0:	89 45 fc             	mov    %eax,-0x4(%ebp)
400088d3:	8b 45 fc             	mov    -0x4(%ebp),%eax
400088d6:	8b 40 04             	mov    0x4(%eax),%eax
400088d9:	83 e0 02             	and    $0x2,%eax
400088dc:	85 c0                	test   %eax,%eax
400088de:	74 11                	je     400088f1 <malloc_usable_size+0x33>
400088e0:	8b 45 fc             	mov    -0x4(%ebp),%eax
400088e3:	8b 40 04             	mov    0x4(%eax),%eax
400088e6:	83 e0 fc             	and    $0xfffffffc,%eax
400088e9:	83 e8 04             	sub    $0x4,%eax
400088ec:	89 45 ec             	mov    %eax,-0x14(%ebp)
400088ef:	eb 07                	jmp    400088f8 <malloc_usable_size+0x3a>
400088f1:	c7 45 ec 00 00 00 00 	movl   $0x0,-0x14(%ebp)
400088f8:	8b 45 ec             	mov    -0x14(%ebp),%eax
400088fb:	c9                   	leave  
400088fc:	c3                   	ret    

400088fd <mallopt>:
400088fd:	55                   	push   %ebp
400088fe:	89 e5                	mov    %esp,%ebp
40008900:	83 ec 08             	sub    $0x8,%esp
40008903:	8b 45 0c             	mov    0xc(%ebp),%eax
40008906:	89 44 24 04          	mov    %eax,0x4(%esp)
4000890a:	8b 45 08             	mov    0x8(%ebp),%eax
4000890d:	89 04 24             	mov    %eax,(%esp)
40008910:	e8 14 bc ff ff       	call   40004529 <change_mparam>
40008915:	c9                   	leave  
40008916:	c3                   	ret    
40008917:	90                   	nop    

40008918 <basename>:
40008918:	55                   	push   %ebp
40008919:	89 e5                	mov    %esp,%ebp
4000891b:	83 ec 28             	sub    $0x28,%esp
4000891e:	83 7d 08 00          	cmpl   $0x0,0x8(%ebp)
40008922:	75 0c                	jne    40008930 <basename+0x18>
40008924:	c7 45 ec 28 e8 00 40 	movl   $0x4000e828,-0x14(%ebp)
4000892b:	e9 cf 00 00 00       	jmp    400089ff <basename+0xe7>
40008930:	8b 45 08             	mov    0x8(%ebp),%eax
40008933:	0f b6 00             	movzbl (%eax),%eax
40008936:	84 c0                	test   %al,%al
40008938:	75 0c                	jne    40008946 <basename+0x2e>
4000893a:	c7 45 ec 28 e8 00 40 	movl   $0x4000e828,-0x14(%ebp)
40008941:	e9 b9 00 00 00       	jmp    400089ff <basename+0xe7>
40008946:	c7 44 24 04 2a e8 00 	movl   $0x4000e82a,0x4(%esp)
4000894d:	40 
4000894e:	8b 45 08             	mov    0x8(%ebp),%eax
40008951:	89 04 24             	mov    %eax,(%esp)
40008954:	e8 ab 1f 00 00       	call   4000a904 <strcmp>
40008959:	85 c0                	test   %eax,%eax
4000895b:	75 0b                	jne    40008968 <basename+0x50>
4000895d:	8b 45 08             	mov    0x8(%ebp),%eax
40008960:	89 45 ec             	mov    %eax,-0x14(%ebp)
40008963:	e9 97 00 00 00       	jmp    400089ff <basename+0xe7>
40008968:	8b 45 08             	mov    0x8(%ebp),%eax
4000896b:	89 04 24             	mov    %eax,(%esp)
4000896e:	e8 a5 2b 00 00       	call   4000b518 <path_parse>
40008973:	89 45 f4             	mov    %eax,-0xc(%ebp)
40008976:	c7 45 fc 00 00 00 00 	movl   $0x0,-0x4(%ebp)
4000897d:	8b 45 f4             	mov    -0xc(%ebp),%eax
40008980:	8b 00                	mov    (%eax),%eax
40008982:	83 e8 01             	sub    $0x1,%eax
40008985:	89 45 f8             	mov    %eax,-0x8(%ebp)
40008988:	eb 45                	jmp    400089cf <basename+0xb7>
4000898a:	8b 45 f4             	mov    -0xc(%ebp),%eax
4000898d:	8b 50 04             	mov    0x4(%eax),%edx
40008990:	8b 45 f8             	mov    -0x8(%ebp),%eax
40008993:	c1 e0 02             	shl    $0x2,%eax
40008996:	8d 04 02             	lea    (%edx,%eax,1),%eax
40008999:	8b 00                	mov    (%eax),%eax
4000899b:	0f b6 00             	movzbl (%eax),%eax
4000899e:	84 c0                	test   %al,%al
400089a0:	74 29                	je     400089cb <basename+0xb3>
400089a2:	8b 45 f4             	mov    -0xc(%ebp),%eax
400089a5:	8b 50 04             	mov    0x4(%eax),%edx
400089a8:	8b 45 f8             	mov    -0x8(%ebp),%eax
400089ab:	c1 e0 02             	shl    $0x2,%eax
400089ae:	8d 04 02             	lea    (%edx,%eax,1),%eax
400089b1:	8b 00                	mov    (%eax),%eax
400089b3:	89 44 24 04          	mov    %eax,0x4(%esp)
400089b7:	8b 45 08             	mov    0x8(%ebp),%eax
400089ba:	89 04 24             	mov    %eax,(%esp)
400089bd:	e8 cf 1f 00 00       	call   4000a991 <strcpy>
400089c2:	c7 45 fc 01 00 00 00 	movl   $0x1,-0x4(%ebp)
400089c9:	eb 0a                	jmp    400089d5 <basename+0xbd>
400089cb:	83 6d f8 01          	subl   $0x1,-0x8(%ebp)
400089cf:	83 7d f8 00          	cmpl   $0x0,-0x8(%ebp)
400089d3:	79 b5                	jns    4000898a <basename+0x72>
400089d5:	83 7d fc 00          	cmpl   $0x0,-0x4(%ebp)
400089d9:	75 13                	jne    400089ee <basename+0xd6>
400089db:	c7 44 24 04 2a e8 00 	movl   $0x4000e82a,0x4(%esp)
400089e2:	40 
400089e3:	8b 45 08             	mov    0x8(%ebp),%eax
400089e6:	89 04 24             	mov    %eax,(%esp)
400089e9:	e8 a3 1f 00 00       	call   4000a991 <strcpy>
400089ee:	8b 45 f4             	mov    -0xc(%ebp),%eax
400089f1:	89 04 24             	mov    %eax,(%esp)
400089f4:	e8 44 2c 00 00       	call   4000b63d <path_destroy>
400089f9:	8b 45 08             	mov    0x8(%ebp),%eax
400089fc:	89 45 ec             	mov    %eax,-0x14(%ebp)
400089ff:	8b 45 ec             	mov    -0x14(%ebp),%eax
40008a02:	c9                   	leave  
40008a03:	c3                   	ret    

40008a04 <dirname>:
40008a04:	55                   	push   %ebp
40008a05:	89 e5                	mov    %esp,%ebp
40008a07:	83 ec 28             	sub    $0x28,%esp
40008a0a:	83 7d 08 00          	cmpl   $0x0,0x8(%ebp)
40008a0e:	75 0c                	jne    40008a1c <dirname+0x18>
40008a10:	c7 45 ec 28 e8 00 40 	movl   $0x4000e828,-0x14(%ebp)
40008a17:	e9 42 01 00 00       	jmp    40008b5e <dirname+0x15a>
40008a1c:	c7 44 24 04 2a e8 00 	movl   $0x4000e82a,0x4(%esp)
40008a23:	40 
40008a24:	8b 45 08             	mov    0x8(%ebp),%eax
40008a27:	89 04 24             	mov    %eax,(%esp)
40008a2a:	e8 d5 1e 00 00       	call   4000a904 <strcmp>
40008a2f:	85 c0                	test   %eax,%eax
40008a31:	75 0c                	jne    40008a3f <dirname+0x3b>
40008a33:	c7 45 ec 2a e8 00 40 	movl   $0x4000e82a,-0x14(%ebp)
40008a3a:	e9 1f 01 00 00       	jmp    40008b5e <dirname+0x15a>
40008a3f:	c7 44 24 04 2f 00 00 	movl   $0x2f,0x4(%esp)
40008a46:	00 
40008a47:	8b 45 08             	mov    0x8(%ebp),%eax
40008a4a:	89 04 24             	mov    %eax,(%esp)
40008a4d:	e8 52 1e 00 00       	call   4000a8a4 <strchr>
40008a52:	85 c0                	test   %eax,%eax
40008a54:	74 38                	je     40008a8e <dirname+0x8a>
40008a56:	8b 45 08             	mov    0x8(%ebp),%eax
40008a59:	0f b6 00             	movzbl (%eax),%eax
40008a5c:	84 c0                	test   %al,%al
40008a5e:	74 2e                	je     40008a8e <dirname+0x8a>
40008a60:	c7 44 24 04 28 e8 00 	movl   $0x4000e828,0x4(%esp)
40008a67:	40 
40008a68:	8b 45 08             	mov    0x8(%ebp),%eax
40008a6b:	89 04 24             	mov    %eax,(%esp)
40008a6e:	e8 91 1e 00 00       	call   4000a904 <strcmp>
40008a73:	85 c0                	test   %eax,%eax
40008a75:	74 17                	je     40008a8e <dirname+0x8a>
40008a77:	c7 44 24 04 2c e8 00 	movl   $0x4000e82c,0x4(%esp)
40008a7e:	40 
40008a7f:	8b 45 08             	mov    0x8(%ebp),%eax
40008a82:	89 04 24             	mov    %eax,(%esp)
40008a85:	e8 7a 1e 00 00       	call   4000a904 <strcmp>
40008a8a:	85 c0                	test   %eax,%eax
40008a8c:	75 0c                	jne    40008a9a <dirname+0x96>
40008a8e:	c7 45 ec 28 e8 00 40 	movl   $0x4000e828,-0x14(%ebp)
40008a95:	e9 c4 00 00 00       	jmp    40008b5e <dirname+0x15a>
40008a9a:	8b 45 08             	mov    0x8(%ebp),%eax
40008a9d:	89 04 24             	mov    %eax,(%esp)
40008aa0:	e8 73 2a 00 00       	call   4000b518 <path_parse>
40008aa5:	89 45 f8             	mov    %eax,-0x8(%ebp)
40008aa8:	8b 45 f8             	mov    -0x8(%ebp),%eax
40008aab:	8b 00                	mov    (%eax),%eax
40008aad:	83 f8 01             	cmp    $0x1,%eax
40008ab0:	77 15                	ja     40008ac7 <dirname+0xc3>
40008ab2:	c7 44 24 04 28 e8 00 	movl   $0x4000e828,0x4(%esp)
40008ab9:	40 
40008aba:	8b 45 08             	mov    0x8(%ebp),%eax
40008abd:	89 04 24             	mov    %eax,(%esp)
40008ac0:	e8 cc 1e 00 00       	call   4000a991 <strcpy>
40008ac5:	eb 71                	jmp    40008b38 <dirname+0x134>
40008ac7:	8b 45 f8             	mov    -0x8(%ebp),%eax
40008aca:	8b 00                	mov    (%eax),%eax
40008acc:	83 e8 01             	sub    $0x1,%eax
40008acf:	89 45 fc             	mov    %eax,-0x4(%ebp)
40008ad2:	eb 5e                	jmp    40008b32 <dirname+0x12e>
40008ad4:	8b 45 f8             	mov    -0x8(%ebp),%eax
40008ad7:	8b 50 04             	mov    0x4(%eax),%edx
40008ada:	8b 45 fc             	mov    -0x4(%ebp),%eax
40008add:	c1 e0 02             	shl    $0x2,%eax
40008ae0:	8d 04 02             	lea    (%edx,%eax,1),%eax
40008ae3:	8b 00                	mov    (%eax),%eax
40008ae5:	0f b6 00             	movzbl (%eax),%eax
40008ae8:	84 c0                	test   %al,%al
40008aea:	74 42                	je     40008b2e <dirname+0x12a>
40008aec:	8b 45 f8             	mov    -0x8(%ebp),%eax
40008aef:	8b 50 04             	mov    0x4(%eax),%edx
40008af2:	8b 45 fc             	mov    -0x4(%ebp),%eax
40008af5:	c1 e0 02             	shl    $0x2,%eax
40008af8:	8d 04 02             	lea    (%edx,%eax,1),%eax
40008afb:	8b 00                	mov    (%eax),%eax
40008afd:	89 04 24             	mov    %eax,(%esp)
40008b00:	e8 1f 1f 00 00       	call   4000aa24 <strlen>
40008b05:	89 c1                	mov    %eax,%ecx
40008b07:	8b 45 f8             	mov    -0x8(%ebp),%eax
40008b0a:	8b 50 04             	mov    0x4(%eax),%edx
40008b0d:	8b 45 fc             	mov    -0x4(%ebp),%eax
40008b10:	c1 e0 02             	shl    $0x2,%eax
40008b13:	8d 04 02             	lea    (%edx,%eax,1),%eax
40008b16:	8b 00                	mov    (%eax),%eax
40008b18:	89 4c 24 08          	mov    %ecx,0x8(%esp)
40008b1c:	c7 44 24 04 00 00 00 	movl   $0x0,0x4(%esp)
40008b23:	00 
40008b24:	89 04 24             	mov    %eax,(%esp)
40008b27:	e8 1d 1d 00 00       	call   4000a849 <memset>
40008b2c:	eb 0a                	jmp    40008b38 <dirname+0x134>
40008b2e:	83 6d fc 01          	subl   $0x1,-0x4(%ebp)
40008b32:	83 7d fc 00          	cmpl   $0x0,-0x4(%ebp)
40008b36:	79 9c                	jns    40008ad4 <dirname+0xd0>
40008b38:	8b 45 08             	mov    0x8(%ebp),%eax
40008b3b:	89 44 24 04          	mov    %eax,0x4(%esp)
40008b3f:	8b 45 f8             	mov    -0x8(%ebp),%eax
40008b42:	89 04 24             	mov    %eax,(%esp)
40008b45:	e8 9a 2c 00 00       	call   4000b7e4 <path_output>
40008b4a:	89 45 08             	mov    %eax,0x8(%ebp)
40008b4d:	8b 45 f8             	mov    -0x8(%ebp),%eax
40008b50:	89 04 24             	mov    %eax,(%esp)
40008b53:	e8 e5 2a 00 00       	call   4000b63d <path_destroy>
40008b58:	8b 45 08             	mov    0x8(%ebp),%eax
40008b5b:	89 45 ec             	mov    %eax,-0x14(%ebp)
40008b5e:	8b 45 ec             	mov    -0x14(%ebp),%eax
40008b61:	c9                   	leave  
40008b62:	c3                   	ret    

40008b63 <realpath>:
40008b63:	55                   	push   %ebp
40008b64:	89 e5                	mov    %esp,%ebp
40008b66:	83 ec 18             	sub    $0x18,%esp
40008b69:	8b 45 0c             	mov    0xc(%ebp),%eax
40008b6c:	89 45 f8             	mov    %eax,-0x8(%ebp)
40008b6f:	8b 45 08             	mov    0x8(%ebp),%eax
40008b72:	89 04 24             	mov    %eax,(%esp)
40008b75:	e8 9e 29 00 00       	call   4000b518 <path_parse>
40008b7a:	89 45 fc             	mov    %eax,-0x4(%ebp)
40008b7d:	8b 45 fc             	mov    -0x4(%ebp),%eax
40008b80:	89 04 24             	mov    %eax,(%esp)
40008b83:	e8 ea 2a 00 00       	call   4000b672 <path_reject_dots>
40008b88:	8b 45 fc             	mov    -0x4(%ebp),%eax
40008b8b:	8b 40 0c             	mov    0xc(%eax),%eax
40008b8e:	85 c0                	test   %eax,%eax
40008b90:	75 21                	jne    40008bb3 <realpath+0x50>
40008b92:	c7 44 24 04 00 04 00 	movl   $0x400,0x4(%esp)
40008b99:	00 
40008b9a:	8b 45 f8             	mov    -0x8(%ebp),%eax
40008b9d:	89 04 24             	mov    %eax,(%esp)
40008ba0:	e8 00 9a ff ff       	call   400025a5 <getcwd>
40008ba5:	8b 45 f8             	mov    -0x8(%ebp),%eax
40008ba8:	89 04 24             	mov    %eax,(%esp)
40008bab:	e8 74 1e 00 00       	call   4000aa24 <strlen>
40008bb0:	01 45 f8             	add    %eax,-0x8(%ebp)
40008bb3:	8b 45 f8             	mov    -0x8(%ebp),%eax
40008bb6:	89 44 24 04          	mov    %eax,0x4(%esp)
40008bba:	8b 45 fc             	mov    -0x4(%ebp),%eax
40008bbd:	89 04 24             	mov    %eax,(%esp)
40008bc0:	e8 1f 2c 00 00       	call   4000b7e4 <path_output>
40008bc5:	8b 45 0c             	mov    0xc(%ebp),%eax
40008bc8:	c9                   	leave  
40008bc9:	c3                   	ret    
40008bca:	90                   	nop    
40008bcb:	90                   	nop    

40008bcc <shmget>:
40008bcc:	55                   	push   %ebp
40008bcd:	89 e5                	mov    %esp,%ebp
40008bcf:	83 ec 38             	sub    $0x38,%esp
40008bd2:	8b 45 10             	mov    0x10(%ebp),%eax
40008bd5:	25 00 02 00 00       	and    $0x200,%eax
40008bda:	85 c0                	test   %eax,%eax
40008bdc:	75 06                	jne    40008be4 <shmget+0x18>
40008bde:	83 7d 08 00          	cmpl   $0x0,0x8(%ebp)
40008be2:	75 3c                	jne    40008c20 <shmget+0x54>
40008be4:	c7 04 24 00 00 00 00 	movl   $0x0,(%esp)
40008beb:	e8 52 0c 00 00       	call   40009842 <time>
40008bf0:	89 44 24 14          	mov    %eax,0x14(%esp)
40008bf4:	8b 45 10             	mov    0x10(%ebp),%eax
40008bf7:	89 44 24 10          	mov    %eax,0x10(%esp)
40008bfb:	8b 45 0c             	mov    0xc(%ebp),%eax
40008bfe:	89 44 24 0c          	mov    %eax,0xc(%esp)
40008c02:	8b 45 08             	mov    0x8(%ebp),%eax
40008c05:	89 44 24 08          	mov    %eax,0x8(%esp)
40008c09:	c7 44 24 04 04 00 00 	movl   $0x4,0x4(%esp)
40008c10:	00 
40008c11:	c7 04 24 1b 00 00 00 	movl   $0x1b,(%esp)
40008c18:	e8 b3 3d 00 00       	call   4000c9d0 <syscall_call>
40008c1d:	89 45 fc             	mov    %eax,-0x4(%ebp)
40008c20:	8b 45 10             	mov    0x10(%ebp),%eax
40008c23:	25 00 02 00 00       	and    $0x200,%eax
40008c28:	85 c0                	test   %eax,%eax
40008c2a:	74 06                	je     40008c32 <shmget+0x66>
40008c2c:	83 7d fc 00          	cmpl   $0x0,-0x4(%ebp)
40008c30:	79 2a                	jns    40008c5c <shmget+0x90>
40008c32:	8b 45 10             	mov    0x10(%ebp),%eax
40008c35:	25 00 04 00 00       	and    $0x400,%eax
40008c3a:	85 c0                	test   %eax,%eax
40008c3c:	75 1e                	jne    40008c5c <shmget+0x90>
40008c3e:	8b 45 08             	mov    0x8(%ebp),%eax
40008c41:	89 44 24 08          	mov    %eax,0x8(%esp)
40008c45:	c7 44 24 04 01 00 00 	movl   $0x1,0x4(%esp)
40008c4c:	00 
40008c4d:	c7 04 24 1a 00 00 00 	movl   $0x1a,(%esp)
40008c54:	e8 77 3d 00 00       	call   4000c9d0 <syscall_call>
40008c59:	89 45 fc             	mov    %eax,-0x4(%ebp)
40008c5c:	83 7d fc 00          	cmpl   $0x0,-0x4(%ebp)
40008c60:	79 0c                	jns    40008c6e <shmget+0xa2>
40008c62:	8b 45 fc             	mov    -0x4(%ebp),%eax
40008c65:	89 c2                	mov    %eax,%edx
40008c67:	f7 da                	neg    %edx
40008c69:	89 55 ec             	mov    %edx,-0x14(%ebp)
40008c6c:	eb 07                	jmp    40008c75 <shmget+0xa9>
40008c6e:	c7 45 ec 00 00 00 00 	movl   $0x0,-0x14(%ebp)
40008c75:	8b 45 ec             	mov    -0x14(%ebp),%eax
40008c78:	a3 10 1c 01 40       	mov    %eax,0x40011c10
40008c7d:	8b 45 fc             	mov    -0x4(%ebp),%eax
40008c80:	c1 f8 1f             	sar    $0x1f,%eax
40008c83:	0b 45 fc             	or     -0x4(%ebp),%eax
40008c86:	c9                   	leave  
40008c87:	c3                   	ret    

40008c88 <shmat>:
40008c88:	55                   	push   %ebp
40008c89:	89 e5                	mov    %esp,%ebp
40008c8b:	83 ec 38             	sub    $0x38,%esp
40008c8e:	8b 45 0c             	mov    0xc(%ebp),%eax
40008c91:	89 45 f8             	mov    %eax,-0x8(%ebp)
40008c94:	c7 04 24 00 00 00 00 	movl   $0x0,(%esp)
40008c9b:	e8 a2 0b 00 00       	call   40009842 <time>
40008ca0:	89 44 24 14          	mov    %eax,0x14(%esp)
40008ca4:	8b 45 10             	mov    0x10(%ebp),%eax
40008ca7:	89 44 24 10          	mov    %eax,0x10(%esp)
40008cab:	8d 45 f8             	lea    -0x8(%ebp),%eax
40008cae:	89 44 24 0c          	mov    %eax,0xc(%esp)
40008cb2:	8b 45 08             	mov    0x8(%ebp),%eax
40008cb5:	89 44 24 08          	mov    %eax,0x8(%esp)
40008cb9:	c7 44 24 04 04 00 00 	movl   $0x4,0x4(%esp)
40008cc0:	00 
40008cc1:	c7 04 24 1c 00 00 00 	movl   $0x1c,(%esp)
40008cc8:	e8 03 3d 00 00       	call   4000c9d0 <syscall_call>
40008ccd:	89 45 fc             	mov    %eax,-0x4(%ebp)
40008cd0:	83 7d fc 00          	cmpl   $0x0,-0x4(%ebp)
40008cd4:	79 0c                	jns    40008ce2 <shmat+0x5a>
40008cd6:	8b 45 fc             	mov    -0x4(%ebp),%eax
40008cd9:	89 c2                	mov    %eax,%edx
40008cdb:	f7 da                	neg    %edx
40008cdd:	89 55 e8             	mov    %edx,-0x18(%ebp)
40008ce0:	eb 07                	jmp    40008ce9 <shmat+0x61>
40008ce2:	c7 45 e8 00 00 00 00 	movl   $0x0,-0x18(%ebp)
40008ce9:	8b 45 e8             	mov    -0x18(%ebp),%eax
40008cec:	a3 10 1c 01 40       	mov    %eax,0x40011c10
40008cf1:	83 7d fc 00          	cmpl   $0x0,-0x4(%ebp)
40008cf5:	78 08                	js     40008cff <shmat+0x77>
40008cf7:	8b 55 f8             	mov    -0x8(%ebp),%edx
40008cfa:	89 55 ec             	mov    %edx,-0x14(%ebp)
40008cfd:	eb 07                	jmp    40008d06 <shmat+0x7e>
40008cff:	c7 45 ec 00 00 00 00 	movl   $0x0,-0x14(%ebp)
40008d06:	8b 45 ec             	mov    -0x14(%ebp),%eax
40008d09:	c9                   	leave  
40008d0a:	c3                   	ret    

40008d0b <shmdt>:
40008d0b:	55                   	push   %ebp
40008d0c:	89 e5                	mov    %esp,%ebp
40008d0e:	83 ec 28             	sub    $0x28,%esp
40008d11:	c7 04 24 00 00 00 00 	movl   $0x0,(%esp)
40008d18:	e8 25 0b 00 00       	call   40009842 <time>
40008d1d:	89 44 24 0c          	mov    %eax,0xc(%esp)
40008d21:	8b 45 08             	mov    0x8(%ebp),%eax
40008d24:	89 44 24 08          	mov    %eax,0x8(%esp)
40008d28:	c7 44 24 04 02 00 00 	movl   $0x2,0x4(%esp)
40008d2f:	00 
40008d30:	c7 04 24 1d 00 00 00 	movl   $0x1d,(%esp)
40008d37:	e8 94 3c 00 00       	call   4000c9d0 <syscall_call>
40008d3c:	89 45 fc             	mov    %eax,-0x4(%ebp)
40008d3f:	83 7d fc 00          	cmpl   $0x0,-0x4(%ebp)
40008d43:	79 0c                	jns    40008d51 <shmdt+0x46>
40008d45:	8b 45 fc             	mov    -0x4(%ebp),%eax
40008d48:	89 c2                	mov    %eax,%edx
40008d4a:	f7 da                	neg    %edx
40008d4c:	89 55 e8             	mov    %edx,-0x18(%ebp)
40008d4f:	eb 07                	jmp    40008d58 <shmdt+0x4d>
40008d51:	c7 45 e8 00 00 00 00 	movl   $0x0,-0x18(%ebp)
40008d58:	8b 45 e8             	mov    -0x18(%ebp),%eax
40008d5b:	a3 10 1c 01 40       	mov    %eax,0x40011c10
40008d60:	83 7d fc 00          	cmpl   $0x0,-0x4(%ebp)
40008d64:	79 09                	jns    40008d6f <shmdt+0x64>
40008d66:	c7 45 ec ff ff ff ff 	movl   $0xffffffff,-0x14(%ebp)
40008d6d:	eb 07                	jmp    40008d76 <shmdt+0x6b>
40008d6f:	c7 45 ec 00 00 00 00 	movl   $0x0,-0x14(%ebp)
40008d76:	8b 45 ec             	mov    -0x14(%ebp),%eax
40008d79:	c9                   	leave  
40008d7a:	c3                   	ret    

40008d7b <shmctl>:
40008d7b:	55                   	push   %ebp
40008d7c:	89 e5                	mov    %esp,%ebp
40008d7e:	57                   	push   %edi
40008d7f:	56                   	push   %esi
40008d80:	53                   	push   %ebx
40008d81:	83 ec 7c             	sub    $0x7c,%esp
40008d84:	83 7d 0c 03          	cmpl   $0x3,0xc(%ebp)
40008d88:	0f 85 c2 00 00 00    	jne    40008e50 <shmctl+0xd5>
40008d8e:	8b 45 10             	mov    0x10(%ebp),%eax
40008d91:	8d 50 2c             	lea    0x2c(%eax),%edx
40008d94:	8b 45 10             	mov    0x10(%ebp),%eax
40008d97:	8d 48 28             	lea    0x28(%eax),%ecx
40008d9a:	8b 45 10             	mov    0x10(%ebp),%eax
40008d9d:	8d 58 24             	lea    0x24(%eax),%ebx
40008da0:	8b 45 10             	mov    0x10(%ebp),%eax
40008da3:	8d 70 20             	lea    0x20(%eax),%esi
40008da6:	8b 45 10             	mov    0x10(%ebp),%eax
40008da9:	8d 78 1c             	lea    0x1c(%eax),%edi
40008dac:	8b 45 10             	mov    0x10(%ebp),%eax
40008daf:	83 c0 18             	add    $0x18,%eax
40008db2:	89 45 c4             	mov    %eax,-0x3c(%ebp)
40008db5:	8b 45 10             	mov    0x10(%ebp),%eax
40008db8:	83 c0 14             	add    $0x14,%eax
40008dbb:	89 45 c8             	mov    %eax,-0x38(%ebp)
40008dbe:	8b 45 10             	mov    0x10(%ebp),%eax
40008dc1:	83 c0 10             	add    $0x10,%eax
40008dc4:	89 45 cc             	mov    %eax,-0x34(%ebp)
40008dc7:	8b 45 10             	mov    0x10(%ebp),%eax
40008dca:	83 c0 0c             	add    $0xc,%eax
40008dcd:	89 45 d0             	mov    %eax,-0x30(%ebp)
40008dd0:	8b 45 10             	mov    0x10(%ebp),%eax
40008dd3:	83 c0 08             	add    $0x8,%eax
40008dd6:	89 45 d4             	mov    %eax,-0x2c(%ebp)
40008dd9:	8b 45 10             	mov    0x10(%ebp),%eax
40008ddc:	83 c0 04             	add    $0x4,%eax
40008ddf:	89 45 c0             	mov    %eax,-0x40(%ebp)
40008de2:	8b 45 10             	mov    0x10(%ebp),%eax
40008de5:	89 45 d8             	mov    %eax,-0x28(%ebp)
40008de8:	89 54 24 38          	mov    %edx,0x38(%esp)
40008dec:	89 4c 24 34          	mov    %ecx,0x34(%esp)
40008df0:	89 5c 24 30          	mov    %ebx,0x30(%esp)
40008df4:	89 74 24 2c          	mov    %esi,0x2c(%esp)
40008df8:	89 7c 24 28          	mov    %edi,0x28(%esp)
40008dfc:	8b 55 c4             	mov    -0x3c(%ebp),%edx
40008dff:	89 54 24 24          	mov    %edx,0x24(%esp)
40008e03:	8b 45 c8             	mov    -0x38(%ebp),%eax
40008e06:	89 44 24 20          	mov    %eax,0x20(%esp)
40008e0a:	8b 55 cc             	mov    -0x34(%ebp),%edx
40008e0d:	89 54 24 1c          	mov    %edx,0x1c(%esp)
40008e11:	8b 45 d0             	mov    -0x30(%ebp),%eax
40008e14:	89 44 24 18          	mov    %eax,0x18(%esp)
40008e18:	8b 55 d4             	mov    -0x2c(%ebp),%edx
40008e1b:	89 54 24 14          	mov    %edx,0x14(%esp)
40008e1f:	8b 45 c0             	mov    -0x40(%ebp),%eax
40008e22:	89 44 24 10          	mov    %eax,0x10(%esp)
40008e26:	8b 55 d8             	mov    -0x28(%ebp),%edx
40008e29:	89 54 24 0c          	mov    %edx,0xc(%esp)
40008e2d:	8b 45 08             	mov    0x8(%ebp),%eax
40008e30:	89 44 24 08          	mov    %eax,0x8(%esp)
40008e34:	c7 44 24 04 0d 00 00 	movl   $0xd,0x4(%esp)
40008e3b:	00 
40008e3c:	c7 04 24 1e 00 00 00 	movl   $0x1e,(%esp)
40008e43:	e8 88 3b 00 00       	call   4000c9d0 <syscall_call>
40008e48:	89 45 f0             	mov    %eax,-0x10(%ebp)
40008e4b:	e9 87 00 00 00       	jmp    40008ed7 <shmctl+0x15c>
40008e50:	83 7d 0c 02          	cmpl   $0x2,0xc(%ebp)
40008e54:	75 57                	jne    40008ead <shmctl+0x132>
40008e56:	c7 04 24 00 00 00 00 	movl   $0x0,(%esp)
40008e5d:	e8 e0 09 00 00       	call   40009842 <time>
40008e62:	89 c2                	mov    %eax,%edx
40008e64:	8b 45 10             	mov    0x10(%ebp),%eax
40008e67:	8b 48 10             	mov    0x10(%eax),%ecx
40008e6a:	8b 45 10             	mov    0x10(%ebp),%eax
40008e6d:	8b 58 04             	mov    0x4(%eax),%ebx
40008e70:	8b 45 10             	mov    0x10(%ebp),%eax
40008e73:	8b 00                	mov    (%eax),%eax
40008e75:	c7 44 24 1c 05 00 00 	movl   $0x5,0x1c(%esp)
40008e7c:	00 
40008e7d:	89 54 24 18          	mov    %edx,0x18(%esp)
40008e81:	89 4c 24 14          	mov    %ecx,0x14(%esp)
40008e85:	89 5c 24 10          	mov    %ebx,0x10(%esp)
40008e89:	89 44 24 0c          	mov    %eax,0xc(%esp)
40008e8d:	8b 45 08             	mov    0x8(%ebp),%eax
40008e90:	89 44 24 08          	mov    %eax,0x8(%esp)
40008e94:	c7 44 24 04 07 00 00 	movl   $0x7,0x4(%esp)
40008e9b:	00 
40008e9c:	c7 04 24 1f 00 00 00 	movl   $0x1f,(%esp)
40008ea3:	e8 28 3b 00 00       	call   4000c9d0 <syscall_call>
40008ea8:	89 45 f0             	mov    %eax,-0x10(%ebp)
40008eab:	eb 2a                	jmp    40008ed7 <shmctl+0x15c>
40008ead:	83 7d 0c 01          	cmpl   $0x1,0xc(%ebp)
40008eb1:	75 1d                	jne    40008ed0 <shmctl+0x155>
40008eb3:	8b 45 08             	mov    0x8(%ebp),%eax
40008eb6:	89 44 24 08          	mov    %eax,0x8(%esp)
40008eba:	c7 44 24 04 01 00 00 	movl   $0x1,0x4(%esp)
40008ec1:	00 
40008ec2:	c7 04 24 20 00 00 00 	movl   $0x20,(%esp)
40008ec9:	e8 02 3b 00 00       	call   4000c9d0 <syscall_call>
40008ece:	eb 07                	jmp    40008ed7 <shmctl+0x15c>
40008ed0:	c7 45 f0 e4 ff ff ff 	movl   $0xffffffe4,-0x10(%ebp)
40008ed7:	83 7d f0 00          	cmpl   $0x0,-0x10(%ebp)
40008edb:	79 0c                	jns    40008ee9 <shmctl+0x16e>
40008edd:	8b 45 f0             	mov    -0x10(%ebp),%eax
40008ee0:	89 c2                	mov    %eax,%edx
40008ee2:	f7 da                	neg    %edx
40008ee4:	89 55 dc             	mov    %edx,-0x24(%ebp)
40008ee7:	eb 07                	jmp    40008ef0 <shmctl+0x175>
40008ee9:	c7 45 dc 00 00 00 00 	movl   $0x0,-0x24(%ebp)
40008ef0:	8b 45 dc             	mov    -0x24(%ebp),%eax
40008ef3:	a3 10 1c 01 40       	mov    %eax,0x40011c10
40008ef8:	83 7d f0 00          	cmpl   $0x0,-0x10(%ebp)
40008efc:	79 09                	jns    40008f07 <shmctl+0x18c>
40008efe:	c7 45 e0 ff ff ff ff 	movl   $0xffffffff,-0x20(%ebp)
40008f05:	eb 07                	jmp    40008f0e <shmctl+0x193>
40008f07:	c7 45 e0 00 00 00 00 	movl   $0x0,-0x20(%ebp)
40008f0e:	8b 45 e0             	mov    -0x20(%ebp),%eax
40008f11:	83 c4 7c             	add    $0x7c,%esp
40008f14:	5b                   	pop    %ebx
40008f15:	5e                   	pop    %esi
40008f16:	5f                   	pop    %edi
40008f17:	5d                   	pop    %ebp
40008f18:	c3                   	ret    
40008f19:	90                   	nop    
40008f1a:	90                   	nop    
40008f1b:	90                   	nop    

40008f1c <signal_create>:
40008f1c:	55                   	push   %ebp
40008f1d:	89 e5                	mov    %esp,%ebp
40008f1f:	8b 45 08             	mov    0x8(%ebp),%eax
40008f22:	89 c2                	mov    %eax,%edx
40008f24:	c1 e2 04             	shl    $0x4,%edx
40008f27:	8b 45 0c             	mov    0xc(%ebp),%eax
40008f2a:	89 82 40 07 01 40    	mov    %eax,0x40010740(%edx)
40008f30:	8b 45 08             	mov    0x8(%ebp),%eax
40008f33:	89 c2                	mov    %eax,%edx
40008f35:	c1 e2 04             	shl    $0x4,%edx
40008f38:	8b 45 0c             	mov    0xc(%ebp),%eax
40008f3b:	89 82 44 07 01 40    	mov    %eax,0x40010744(%edx)
40008f41:	5d                   	pop    %ebp
40008f42:	c3                   	ret    

40008f43 <_signal_handler>:
40008f43:	55                   	push   %ebp
40008f44:	89 e5                	mov    %esp,%ebp
40008f46:	83 ec 08             	sub    $0x8,%esp
40008f49:	83 7d 08 3f          	cmpl   $0x3f,0x8(%ebp)
40008f4d:	7f 4e                	jg     40008f9d <_signal_handler+0x5a>
40008f4f:	8b 45 08             	mov    0x8(%ebp),%eax
40008f52:	c1 e0 04             	shl    $0x4,%eax
40008f55:	8b 80 44 07 01 40    	mov    0x40010744(%eax),%eax
40008f5b:	85 c0                	test   %eax,%eax
40008f5d:	74 3e                	je     40008f9d <_signal_handler+0x5a>
40008f5f:	8b 45 08             	mov    0x8(%ebp),%eax
40008f62:	c1 e0 04             	shl    $0x4,%eax
40008f65:	8b 90 44 07 01 40    	mov    0x40010744(%eax),%edx
40008f6b:	8b 45 08             	mov    0x8(%ebp),%eax
40008f6e:	89 04 24             	mov    %eax,(%esp)
40008f71:	ff d2                	call   *%edx
40008f73:	8b 45 08             	mov    0x8(%ebp),%eax
40008f76:	c1 e0 04             	shl    $0x4,%eax
40008f79:	8b 80 4c 07 01 40    	mov    0x4001074c(%eax),%eax
40008f7f:	85 c0                	test   %eax,%eax
40008f81:	74 1a                	je     40008f9d <_signal_handler+0x5a>
40008f83:	8b 4d 08             	mov    0x8(%ebp),%ecx
40008f86:	8b 45 08             	mov    0x8(%ebp),%eax
40008f89:	c1 e0 04             	shl    $0x4,%eax
40008f8c:	8b 90 40 07 01 40    	mov    0x40010740(%eax),%edx
40008f92:	89 c8                	mov    %ecx,%eax
40008f94:	c1 e0 04             	shl    $0x4,%eax
40008f97:	89 90 44 07 01 40    	mov    %edx,0x40010744(%eax)
40008f9d:	c9                   	leave  
40008f9e:	c3                   	ret    

40008f9f <_signal_dfl_ignore>:
40008f9f:	55                   	push   %ebp
40008fa0:	89 e5                	mov    %esp,%ebp
40008fa2:	5d                   	pop    %ebp
40008fa3:	c3                   	ret    

40008fa4 <signal_dfl_term>:
40008fa4:	55                   	push   %ebp
40008fa5:	89 e5                	mov    %esp,%ebp
40008fa7:	83 ec 08             	sub    $0x8,%esp
40008faa:	c7 04 24 01 00 00 00 	movl   $0x1,(%esp)
40008fb1:	e8 36 04 00 00       	call   400093ec <_Exit>
40008fb6:	c9                   	leave  
40008fb7:	c3                   	ret    

40008fb8 <signal_dfl_abort>:
40008fb8:	55                   	push   %ebp
40008fb9:	89 e5                	mov    %esp,%ebp
40008fbb:	83 ec 08             	sub    $0x8,%esp
40008fbe:	e8 0d 3b 00 00       	call   4000cad0 <abort>
40008fc3:	c9                   	leave  
40008fc4:	c3                   	ret    

40008fc5 <signal_dfl_cont>:
40008fc5:	55                   	push   %ebp
40008fc6:	89 e5                	mov    %esp,%ebp
40008fc8:	5d                   	pop    %ebp
40008fc9:	c3                   	ret    

40008fca <signal_dfl_stop>:
40008fca:	55                   	push   %ebp
40008fcb:	89 e5                	mov    %esp,%ebp
40008fcd:	83 ec 08             	sub    $0x8,%esp
40008fd0:	c7 44 24 04 00 00 00 	movl   $0x0,0x4(%esp)
40008fd7:	00 
40008fd8:	c7 04 24 36 00 00 00 	movl   $0x36,(%esp)
40008fdf:	e8 ec 39 00 00       	call   4000c9d0 <syscall_call>
40008fe4:	c9                   	leave  
40008fe5:	c3                   	ret    

40008fe6 <_signal_init>:
40008fe6:	55                   	push   %ebp
40008fe7:	89 e5                	mov    %esp,%ebp
40008fe9:	83 ec 18             	sub    $0x18,%esp
40008fec:	c7 44 24 04 00 00 00 	movl   $0x0,0x4(%esp)
40008ff3:	00 
40008ff4:	c7 04 24 28 00 00 00 	movl   $0x28,(%esp)
40008ffb:	e8 d0 39 00 00       	call   4000c9d0 <syscall_call>
40009000:	83 f8 05             	cmp    $0x5,%eax
40009003:	75 16                	jne    4000901b <_signal_init+0x35>
40009005:	c7 44 24 04 40 07 01 	movl   $0x40010740,0x4(%esp)
4000900c:	40 
4000900d:	c7 04 24 2f e8 00 40 	movl   $0x4000e82f,(%esp)
40009014:	e8 6f 3d 00 00       	call   4000cd88 <printf>
40009019:	eb fe                	jmp    40009019 <_signal_init+0x33>
4000901b:	c7 44 24 08 00 04 00 	movl   $0x400,0x8(%esp)
40009022:	00 
40009023:	c7 44 24 04 00 00 00 	movl   $0x0,0x4(%esp)
4000902a:	00 
4000902b:	c7 04 24 40 07 01 40 	movl   $0x40010740,(%esp)
40009032:	e8 12 18 00 00       	call   4000a849 <memset>
40009037:	c7 44 24 08 1a f2 00 	movl   $0x4000f21a,0x8(%esp)
4000903e:	40 
4000903f:	c7 44 24 04 01 00 00 	movl   $0x1,0x4(%esp)
40009046:	00 
40009047:	c7 04 24 4c 00 00 00 	movl   $0x4c,(%esp)
4000904e:	e8 7d 39 00 00       	call   4000c9d0 <syscall_call>
40009053:	c7 44 24 04 b8 8f 00 	movl   $0x40008fb8,0x4(%esp)
4000905a:	40 
4000905b:	c7 04 24 06 00 00 00 	movl   $0x6,(%esp)
40009062:	e8 b5 fe ff ff       	call   40008f1c <signal_create>
40009067:	c7 44 24 04 a4 8f 00 	movl   $0x40008fa4,0x4(%esp)
4000906e:	40 
4000906f:	c7 04 24 0e 00 00 00 	movl   $0xe,(%esp)
40009076:	e8 a1 fe ff ff       	call   40008f1c <signal_create>
4000907b:	c7 44 24 04 b8 8f 00 	movl   $0x40008fb8,0x4(%esp)
40009082:	40 
40009083:	c7 04 24 07 00 00 00 	movl   $0x7,(%esp)
4000908a:	e8 8d fe ff ff       	call   40008f1c <signal_create>
4000908f:	c7 44 24 04 9f 8f 00 	movl   $0x40008f9f,0x4(%esp)
40009096:	40 
40009097:	c7 04 24 11 00 00 00 	movl   $0x11,(%esp)
4000909e:	e8 79 fe ff ff       	call   40008f1c <signal_create>
400090a3:	c7 44 24 04 c5 8f 00 	movl   $0x40008fc5,0x4(%esp)
400090aa:	40 
400090ab:	c7 04 24 12 00 00 00 	movl   $0x12,(%esp)
400090b2:	e8 65 fe ff ff       	call   40008f1c <signal_create>
400090b7:	c7 44 24 04 b8 8f 00 	movl   $0x40008fb8,0x4(%esp)
400090be:	40 
400090bf:	c7 04 24 08 00 00 00 	movl   $0x8,(%esp)
400090c6:	e8 51 fe ff ff       	call   40008f1c <signal_create>
400090cb:	c7 44 24 04 a4 8f 00 	movl   $0x40008fa4,0x4(%esp)
400090d2:	40 
400090d3:	c7 04 24 01 00 00 00 	movl   $0x1,(%esp)
400090da:	e8 3d fe ff ff       	call   40008f1c <signal_create>
400090df:	c7 44 24 04 b8 8f 00 	movl   $0x40008fb8,0x4(%esp)
400090e6:	40 
400090e7:	c7 04 24 04 00 00 00 	movl   $0x4,(%esp)
400090ee:	e8 29 fe ff ff       	call   40008f1c <signal_create>
400090f3:	c7 44 24 04 a4 8f 00 	movl   $0x40008fa4,0x4(%esp)
400090fa:	40 
400090fb:	c7 04 24 02 00 00 00 	movl   $0x2,(%esp)
40009102:	e8 15 fe ff ff       	call   40008f1c <signal_create>
40009107:	c7 44 24 04 a4 8f 00 	movl   $0x40008fa4,0x4(%esp)
4000910e:	40 
4000910f:	c7 04 24 09 00 00 00 	movl   $0x9,(%esp)
40009116:	e8 01 fe ff ff       	call   40008f1c <signal_create>
4000911b:	c7 44 24 04 a4 8f 00 	movl   $0x40008fa4,0x4(%esp)
40009122:	40 
40009123:	c7 04 24 0d 00 00 00 	movl   $0xd,(%esp)
4000912a:	e8 ed fd ff ff       	call   40008f1c <signal_create>
4000912f:	c7 44 24 04 b8 8f 00 	movl   $0x40008fb8,0x4(%esp)
40009136:	40 
40009137:	c7 04 24 03 00 00 00 	movl   $0x3,(%esp)
4000913e:	e8 d9 fd ff ff       	call   40008f1c <signal_create>
40009143:	c7 44 24 04 b8 8f 00 	movl   $0x40008fb8,0x4(%esp)
4000914a:	40 
4000914b:	c7 04 24 0b 00 00 00 	movl   $0xb,(%esp)
40009152:	e8 c5 fd ff ff       	call   40008f1c <signal_create>
40009157:	c7 44 24 04 ca 8f 00 	movl   $0x40008fca,0x4(%esp)
4000915e:	40 
4000915f:	c7 04 24 13 00 00 00 	movl   $0x13,(%esp)
40009166:	e8 b1 fd ff ff       	call   40008f1c <signal_create>
4000916b:	c7 44 24 04 a4 8f 00 	movl   $0x40008fa4,0x4(%esp)
40009172:	40 
40009173:	c7 04 24 0f 00 00 00 	movl   $0xf,(%esp)
4000917a:	e8 9d fd ff ff       	call   40008f1c <signal_create>
4000917f:	c7 44 24 04 ca 8f 00 	movl   $0x40008fca,0x4(%esp)
40009186:	40 
40009187:	c7 04 24 14 00 00 00 	movl   $0x14,(%esp)
4000918e:	e8 89 fd ff ff       	call   40008f1c <signal_create>
40009193:	c7 44 24 04 ca 8f 00 	movl   $0x40008fca,0x4(%esp)
4000919a:	40 
4000919b:	c7 04 24 15 00 00 00 	movl   $0x15,(%esp)
400091a2:	e8 75 fd ff ff       	call   40008f1c <signal_create>
400091a7:	c7 44 24 04 ca 8f 00 	movl   $0x40008fca,0x4(%esp)
400091ae:	40 
400091af:	c7 04 24 16 00 00 00 	movl   $0x16,(%esp)
400091b6:	e8 61 fd ff ff       	call   40008f1c <signal_create>
400091bb:	c7 44 24 04 a4 8f 00 	movl   $0x40008fa4,0x4(%esp)
400091c2:	40 
400091c3:	c7 04 24 0a 00 00 00 	movl   $0xa,(%esp)
400091ca:	e8 4d fd ff ff       	call   40008f1c <signal_create>
400091cf:	c7 44 24 04 a4 8f 00 	movl   $0x40008fa4,0x4(%esp)
400091d6:	40 
400091d7:	c7 04 24 0c 00 00 00 	movl   $0xc,(%esp)
400091de:	e8 39 fd ff ff       	call   40008f1c <signal_create>
400091e3:	c7 44 24 04 a4 8f 00 	movl   $0x40008fa4,0x4(%esp)
400091ea:	40 
400091eb:	c7 04 24 1b 00 00 00 	movl   $0x1b,(%esp)
400091f2:	e8 25 fd ff ff       	call   40008f1c <signal_create>
400091f7:	c7 44 24 04 b8 8f 00 	movl   $0x40008fb8,0x4(%esp)
400091fe:	40 
400091ff:	c7 04 24 1f 00 00 00 	movl   $0x1f,(%esp)
40009206:	e8 11 fd ff ff       	call   40008f1c <signal_create>
4000920b:	c7 44 24 04 b8 8f 00 	movl   $0x40008fb8,0x4(%esp)
40009212:	40 
40009213:	c7 04 24 05 00 00 00 	movl   $0x5,(%esp)
4000921a:	e8 fd fc ff ff       	call   40008f1c <signal_create>
4000921f:	c7 44 24 04 9f 8f 00 	movl   $0x40008f9f,0x4(%esp)
40009226:	40 
40009227:	c7 04 24 17 00 00 00 	movl   $0x17,(%esp)
4000922e:	e8 e9 fc ff ff       	call   40008f1c <signal_create>
40009233:	c7 44 24 04 b8 8f 00 	movl   $0x40008fb8,0x4(%esp)
4000923a:	40 
4000923b:	c7 04 24 18 00 00 00 	movl   $0x18,(%esp)
40009242:	e8 d5 fc ff ff       	call   40008f1c <signal_create>
40009247:	c7 44 24 04 b8 8f 00 	movl   $0x40008fb8,0x4(%esp)
4000924e:	40 
4000924f:	c7 04 24 19 00 00 00 	movl   $0x19,(%esp)
40009256:	e8 c1 fc ff ff       	call   40008f1c <signal_create>
4000925b:	c9                   	leave  
4000925c:	c3                   	ret    

4000925d <signal>:
4000925d:	55                   	push   %ebp
4000925e:	89 e5                	mov    %esp,%ebp
40009260:	83 7d 08 3f          	cmpl   $0x3f,0x8(%ebp)
40009264:	7f 4f                	jg     400092b5 <signal+0x58>
40009266:	83 7d 08 09          	cmpl   $0x9,0x8(%ebp)
4000926a:	74 49                	je     400092b5 <signal+0x58>
4000926c:	83 7d 08 13          	cmpl   $0x13,0x8(%ebp)
40009270:	74 43                	je     400092b5 <signal+0x58>
40009272:	83 7d 0c 00          	cmpl   $0x0,0xc(%ebp)
40009276:	75 1c                	jne    40009294 <signal+0x37>
40009278:	8b 4d 08             	mov    0x8(%ebp),%ecx
4000927b:	8b 45 08             	mov    0x8(%ebp),%eax
4000927e:	c1 e0 04             	shl    $0x4,%eax
40009281:	8b 90 40 07 01 40    	mov    0x40010740(%eax),%edx
40009287:	89 c8                	mov    %ecx,%eax
40009289:	c1 e0 04             	shl    $0x4,%eax
4000928c:	89 90 44 07 01 40    	mov    %edx,0x40010744(%eax)
40009292:	eb 11                	jmp    400092a5 <signal+0x48>
40009294:	8b 45 08             	mov    0x8(%ebp),%eax
40009297:	89 c2                	mov    %eax,%edx
40009299:	c1 e2 04             	shl    $0x4,%edx
4000929c:	8b 45 0c             	mov    0xc(%ebp),%eax
4000929f:	89 82 44 07 01 40    	mov    %eax,0x40010744(%edx)
400092a5:	8b 45 08             	mov    0x8(%ebp),%eax
400092a8:	c1 e0 04             	shl    $0x4,%eax
400092ab:	c7 80 4c 07 01 40 00 	movl   $0x0,0x4001074c(%eax)
400092b2:	00 00 00 
400092b5:	8b 45 08             	mov    0x8(%ebp),%eax
400092b8:	c1 e0 04             	shl    $0x4,%eax
400092bb:	8b 80 44 07 01 40    	mov    0x40010744(%eax),%eax
400092c1:	5d                   	pop    %ebp
400092c2:	c3                   	ret    

400092c3 <sysv_signal>:
400092c3:	55                   	push   %ebp
400092c4:	89 e5                	mov    %esp,%ebp
400092c6:	83 7d 08 3f          	cmpl   $0x3f,0x8(%ebp)
400092ca:	7f 4f                	jg     4000931b <sysv_signal+0x58>
400092cc:	83 7d 08 09          	cmpl   $0x9,0x8(%ebp)
400092d0:	74 49                	je     4000931b <sysv_signal+0x58>
400092d2:	83 7d 08 13          	cmpl   $0x13,0x8(%ebp)
400092d6:	74 43                	je     4000931b <sysv_signal+0x58>
400092d8:	83 7d 0c 00          	cmpl   $0x0,0xc(%ebp)
400092dc:	75 1c                	jne    400092fa <sysv_signal+0x37>
400092de:	8b 4d 08             	mov    0x8(%ebp),%ecx
400092e1:	8b 45 08             	mov    0x8(%ebp),%eax
400092e4:	c1 e0 04             	shl    $0x4,%eax
400092e7:	8b 90 40 07 01 40    	mov    0x40010740(%eax),%edx
400092ed:	89 c8                	mov    %ecx,%eax
400092ef:	c1 e0 04             	shl    $0x4,%eax
400092f2:	89 90 44 07 01 40    	mov    %edx,0x40010744(%eax)
400092f8:	eb 11                	jmp    4000930b <sysv_signal+0x48>
400092fa:	8b 45 08             	mov    0x8(%ebp),%eax
400092fd:	89 c2                	mov    %eax,%edx
400092ff:	c1 e2 04             	shl    $0x4,%edx
40009302:	8b 45 0c             	mov    0xc(%ebp),%eax
40009305:	89 82 44 07 01 40    	mov    %eax,0x40010744(%edx)
4000930b:	8b 45 08             	mov    0x8(%ebp),%eax
4000930e:	c1 e0 04             	shl    $0x4,%eax
40009311:	c7 80 4c 07 01 40 01 	movl   $0x1,0x4001074c(%eax)
40009318:	00 00 00 
4000931b:	8b 45 08             	mov    0x8(%ebp),%eax
4000931e:	c1 e0 04             	shl    $0x4,%eax
40009321:	8b 80 44 07 01 40    	mov    0x40010744(%eax),%eax
40009327:	5d                   	pop    %ebp
40009328:	c3                   	ret    
40009329:	90                   	nop    
4000932a:	90                   	nop    
4000932b:	90                   	nop    

4000932c <_stdlib_init_pre>:
4000932c:	55                   	push   %ebp
4000932d:	89 e5                	mov    %esp,%ebp
4000932f:	53                   	push   %ebx
40009330:	83 ec 14             	sub    $0x14,%esp
40009333:	8b 0d 00 1c 01 40    	mov    0x40011c00,%ecx
40009339:	c7 45 f4 03 00 01 80 	movl   $0x80010003,-0xc(%ebp)
40009340:	8b 45 f4             	mov    -0xc(%ebp),%eax
40009343:	f7 e9                	imul   %ecx
40009345:	8d 04 0a             	lea    (%edx,%ecx,1),%eax
40009348:	89 c2                	mov    %eax,%edx
4000934a:	c1 fa 0e             	sar    $0xe,%edx
4000934d:	89 c8                	mov    %ecx,%eax
4000934f:	c1 f8 1f             	sar    $0x1f,%eax
40009352:	89 d3                	mov    %edx,%ebx
40009354:	29 c3                	sub    %eax,%ebx
40009356:	89 5d f8             	mov    %ebx,-0x8(%ebp)
40009359:	8b 45 f8             	mov    -0x8(%ebp),%eax
4000935c:	c1 e0 0f             	shl    $0xf,%eax
4000935f:	2b 45 f8             	sub    -0x8(%ebp),%eax
40009362:	89 ca                	mov    %ecx,%edx
40009364:	29 c2                	sub    %eax,%edx
40009366:	89 55 f8             	mov    %edx,-0x8(%ebp)
40009369:	8b 5d f8             	mov    -0x8(%ebp),%ebx
4000936c:	89 1d 00 1c 01 40    	mov    %ebx,0x40011c00
40009372:	c7 05 10 1c 01 40 00 	movl   $0x0,0x40011c10
40009379:	00 00 00 
4000937c:	e8 e3 1c 00 00       	call   4000b064 <llist_create>
40009381:	a3 1c 1c 01 40       	mov    %eax,0x40011c1c
40009386:	e8 5b fc ff ff       	call   40008fe6 <_signal_init>
4000938b:	83 c4 14             	add    $0x14,%esp
4000938e:	5b                   	pop    %ebx
4000938f:	5d                   	pop    %ebp
40009390:	c3                   	ret    

40009391 <_stdlib_init_post>:
40009391:	55                   	push   %ebp
40009392:	89 e5                	mov    %esp,%ebp
40009394:	83 ec 18             	sub    $0x18,%esp
40009397:	e8 d8 37 00 00       	call   4000cb74 <env_init>
4000939c:	8b 45 10             	mov    0x10(%ebp),%eax
4000939f:	89 44 24 08          	mov    %eax,0x8(%esp)
400093a3:	8b 45 0c             	mov    0xc(%ebp),%eax
400093a6:	89 44 24 04          	mov    %eax,0x4(%esp)
400093aa:	8b 45 08             	mov    0x8(%ebp),%eax
400093ad:	89 04 24             	mov    %eax,(%esp)
400093b0:	e8 9b 8d ff ff       	call   40002150 <_fs_init>
400093b5:	e8 ec 3b 00 00       	call   4000cfa6 <stdio_init>
400093ba:	c9                   	leave  
400093bb:	c3                   	ret    

400093bc <exit>:
400093bc:	55                   	push   %ebp
400093bd:	89 e5                	mov    %esp,%ebp
400093bf:	83 ec 18             	sub    $0x18,%esp
400093c2:	eb 05                	jmp    400093c9 <exit+0xd>
400093c4:	8b 45 fc             	mov    -0x4(%ebp),%eax
400093c7:	ff d0                	call   *%eax
400093c9:	a1 1c 1c 01 40       	mov    0x40011c1c,%eax
400093ce:	89 04 24             	mov    %eax,(%esp)
400093d1:	e8 62 1d 00 00       	call   4000b138 <llist_pop>
400093d6:	89 45 fc             	mov    %eax,-0x4(%ebp)
400093d9:	83 7d fc 00          	cmpl   $0x0,-0x4(%ebp)
400093dd:	75 e5                	jne    400093c4 <exit+0x8>
400093df:	8b 45 08             	mov    0x8(%ebp),%eax
400093e2:	89 04 24             	mov    %eax,(%esp)
400093e5:	e8 02 00 00 00       	call   400093ec <_Exit>
400093ea:	c9                   	leave  
400093eb:	c3                   	ret    

400093ec <_Exit>:
400093ec:	55                   	push   %ebp
400093ed:	89 e5                	mov    %esp,%ebp
400093ef:	83 ec 18             	sub    $0x18,%esp
400093f2:	e8 2e 97 ff ff       	call   40002b25 <_close_all_filehandles>
400093f7:	8b 45 08             	mov    0x8(%ebp),%eax
400093fa:	89 44 24 08          	mov    %eax,0x8(%esp)
400093fe:	c7 44 24 04 01 00 00 	movl   $0x1,0x4(%esp)
40009405:	00 
40009406:	c7 04 24 34 00 00 00 	movl   $0x34,(%esp)
4000940d:	e8 be 35 00 00       	call   4000c9d0 <syscall_call>
40009412:	c9                   	leave  
40009413:	c3                   	ret    

40009414 <atexit>:
40009414:	55                   	push   %ebp
40009415:	89 e5                	mov    %esp,%ebp
40009417:	83 ec 18             	sub    $0x18,%esp
4000941a:	a1 1c 1c 01 40       	mov    0x40011c1c,%eax
4000941f:	8b 55 08             	mov    0x8(%ebp),%edx
40009422:	89 54 24 04          	mov    %edx,0x4(%esp)
40009426:	89 04 24             	mov    %eax,(%esp)
40009429:	e8 b1 1c 00 00       	call   4000b0df <llist_push>
4000942e:	85 c0                	test   %eax,%eax
40009430:	74 09                	je     4000943b <atexit+0x27>
40009432:	c7 45 fc 00 00 00 00 	movl   $0x0,-0x4(%ebp)
40009439:	eb 07                	jmp    40009442 <atexit+0x2e>
4000943b:	c7 45 fc ff ff ff ff 	movl   $0xffffffff,-0x4(%ebp)
40009442:	8b 45 fc             	mov    -0x4(%ebp),%eax
40009445:	c9                   	leave  
40009446:	c3                   	ret    

40009447 <atoi>:
40009447:	55                   	push   %ebp
40009448:	89 e5                	mov    %esp,%ebp
4000944a:	83 ec 18             	sub    $0x18,%esp
4000944d:	c7 45 f8 00 00 00 00 	movl   $0x0,-0x8(%ebp)
40009454:	c7 45 fc 00 00 00 00 	movl   $0x0,-0x4(%ebp)
4000945b:	8b 45 08             	mov    0x8(%ebp),%eax
4000945e:	89 04 24             	mov    %eax,(%esp)
40009461:	e8 be 15 00 00       	call   4000aa24 <strlen>
40009466:	89 45 f0             	mov    %eax,-0x10(%ebp)
40009469:	c7 45 f4 00 00 00 00 	movl   $0x0,-0xc(%ebp)
40009470:	eb 59                	jmp    400094cb <atoi+0x84>
40009472:	8b 55 f4             	mov    -0xc(%ebp),%edx
40009475:	8b 45 08             	mov    0x8(%ebp),%eax
40009478:	01 d0                	add    %edx,%eax
4000947a:	0f b6 00             	movzbl (%eax),%eax
4000947d:	3c 2b                	cmp    $0x2b,%al
4000947f:	75 09                	jne    4000948a <atoi+0x43>
40009481:	c7 45 fc 00 00 00 00 	movl   $0x0,-0x4(%ebp)
40009488:	eb 3d                	jmp    400094c7 <atoi+0x80>
4000948a:	8b 55 f4             	mov    -0xc(%ebp),%edx
4000948d:	8b 45 08             	mov    0x8(%ebp),%eax
40009490:	01 d0                	add    %edx,%eax
40009492:	0f b6 00             	movzbl (%eax),%eax
40009495:	3c 2d                	cmp    $0x2d,%al
40009497:	75 09                	jne    400094a2 <atoi+0x5b>
40009499:	c7 45 fc 01 00 00 00 	movl   $0x1,-0x4(%ebp)
400094a0:	eb 25                	jmp    400094c7 <atoi+0x80>
400094a2:	8b 55 f8             	mov    -0x8(%ebp),%edx
400094a5:	89 d0                	mov    %edx,%eax
400094a7:	c1 e0 02             	shl    $0x2,%eax
400094aa:	01 d0                	add    %edx,%eax
400094ac:	01 c0                	add    %eax,%eax
400094ae:	89 c1                	mov    %eax,%ecx
400094b0:	8b 55 f4             	mov    -0xc(%ebp),%edx
400094b3:	8b 45 08             	mov    0x8(%ebp),%eax
400094b6:	01 d0                	add    %edx,%eax
400094b8:	0f b6 00             	movzbl (%eax),%eax
400094bb:	0f be c0             	movsbl %al,%eax
400094be:	8d 04 01             	lea    (%ecx,%eax,1),%eax
400094c1:	83 e8 30             	sub    $0x30,%eax
400094c4:	89 45 f8             	mov    %eax,-0x8(%ebp)
400094c7:	83 45 f4 01          	addl   $0x1,-0xc(%ebp)
400094cb:	8b 45 f4             	mov    -0xc(%ebp),%eax
400094ce:	3b 45 f0             	cmp    -0x10(%ebp),%eax
400094d1:	72 9f                	jb     40009472 <atoi+0x2b>
400094d3:	83 7d fc 00          	cmpl   $0x0,-0x4(%ebp)
400094d7:	74 03                	je     400094dc <atoi+0x95>
400094d9:	f7 5d f8             	negl   -0x8(%ebp)
400094dc:	8b 45 f8             	mov    -0x8(%ebp),%eax
400094df:	c9                   	leave  
400094e0:	c3                   	ret    

400094e1 <abs>:
400094e1:	55                   	push   %ebp
400094e2:	89 e5                	mov    %esp,%ebp
400094e4:	83 7d 08 00          	cmpl   $0x0,0x8(%ebp)
400094e8:	79 03                	jns    400094ed <abs+0xc>
400094ea:	f7 5d 08             	negl   0x8(%ebp)
400094ed:	8b 45 08             	mov    0x8(%ebp),%eax
400094f0:	5d                   	pop    %ebp
400094f1:	c3                   	ret    

400094f2 <div>:
400094f2:	55                   	push   %ebp
400094f3:	89 e5                	mov    %esp,%ebp
400094f5:	83 ec 1c             	sub    $0x1c,%esp
400094f8:	8b 4d 08             	mov    0x8(%ebp),%ecx
400094fb:	8b 45 0c             	mov    0xc(%ebp),%eax
400094fe:	89 45 e4             	mov    %eax,-0x1c(%ebp)
40009501:	8b 55 e4             	mov    -0x1c(%ebp),%edx
40009504:	89 d0                	mov    %edx,%eax
40009506:	c1 fa 1f             	sar    $0x1f,%edx
40009509:	f7 7d 10             	idivl  0x10(%ebp)
4000950c:	89 45 f8             	mov    %eax,-0x8(%ebp)
4000950f:	8b 55 0c             	mov    0xc(%ebp),%edx
40009512:	89 d0                	mov    %edx,%eax
40009514:	c1 fa 1f             	sar    $0x1f,%edx
40009517:	f7 7d 10             	idivl  0x10(%ebp)
4000951a:	89 d0                	mov    %edx,%eax
4000951c:	89 45 fc             	mov    %eax,-0x4(%ebp)
4000951f:	8b 45 f8             	mov    -0x8(%ebp),%eax
40009522:	8b 55 fc             	mov    -0x4(%ebp),%edx
40009525:	89 01                	mov    %eax,(%ecx)
40009527:	89 51 04             	mov    %edx,0x4(%ecx)
4000952a:	89 c8                	mov    %ecx,%eax
4000952c:	c9                   	leave  
4000952d:	c2 04 00             	ret    $0x4

40009530 <bsearch>:
40009530:	55                   	push   %ebp
40009531:	89 e5                	mov    %esp,%ebp
40009533:	83 ec 38             	sub    $0x38,%esp
40009536:	8b 45 08             	mov    0x8(%ebp),%eax
40009539:	89 45 e4             	mov    %eax,-0x1c(%ebp)
4000953c:	8b 45 14             	mov    0x14(%ebp),%eax
4000953f:	89 04 24             	mov    %eax,(%esp)
40009542:	e8 8d df ff ff       	call   400074d4 <malloc>
40009547:	89 c2                	mov    %eax,%edx
40009549:	8b 45 14             	mov    0x14(%ebp),%eax
4000954c:	89 44 24 08          	mov    %eax,0x8(%esp)
40009550:	8b 45 e4             	mov    -0x1c(%ebp),%eax
40009553:	89 44 24 04          	mov    %eax,0x4(%esp)
40009557:	89 14 24             	mov    %edx,(%esp)
4000955a:	e8 0d 11 00 00       	call   4000a66c <memcpy>
4000955f:	89 45 e8             	mov    %eax,-0x18(%ebp)
40009562:	8b 45 0c             	mov    0xc(%ebp),%eax
40009565:	89 45 ec             	mov    %eax,-0x14(%ebp)
40009568:	c7 45 f0 00 00 00 00 	movl   $0x0,-0x10(%ebp)
4000956f:	c7 45 f4 00 00 00 00 	movl   $0x0,-0xc(%ebp)
40009576:	c7 45 f8 00 00 00 00 	movl   $0x0,-0x8(%ebp)
4000957d:	e9 9a 00 00 00       	jmp    4000961c <bsearch+0xec>
40009582:	8b 45 10             	mov    0x10(%ebp),%eax
40009585:	0f af 45 14          	imul   0x14(%ebp),%eax
40009589:	03 45 ec             	add    -0x14(%ebp),%eax
4000958c:	0f b6 10             	movzbl (%eax),%edx
4000958f:	8b 45 e4             	mov    -0x1c(%ebp),%eax
40009592:	0f b6 00             	movzbl (%eax),%eax
40009595:	38 c2                	cmp    %al,%dl
40009597:	75 04                	jne    4000959d <bsearch+0x6d>
40009599:	83 45 f4 01          	addl   $0x1,-0xc(%ebp)
4000959d:	8b 45 f4             	mov    -0xc(%ebp),%eax
400095a0:	3b 45 14             	cmp    0x14(%ebp),%eax
400095a3:	75 73                	jne    40009618 <bsearch+0xe8>
400095a5:	8b 45 14             	mov    0x14(%ebp),%eax
400095a8:	89 04 24             	mov    %eax,(%esp)
400095ab:	e8 24 df ff ff       	call   400074d4 <malloc>
400095b0:	89 c2                	mov    %eax,%edx
400095b2:	8b 45 14             	mov    0x14(%ebp),%eax
400095b5:	89 44 24 08          	mov    %eax,0x8(%esp)
400095b9:	8b 45 ec             	mov    -0x14(%ebp),%eax
400095bc:	89 44 24 04          	mov    %eax,0x4(%esp)
400095c0:	89 14 24             	mov    %edx,(%esp)
400095c3:	e8 a4 10 00 00       	call   4000a66c <memcpy>
400095c8:	89 45 fc             	mov    %eax,-0x4(%ebp)
400095cb:	83 7d 18 00          	cmpl   $0x0,0x18(%ebp)
400095cf:	74 12                	je     400095e3 <bsearch+0xb3>
400095d1:	8b 45 ec             	mov    -0x14(%ebp),%eax
400095d4:	89 44 24 04          	mov    %eax,0x4(%esp)
400095d8:	8b 45 e4             	mov    -0x1c(%ebp),%eax
400095db:	89 04 24             	mov    %eax,(%esp)
400095de:	8b 45 18             	mov    0x18(%ebp),%eax
400095e1:	ff d0                	call   *%eax
400095e3:	8b 45 e8             	mov    -0x18(%ebp),%eax
400095e6:	0f b6 10             	movzbl (%eax),%edx
400095e9:	8b 45 e4             	mov    -0x1c(%ebp),%eax
400095ec:	88 10                	mov    %dl,(%eax)
400095ee:	8b 45 fc             	mov    -0x4(%ebp),%eax
400095f1:	0f b6 10             	movzbl (%eax),%edx
400095f4:	8b 45 ec             	mov    -0x14(%ebp),%eax
400095f7:	88 10                	mov    %dl,(%eax)
400095f9:	8b 45 fc             	mov    -0x4(%ebp),%eax
400095fc:	89 04 24             	mov    %eax,(%esp)
400095ff:	e8 87 e3 ff ff       	call   4000798b <free>
40009604:	c7 45 f4 00 00 00 00 	movl   $0x0,-0xc(%ebp)
4000960b:	8b 45 10             	mov    0x10(%ebp),%eax
4000960e:	0f af 45 14          	imul   0x14(%ebp),%eax
40009612:	03 45 0c             	add    0xc(%ebp),%eax
40009615:	89 45 f0             	mov    %eax,-0x10(%ebp)
40009618:	83 45 f8 01          	addl   $0x1,-0x8(%ebp)
4000961c:	8b 45 f8             	mov    -0x8(%ebp),%eax
4000961f:	3b 45 10             	cmp    0x10(%ebp),%eax
40009622:	0f 82 5a ff ff ff    	jb     40009582 <bsearch+0x52>
40009628:	8b 45 e8             	mov    -0x18(%ebp),%eax
4000962b:	89 04 24             	mov    %eax,(%esp)
4000962e:	e8 58 e3 ff ff       	call   4000798b <free>
40009633:	8b 45 f0             	mov    -0x10(%ebp),%eax
40009636:	c9                   	leave  
40009637:	c3                   	ret    

40009638 <sbrk>:
40009638:	55                   	push   %ebp
40009639:	89 e5                	mov    %esp,%ebp
4000963b:	83 ec 18             	sub    $0x18,%esp
4000963e:	8b 45 08             	mov    0x8(%ebp),%eax
40009641:	89 44 24 08          	mov    %eax,0x8(%esp)
40009645:	c7 44 24 04 01 00 00 	movl   $0x1,0x4(%esp)
4000964c:	00 
4000964d:	c7 04 24 01 00 00 00 	movl   $0x1,(%esp)
40009654:	e8 77 33 00 00       	call   4000c9d0 <syscall_call>
40009659:	c9                   	leave  
4000965a:	c3                   	ret    

4000965b <rand>:
4000965b:	55                   	push   %ebp
4000965c:	89 e5                	mov    %esp,%ebp
4000965e:	83 ec 30             	sub    $0x30,%esp
40009661:	b8 de c0 0f d0       	mov    $0xd00fc0de,%eax
40009666:	c9                   	leave  
40009667:	c3                   	ret    

40009668 <asctime>:
40009668:	55                   	push   %ebp
40009669:	89 e5                	mov    %esp,%ebp
4000966b:	57                   	push   %edi
4000966c:	56                   	push   %esi
4000966d:	53                   	push   %ebx
4000966e:	83 ec 7c             	sub    $0x7c,%esp
40009671:	c7 45 d8 37 e8 00 40 	movl   $0x4000e837,-0x28(%ebp)
40009678:	c7 45 dc 3b e8 00 40 	movl   $0x4000e83b,-0x24(%ebp)
4000967f:	c7 45 e0 3f e8 00 40 	movl   $0x4000e83f,-0x20(%ebp)
40009686:	c7 45 e4 43 e8 00 40 	movl   $0x4000e843,-0x1c(%ebp)
4000968d:	c7 45 e8 47 e8 00 40 	movl   $0x4000e847,-0x18(%ebp)
40009694:	c7 45 ec 4b e8 00 40 	movl   $0x4000e84b,-0x14(%ebp)
4000969b:	c7 45 f0 4f e8 00 40 	movl   $0x4000e84f,-0x10(%ebp)
400096a2:	c7 45 a8 53 e8 00 40 	movl   $0x4000e853,-0x58(%ebp)
400096a9:	c7 45 ac 57 e8 00 40 	movl   $0x4000e857,-0x54(%ebp)
400096b0:	c7 45 b0 5b e8 00 40 	movl   $0x4000e85b,-0x50(%ebp)
400096b7:	c7 45 b4 5f e8 00 40 	movl   $0x4000e85f,-0x4c(%ebp)
400096be:	c7 45 b8 63 e8 00 40 	movl   $0x4000e863,-0x48(%ebp)
400096c5:	c7 45 bc 67 e8 00 40 	movl   $0x4000e867,-0x44(%ebp)
400096cc:	c7 45 c0 6b e8 00 40 	movl   $0x4000e86b,-0x40(%ebp)
400096d3:	c7 45 c4 6f e8 00 40 	movl   $0x4000e86f,-0x3c(%ebp)
400096da:	c7 45 c8 73 e8 00 40 	movl   $0x4000e873,-0x38(%ebp)
400096e1:	c7 45 cc 77 e8 00 40 	movl   $0x4000e877,-0x34(%ebp)
400096e8:	c7 45 d0 7b e8 00 40 	movl   $0x4000e87b,-0x30(%ebp)
400096ef:	c7 45 d4 7f e8 00 40 	movl   $0x4000e87f,-0x2c(%ebp)
400096f6:	8b 45 08             	mov    0x8(%ebp),%eax
400096f9:	8b 40 14             	mov    0x14(%eax),%eax
400096fc:	8d 88 6c 07 00 00    	lea    0x76c(%eax),%ecx
40009702:	8b 45 08             	mov    0x8(%ebp),%eax
40009705:	8b 18                	mov    (%eax),%ebx
40009707:	8b 45 08             	mov    0x8(%ebp),%eax
4000970a:	8b 70 04             	mov    0x4(%eax),%esi
4000970d:	8b 45 08             	mov    0x8(%ebp),%eax
40009710:	8b 78 08             	mov    0x8(%eax),%edi
40009713:	8b 45 08             	mov    0x8(%ebp),%eax
40009716:	8b 40 0c             	mov    0xc(%eax),%eax
40009719:	89 45 a0             	mov    %eax,-0x60(%ebp)
4000971c:	8b 45 08             	mov    0x8(%ebp),%eax
4000971f:	8b 40 10             	mov    0x10(%eax),%eax
40009722:	8b 54 85 a8          	mov    -0x58(%ebp,%eax,4),%edx
40009726:	8b 45 08             	mov    0x8(%ebp),%eax
40009729:	8b 40 18             	mov    0x18(%eax),%eax
4000972c:	8b 44 85 d8          	mov    -0x28(%ebp,%eax,4),%eax
40009730:	89 4c 24 20          	mov    %ecx,0x20(%esp)
40009734:	89 5c 24 1c          	mov    %ebx,0x1c(%esp)
40009738:	89 74 24 18          	mov    %esi,0x18(%esp)
4000973c:	89 7c 24 14          	mov    %edi,0x14(%esp)
40009740:	8b 4d a0             	mov    -0x60(%ebp),%ecx
40009743:	89 4c 24 10          	mov    %ecx,0x10(%esp)
40009747:	89 54 24 0c          	mov    %edx,0xc(%esp)
4000974b:	89 44 24 08          	mov    %eax,0x8(%esp)
4000974f:	c7 44 24 04 83 e8 00 	movl   $0x4000e883,0x4(%esp)
40009756:	40 
40009757:	c7 04 24 4c 0b 01 40 	movl   $0x40010b4c,(%esp)
4000975e:	e8 59 37 00 00       	call   4000cebc <sprintf>
40009763:	b8 4c 0b 01 40       	mov    $0x40010b4c,%eax
40009768:	83 c4 7c             	add    $0x7c,%esp
4000976b:	5b                   	pop    %ebx
4000976c:	5e                   	pop    %esi
4000976d:	5f                   	pop    %edi
4000976e:	5d                   	pop    %ebp
4000976f:	c3                   	ret    

40009770 <mktime>:
40009770:	55                   	push   %ebp
40009771:	89 e5                	mov    %esp,%ebp
40009773:	53                   	push   %ebx
40009774:	83 ec 04             	sub    $0x4,%esp
40009777:	8b 45 08             	mov    0x8(%ebp),%eax
4000977a:	8b 18                	mov    (%eax),%ebx
4000977c:	8b 45 08             	mov    0x8(%ebp),%eax
4000977f:	8b 40 08             	mov    0x8(%eax),%eax
40009782:	69 c8 10 0e 00 00    	imul   $0xe10,%eax,%ecx
40009788:	8b 45 08             	mov    0x8(%ebp),%eax
4000978b:	8b 40 04             	mov    0x4(%eax),%eax
4000978e:	8d 14 85 00 00 00 00 	lea    0x0(,%eax,4),%edx
40009795:	89 d0                	mov    %edx,%eax
40009797:	c1 e0 04             	shl    $0x4,%eax
4000979a:	29 d0                	sub    %edx,%eax
4000979c:	8d 04 01             	lea    (%ecx,%eax,1),%eax
4000979f:	8d 0c 03             	lea    (%ebx,%eax,1),%ecx
400097a2:	8b 45 08             	mov    0x8(%ebp),%eax
400097a5:	8b 40 14             	mov    0x14(%eax),%eax
400097a8:	83 e8 46             	sub    $0x46,%eax
400097ab:	69 d0 80 33 e1 01    	imul   $0x1e13380,%eax,%edx
400097b1:	8b 45 08             	mov    0x8(%ebp),%eax
400097b4:	8b 40 1c             	mov    0x1c(%eax),%eax
400097b7:	69 c0 80 51 01 00    	imul   $0x15180,%eax,%eax
400097bd:	8d 04 02             	lea    (%edx,%eax,1),%eax
400097c0:	8d 1c 01             	lea    (%ecx,%eax,1),%ebx
400097c3:	8b 45 08             	mov    0x8(%ebp),%eax
400097c6:	8b 40 14             	mov    0x14(%eax),%eax
400097c9:	8d 48 ff             	lea    -0x1(%eax),%ecx
400097cc:	c7 45 f8 1f 85 eb 51 	movl   $0x51eb851f,-0x8(%ebp)
400097d3:	8b 45 f8             	mov    -0x8(%ebp),%eax
400097d6:	f7 e9                	imul   %ecx
400097d8:	c1 fa 05             	sar    $0x5,%edx
400097db:	89 c8                	mov    %ecx,%eax
400097dd:	c1 f8 1f             	sar    $0x1f,%eax
400097e0:	89 d1                	mov    %edx,%ecx
400097e2:	29 c1                	sub    %eax,%ecx
400097e4:	89 c8                	mov    %ecx,%eax
400097e6:	69 c8 80 ae fe ff    	imul   $0xfffeae80,%eax,%ecx
400097ec:	8b 45 08             	mov    0x8(%ebp),%eax
400097ef:	8b 40 14             	mov    0x14(%eax),%eax
400097f2:	8d 50 bb             	lea    -0x45(%eax),%edx
400097f5:	89 d0                	mov    %edx,%eax
400097f7:	c1 f8 1f             	sar    $0x1f,%eax
400097fa:	c1 e8 1e             	shr    $0x1e,%eax
400097fd:	01 d0                	add    %edx,%eax
400097ff:	c1 f8 02             	sar    $0x2,%eax
40009802:	69 c0 80 51 01 00    	imul   $0x15180,%eax,%eax
40009808:	8d 04 01             	lea    (%ecx,%eax,1),%eax
4000980b:	01 c3                	add    %eax,%ebx
4000980d:	8b 45 08             	mov    0x8(%ebp),%eax
40009810:	8b 40 14             	mov    0x14(%eax),%eax
40009813:	8d 88 2b 01 00 00    	lea    0x12b(%eax),%ecx
40009819:	c7 45 f8 1f 85 eb 51 	movl   $0x51eb851f,-0x8(%ebp)
40009820:	8b 45 f8             	mov    -0x8(%ebp),%eax
40009823:	f7 e9                	imul   %ecx
40009825:	c1 fa 07             	sar    $0x7,%edx
40009828:	89 c8                	mov    %ecx,%eax
4000982a:	c1 f8 1f             	sar    $0x1f,%eax
4000982d:	89 d1                	mov    %edx,%ecx
4000982f:	29 c1                	sub    %eax,%ecx
40009831:	89 c8                	mov    %ecx,%eax
40009833:	69 c0 80 51 01 00    	imul   $0x15180,%eax,%eax
40009839:	8d 04 03             	lea    (%ebx,%eax,1),%eax
4000983c:	83 c4 04             	add    $0x4,%esp
4000983f:	5b                   	pop    %ebx
40009840:	5d                   	pop    %ebp
40009841:	c3                   	ret    

40009842 <time>:
40009842:	55                   	push   %ebp
40009843:	89 e5                	mov    %esp,%ebp
40009845:	83 ec 18             	sub    $0x18,%esp
40009848:	c7 44 24 04 00 00 00 	movl   $0x0,0x4(%esp)
4000984f:	00 
40009850:	8d 45 f8             	lea    -0x8(%ebp),%eax
40009853:	89 04 24             	mov    %eax,(%esp)
40009856:	e8 1a 43 00 00       	call   4000db75 <gettimeofday>
4000985b:	83 7d 08 00          	cmpl   $0x0,0x8(%ebp)
4000985f:	74 08                	je     40009869 <time+0x27>
40009861:	8b 55 f8             	mov    -0x8(%ebp),%edx
40009864:	8b 45 08             	mov    0x8(%ebp),%eax
40009867:	89 10                	mov    %edx,(%eax)
40009869:	8b 45 f8             	mov    -0x8(%ebp),%eax
4000986c:	c9                   	leave  
4000986d:	c3                   	ret    

4000986e <clock>:
4000986e:	55                   	push   %ebp
4000986f:	89 e5                	mov    %esp,%ebp
40009871:	83 ec 08             	sub    $0x8,%esp
40009874:	c7 44 24 04 00 00 00 	movl   $0x0,0x4(%esp)
4000987b:	00 
4000987c:	c7 04 24 49 00 00 00 	movl   $0x49,(%esp)
40009883:	e8 48 31 00 00       	call   4000c9d0 <syscall_call>
40009888:	c9                   	leave  
40009889:	c3                   	ret    
4000988a:	90                   	nop    
4000988b:	90                   	nop    

4000988c <swab>:
4000988c:	55                   	push   %ebp
4000988d:	89 e5                	mov    %esp,%ebp
4000988f:	83 ec 10             	sub    $0x10,%esp
40009892:	8b 55 10             	mov    0x10(%ebp),%edx
40009895:	89 d0                	mov    %edx,%eax
40009897:	c1 f8 1f             	sar    $0x1f,%eax
4000989a:	89 c1                	mov    %eax,%ecx
4000989c:	c1 e9 1f             	shr    $0x1f,%ecx
4000989f:	8d 04 0a             	lea    (%edx,%ecx,1),%eax
400098a2:	83 e0 01             	and    $0x1,%eax
400098a5:	29 c8                	sub    %ecx,%eax
400098a7:	29 45 10             	sub    %eax,0x10(%ebp)
400098aa:	83 7d 10 00          	cmpl   $0x0,0x10(%ebp)
400098ae:	7e 3c                	jle    400098ec <swab+0x60>
400098b0:	8b 45 08             	mov    0x8(%ebp),%eax
400098b3:	89 45 f4             	mov    %eax,-0xc(%ebp)
400098b6:	8b 45 0c             	mov    0xc(%ebp),%eax
400098b9:	89 45 f8             	mov    %eax,-0x8(%ebp)
400098bc:	c7 45 fc 00 00 00 00 	movl   $0x0,-0x4(%ebp)
400098c3:	eb 1f                	jmp    400098e4 <swab+0x58>
400098c5:	8b 45 10             	mov    0x10(%ebp),%eax
400098c8:	2b 45 fc             	sub    -0x4(%ebp),%eax
400098cb:	83 e8 01             	sub    $0x1,%eax
400098ce:	89 c1                	mov    %eax,%ecx
400098d0:	03 4d f8             	add    -0x8(%ebp),%ecx
400098d3:	8b 55 fc             	mov    -0x4(%ebp),%edx
400098d6:	8b 45 f4             	mov    -0xc(%ebp),%eax
400098d9:	01 d0                	add    %edx,%eax
400098db:	0f b6 00             	movzbl (%eax),%eax
400098de:	88 01                	mov    %al,(%ecx)
400098e0:	83 45 fc 01          	addl   $0x1,-0x4(%ebp)
400098e4:	8b 45 10             	mov    0x10(%ebp),%eax
400098e7:	3b 45 fc             	cmp    -0x4(%ebp),%eax
400098ea:	77 d9                	ja     400098c5 <swab+0x39>
400098ec:	c9                   	leave  
400098ed:	c3                   	ret    

400098ee <sleep>:
400098ee:	55                   	push   %ebp
400098ef:	89 e5                	mov    %esp,%ebp
400098f1:	83 ec 18             	sub    $0x18,%esp
400098f4:	8b 45 08             	mov    0x8(%ebp),%eax
400098f7:	89 44 24 08          	mov    %eax,0x8(%esp)
400098fb:	c7 44 24 04 01 00 00 	movl   $0x1,0x4(%esp)
40009902:	00 
40009903:	c7 04 24 47 00 00 00 	movl   $0x47,(%esp)
4000990a:	e8 c1 30 00 00       	call   4000c9d0 <syscall_call>
4000990f:	8b 45 08             	mov    0x8(%ebp),%eax
40009912:	c9                   	leave  
40009913:	c3                   	ret    

40009914 <usleep>:
40009914:	55                   	push   %ebp
40009915:	89 e5                	mov    %esp,%ebp
40009917:	83 ec 18             	sub    $0x18,%esp
4000991a:	81 7d 08 3f 42 0f 00 	cmpl   $0xf423f,0x8(%ebp)
40009921:	77 24                	ja     40009947 <usleep+0x33>
40009923:	8b 45 08             	mov    0x8(%ebp),%eax
40009926:	89 44 24 08          	mov    %eax,0x8(%esp)
4000992a:	c7 44 24 04 01 00 00 	movl   $0x1,0x4(%esp)
40009931:	00 
40009932:	c7 04 24 48 00 00 00 	movl   $0x48,(%esp)
40009939:	e8 92 30 00 00       	call   4000c9d0 <syscall_call>
4000993e:	c7 45 fc 00 00 00 00 	movl   $0x0,-0x4(%ebp)
40009945:	eb 11                	jmp    40009958 <usleep+0x44>
40009947:	c7 05 10 1c 01 40 1c 	movl   $0x1c,0x40011c10
4000994e:	00 00 00 
40009951:	c7 45 fc ff ff ff ff 	movl   $0xffffffff,-0x4(%ebp)
40009958:	8b 45 fc             	mov    -0x4(%ebp),%eax
4000995b:	c9                   	leave  
4000995c:	c3                   	ret    

4000995d <alarm>:
4000995d:	55                   	push   %ebp
4000995e:	89 e5                	mov    %esp,%ebp
40009960:	b8 00 00 00 00       	mov    $0x0,%eax
40009965:	5d                   	pop    %ebp
40009966:	c3                   	ret    

40009967 <ualarm>:
40009967:	55                   	push   %ebp
40009968:	89 e5                	mov    %esp,%ebp
4000996a:	b8 00 00 00 00       	mov    $0x0,%eax
4000996f:	5d                   	pop    %ebp
40009970:	c3                   	ret    

40009971 <getlogin>:
40009971:	55                   	push   %ebp
40009972:	89 e5                	mov    %esp,%ebp
40009974:	83 ec 28             	sub    $0x28,%esp
40009977:	c7 44 24 04 00 00 00 	movl   $0x0,0x4(%esp)
4000997e:	00 
4000997f:	c7 04 24 28 00 00 00 	movl   $0x28,(%esp)
40009986:	e8 45 30 00 00       	call   4000c9d0 <syscall_call>
4000998b:	89 04 24             	mov    %eax,(%esp)
4000998e:	e8 94 34 00 00       	call   4000ce27 <getpwuid>
40009993:	89 45 fc             	mov    %eax,-0x4(%ebp)
40009996:	83 7d fc 00          	cmpl   $0x0,-0x4(%ebp)
4000999a:	75 09                	jne    400099a5 <getlogin+0x34>
4000999c:	c7 45 ec 00 00 00 00 	movl   $0x0,-0x14(%ebp)
400099a3:	eb 08                	jmp    400099ad <getlogin+0x3c>
400099a5:	8b 45 fc             	mov    -0x4(%ebp),%eax
400099a8:	8b 00                	mov    (%eax),%eax
400099aa:	89 45 ec             	mov    %eax,-0x14(%ebp)
400099ad:	8b 45 ec             	mov    -0x14(%ebp),%eax
400099b0:	c9                   	leave  
400099b1:	c3                   	ret    
400099b2:	90                   	nop    
400099b3:	90                   	nop    

400099b4 <vfprintf>:
400099b4:	55                   	push   %ebp
400099b5:	89 e5                	mov    %esp,%ebp
400099b7:	81 ec 28 08 00 00    	sub    $0x828,%esp
400099bd:	8b 45 10             	mov    0x10(%ebp),%eax
400099c0:	89 44 24 0c          	mov    %eax,0xc(%esp)
400099c4:	8b 45 0c             	mov    0xc(%ebp),%eax
400099c7:	89 44 24 08          	mov    %eax,0x8(%esp)
400099cb:	c7 44 24 04 00 08 00 	movl   $0x800,0x4(%esp)
400099d2:	00 
400099d3:	8d 85 fc f7 ff ff    	lea    -0x804(%ebp),%eax
400099d9:	89 04 24             	mov    %eax,(%esp)
400099dc:	e8 e8 03 00 00       	call   40009dc9 <vsnprintf>
400099e1:	89 45 fc             	mov    %eax,-0x4(%ebp)
400099e4:	83 7d fc 00          	cmpl   $0x0,-0x4(%ebp)
400099e8:	79 0b                	jns    400099f5 <vfprintf+0x41>
400099ea:	8b 45 fc             	mov    -0x4(%ebp),%eax
400099ed:	89 85 ec f7 ff ff    	mov    %eax,-0x814(%ebp)
400099f3:	eb 32                	jmp    40009a27 <vfprintf+0x73>
400099f5:	81 7d fc ff 07 00 00 	cmpl   $0x7ff,-0x4(%ebp)
400099fc:	7e 07                	jle    40009a05 <vfprintf+0x51>
400099fe:	c7 45 fc ff 07 00 00 	movl   $0x7ff,-0x4(%ebp)
40009a05:	8b 55 fc             	mov    -0x4(%ebp),%edx
40009a08:	8b 45 08             	mov    0x8(%ebp),%eax
40009a0b:	89 44 24 08          	mov    %eax,0x8(%esp)
40009a0f:	89 54 24 04          	mov    %edx,0x4(%esp)
40009a13:	8d 85 fc f7 ff ff    	lea    -0x804(%ebp),%eax
40009a19:	89 04 24             	mov    %eax,(%esp)
40009a1c:	e8 bd 39 00 00       	call   4000d3de <_fwrite>
40009a21:	89 85 ec f7 ff ff    	mov    %eax,-0x814(%ebp)
40009a27:	8b 85 ec f7 ff ff    	mov    -0x814(%ebp),%eax
40009a2d:	c9                   	leave  
40009a2e:	c3                   	ret    
40009a2f:	90                   	nop    

40009a30 <format_int>:
40009a30:	55                   	push   %ebp
40009a31:	89 e5                	mov    %esp,%ebp
40009a33:	53                   	push   %ebx
40009a34:	83 ec 64             	sub    $0x64,%esp
40009a37:	8b 45 10             	mov    0x10(%ebp),%eax
40009a3a:	89 45 c0             	mov    %eax,-0x40(%ebp)
40009a3d:	8b 45 14             	mov    0x14(%ebp),%eax
40009a40:	89 45 c4             	mov    %eax,-0x3c(%ebp)
40009a43:	c7 45 cc 00 00 00 00 	movl   $0x0,-0x34(%ebp)
40009a4a:	c7 45 e4 00 00 00 00 	movl   $0x0,-0x1c(%ebp)
40009a51:	c7 45 e8 00 00 00 00 	movl   $0x0,-0x18(%ebp)
40009a58:	8b 45 18             	mov    0x18(%ebp),%eax
40009a5b:	25 80 00 00 00       	and    $0x80,%eax
40009a60:	85 c0                	test   %eax,%eax
40009a62:	74 09                	je     40009a6d <format_int+0x3d>
40009a64:	c7 45 b4 a0 e8 00 40 	movl   $0x4000e8a0,-0x4c(%ebp)
40009a6b:	eb 07                	jmp    40009a74 <format_int+0x44>
40009a6d:	c7 45 b4 b1 e8 00 40 	movl   $0x4000e8b1,-0x4c(%ebp)
40009a74:	8b 45 b4             	mov    -0x4c(%ebp),%eax
40009a77:	89 45 d4             	mov    %eax,-0x2c(%ebp)
40009a7a:	8b 45 18             	mov    0x18(%ebp),%eax
40009a7d:	83 e0 40             	and    $0x40,%eax
40009a80:	85 c0                	test   %eax,%eax
40009a82:	74 24                	je     40009aa8 <format_int+0x78>
40009a84:	8b 45 c0             	mov    -0x40(%ebp),%eax
40009a87:	8b 55 c4             	mov    -0x3c(%ebp),%edx
40009a8a:	85 d2                	test   %edx,%edx
40009a8c:	79 1a                	jns    40009aa8 <format_int+0x78>
40009a8e:	c7 45 e4 01 00 00 00 	movl   $0x1,-0x1c(%ebp)
40009a95:	8b 45 c0             	mov    -0x40(%ebp),%eax
40009a98:	8b 55 c4             	mov    -0x3c(%ebp),%edx
40009a9b:	f7 d8                	neg    %eax
40009a9d:	83 d2 00             	adc    $0x0,%edx
40009aa0:	f7 da                	neg    %edx
40009aa2:	89 45 c0             	mov    %eax,-0x40(%ebp)
40009aa5:	89 55 c4             	mov    %edx,-0x3c(%ebp)
40009aa8:	8b 45 c0             	mov    -0x40(%ebp),%eax
40009aab:	8b 55 c4             	mov    -0x3c(%ebp),%edx
40009aae:	89 45 d8             	mov    %eax,-0x28(%ebp)
40009ab1:	89 55 dc             	mov    %edx,-0x24(%ebp)
40009ab4:	eb 2c                	jmp    40009ae2 <format_int+0xb2>
40009ab6:	8b 45 1c             	mov    0x1c(%ebp),%eax
40009ab9:	89 c2                	mov    %eax,%edx
40009abb:	c1 fa 1f             	sar    $0x1f,%edx
40009abe:	89 44 24 08          	mov    %eax,0x8(%esp)
40009ac2:	89 54 24 0c          	mov    %edx,0xc(%esp)
40009ac6:	8b 45 d8             	mov    -0x28(%ebp),%eax
40009ac9:	8b 55 dc             	mov    -0x24(%ebp),%edx
40009acc:	89 04 24             	mov    %eax,(%esp)
40009acf:	89 54 24 04          	mov    %edx,0x4(%esp)
40009ad3:	e8 a8 47 00 00       	call   4000e280 <__udivdi3>
40009ad8:	89 45 d8             	mov    %eax,-0x28(%ebp)
40009adb:	89 55 dc             	mov    %edx,-0x24(%ebp)
40009ade:	83 45 e8 01          	addl   $0x1,-0x18(%ebp)
40009ae2:	8b 45 d8             	mov    -0x28(%ebp),%eax
40009ae5:	8b 55 dc             	mov    -0x24(%ebp),%edx
40009ae8:	09 d0                	or     %edx,%eax
40009aea:	85 c0                	test   %eax,%eax
40009aec:	75 c8                	jne    40009ab6 <format_int+0x86>
40009aee:	8b 45 18             	mov    0x18(%ebp),%eax
40009af1:	83 e0 20             	and    $0x20,%eax
40009af4:	85 c0                	test   %eax,%eax
40009af6:	74 1a                	je     40009b12 <format_int+0xe2>
40009af8:	83 7d 1c 08          	cmpl   $0x8,0x1c(%ebp)
40009afc:	75 14                	jne    40009b12 <format_int+0xe2>
40009afe:	8b 45 e8             	mov    -0x18(%ebp),%eax
40009b01:	83 c0 01             	add    $0x1,%eax
40009b04:	3b 45 24             	cmp    0x24(%ebp),%eax
40009b07:	7e 09                	jle    40009b12 <format_int+0xe2>
40009b09:	8b 45 e8             	mov    -0x18(%ebp),%eax
40009b0c:	83 c0 01             	add    $0x1,%eax
40009b0f:	89 45 24             	mov    %eax,0x24(%ebp)
40009b12:	8b 45 e8             	mov    -0x18(%ebp),%eax
40009b15:	3b 45 24             	cmp    0x24(%ebp),%eax
40009b18:	7d 08                	jge    40009b22 <format_int+0xf2>
40009b1a:	8b 45 24             	mov    0x24(%ebp),%eax
40009b1d:	89 45 e8             	mov    %eax,-0x18(%ebp)
40009b20:	eb 13                	jmp    40009b35 <format_int+0x105>
40009b22:	8b 45 c0             	mov    -0x40(%ebp),%eax
40009b25:	8b 55 c4             	mov    -0x3c(%ebp),%edx
40009b28:	09 d0                	or     %edx,%eax
40009b2a:	85 c0                	test   %eax,%eax
40009b2c:	75 07                	jne    40009b35 <format_int+0x105>
40009b2e:	c7 45 e8 01 00 00 00 	movl   $0x1,-0x18(%ebp)
40009b35:	8b 45 18             	mov    0x18(%ebp),%eax
40009b38:	83 e0 08             	and    $0x8,%eax
40009b3b:	85 c0                	test   %eax,%eax
40009b3d:	74 1e                	je     40009b5d <format_int+0x12d>
40009b3f:	83 7d 1c 10          	cmpl   $0x10,0x1c(%ebp)
40009b43:	75 09                	jne    40009b4e <format_int+0x11e>
40009b45:	c7 45 b8 04 00 00 00 	movl   $0x4,-0x48(%ebp)
40009b4c:	eb 07                	jmp    40009b55 <format_int+0x125>
40009b4e:	c7 45 b8 03 00 00 00 	movl   $0x3,-0x48(%ebp)
40009b55:	8b 55 b8             	mov    -0x48(%ebp),%edx
40009b58:	89 55 f0             	mov    %edx,-0x10(%ebp)
40009b5b:	eb 06                	jmp    40009b63 <format_int+0x133>
40009b5d:	8b 45 e8             	mov    -0x18(%ebp),%eax
40009b60:	89 45 f0             	mov    %eax,-0x10(%ebp)
40009b63:	8b 45 e8             	mov    -0x18(%ebp),%eax
40009b66:	83 e8 01             	sub    $0x1,%eax
40009b69:	89 45 ac             	mov    %eax,-0x54(%ebp)
40009b6c:	8b 55 ac             	mov    -0x54(%ebp),%edx
40009b6f:	89 d0                	mov    %edx,%eax
40009b71:	c1 fa 1f             	sar    $0x1f,%edx
40009b74:	f7 7d f0             	idivl  -0x10(%ebp)
40009b77:	01 45 e8             	add    %eax,-0x18(%ebp)
40009b7a:	8b 45 e8             	mov    -0x18(%ebp),%eax
40009b7d:	89 45 ec             	mov    %eax,-0x14(%ebp)
40009b80:	83 7d e4 00          	cmpl   $0x0,-0x1c(%ebp)
40009b84:	75 0a                	jne    40009b90 <format_int+0x160>
40009b86:	8b 45 18             	mov    0x18(%ebp),%eax
40009b89:	83 e0 14             	and    $0x14,%eax
40009b8c:	85 c0                	test   %eax,%eax
40009b8e:	74 04                	je     40009b94 <format_int+0x164>
40009b90:	83 45 ec 01          	addl   $0x1,-0x14(%ebp)
40009b94:	8b 45 18             	mov    0x18(%ebp),%eax
40009b97:	83 e0 20             	and    $0x20,%eax
40009b9a:	85 c0                	test   %eax,%eax
40009b9c:	74 0a                	je     40009ba8 <format_int+0x178>
40009b9e:	83 7d 1c 10          	cmpl   $0x10,0x1c(%ebp)
40009ba2:	75 04                	jne    40009ba8 <format_int+0x178>
40009ba4:	83 45 ec 02          	addl   $0x2,-0x14(%ebp)
40009ba8:	8b 45 18             	mov    0x18(%ebp),%eax
40009bab:	83 e0 03             	and    $0x3,%eax
40009bae:	85 c0                	test   %eax,%eax
40009bb0:	75 2c                	jne    40009bde <format_int+0x1ae>
40009bb2:	8b 45 20             	mov    0x20(%ebp),%eax
40009bb5:	3b 45 ec             	cmp    -0x14(%ebp),%eax
40009bb8:	7e 24                	jle    40009bde <format_int+0x1ae>
40009bba:	eb 1a                	jmp    40009bd6 <format_int+0x1a6>
40009bbc:	8b 45 cc             	mov    -0x34(%ebp),%eax
40009bbf:	3b 45 0c             	cmp    0xc(%ebp),%eax
40009bc2:	73 0a                	jae    40009bce <format_int+0x19e>
40009bc4:	8b 45 08             	mov    0x8(%ebp),%eax
40009bc7:	c6 00 20             	movb   $0x20,(%eax)
40009bca:	83 45 08 01          	addl   $0x1,0x8(%ebp)
40009bce:	83 45 cc 01          	addl   $0x1,-0x34(%ebp)
40009bd2:	83 6d 20 01          	subl   $0x1,0x20(%ebp)
40009bd6:	8b 45 20             	mov    0x20(%ebp),%eax
40009bd9:	3b 45 ec             	cmp    -0x14(%ebp),%eax
40009bdc:	7f de                	jg     40009bbc <format_int+0x18c>
40009bde:	83 7d e4 00          	cmpl   $0x0,-0x1c(%ebp)
40009be2:	74 18                	je     40009bfc <format_int+0x1cc>
40009be4:	8b 45 cc             	mov    -0x34(%ebp),%eax
40009be7:	3b 45 0c             	cmp    0xc(%ebp),%eax
40009bea:	73 0a                	jae    40009bf6 <format_int+0x1c6>
40009bec:	8b 45 08             	mov    0x8(%ebp),%eax
40009bef:	c6 00 2d             	movb   $0x2d,(%eax)
40009bf2:	83 45 08 01          	addl   $0x1,0x8(%ebp)
40009bf6:	83 45 cc 01          	addl   $0x1,-0x34(%ebp)
40009bfa:	eb 42                	jmp    40009c3e <format_int+0x20e>
40009bfc:	8b 45 18             	mov    0x18(%ebp),%eax
40009bff:	83 e0 04             	and    $0x4,%eax
40009c02:	85 c0                	test   %eax,%eax
40009c04:	74 18                	je     40009c1e <format_int+0x1ee>
40009c06:	8b 45 cc             	mov    -0x34(%ebp),%eax
40009c09:	3b 45 0c             	cmp    0xc(%ebp),%eax
40009c0c:	73 0a                	jae    40009c18 <format_int+0x1e8>
40009c0e:	8b 45 08             	mov    0x8(%ebp),%eax
40009c11:	c6 00 2b             	movb   $0x2b,(%eax)
40009c14:	83 45 08 01          	addl   $0x1,0x8(%ebp)
40009c18:	83 45 cc 01          	addl   $0x1,-0x34(%ebp)
40009c1c:	eb 20                	jmp    40009c3e <format_int+0x20e>
40009c1e:	8b 45 18             	mov    0x18(%ebp),%eax
40009c21:	83 e0 10             	and    $0x10,%eax
40009c24:	85 c0                	test   %eax,%eax
40009c26:	74 16                	je     40009c3e <format_int+0x20e>
40009c28:	8b 45 cc             	mov    -0x34(%ebp),%eax
40009c2b:	3b 45 0c             	cmp    0xc(%ebp),%eax
40009c2e:	73 0a                	jae    40009c3a <format_int+0x20a>
40009c30:	8b 45 08             	mov    0x8(%ebp),%eax
40009c33:	c6 00 20             	movb   $0x20,(%eax)
40009c36:	83 45 08 01          	addl   $0x1,0x8(%ebp)
40009c3a:	83 45 cc 01          	addl   $0x1,-0x34(%ebp)
40009c3e:	8b 45 18             	mov    0x18(%ebp),%eax
40009c41:	83 e0 20             	and    $0x20,%eax
40009c44:	85 c0                	test   %eax,%eax
40009c46:	74 4b                	je     40009c93 <format_int+0x263>
40009c48:	83 7d 1c 10          	cmpl   $0x10,0x1c(%ebp)
40009c4c:	75 45                	jne    40009c93 <format_int+0x263>
40009c4e:	8b 45 cc             	mov    -0x34(%ebp),%eax
40009c51:	3b 45 0c             	cmp    0xc(%ebp),%eax
40009c54:	73 0a                	jae    40009c60 <format_int+0x230>
40009c56:	8b 45 08             	mov    0x8(%ebp),%eax
40009c59:	c6 00 30             	movb   $0x30,(%eax)
40009c5c:	83 45 08 01          	addl   $0x1,0x8(%ebp)
40009c60:	83 45 cc 01          	addl   $0x1,-0x34(%ebp)
40009c64:	8b 45 cc             	mov    -0x34(%ebp),%eax
40009c67:	3b 45 0c             	cmp    0xc(%ebp),%eax
40009c6a:	73 23                	jae    40009c8f <format_int+0x25f>
40009c6c:	8b 45 18             	mov    0x18(%ebp),%eax
40009c6f:	25 80 00 00 00       	and    $0x80,%eax
40009c74:	85 c0                	test   %eax,%eax
40009c76:	74 06                	je     40009c7e <format_int+0x24e>
40009c78:	c6 45 bf 58          	movb   $0x58,-0x41(%ebp)
40009c7c:	eb 04                	jmp    40009c82 <format_int+0x252>
40009c7e:	c6 45 bf 78          	movb   $0x78,-0x41(%ebp)
40009c82:	8b 45 08             	mov    0x8(%ebp),%eax
40009c85:	0f b6 55 bf          	movzbl -0x41(%ebp),%edx
40009c89:	88 10                	mov    %dl,(%eax)
40009c8b:	83 45 08 01          	addl   $0x1,0x8(%ebp)
40009c8f:	83 45 cc 01          	addl   $0x1,-0x34(%ebp)
40009c93:	8b 45 18             	mov    0x18(%ebp),%eax
40009c96:	83 e0 03             	and    $0x3,%eax
40009c99:	83 f8 01             	cmp    $0x1,%eax
40009c9c:	75 2c                	jne    40009cca <format_int+0x29a>
40009c9e:	8b 45 20             	mov    0x20(%ebp),%eax
40009ca1:	3b 45 e8             	cmp    -0x18(%ebp),%eax
40009ca4:	7e 24                	jle    40009cca <format_int+0x29a>
40009ca6:	eb 1a                	jmp    40009cc2 <format_int+0x292>
40009ca8:	8b 45 cc             	mov    -0x34(%ebp),%eax
40009cab:	3b 45 0c             	cmp    0xc(%ebp),%eax
40009cae:	73 0a                	jae    40009cba <format_int+0x28a>
40009cb0:	8b 45 08             	mov    0x8(%ebp),%eax
40009cb3:	c6 00 30             	movb   $0x30,(%eax)
40009cb6:	83 45 08 01          	addl   $0x1,0x8(%ebp)
40009cba:	83 45 cc 01          	addl   $0x1,-0x34(%ebp)
40009cbe:	83 6d 20 01          	subl   $0x1,0x20(%ebp)
40009cc2:	8b 45 20             	mov    0x20(%ebp),%eax
40009cc5:	3b 45 ec             	cmp    -0x14(%ebp),%eax
40009cc8:	7f de                	jg     40009ca8 <format_int+0x278>
40009cca:	8b 45 e8             	mov    -0x18(%ebp),%eax
40009ccd:	01 45 08             	add    %eax,0x8(%ebp)
40009cd0:	8b 45 e8             	mov    -0x18(%ebp),%eax
40009cd3:	01 45 cc             	add    %eax,-0x34(%ebp)
40009cd6:	8b 45 08             	mov    0x8(%ebp),%eax
40009cd9:	89 45 c8             	mov    %eax,-0x38(%ebp)
40009cdc:	8b 45 cc             	mov    -0x34(%ebp),%eax
40009cdf:	89 45 d0             	mov    %eax,-0x30(%ebp)
40009ce2:	8b 45 f0             	mov    -0x10(%ebp),%eax
40009ce5:	89 45 f4             	mov    %eax,-0xc(%ebp)
40009ce8:	e9 9b 00 00 00       	jmp    40009d88 <format_int+0x358>
40009ced:	83 7d f4 00          	cmpl   $0x0,-0xc(%ebp)
40009cf1:	0f 94 c0             	sete   %al
40009cf4:	83 6d f4 01          	subl   $0x1,-0xc(%ebp)
40009cf8:	84 c0                	test   %al,%al
40009cfa:	74 23                	je     40009d1f <format_int+0x2ef>
40009cfc:	83 6d c8 01          	subl   $0x1,-0x38(%ebp)
40009d00:	83 6d d0 01          	subl   $0x1,-0x30(%ebp)
40009d04:	83 6d e8 01          	subl   $0x1,-0x18(%ebp)
40009d08:	8b 45 d0             	mov    -0x30(%ebp),%eax
40009d0b:	3b 45 0c             	cmp    0xc(%ebp),%eax
40009d0e:	73 06                	jae    40009d16 <format_int+0x2e6>
40009d10:	8b 45 c8             	mov    -0x38(%ebp),%eax
40009d13:	c6 00 5f             	movb   $0x5f,(%eax)
40009d16:	8b 45 f0             	mov    -0x10(%ebp),%eax
40009d19:	83 e8 01             	sub    $0x1,%eax
40009d1c:	89 45 f4             	mov    %eax,-0xc(%ebp)
40009d1f:	83 6d c8 01          	subl   $0x1,-0x38(%ebp)
40009d23:	83 6d d0 01          	subl   $0x1,-0x30(%ebp)
40009d27:	83 6d e8 01          	subl   $0x1,-0x18(%ebp)
40009d2b:	8b 45 d0             	mov    -0x30(%ebp),%eax
40009d2e:	3b 45 0c             	cmp    0xc(%ebp),%eax
40009d31:	73 2d                	jae    40009d60 <format_int+0x330>
40009d33:	8b 45 1c             	mov    0x1c(%ebp),%eax
40009d36:	89 c2                	mov    %eax,%edx
40009d38:	c1 fa 1f             	sar    $0x1f,%edx
40009d3b:	8b 4d c0             	mov    -0x40(%ebp),%ecx
40009d3e:	8b 5d c4             	mov    -0x3c(%ebp),%ebx
40009d41:	89 44 24 08          	mov    %eax,0x8(%esp)
40009d45:	89 54 24 0c          	mov    %edx,0xc(%esp)
40009d49:	89 0c 24             	mov    %ecx,(%esp)
40009d4c:	89 5c 24 04          	mov    %ebx,0x4(%esp)
40009d50:	e8 8b 46 00 00       	call   4000e3e0 <__umoddi3>
40009d55:	03 45 d4             	add    -0x2c(%ebp),%eax
40009d58:	0f b6 10             	movzbl (%eax),%edx
40009d5b:	8b 45 c8             	mov    -0x38(%ebp),%eax
40009d5e:	88 10                	mov    %dl,(%eax)
40009d60:	8b 45 1c             	mov    0x1c(%ebp),%eax
40009d63:	89 c2                	mov    %eax,%edx
40009d65:	c1 fa 1f             	sar    $0x1f,%edx
40009d68:	89 44 24 08          	mov    %eax,0x8(%esp)
40009d6c:	89 54 24 0c          	mov    %edx,0xc(%esp)
40009d70:	8b 45 c0             	mov    -0x40(%ebp),%eax
40009d73:	8b 55 c4             	mov    -0x3c(%ebp),%edx
40009d76:	89 04 24             	mov    %eax,(%esp)
40009d79:	89 54 24 04          	mov    %edx,0x4(%esp)
40009d7d:	e8 fe 44 00 00       	call   4000e280 <__udivdi3>
40009d82:	89 45 c0             	mov    %eax,-0x40(%ebp)
40009d85:	89 55 c4             	mov    %edx,-0x3c(%ebp)
40009d88:	83 7d e8 00          	cmpl   $0x0,-0x18(%ebp)
40009d8c:	0f 8f 5b ff ff ff    	jg     40009ced <format_int+0x2bd>
40009d92:	eb 1a                	jmp    40009dae <format_int+0x37e>
40009d94:	8b 45 cc             	mov    -0x34(%ebp),%eax
40009d97:	3b 45 0c             	cmp    0xc(%ebp),%eax
40009d9a:	73 0a                	jae    40009da6 <format_int+0x376>
40009d9c:	8b 45 08             	mov    0x8(%ebp),%eax
40009d9f:	c6 00 20             	movb   $0x20,(%eax)
40009da2:	83 45 08 01          	addl   $0x1,0x8(%ebp)
40009da6:	83 45 cc 01          	addl   $0x1,-0x34(%ebp)
40009daa:	83 6d 20 01          	subl   $0x1,0x20(%ebp)
40009dae:	8b 45 18             	mov    0x18(%ebp),%eax
40009db1:	83 e0 02             	and    $0x2,%eax
40009db4:	85 c0                	test   %eax,%eax
40009db6:	74 08                	je     40009dc0 <format_int+0x390>
40009db8:	8b 45 20             	mov    0x20(%ebp),%eax
40009dbb:	3b 45 ec             	cmp    -0x14(%ebp),%eax
40009dbe:	7f d4                	jg     40009d94 <format_int+0x364>
40009dc0:	8b 45 cc             	mov    -0x34(%ebp),%eax
40009dc3:	83 c4 64             	add    $0x64,%esp
40009dc6:	5b                   	pop    %ebx
40009dc7:	5d                   	pop    %ebp
40009dc8:	c3                   	ret    

40009dc9 <vsnprintf>:
40009dc9:	55                   	push   %ebp
40009dca:	89 e5                	mov    %esp,%ebp
40009dcc:	81 ec 98 00 00 00    	sub    $0x98,%esp
40009dd2:	8b 45 10             	mov    0x10(%ebp),%eax
40009dd5:	89 45 b8             	mov    %eax,-0x48(%ebp)
40009dd8:	8b 45 08             	mov    0x8(%ebp),%eax
40009ddb:	89 45 c0             	mov    %eax,-0x40(%ebp)
40009dde:	c7 45 c4 00 00 00 00 	movl   $0x0,-0x3c(%ebp)
40009de5:	c7 45 c8 00 00 00 00 	movl   $0x0,-0x38(%ebp)
40009dec:	c7 45 cc 00 00 00 00 	movl   $0x0,-0x34(%ebp)
40009df3:	c7 45 d0 00 00 00 00 	movl   $0x0,-0x30(%ebp)
40009dfa:	c7 45 d4 00 00 00 00 	movl   $0x0,-0x2c(%ebp)
40009e01:	c7 45 d8 ff ff ff ff 	movl   $0xffffffff,-0x28(%ebp)
40009e08:	c7 45 e4 00 00 00 00 	movl   $0x0,-0x1c(%ebp)
40009e0f:	c7 45 e8 00 00 00 00 	movl   $0x0,-0x18(%ebp)
40009e16:	e9 69 06 00 00       	jmp    4000a484 <vsnprintf+0x6bb>
40009e1b:	83 7d e8 04          	cmpl   $0x4,-0x18(%ebp)
40009e1f:	0f 87 5f 06 00 00    	ja     4000a484 <vsnprintf+0x6bb>
40009e25:	8b 45 e8             	mov    -0x18(%ebp),%eax
40009e28:	c1 e0 02             	shl    $0x2,%eax
40009e2b:	8b 80 cc e8 00 40    	mov    0x4000e8cc(%eax),%eax
40009e31:	ff e0                	jmp    *%eax
40009e33:	80 7d bf 25          	cmpb   $0x25,-0x41(%ebp)
40009e37:	75 28                	jne    40009e61 <vsnprintf+0x98>
40009e39:	c7 45 e8 01 00 00 00 	movl   $0x1,-0x18(%ebp)
40009e40:	c7 45 e4 00 00 00 00 	movl   $0x0,-0x1c(%ebp)
40009e47:	c7 45 d0 00 00 00 00 	movl   $0x0,-0x30(%ebp)
40009e4e:	c7 45 d4 00 00 00 00 	movl   $0x0,-0x2c(%ebp)
40009e55:	c7 45 d8 ff ff ff ff 	movl   $0xffffffff,-0x28(%ebp)
40009e5c:	e9 23 06 00 00       	jmp    4000a484 <vsnprintf+0x6bb>
40009e61:	8b 45 c4             	mov    -0x3c(%ebp),%eax
40009e64:	3b 45 0c             	cmp    0xc(%ebp),%eax
40009e67:	73 0d                	jae    40009e76 <vsnprintf+0xad>
40009e69:	8b 55 c0             	mov    -0x40(%ebp),%edx
40009e6c:	0f b6 45 bf          	movzbl -0x41(%ebp),%eax
40009e70:	88 02                	mov    %al,(%edx)
40009e72:	83 45 c0 01          	addl   $0x1,-0x40(%ebp)
40009e76:	83 45 c4 01          	addl   $0x1,-0x3c(%ebp)
40009e7a:	e9 05 06 00 00       	jmp    4000a484 <vsnprintf+0x6bb>
40009e7f:	0f be 45 bf          	movsbl -0x41(%ebp),%eax
40009e83:	83 e8 20             	sub    $0x20,%eax
40009e86:	89 45 a0             	mov    %eax,-0x60(%ebp)
40009e89:	83 7d a0 10          	cmpl   $0x10,-0x60(%ebp)
40009e8d:	77 42                	ja     40009ed1 <vsnprintf+0x108>
40009e8f:	8b 55 a0             	mov    -0x60(%ebp),%edx
40009e92:	8b 04 95 e0 e8 00 40 	mov    0x4000e8e0(,%edx,4),%eax
40009e99:	ff e0                	jmp    *%eax
40009e9b:	83 4d e4 02          	orl    $0x2,-0x1c(%ebp)
40009e9f:	e9 e0 05 00 00       	jmp    4000a484 <vsnprintf+0x6bb>
40009ea4:	83 4d e4 04          	orl    $0x4,-0x1c(%ebp)
40009ea8:	e9 d7 05 00 00       	jmp    4000a484 <vsnprintf+0x6bb>
40009ead:	83 4d e4 08          	orl    $0x8,-0x1c(%ebp)
40009eb1:	e9 ce 05 00 00       	jmp    4000a484 <vsnprintf+0x6bb>
40009eb6:	83 4d e4 10          	orl    $0x10,-0x1c(%ebp)
40009eba:	e9 c5 05 00 00       	jmp    4000a484 <vsnprintf+0x6bb>
40009ebf:	83 4d e4 20          	orl    $0x20,-0x1c(%ebp)
40009ec3:	e9 bc 05 00 00       	jmp    4000a484 <vsnprintf+0x6bb>
40009ec8:	83 4d e4 01          	orl    $0x1,-0x1c(%ebp)
40009ecc:	e9 b3 05 00 00       	jmp    4000a484 <vsnprintf+0x6bb>
40009ed1:	c7 45 e8 02 00 00 00 	movl   $0x2,-0x18(%ebp)
40009ed8:	83 6d b8 01          	subl   $0x1,-0x48(%ebp)
40009edc:	e9 a3 05 00 00       	jmp    4000a484 <vsnprintf+0x6bb>
40009ee1:	80 7d bf 2f          	cmpb   $0x2f,-0x41(%ebp)
40009ee5:	7e 26                	jle    40009f0d <vsnprintf+0x144>
40009ee7:	80 7d bf 39          	cmpb   $0x39,-0x41(%ebp)
40009eeb:	7f 20                	jg     40009f0d <vsnprintf+0x144>
40009eed:	8b 55 d4             	mov    -0x2c(%ebp),%edx
40009ef0:	89 d0                	mov    %edx,%eax
40009ef2:	c1 e0 02             	shl    $0x2,%eax
40009ef5:	01 d0                	add    %edx,%eax
40009ef7:	01 c0                	add    %eax,%eax
40009ef9:	89 c2                	mov    %eax,%edx
40009efb:	0f be 45 bf          	movsbl -0x41(%ebp),%eax
40009eff:	83 e8 30             	sub    $0x30,%eax
40009f02:	8d 04 02             	lea    (%edx,%eax,1),%eax
40009f05:	89 45 d4             	mov    %eax,-0x2c(%ebp)
40009f08:	e9 77 05 00 00       	jmp    4000a484 <vsnprintf+0x6bb>
40009f0d:	80 7d bf 2a          	cmpb   $0x2a,-0x41(%ebp)
40009f11:	75 26                	jne    40009f39 <vsnprintf+0x170>
40009f13:	8b 55 14             	mov    0x14(%ebp),%edx
40009f16:	8d 42 04             	lea    0x4(%edx),%eax
40009f19:	89 45 14             	mov    %eax,0x14(%ebp)
40009f1c:	89 d0                	mov    %edx,%eax
40009f1e:	8b 00                	mov    (%eax),%eax
40009f20:	89 45 d4             	mov    %eax,-0x2c(%ebp)
40009f23:	83 7d d4 00          	cmpl   $0x0,-0x2c(%ebp)
40009f27:	0f 89 57 05 00 00    	jns    4000a484 <vsnprintf+0x6bb>
40009f2d:	f7 5d d4             	negl   -0x2c(%ebp)
40009f30:	83 4d e4 02          	orl    $0x2,-0x1c(%ebp)
40009f34:	e9 4b 05 00 00       	jmp    4000a484 <vsnprintf+0x6bb>
40009f39:	80 7d bf 2e          	cmpb   $0x2e,-0x41(%ebp)
40009f3d:	75 13                	jne    40009f52 <vsnprintf+0x189>
40009f3f:	c7 45 d8 00 00 00 00 	movl   $0x0,-0x28(%ebp)
40009f46:	c7 45 e8 03 00 00 00 	movl   $0x3,-0x18(%ebp)
40009f4d:	e9 32 05 00 00       	jmp    4000a484 <vsnprintf+0x6bb>
40009f52:	c7 45 e8 04 00 00 00 	movl   $0x4,-0x18(%ebp)
40009f59:	83 6d b8 01          	subl   $0x1,-0x48(%ebp)
40009f5d:	e9 22 05 00 00       	jmp    4000a484 <vsnprintf+0x6bb>
40009f62:	80 7d bf 2f          	cmpb   $0x2f,-0x41(%ebp)
40009f66:	7e 26                	jle    40009f8e <vsnprintf+0x1c5>
40009f68:	80 7d bf 39          	cmpb   $0x39,-0x41(%ebp)
40009f6c:	7f 20                	jg     40009f8e <vsnprintf+0x1c5>
40009f6e:	8b 55 d8             	mov    -0x28(%ebp),%edx
40009f71:	89 d0                	mov    %edx,%eax
40009f73:	c1 e0 02             	shl    $0x2,%eax
40009f76:	01 d0                	add    %edx,%eax
40009f78:	01 c0                	add    %eax,%eax
40009f7a:	89 c2                	mov    %eax,%edx
40009f7c:	0f be 45 bf          	movsbl -0x41(%ebp),%eax
40009f80:	83 e8 30             	sub    $0x30,%eax
40009f83:	8d 04 02             	lea    (%edx,%eax,1),%eax
40009f86:	89 45 d8             	mov    %eax,-0x28(%ebp)
40009f89:	e9 f6 04 00 00       	jmp    4000a484 <vsnprintf+0x6bb>
40009f8e:	80 7d bf 2a          	cmpb   $0x2a,-0x41(%ebp)
40009f92:	75 26                	jne    40009fba <vsnprintf+0x1f1>
40009f94:	8b 55 14             	mov    0x14(%ebp),%edx
40009f97:	8d 42 04             	lea    0x4(%edx),%eax
40009f9a:	89 45 14             	mov    %eax,0x14(%ebp)
40009f9d:	89 d0                	mov    %edx,%eax
40009f9f:	8b 00                	mov    (%eax),%eax
40009fa1:	89 45 d8             	mov    %eax,-0x28(%ebp)
40009fa4:	83 7d d8 00          	cmpl   $0x0,-0x28(%ebp)
40009fa8:	0f 89 d6 04 00 00    	jns    4000a484 <vsnprintf+0x6bb>
40009fae:	c7 45 d8 ff ff ff ff 	movl   $0xffffffff,-0x28(%ebp)
40009fb5:	e9 ca 04 00 00       	jmp    4000a484 <vsnprintf+0x6bb>
40009fba:	c7 45 e8 04 00 00 00 	movl   $0x4,-0x18(%ebp)
40009fc1:	83 6d b8 01          	subl   $0x1,-0x48(%ebp)
40009fc5:	e9 ba 04 00 00       	jmp    4000a484 <vsnprintf+0x6bb>
40009fca:	0f be 45 bf          	movsbl -0x41(%ebp),%eax
40009fce:	83 e8 4c             	sub    $0x4c,%eax
40009fd1:	89 45 9c             	mov    %eax,-0x64(%ebp)
40009fd4:	83 7d 9c 2e          	cmpl   $0x2e,-0x64(%ebp)
40009fd8:	77 4b                	ja     4000a025 <vsnprintf+0x25c>
40009fda:	8b 4d 9c             	mov    -0x64(%ebp),%ecx
40009fdd:	8b 04 8d 24 e9 00 40 	mov    0x4000e924(,%ecx,4),%eax
40009fe4:	ff e0                	jmp    *%eax
40009fe6:	83 6d d0 01          	subl   $0x1,-0x30(%ebp)
40009fea:	e9 95 04 00 00       	jmp    4000a484 <vsnprintf+0x6bb>
40009fef:	83 45 d0 01          	addl   $0x1,-0x30(%ebp)
40009ff3:	e9 8c 04 00 00       	jmp    4000a484 <vsnprintf+0x6bb>
40009ff8:	c7 45 d0 02 00 00 00 	movl   $0x2,-0x30(%ebp)
40009fff:	e9 80 04 00 00       	jmp    4000a484 <vsnprintf+0x6bb>
4000a004:	c7 45 d0 01 00 00 00 	movl   $0x1,-0x30(%ebp)
4000a00b:	e9 74 04 00 00       	jmp    4000a484 <vsnprintf+0x6bb>
4000a010:	c7 45 d0 01 00 00 00 	movl   $0x1,-0x30(%ebp)
4000a017:	e9 68 04 00 00       	jmp    4000a484 <vsnprintf+0x6bb>
4000a01c:	83 45 d0 02          	addl   $0x2,-0x30(%ebp)
4000a020:	e9 5f 04 00 00       	jmp    4000a484 <vsnprintf+0x6bb>
4000a025:	c7 45 e8 00 00 00 00 	movl   $0x0,-0x18(%ebp)
4000a02c:	83 7d d0 fe          	cmpl   $0xfffffffe,-0x30(%ebp)
4000a030:	7d 09                	jge    4000a03b <vsnprintf+0x272>
4000a032:	c7 45 d0 fe ff ff ff 	movl   $0xfffffffe,-0x30(%ebp)
4000a039:	eb 0d                	jmp    4000a048 <vsnprintf+0x27f>
4000a03b:	83 7d d0 02          	cmpl   $0x2,-0x30(%ebp)
4000a03f:	7e 07                	jle    4000a048 <vsnprintf+0x27f>
4000a041:	c7 45 d0 02 00 00 00 	movl   $0x2,-0x30(%ebp)
4000a048:	0f be 45 bf          	movsbl -0x41(%ebp),%eax
4000a04c:	83 e8 50             	sub    $0x50,%eax
4000a04f:	89 45 98             	mov    %eax,-0x68(%ebp)
4000a052:	83 7d 98 28          	cmpl   $0x28,-0x68(%ebp)
4000a056:	0f 87 0f 04 00 00    	ja     4000a46b <vsnprintf+0x6a2>
4000a05c:	8b 55 98             	mov    -0x68(%ebp),%edx
4000a05f:	8b 04 95 e0 e9 00 40 	mov    0x4000e9e0(,%edx,4),%eax
4000a066:	ff e0                	jmp    *%eax
4000a068:	81 4d e4 80 00 00 00 	orl    $0x80,-0x1c(%ebp)
4000a06f:	c7 45 dc 10 00 00 00 	movl   $0x10,-0x24(%ebp)
4000a076:	c7 45 d8 08 00 00 00 	movl   $0x8,-0x28(%ebp)
4000a07d:	83 4d e4 20          	orl    $0x20,-0x1c(%ebp)
4000a081:	8b 55 14             	mov    0x14(%ebp),%edx
4000a084:	8d 42 04             	lea    0x4(%edx),%eax
4000a087:	89 45 14             	mov    %eax,0x14(%ebp)
4000a08a:	89 d0                	mov    %edx,%eax
4000a08c:	8b 00                	mov    (%eax),%eax
4000a08e:	ba 00 00 00 00       	mov    $0x0,%edx
4000a093:	89 45 c8             	mov    %eax,-0x38(%ebp)
4000a096:	89 55 cc             	mov    %edx,-0x34(%ebp)
4000a099:	e9 98 01 00 00       	jmp    4000a236 <vsnprintf+0x46d>
4000a09e:	c7 45 dc 0a 00 00 00 	movl   $0xa,-0x24(%ebp)
4000a0a5:	83 4d e4 40          	orl    $0x40,-0x1c(%ebp)
4000a0a9:	8b 45 d0             	mov    -0x30(%ebp),%eax
4000a0ac:	83 c0 02             	add    $0x2,%eax
4000a0af:	89 45 94             	mov    %eax,-0x6c(%ebp)
4000a0b2:	83 7d 94 04          	cmpl   $0x4,-0x6c(%ebp)
4000a0b6:	0f 87 7a 01 00 00    	ja     4000a236 <vsnprintf+0x46d>
4000a0bc:	8b 4d 94             	mov    -0x6c(%ebp),%ecx
4000a0bf:	8b 04 8d 84 ea 00 40 	mov    0x4000ea84(,%ecx,4),%eax
4000a0c6:	ff e0                	jmp    *%eax
4000a0c8:	8b 55 14             	mov    0x14(%ebp),%edx
4000a0cb:	8d 42 04             	lea    0x4(%edx),%eax
4000a0ce:	89 45 14             	mov    %eax,0x14(%ebp)
4000a0d1:	89 d0                	mov    %edx,%eax
4000a0d3:	8b 00                	mov    (%eax),%eax
4000a0d5:	0f be c0             	movsbl %al,%eax
4000a0d8:	89 45 c8             	mov    %eax,-0x38(%ebp)
4000a0db:	8b 45 c8             	mov    -0x38(%ebp),%eax
4000a0de:	89 c2                	mov    %eax,%edx
4000a0e0:	c1 fa 1f             	sar    $0x1f,%edx
4000a0e3:	89 45 c8             	mov    %eax,-0x38(%ebp)
4000a0e6:	89 55 cc             	mov    %edx,-0x34(%ebp)
4000a0e9:	e9 48 01 00 00       	jmp    4000a236 <vsnprintf+0x46d>
4000a0ee:	8b 55 14             	mov    0x14(%ebp),%edx
4000a0f1:	8d 42 04             	lea    0x4(%edx),%eax
4000a0f4:	89 45 14             	mov    %eax,0x14(%ebp)
4000a0f7:	89 d0                	mov    %edx,%eax
4000a0f9:	8b 00                	mov    (%eax),%eax
4000a0fb:	98                   	cwtl   
4000a0fc:	89 45 c8             	mov    %eax,-0x38(%ebp)
4000a0ff:	8b 45 c8             	mov    -0x38(%ebp),%eax
4000a102:	89 c2                	mov    %eax,%edx
4000a104:	c1 fa 1f             	sar    $0x1f,%edx
4000a107:	89 45 c8             	mov    %eax,-0x38(%ebp)
4000a10a:	89 55 cc             	mov    %edx,-0x34(%ebp)
4000a10d:	e9 24 01 00 00       	jmp    4000a236 <vsnprintf+0x46d>
4000a112:	8b 55 14             	mov    0x14(%ebp),%edx
4000a115:	8d 42 04             	lea    0x4(%edx),%eax
4000a118:	89 45 14             	mov    %eax,0x14(%ebp)
4000a11b:	89 d0                	mov    %edx,%eax
4000a11d:	8b 00                	mov    (%eax),%eax
4000a11f:	89 c2                	mov    %eax,%edx
4000a121:	c1 fa 1f             	sar    $0x1f,%edx
4000a124:	89 45 c8             	mov    %eax,-0x38(%ebp)
4000a127:	89 55 cc             	mov    %edx,-0x34(%ebp)
4000a12a:	e9 07 01 00 00       	jmp    4000a236 <vsnprintf+0x46d>
4000a12f:	8b 55 14             	mov    0x14(%ebp),%edx
4000a132:	8d 42 04             	lea    0x4(%edx),%eax
4000a135:	89 45 14             	mov    %eax,0x14(%ebp)
4000a138:	89 d0                	mov    %edx,%eax
4000a13a:	8b 00                	mov    (%eax),%eax
4000a13c:	89 c2                	mov    %eax,%edx
4000a13e:	c1 fa 1f             	sar    $0x1f,%edx
4000a141:	89 45 c8             	mov    %eax,-0x38(%ebp)
4000a144:	89 55 cc             	mov    %edx,-0x34(%ebp)
4000a147:	e9 ea 00 00 00       	jmp    4000a236 <vsnprintf+0x46d>
4000a14c:	8b 55 14             	mov    0x14(%ebp),%edx
4000a14f:	8d 42 08             	lea    0x8(%edx),%eax
4000a152:	89 45 14             	mov    %eax,0x14(%ebp)
4000a155:	89 d0                	mov    %edx,%eax
4000a157:	8b 50 04             	mov    0x4(%eax),%edx
4000a15a:	8b 00                	mov    (%eax),%eax
4000a15c:	89 45 c8             	mov    %eax,-0x38(%ebp)
4000a15f:	89 55 cc             	mov    %edx,-0x34(%ebp)
4000a162:	e9 cf 00 00 00       	jmp    4000a236 <vsnprintf+0x46d>
4000a167:	c7 45 dc 08 00 00 00 	movl   $0x8,-0x24(%ebp)
4000a16e:	eb 17                	jmp    4000a187 <vsnprintf+0x3be>
4000a170:	c7 45 dc 0a 00 00 00 	movl   $0xa,-0x24(%ebp)
4000a177:	eb 0e                	jmp    4000a187 <vsnprintf+0x3be>
4000a179:	81 4d e4 80 00 00 00 	orl    $0x80,-0x1c(%ebp)
4000a180:	c7 45 dc 10 00 00 00 	movl   $0x10,-0x24(%ebp)
4000a187:	8b 45 d0             	mov    -0x30(%ebp),%eax
4000a18a:	83 c0 02             	add    $0x2,%eax
4000a18d:	89 45 90             	mov    %eax,-0x70(%ebp)
4000a190:	83 7d 90 04          	cmpl   $0x4,-0x70(%ebp)
4000a194:	0f 87 9c 00 00 00    	ja     4000a236 <vsnprintf+0x46d>
4000a19a:	8b 55 90             	mov    -0x70(%ebp),%edx
4000a19d:	8b 04 95 98 ea 00 40 	mov    0x4000ea98(,%edx,4),%eax
4000a1a4:	ff e0                	jmp    *%eax
4000a1a6:	8b 55 14             	mov    0x14(%ebp),%edx
4000a1a9:	8d 42 04             	lea    0x4(%edx),%eax
4000a1ac:	89 45 14             	mov    %eax,0x14(%ebp)
4000a1af:	89 d0                	mov    %edx,%eax
4000a1b1:	8b 00                	mov    (%eax),%eax
4000a1b3:	0f b6 c0             	movzbl %al,%eax
4000a1b6:	89 45 c8             	mov    %eax,-0x38(%ebp)
4000a1b9:	8b 45 c8             	mov    -0x38(%ebp),%eax
4000a1bc:	ba 00 00 00 00       	mov    $0x0,%edx
4000a1c1:	89 45 c8             	mov    %eax,-0x38(%ebp)
4000a1c4:	89 55 cc             	mov    %edx,-0x34(%ebp)
4000a1c7:	eb 6d                	jmp    4000a236 <vsnprintf+0x46d>
4000a1c9:	8b 55 14             	mov    0x14(%ebp),%edx
4000a1cc:	8d 42 04             	lea    0x4(%edx),%eax
4000a1cf:	89 45 14             	mov    %eax,0x14(%ebp)
4000a1d2:	89 d0                	mov    %edx,%eax
4000a1d4:	8b 00                	mov    (%eax),%eax
4000a1d6:	0f b7 c0             	movzwl %ax,%eax
4000a1d9:	89 45 c8             	mov    %eax,-0x38(%ebp)
4000a1dc:	8b 45 c8             	mov    -0x38(%ebp),%eax
4000a1df:	ba 00 00 00 00       	mov    $0x0,%edx
4000a1e4:	89 45 c8             	mov    %eax,-0x38(%ebp)
4000a1e7:	89 55 cc             	mov    %edx,-0x34(%ebp)
4000a1ea:	eb 4a                	jmp    4000a236 <vsnprintf+0x46d>
4000a1ec:	8b 55 14             	mov    0x14(%ebp),%edx
4000a1ef:	8d 42 04             	lea    0x4(%edx),%eax
4000a1f2:	89 45 14             	mov    %eax,0x14(%ebp)
4000a1f5:	89 d0                	mov    %edx,%eax
4000a1f7:	8b 00                	mov    (%eax),%eax
4000a1f9:	ba 00 00 00 00       	mov    $0x0,%edx
4000a1fe:	89 45 c8             	mov    %eax,-0x38(%ebp)
4000a201:	89 55 cc             	mov    %edx,-0x34(%ebp)
4000a204:	eb 30                	jmp    4000a236 <vsnprintf+0x46d>
4000a206:	8b 55 14             	mov    0x14(%ebp),%edx
4000a209:	8d 42 04             	lea    0x4(%edx),%eax
4000a20c:	89 45 14             	mov    %eax,0x14(%ebp)
4000a20f:	89 d0                	mov    %edx,%eax
4000a211:	8b 00                	mov    (%eax),%eax
4000a213:	ba 00 00 00 00       	mov    $0x0,%edx
4000a218:	89 45 c8             	mov    %eax,-0x38(%ebp)
4000a21b:	89 55 cc             	mov    %edx,-0x34(%ebp)
4000a21e:	eb 16                	jmp    4000a236 <vsnprintf+0x46d>
4000a220:	8b 55 14             	mov    0x14(%ebp),%edx
4000a223:	8d 42 08             	lea    0x8(%edx),%eax
4000a226:	89 45 14             	mov    %eax,0x14(%ebp)
4000a229:	89 d0                	mov    %edx,%eax
4000a22b:	8b 50 04             	mov    0x4(%eax),%edx
4000a22e:	8b 00                	mov    (%eax),%eax
4000a230:	89 45 c8             	mov    %eax,-0x38(%ebp)
4000a233:	89 55 cc             	mov    %edx,-0x34(%ebp)
4000a236:	8b 45 c4             	mov    -0x3c(%ebp),%eax
4000a239:	3b 45 0c             	cmp    0xc(%ebp),%eax
4000a23c:	73 0f                	jae    4000a24d <vsnprintf+0x484>
4000a23e:	8b 55 c4             	mov    -0x3c(%ebp),%edx
4000a241:	8b 45 0c             	mov    0xc(%ebp),%eax
4000a244:	89 c1                	mov    %eax,%ecx
4000a246:	29 d1                	sub    %edx,%ecx
4000a248:	89 4d a4             	mov    %ecx,-0x5c(%ebp)
4000a24b:	eb 07                	jmp    4000a254 <vsnprintf+0x48b>
4000a24d:	c7 45 a4 00 00 00 00 	movl   $0x0,-0x5c(%ebp)
4000a254:	8b 45 d8             	mov    -0x28(%ebp),%eax
4000a257:	89 44 24 1c          	mov    %eax,0x1c(%esp)
4000a25b:	8b 45 d4             	mov    -0x2c(%ebp),%eax
4000a25e:	89 44 24 18          	mov    %eax,0x18(%esp)
4000a262:	8b 45 dc             	mov    -0x24(%ebp),%eax
4000a265:	89 44 24 14          	mov    %eax,0x14(%esp)
4000a269:	8b 45 e4             	mov    -0x1c(%ebp),%eax
4000a26c:	89 44 24 10          	mov    %eax,0x10(%esp)
4000a270:	8b 45 c8             	mov    -0x38(%ebp),%eax
4000a273:	8b 55 cc             	mov    -0x34(%ebp),%edx
4000a276:	89 44 24 08          	mov    %eax,0x8(%esp)
4000a27a:	89 54 24 0c          	mov    %edx,0xc(%esp)
4000a27e:	8b 45 a4             	mov    -0x5c(%ebp),%eax
4000a281:	89 44 24 04          	mov    %eax,0x4(%esp)
4000a285:	8b 45 c0             	mov    -0x40(%ebp),%eax
4000a288:	89 04 24             	mov    %eax,(%esp)
4000a28b:	e8 a0 f7 ff ff       	call   40009a30 <format_int>
4000a290:	89 45 e0             	mov    %eax,-0x20(%ebp)
4000a293:	8b 45 e0             	mov    -0x20(%ebp),%eax
4000a296:	01 45 c0             	add    %eax,-0x40(%ebp)
4000a299:	8b 45 e0             	mov    -0x20(%ebp),%eax
4000a29c:	01 45 c4             	add    %eax,-0x3c(%ebp)
4000a29f:	e9 e0 01 00 00       	jmp    4000a484 <vsnprintf+0x6bb>
4000a2a4:	8b 55 14             	mov    0x14(%ebp),%edx
4000a2a7:	8d 42 04             	lea    0x4(%edx),%eax
4000a2aa:	89 45 14             	mov    %eax,0x14(%ebp)
4000a2ad:	89 d0                	mov    %edx,%eax
4000a2af:	8b 00                	mov    (%eax),%eax
4000a2b1:	88 45 b7             	mov    %al,-0x49(%ebp)
4000a2b4:	8d 45 b7             	lea    -0x49(%ebp),%eax
4000a2b7:	89 45 ec             	mov    %eax,-0x14(%ebp)
4000a2ba:	c7 45 f0 01 00 00 00 	movl   $0x1,-0x10(%ebp)
4000a2c1:	eb 39                	jmp    4000a2fc <vsnprintf+0x533>
4000a2c3:	8b 55 14             	mov    0x14(%ebp),%edx
4000a2c6:	8d 42 04             	lea    0x4(%edx),%eax
4000a2c9:	89 45 14             	mov    %eax,0x14(%ebp)
4000a2cc:	89 d0                	mov    %edx,%eax
4000a2ce:	8b 00                	mov    (%eax),%eax
4000a2d0:	89 45 ec             	mov    %eax,-0x14(%ebp)
4000a2d3:	83 7d ec 00          	cmpl   $0x0,-0x14(%ebp)
4000a2d7:	74 08                	je     4000a2e1 <vsnprintf+0x518>
4000a2d9:	8b 55 ec             	mov    -0x14(%ebp),%edx
4000a2dc:	89 55 a8             	mov    %edx,-0x58(%ebp)
4000a2df:	eb 07                	jmp    4000a2e8 <vsnprintf+0x51f>
4000a2e1:	c7 45 a8 c2 e8 00 40 	movl   $0x4000e8c2,-0x58(%ebp)
4000a2e8:	8b 4d a8             	mov    -0x58(%ebp),%ecx
4000a2eb:	89 4d ec             	mov    %ecx,-0x14(%ebp)
4000a2ee:	8b 45 ec             	mov    -0x14(%ebp),%eax
4000a2f1:	89 04 24             	mov    %eax,(%esp)
4000a2f4:	e8 2b 07 00 00       	call   4000aa24 <strlen>
4000a2f9:	89 45 f0             	mov    %eax,-0x10(%ebp)
4000a2fc:	83 7d d8 ff          	cmpl   $0xffffffff,-0x28(%ebp)
4000a300:	74 0e                	je     4000a310 <vsnprintf+0x547>
4000a302:	8b 45 f0             	mov    -0x10(%ebp),%eax
4000a305:	3b 45 d8             	cmp    -0x28(%ebp),%eax
4000a308:	7e 06                	jle    4000a310 <vsnprintf+0x547>
4000a30a:	8b 45 d8             	mov    -0x28(%ebp),%eax
4000a30d:	89 45 f0             	mov    %eax,-0x10(%ebp)
4000a310:	8b 45 d4             	mov    -0x2c(%ebp),%eax
4000a313:	3b 45 f0             	cmp    -0x10(%ebp),%eax
4000a316:	7e 4c                	jle    4000a364 <vsnprintf+0x59b>
4000a318:	8b 45 e4             	mov    -0x1c(%ebp),%eax
4000a31b:	83 e0 02             	and    $0x2,%eax
4000a31e:	85 c0                	test   %eax,%eax
4000a320:	75 42                	jne    4000a364 <vsnprintf+0x59b>
4000a322:	8b 45 e4             	mov    -0x1c(%ebp),%eax
4000a325:	83 e0 01             	and    $0x1,%eax
4000a328:	84 c0                	test   %al,%al
4000a32a:	74 06                	je     4000a332 <vsnprintf+0x569>
4000a32c:	c6 45 af 30          	movb   $0x30,-0x51(%ebp)
4000a330:	eb 04                	jmp    4000a336 <vsnprintf+0x56d>
4000a332:	c6 45 af 20          	movb   $0x20,-0x51(%ebp)
4000a336:	0f b6 45 af          	movzbl -0x51(%ebp),%eax
4000a33a:	88 45 ff             	mov    %al,-0x1(%ebp)
4000a33d:	eb 1d                	jmp    4000a35c <vsnprintf+0x593>
4000a33f:	8b 45 c4             	mov    -0x3c(%ebp),%eax
4000a342:	3b 45 0c             	cmp    0xc(%ebp),%eax
4000a345:	73 0d                	jae    4000a354 <vsnprintf+0x58b>
4000a347:	8b 55 c0             	mov    -0x40(%ebp),%edx
4000a34a:	0f b6 45 ff          	movzbl -0x1(%ebp),%eax
4000a34e:	88 02                	mov    %al,(%edx)
4000a350:	83 45 c0 01          	addl   $0x1,-0x40(%ebp)
4000a354:	83 45 c4 01          	addl   $0x1,-0x3c(%ebp)
4000a358:	83 6d d4 01          	subl   $0x1,-0x2c(%ebp)
4000a35c:	8b 45 d4             	mov    -0x2c(%ebp),%eax
4000a35f:	3b 45 f0             	cmp    -0x10(%ebp),%eax
4000a362:	7f db                	jg     4000a33f <vsnprintf+0x576>
4000a364:	8b 45 f0             	mov    -0x10(%ebp),%eax
4000a367:	89 45 f8             	mov    %eax,-0x8(%ebp)
4000a36a:	eb 2a                	jmp    4000a396 <vsnprintf+0x5cd>
4000a36c:	8b 45 ec             	mov    -0x14(%ebp),%eax
4000a36f:	0f b6 00             	movzbl (%eax),%eax
4000a372:	88 45 f7             	mov    %al,-0x9(%ebp)
4000a375:	83 45 ec 01          	addl   $0x1,-0x14(%ebp)
4000a379:	8b 45 c4             	mov    -0x3c(%ebp),%eax
4000a37c:	3b 45 0c             	cmp    0xc(%ebp),%eax
4000a37f:	73 0d                	jae    4000a38e <vsnprintf+0x5c5>
4000a381:	8b 55 c0             	mov    -0x40(%ebp),%edx
4000a384:	0f b6 45 f7          	movzbl -0x9(%ebp),%eax
4000a388:	88 02                	mov    %al,(%edx)
4000a38a:	83 45 c0 01          	addl   $0x1,-0x40(%ebp)
4000a38e:	83 45 c4 01          	addl   $0x1,-0x3c(%ebp)
4000a392:	83 6d f8 01          	subl   $0x1,-0x8(%ebp)
4000a396:	83 7d f8 00          	cmpl   $0x0,-0x8(%ebp)
4000a39a:	75 d0                	jne    4000a36c <vsnprintf+0x5a3>
4000a39c:	8b 45 d4             	mov    -0x2c(%ebp),%eax
4000a39f:	3b 45 f0             	cmp    -0x10(%ebp),%eax
4000a3a2:	0f 8e dc 00 00 00    	jle    4000a484 <vsnprintf+0x6bb>
4000a3a8:	8b 45 e4             	mov    -0x1c(%ebp),%eax
4000a3ab:	83 e0 02             	and    $0x2,%eax
4000a3ae:	85 c0                	test   %eax,%eax
4000a3b0:	0f 84 ce 00 00 00    	je     4000a484 <vsnprintf+0x6bb>
4000a3b6:	eb 1a                	jmp    4000a3d2 <vsnprintf+0x609>
4000a3b8:	8b 45 c4             	mov    -0x3c(%ebp),%eax
4000a3bb:	3b 45 0c             	cmp    0xc(%ebp),%eax
4000a3be:	73 0a                	jae    4000a3ca <vsnprintf+0x601>
4000a3c0:	8b 45 c0             	mov    -0x40(%ebp),%eax
4000a3c3:	c6 00 20             	movb   $0x20,(%eax)
4000a3c6:	83 45 c0 01          	addl   $0x1,-0x40(%ebp)
4000a3ca:	83 45 c4 01          	addl   $0x1,-0x3c(%ebp)
4000a3ce:	83 6d d4 01          	subl   $0x1,-0x2c(%ebp)
4000a3d2:	8b 45 d4             	mov    -0x2c(%ebp),%eax
4000a3d5:	3b 45 f0             	cmp    -0x10(%ebp),%eax
4000a3d8:	7f de                	jg     4000a3b8 <vsnprintf+0x5ef>
4000a3da:	e9 a5 00 00 00       	jmp    4000a484 <vsnprintf+0x6bb>
4000a3df:	8b 45 d0             	mov    -0x30(%ebp),%eax
4000a3e2:	83 c0 02             	add    $0x2,%eax
4000a3e5:	89 45 8c             	mov    %eax,-0x74(%ebp)
4000a3e8:	83 7d 8c 04          	cmpl   $0x4,-0x74(%ebp)
4000a3ec:	0f 87 92 00 00 00    	ja     4000a484 <vsnprintf+0x6bb>
4000a3f2:	8b 55 8c             	mov    -0x74(%ebp),%edx
4000a3f5:	8b 04 95 ac ea 00 40 	mov    0x4000eaac(,%edx,4),%eax
4000a3fc:	ff e0                	jmp    *%eax
4000a3fe:	8b 55 14             	mov    0x14(%ebp),%edx
4000a401:	8d 42 04             	lea    0x4(%edx),%eax
4000a404:	89 45 14             	mov    %eax,0x14(%ebp)
4000a407:	89 d0                	mov    %edx,%eax
4000a409:	8b 10                	mov    (%eax),%edx
4000a40b:	8b 45 c4             	mov    -0x3c(%ebp),%eax
4000a40e:	88 02                	mov    %al,(%edx)
4000a410:	eb 72                	jmp    4000a484 <vsnprintf+0x6bb>
4000a412:	8b 55 14             	mov    0x14(%ebp),%edx
4000a415:	8d 42 04             	lea    0x4(%edx),%eax
4000a418:	89 45 14             	mov    %eax,0x14(%ebp)
4000a41b:	89 d0                	mov    %edx,%eax
4000a41d:	8b 10                	mov    (%eax),%edx
4000a41f:	8b 45 c4             	mov    -0x3c(%ebp),%eax
4000a422:	66 89 02             	mov    %ax,(%edx)
4000a425:	eb 5d                	jmp    4000a484 <vsnprintf+0x6bb>
4000a427:	8b 55 14             	mov    0x14(%ebp),%edx
4000a42a:	8d 42 04             	lea    0x4(%edx),%eax
4000a42d:	89 45 14             	mov    %eax,0x14(%ebp)
4000a430:	89 d0                	mov    %edx,%eax
4000a432:	8b 10                	mov    (%eax),%edx
4000a434:	8b 45 c4             	mov    -0x3c(%ebp),%eax
4000a437:	89 02                	mov    %eax,(%edx)
4000a439:	eb 49                	jmp    4000a484 <vsnprintf+0x6bb>
4000a43b:	8b 55 14             	mov    0x14(%ebp),%edx
4000a43e:	8d 42 04             	lea    0x4(%edx),%eax
4000a441:	89 45 14             	mov    %eax,0x14(%ebp)
4000a444:	89 d0                	mov    %edx,%eax
4000a446:	8b 10                	mov    (%eax),%edx
4000a448:	8b 45 c4             	mov    -0x3c(%ebp),%eax
4000a44b:	89 02                	mov    %eax,(%edx)
4000a44d:	eb 35                	jmp    4000a484 <vsnprintf+0x6bb>
4000a44f:	8b 55 14             	mov    0x14(%ebp),%edx
4000a452:	8d 42 04             	lea    0x4(%edx),%eax
4000a455:	89 45 14             	mov    %eax,0x14(%ebp)
4000a458:	89 d0                	mov    %edx,%eax
4000a45a:	8b 08                	mov    (%eax),%ecx
4000a45c:	8b 45 c4             	mov    -0x3c(%ebp),%eax
4000a45f:	ba 00 00 00 00       	mov    $0x0,%edx
4000a464:	89 01                	mov    %eax,(%ecx)
4000a466:	89 51 04             	mov    %edx,0x4(%ecx)
4000a469:	eb 19                	jmp    4000a484 <vsnprintf+0x6bb>
4000a46b:	8b 45 c4             	mov    -0x3c(%ebp),%eax
4000a46e:	3b 45 0c             	cmp    0xc(%ebp),%eax
4000a471:	73 0d                	jae    4000a480 <vsnprintf+0x6b7>
4000a473:	8b 55 c0             	mov    -0x40(%ebp),%edx
4000a476:	0f b6 45 bf          	movzbl -0x41(%ebp),%eax
4000a47a:	88 02                	mov    %al,(%edx)
4000a47c:	83 45 c0 01          	addl   $0x1,-0x40(%ebp)
4000a480:	83 45 c4 01          	addl   $0x1,-0x3c(%ebp)
4000a484:	8b 45 b8             	mov    -0x48(%ebp),%eax
4000a487:	0f b6 00             	movzbl (%eax),%eax
4000a48a:	88 45 bf             	mov    %al,-0x41(%ebp)
4000a48d:	80 7d bf 00          	cmpb   $0x0,-0x41(%ebp)
4000a491:	0f 95 c0             	setne  %al
4000a494:	83 45 b8 01          	addl   $0x1,-0x48(%ebp)
4000a498:	84 c0                	test   %al,%al
4000a49a:	0f 85 7b f9 ff ff    	jne    40009e1b <vsnprintf+0x52>
4000a4a0:	8b 45 c4             	mov    -0x3c(%ebp),%eax
4000a4a3:	3b 45 0c             	cmp    0xc(%ebp),%eax
4000a4a6:	73 08                	jae    4000a4b0 <vsnprintf+0x6e7>
4000a4a8:	8b 45 c0             	mov    -0x40(%ebp),%eax
4000a4ab:	c6 00 00             	movb   $0x0,(%eax)
4000a4ae:	eb 12                	jmp    4000a4c2 <vsnprintf+0x6f9>
4000a4b0:	83 7d 0c 00          	cmpl   $0x0,0xc(%ebp)
4000a4b4:	74 0c                	je     4000a4c2 <vsnprintf+0x6f9>
4000a4b6:	8b 45 0c             	mov    0xc(%ebp),%eax
4000a4b9:	83 e8 01             	sub    $0x1,%eax
4000a4bc:	03 45 08             	add    0x8(%ebp),%eax
4000a4bf:	c6 00 00             	movb   $0x0,(%eax)
4000a4c2:	8b 45 c4             	mov    -0x3c(%ebp),%eax
4000a4c5:	c9                   	leave  
4000a4c6:	c3                   	ret    
4000a4c7:	90                   	nop    

4000a4c8 <memccpy>:
4000a4c8:	55                   	push   %ebp
4000a4c9:	89 e5                	mov    %esp,%ebp
4000a4cb:	83 ec 10             	sub    $0x10,%esp
4000a4ce:	8b 45 08             	mov    0x8(%ebp),%eax
4000a4d1:	89 45 f4             	mov    %eax,-0xc(%ebp)
4000a4d4:	8b 45 0c             	mov    0xc(%ebp),%eax
4000a4d7:	89 45 f8             	mov    %eax,-0x8(%ebp)
4000a4da:	c7 45 fc 00 00 00 00 	movl   $0x0,-0x4(%ebp)
4000a4e1:	eb 2c                	jmp    4000a50f <memccpy+0x47>
4000a4e3:	8b 55 fc             	mov    -0x4(%ebp),%edx
4000a4e6:	8b 45 f4             	mov    -0xc(%ebp),%eax
4000a4e9:	8d 0c 10             	lea    (%eax,%edx,1),%ecx
4000a4ec:	8b 55 fc             	mov    -0x4(%ebp),%edx
4000a4ef:	8b 45 f8             	mov    -0x8(%ebp),%eax
4000a4f2:	01 d0                	add    %edx,%eax
4000a4f4:	0f b6 00             	movzbl (%eax),%eax
4000a4f7:	88 01                	mov    %al,(%ecx)
4000a4f9:	8b 55 fc             	mov    -0x4(%ebp),%edx
4000a4fc:	8b 45 f8             	mov    -0x8(%ebp),%eax
4000a4ff:	01 d0                	add    %edx,%eax
4000a501:	0f b6 10             	movzbl (%eax),%edx
4000a504:	8b 45 10             	mov    0x10(%ebp),%eax
4000a507:	38 c2                	cmp    %al,%dl
4000a509:	74 0c                	je     4000a517 <memccpy+0x4f>
4000a50b:	83 45 fc 01          	addl   $0x1,-0x4(%ebp)
4000a50f:	8b 45 fc             	mov    -0x4(%ebp),%eax
4000a512:	3b 45 14             	cmp    0x14(%ebp),%eax
4000a515:	72 cc                	jb     4000a4e3 <memccpy+0x1b>
4000a517:	8b 45 08             	mov    0x8(%ebp),%eax
4000a51a:	c9                   	leave  
4000a51b:	c3                   	ret    

4000a51c <memchr>:
4000a51c:	55                   	push   %ebp
4000a51d:	89 e5                	mov    %esp,%ebp
4000a51f:	83 ec 14             	sub    $0x14,%esp
4000a522:	8b 45 08             	mov    0x8(%ebp),%eax
4000a525:	89 45 f8             	mov    %eax,-0x8(%ebp)
4000a528:	c7 45 fc 00 00 00 00 	movl   $0x0,-0x4(%ebp)
4000a52f:	eb 23                	jmp    4000a554 <memchr+0x38>
4000a531:	8b 55 fc             	mov    -0x4(%ebp),%edx
4000a534:	8b 45 f8             	mov    -0x8(%ebp),%eax
4000a537:	01 d0                	add    %edx,%eax
4000a539:	0f b6 10             	movzbl (%eax),%edx
4000a53c:	8b 45 0c             	mov    0xc(%ebp),%eax
4000a53f:	38 c2                	cmp    %al,%dl
4000a541:	75 0d                	jne    4000a550 <memchr+0x34>
4000a543:	8b 55 fc             	mov    -0x4(%ebp),%edx
4000a546:	8b 45 f8             	mov    -0x8(%ebp),%eax
4000a549:	01 d0                	add    %edx,%eax
4000a54b:	89 45 ec             	mov    %eax,-0x14(%ebp)
4000a54e:	eb 13                	jmp    4000a563 <memchr+0x47>
4000a550:	83 45 fc 01          	addl   $0x1,-0x4(%ebp)
4000a554:	8b 45 fc             	mov    -0x4(%ebp),%eax
4000a557:	3b 45 10             	cmp    0x10(%ebp),%eax
4000a55a:	72 d5                	jb     4000a531 <memchr+0x15>
4000a55c:	c7 45 ec 00 00 00 00 	movl   $0x0,-0x14(%ebp)
4000a563:	8b 45 ec             	mov    -0x14(%ebp),%eax
4000a566:	c9                   	leave  
4000a567:	c3                   	ret    

4000a568 <memcmp>:
4000a568:	55                   	push   %ebp
4000a569:	89 e5                	mov    %esp,%ebp
4000a56b:	83 ec 24             	sub    $0x24,%esp
4000a56e:	8b 45 08             	mov    0x8(%ebp),%eax
4000a571:	3b 45 0c             	cmp    0xc(%ebp),%eax
4000a574:	75 0c                	jne    4000a582 <memcmp+0x1a>
4000a576:	c7 45 dc 00 00 00 00 	movl   $0x0,-0x24(%ebp)
4000a57d:	e9 e5 00 00 00       	jmp    4000a667 <memcmp+0xff>
4000a582:	8b 45 10             	mov    0x10(%ebp),%eax
4000a585:	c1 e8 02             	shr    $0x2,%eax
4000a588:	89 45 e4             	mov    %eax,-0x1c(%ebp)
4000a58b:	8b 45 10             	mov    0x10(%ebp),%eax
4000a58e:	83 e0 03             	and    $0x3,%eax
4000a591:	89 45 e8             	mov    %eax,-0x18(%ebp)
4000a594:	8b 45 08             	mov    0x8(%ebp),%eax
4000a597:	89 45 ec             	mov    %eax,-0x14(%ebp)
4000a59a:	8b 45 0c             	mov    0xc(%ebp),%eax
4000a59d:	89 45 f0             	mov    %eax,-0x10(%ebp)
4000a5a0:	8b 55 08             	mov    0x8(%ebp),%edx
4000a5a3:	8b 45 e4             	mov    -0x1c(%ebp),%eax
4000a5a6:	c1 e0 02             	shl    $0x2,%eax
4000a5a9:	8d 04 02             	lea    (%edx,%eax,1),%eax
4000a5ac:	89 45 f4             	mov    %eax,-0xc(%ebp)
4000a5af:	8b 55 0c             	mov    0xc(%ebp),%edx
4000a5b2:	8b 45 e4             	mov    -0x1c(%ebp),%eax
4000a5b5:	c1 e0 02             	shl    $0x2,%eax
4000a5b8:	8d 04 02             	lea    (%edx,%eax,1),%eax
4000a5bb:	89 45 f8             	mov    %eax,-0x8(%ebp)
4000a5be:	c7 45 fc 00 00 00 00 	movl   $0x0,-0x4(%ebp)
4000a5c5:	eb 3d                	jmp    4000a604 <memcmp+0x9c>
4000a5c7:	8b 45 fc             	mov    -0x4(%ebp),%eax
4000a5ca:	c1 e0 02             	shl    $0x2,%eax
4000a5cd:	03 45 ec             	add    -0x14(%ebp),%eax
4000a5d0:	8b 10                	mov    (%eax),%edx
4000a5d2:	8b 45 fc             	mov    -0x4(%ebp),%eax
4000a5d5:	c1 e0 02             	shl    $0x2,%eax
4000a5d8:	03 45 f0             	add    -0x10(%ebp),%eax
4000a5db:	8b 00                	mov    (%eax),%eax
4000a5dd:	39 c2                	cmp    %eax,%edx
4000a5df:	74 1f                	je     4000a600 <memcmp+0x98>
4000a5e1:	8b 45 fc             	mov    -0x4(%ebp),%eax
4000a5e4:	c1 e0 02             	shl    $0x2,%eax
4000a5e7:	03 45 ec             	add    -0x14(%ebp),%eax
4000a5ea:	8b 10                	mov    (%eax),%edx
4000a5ec:	8b 45 fc             	mov    -0x4(%ebp),%eax
4000a5ef:	c1 e0 02             	shl    $0x2,%eax
4000a5f2:	03 45 f0             	add    -0x10(%ebp),%eax
4000a5f5:	8b 00                	mov    (%eax),%eax
4000a5f7:	89 d1                	mov    %edx,%ecx
4000a5f9:	29 c1                	sub    %eax,%ecx
4000a5fb:	89 4d dc             	mov    %ecx,-0x24(%ebp)
4000a5fe:	eb 67                	jmp    4000a667 <memcmp+0xff>
4000a600:	83 45 fc 01          	addl   $0x1,-0x4(%ebp)
4000a604:	8b 45 fc             	mov    -0x4(%ebp),%eax
4000a607:	3b 45 e4             	cmp    -0x1c(%ebp),%eax
4000a60a:	72 bb                	jb     4000a5c7 <memcmp+0x5f>
4000a60c:	c7 45 fc 00 00 00 00 	movl   $0x0,-0x4(%ebp)
4000a613:	eb 43                	jmp    4000a658 <memcmp+0xf0>
4000a615:	8b 55 fc             	mov    -0x4(%ebp),%edx
4000a618:	8b 45 f4             	mov    -0xc(%ebp),%eax
4000a61b:	01 d0                	add    %edx,%eax
4000a61d:	0f b6 08             	movzbl (%eax),%ecx
4000a620:	8b 55 fc             	mov    -0x4(%ebp),%edx
4000a623:	8b 45 f8             	mov    -0x8(%ebp),%eax
4000a626:	01 d0                	add    %edx,%eax
4000a628:	0f b6 00             	movzbl (%eax),%eax
4000a62b:	38 c1                	cmp    %al,%cl
4000a62d:	74 25                	je     4000a654 <memcmp+0xec>
4000a62f:	8b 55 fc             	mov    -0x4(%ebp),%edx
4000a632:	8b 45 f4             	mov    -0xc(%ebp),%eax
4000a635:	01 d0                	add    %edx,%eax
4000a637:	0f b6 00             	movzbl (%eax),%eax
4000a63a:	0f b6 c8             	movzbl %al,%ecx
4000a63d:	8b 55 fc             	mov    -0x4(%ebp),%edx
4000a640:	8b 45 f8             	mov    -0x8(%ebp),%eax
4000a643:	01 d0                	add    %edx,%eax
4000a645:	0f b6 00             	movzbl (%eax),%eax
4000a648:	0f b6 c0             	movzbl %al,%eax
4000a64b:	89 ca                	mov    %ecx,%edx
4000a64d:	29 c2                	sub    %eax,%edx
4000a64f:	89 55 dc             	mov    %edx,-0x24(%ebp)
4000a652:	eb 13                	jmp    4000a667 <memcmp+0xff>
4000a654:	83 45 fc 01          	addl   $0x1,-0x4(%ebp)
4000a658:	8b 45 fc             	mov    -0x4(%ebp),%eax
4000a65b:	3b 45 e8             	cmp    -0x18(%ebp),%eax
4000a65e:	72 b5                	jb     4000a615 <memcmp+0xad>
4000a660:	c7 45 dc 00 00 00 00 	movl   $0x0,-0x24(%ebp)
4000a667:	8b 45 dc             	mov    -0x24(%ebp),%eax
4000a66a:	c9                   	leave  
4000a66b:	c3                   	ret    

4000a66c <memcpy>:
4000a66c:	55                   	push   %ebp
4000a66d:	89 e5                	mov    %esp,%ebp
4000a66f:	83 ec 24             	sub    $0x24,%esp
4000a672:	8b 45 08             	mov    0x8(%ebp),%eax
4000a675:	3b 45 0c             	cmp    0xc(%ebp),%eax
4000a678:	75 0b                	jne    4000a685 <memcpy+0x19>
4000a67a:	8b 45 08             	mov    0x8(%ebp),%eax
4000a67d:	89 45 dc             	mov    %eax,-0x24(%ebp)
4000a680:	e9 9a 00 00 00       	jmp    4000a71f <memcpy+0xb3>
4000a685:	8b 45 10             	mov    0x10(%ebp),%eax
4000a688:	c1 e8 02             	shr    $0x2,%eax
4000a68b:	89 45 e4             	mov    %eax,-0x1c(%ebp)
4000a68e:	8b 45 10             	mov    0x10(%ebp),%eax
4000a691:	83 e0 03             	and    $0x3,%eax
4000a694:	89 45 e8             	mov    %eax,-0x18(%ebp)
4000a697:	8b 45 08             	mov    0x8(%ebp),%eax
4000a69a:	89 45 ec             	mov    %eax,-0x14(%ebp)
4000a69d:	8b 45 0c             	mov    0xc(%ebp),%eax
4000a6a0:	89 45 f0             	mov    %eax,-0x10(%ebp)
4000a6a3:	8b 55 08             	mov    0x8(%ebp),%edx
4000a6a6:	8b 45 e4             	mov    -0x1c(%ebp),%eax
4000a6a9:	c1 e0 02             	shl    $0x2,%eax
4000a6ac:	8d 04 02             	lea    (%edx,%eax,1),%eax
4000a6af:	89 45 f4             	mov    %eax,-0xc(%ebp)
4000a6b2:	8b 55 0c             	mov    0xc(%ebp),%edx
4000a6b5:	8b 45 e4             	mov    -0x1c(%ebp),%eax
4000a6b8:	c1 e0 02             	shl    $0x2,%eax
4000a6bb:	8d 04 02             	lea    (%edx,%eax,1),%eax
4000a6be:	89 45 f8             	mov    %eax,-0x8(%ebp)
4000a6c1:	c7 45 fc 00 00 00 00 	movl   $0x0,-0x4(%ebp)
4000a6c8:	eb 1c                	jmp    4000a6e6 <memcpy+0x7a>
4000a6ca:	8b 45 fc             	mov    -0x4(%ebp),%eax
4000a6cd:	c1 e0 02             	shl    $0x2,%eax
4000a6d0:	89 c2                	mov    %eax,%edx
4000a6d2:	03 55 ec             	add    -0x14(%ebp),%edx
4000a6d5:	8b 45 fc             	mov    -0x4(%ebp),%eax
4000a6d8:	c1 e0 02             	shl    $0x2,%eax
4000a6db:	03 45 f0             	add    -0x10(%ebp),%eax
4000a6de:	8b 00                	mov    (%eax),%eax
4000a6e0:	89 02                	mov    %eax,(%edx)
4000a6e2:	83 45 fc 01          	addl   $0x1,-0x4(%ebp)
4000a6e6:	8b 45 fc             	mov    -0x4(%ebp),%eax
4000a6e9:	3b 45 e4             	cmp    -0x1c(%ebp),%eax
4000a6ec:	72 dc                	jb     4000a6ca <memcpy+0x5e>
4000a6ee:	c7 45 fc 00 00 00 00 	movl   $0x0,-0x4(%ebp)
4000a6f5:	eb 1a                	jmp    4000a711 <memcpy+0xa5>
4000a6f7:	8b 55 fc             	mov    -0x4(%ebp),%edx
4000a6fa:	8b 45 f4             	mov    -0xc(%ebp),%eax
4000a6fd:	8d 0c 10             	lea    (%eax,%edx,1),%ecx
4000a700:	8b 55 fc             	mov    -0x4(%ebp),%edx
4000a703:	8b 45 f8             	mov    -0x8(%ebp),%eax
4000a706:	01 d0                	add    %edx,%eax
4000a708:	0f b6 00             	movzbl (%eax),%eax
4000a70b:	88 01                	mov    %al,(%ecx)
4000a70d:	83 45 fc 01          	addl   $0x1,-0x4(%ebp)
4000a711:	8b 45 fc             	mov    -0x4(%ebp),%eax
4000a714:	3b 45 e8             	cmp    -0x18(%ebp),%eax
4000a717:	72 de                	jb     4000a6f7 <memcpy+0x8b>
4000a719:	8b 45 08             	mov    0x8(%ebp),%eax
4000a71c:	89 45 dc             	mov    %eax,-0x24(%ebp)
4000a71f:	8b 45 dc             	mov    -0x24(%ebp),%eax
4000a722:	c9                   	leave  
4000a723:	c3                   	ret    

4000a724 <memmove>:
4000a724:	55                   	push   %ebp
4000a725:	89 e5                	mov    %esp,%ebp
4000a727:	83 ec 24             	sub    $0x24,%esp
4000a72a:	8b 45 08             	mov    0x8(%ebp),%eax
4000a72d:	3b 45 0c             	cmp    0xc(%ebp),%eax
4000a730:	75 0b                	jne    4000a73d <memmove+0x19>
4000a732:	8b 45 08             	mov    0x8(%ebp),%eax
4000a735:	89 45 dc             	mov    %eax,-0x24(%ebp)
4000a738:	e9 07 01 00 00       	jmp    4000a844 <memmove+0x120>
4000a73d:	8b 45 10             	mov    0x10(%ebp),%eax
4000a740:	c1 e8 02             	shr    $0x2,%eax
4000a743:	89 45 e4             	mov    %eax,-0x1c(%ebp)
4000a746:	8b 45 10             	mov    0x10(%ebp),%eax
4000a749:	83 e0 03             	and    $0x3,%eax
4000a74c:	89 45 e8             	mov    %eax,-0x18(%ebp)
4000a74f:	8b 45 08             	mov    0x8(%ebp),%eax
4000a752:	89 45 ec             	mov    %eax,-0x14(%ebp)
4000a755:	8b 45 0c             	mov    0xc(%ebp),%eax
4000a758:	89 45 f0             	mov    %eax,-0x10(%ebp)
4000a75b:	8b 55 08             	mov    0x8(%ebp),%edx
4000a75e:	8b 45 e4             	mov    -0x1c(%ebp),%eax
4000a761:	c1 e0 02             	shl    $0x2,%eax
4000a764:	8d 04 02             	lea    (%edx,%eax,1),%eax
4000a767:	89 45 f4             	mov    %eax,-0xc(%ebp)
4000a76a:	8b 55 0c             	mov    0xc(%ebp),%edx
4000a76d:	8b 45 e4             	mov    -0x1c(%ebp),%eax
4000a770:	c1 e0 02             	shl    $0x2,%eax
4000a773:	8d 04 02             	lea    (%edx,%eax,1),%eax
4000a776:	89 45 f8             	mov    %eax,-0x8(%ebp)
4000a779:	8b 45 0c             	mov    0xc(%ebp),%eax
4000a77c:	3b 45 08             	cmp    0x8(%ebp),%eax
4000a77f:	76 5a                	jbe    4000a7db <memmove+0xb7>
4000a781:	c7 45 fc 00 00 00 00 	movl   $0x0,-0x4(%ebp)
4000a788:	eb 1c                	jmp    4000a7a6 <memmove+0x82>
4000a78a:	8b 45 fc             	mov    -0x4(%ebp),%eax
4000a78d:	c1 e0 02             	shl    $0x2,%eax
4000a790:	89 c2                	mov    %eax,%edx
4000a792:	03 55 ec             	add    -0x14(%ebp),%edx
4000a795:	8b 45 fc             	mov    -0x4(%ebp),%eax
4000a798:	c1 e0 02             	shl    $0x2,%eax
4000a79b:	03 45 f0             	add    -0x10(%ebp),%eax
4000a79e:	8b 00                	mov    (%eax),%eax
4000a7a0:	89 02                	mov    %eax,(%edx)
4000a7a2:	83 45 fc 01          	addl   $0x1,-0x4(%ebp)
4000a7a6:	8b 45 fc             	mov    -0x4(%ebp),%eax
4000a7a9:	3b 45 e4             	cmp    -0x1c(%ebp),%eax
4000a7ac:	72 dc                	jb     4000a78a <memmove+0x66>
4000a7ae:	c7 45 fc 00 00 00 00 	movl   $0x0,-0x4(%ebp)
4000a7b5:	eb 1a                	jmp    4000a7d1 <memmove+0xad>
4000a7b7:	8b 55 fc             	mov    -0x4(%ebp),%edx
4000a7ba:	8b 45 f4             	mov    -0xc(%ebp),%eax
4000a7bd:	8d 0c 10             	lea    (%eax,%edx,1),%ecx
4000a7c0:	8b 55 fc             	mov    -0x4(%ebp),%edx
4000a7c3:	8b 45 f8             	mov    -0x8(%ebp),%eax
4000a7c6:	01 d0                	add    %edx,%eax
4000a7c8:	0f b6 00             	movzbl (%eax),%eax
4000a7cb:	88 01                	mov    %al,(%ecx)
4000a7cd:	83 45 fc 01          	addl   $0x1,-0x4(%ebp)
4000a7d1:	8b 45 fc             	mov    -0x4(%ebp),%eax
4000a7d4:	3b 45 e8             	cmp    -0x18(%ebp),%eax
4000a7d7:	72 de                	jb     4000a7b7 <memmove+0x93>
4000a7d9:	eb 63                	jmp    4000a83e <memmove+0x11a>
4000a7db:	8b 45 e8             	mov    -0x18(%ebp),%eax
4000a7de:	89 45 fc             	mov    %eax,-0x4(%ebp)
4000a7e1:	eb 1d                	jmp    4000a800 <memmove+0xdc>
4000a7e3:	8b 45 fc             	mov    -0x4(%ebp),%eax
4000a7e6:	83 e8 01             	sub    $0x1,%eax
4000a7e9:	89 c2                	mov    %eax,%edx
4000a7eb:	03 55 f4             	add    -0xc(%ebp),%edx
4000a7ee:	8b 45 fc             	mov    -0x4(%ebp),%eax
4000a7f1:	83 e8 01             	sub    $0x1,%eax
4000a7f4:	03 45 f8             	add    -0x8(%ebp),%eax
4000a7f7:	0f b6 00             	movzbl (%eax),%eax
4000a7fa:	88 02                	mov    %al,(%edx)
4000a7fc:	83 6d fc 01          	subl   $0x1,-0x4(%ebp)
4000a800:	83 7d fc 00          	cmpl   $0x0,-0x4(%ebp)
4000a804:	75 dd                	jne    4000a7e3 <memmove+0xbf>
4000a806:	8b 45 e4             	mov    -0x1c(%ebp),%eax
4000a809:	89 45 fc             	mov    %eax,-0x4(%ebp)
4000a80c:	eb 2a                	jmp    4000a838 <memmove+0x114>
4000a80e:	b8 01 00 00 00       	mov    $0x1,%eax
4000a813:	2b 45 fc             	sub    -0x4(%ebp),%eax
4000a816:	c1 e0 02             	shl    $0x2,%eax
4000a819:	f7 d8                	neg    %eax
4000a81b:	89 c2                	mov    %eax,%edx
4000a81d:	03 55 ec             	add    -0x14(%ebp),%edx
4000a820:	b8 01 00 00 00       	mov    $0x1,%eax
4000a825:	2b 45 fc             	sub    -0x4(%ebp),%eax
4000a828:	c1 e0 02             	shl    $0x2,%eax
4000a82b:	f7 d8                	neg    %eax
4000a82d:	03 45 f0             	add    -0x10(%ebp),%eax
4000a830:	8b 00                	mov    (%eax),%eax
4000a832:	89 02                	mov    %eax,(%edx)
4000a834:	83 6d fc 01          	subl   $0x1,-0x4(%ebp)
4000a838:	83 7d fc 00          	cmpl   $0x0,-0x4(%ebp)
4000a83c:	75 d0                	jne    4000a80e <memmove+0xea>
4000a83e:	8b 45 08             	mov    0x8(%ebp),%eax
4000a841:	89 45 dc             	mov    %eax,-0x24(%ebp)
4000a844:	8b 45 dc             	mov    -0x24(%ebp),%eax
4000a847:	c9                   	leave  
4000a848:	c3                   	ret    

4000a849 <memset>:
4000a849:	55                   	push   %ebp
4000a84a:	89 e5                	mov    %esp,%ebp
4000a84c:	83 ec 10             	sub    $0x10,%esp
4000a84f:	8b 45 08             	mov    0x8(%ebp),%eax
4000a852:	89 45 fc             	mov    %eax,-0x4(%ebp)
4000a855:	c7 45 f8 00 00 00 00 	movl   $0x0,-0x8(%ebp)
4000a85c:	eb 12                	jmp    4000a870 <memset+0x27>
4000a85e:	8b 55 f8             	mov    -0x8(%ebp),%edx
4000a861:	8b 45 fc             	mov    -0x4(%ebp),%eax
4000a864:	8d 14 10             	lea    (%eax,%edx,1),%edx
4000a867:	8b 45 0c             	mov    0xc(%ebp),%eax
4000a86a:	88 02                	mov    %al,(%edx)
4000a86c:	83 45 f8 01          	addl   $0x1,-0x8(%ebp)
4000a870:	8b 45 f8             	mov    -0x8(%ebp),%eax
4000a873:	3b 45 10             	cmp    0x10(%ebp),%eax
4000a876:	72 e6                	jb     4000a85e <memset+0x15>
4000a878:	8b 45 08             	mov    0x8(%ebp),%eax
4000a87b:	c9                   	leave  
4000a87c:	c3                   	ret    

4000a87d <strcat>:
4000a87d:	55                   	push   %ebp
4000a87e:	89 e5                	mov    %esp,%ebp
4000a880:	83 ec 08             	sub    $0x8,%esp
4000a883:	8b 45 08             	mov    0x8(%ebp),%eax
4000a886:	89 04 24             	mov    %eax,(%esp)
4000a889:	e8 96 01 00 00       	call   4000aa24 <strlen>
4000a88e:	89 c2                	mov    %eax,%edx
4000a890:	03 55 08             	add    0x8(%ebp),%edx
4000a893:	8b 45 0c             	mov    0xc(%ebp),%eax
4000a896:	89 44 24 04          	mov    %eax,0x4(%esp)
4000a89a:	89 14 24             	mov    %edx,(%esp)
4000a89d:	e8 ef 00 00 00       	call   4000a991 <strcpy>
4000a8a2:	c9                   	leave  
4000a8a3:	c3                   	ret    

4000a8a4 <strchr>:
4000a8a4:	55                   	push   %ebp
4000a8a5:	89 e5                	mov    %esp,%ebp
4000a8a7:	83 ec 14             	sub    $0x14,%esp
4000a8aa:	c7 45 fc 00 00 00 00 	movl   $0x0,-0x4(%ebp)
4000a8b1:	eb 04                	jmp    4000a8b7 <strchr+0x13>
4000a8b3:	83 45 fc 01          	addl   $0x1,-0x4(%ebp)
4000a8b7:	8b 55 fc             	mov    -0x4(%ebp),%edx
4000a8ba:	8b 45 08             	mov    0x8(%ebp),%eax
4000a8bd:	01 d0                	add    %edx,%eax
4000a8bf:	0f b6 00             	movzbl (%eax),%eax
4000a8c2:	84 c0                	test   %al,%al
4000a8c4:	74 12                	je     4000a8d8 <strchr+0x34>
4000a8c6:	8b 55 fc             	mov    -0x4(%ebp),%edx
4000a8c9:	8b 45 08             	mov    0x8(%ebp),%eax
4000a8cc:	01 d0                	add    %edx,%eax
4000a8ce:	0f b6 10             	movzbl (%eax),%edx
4000a8d1:	8b 45 0c             	mov    0xc(%ebp),%eax
4000a8d4:	38 c2                	cmp    %al,%dl
4000a8d6:	75 db                	jne    4000a8b3 <strchr+0xf>
4000a8d8:	8b 55 fc             	mov    -0x4(%ebp),%edx
4000a8db:	8b 45 08             	mov    0x8(%ebp),%eax
4000a8de:	01 d0                	add    %edx,%eax
4000a8e0:	0f b6 00             	movzbl (%eax),%eax
4000a8e3:	0f be c0             	movsbl %al,%eax
4000a8e6:	3b 45 0c             	cmp    0xc(%ebp),%eax
4000a8e9:	75 0d                	jne    4000a8f8 <strchr+0x54>
4000a8eb:	8b 45 08             	mov    0x8(%ebp),%eax
4000a8ee:	8b 55 fc             	mov    -0x4(%ebp),%edx
4000a8f1:	01 c2                	add    %eax,%edx
4000a8f3:	89 55 ec             	mov    %edx,-0x14(%ebp)
4000a8f6:	eb 07                	jmp    4000a8ff <strchr+0x5b>
4000a8f8:	c7 45 ec 00 00 00 00 	movl   $0x0,-0x14(%ebp)
4000a8ff:	8b 45 ec             	mov    -0x14(%ebp),%eax
4000a902:	c9                   	leave  
4000a903:	c3                   	ret    

4000a904 <strcmp>:
4000a904:	55                   	push   %ebp
4000a905:	89 e5                	mov    %esp,%ebp
4000a907:	83 ec 14             	sub    $0x14,%esp
4000a90a:	8b 45 08             	mov    0x8(%ebp),%eax
4000a90d:	3b 45 0c             	cmp    0xc(%ebp),%eax
4000a910:	75 09                	jne    4000a91b <strcmp+0x17>
4000a912:	c7 45 ec 00 00 00 00 	movl   $0x0,-0x14(%ebp)
4000a919:	eb 71                	jmp    4000a98c <strcmp+0x88>
4000a91b:	c7 45 fc 00 00 00 00 	movl   $0x0,-0x4(%ebp)
4000a922:	eb 43                	jmp    4000a967 <strcmp+0x63>
4000a924:	8b 55 fc             	mov    -0x4(%ebp),%edx
4000a927:	8b 45 08             	mov    0x8(%ebp),%eax
4000a92a:	01 d0                	add    %edx,%eax
4000a92c:	0f b6 08             	movzbl (%eax),%ecx
4000a92f:	8b 55 fc             	mov    -0x4(%ebp),%edx
4000a932:	8b 45 0c             	mov    0xc(%ebp),%eax
4000a935:	01 d0                	add    %edx,%eax
4000a937:	0f b6 00             	movzbl (%eax),%eax
4000a93a:	38 c1                	cmp    %al,%cl
4000a93c:	74 25                	je     4000a963 <strcmp+0x5f>
4000a93e:	8b 55 fc             	mov    -0x4(%ebp),%edx
4000a941:	8b 45 08             	mov    0x8(%ebp),%eax
4000a944:	01 d0                	add    %edx,%eax
4000a946:	0f b6 00             	movzbl (%eax),%eax
4000a949:	0f be c8             	movsbl %al,%ecx
4000a94c:	8b 55 fc             	mov    -0x4(%ebp),%edx
4000a94f:	8b 45 0c             	mov    0xc(%ebp),%eax
4000a952:	01 d0                	add    %edx,%eax
4000a954:	0f b6 00             	movzbl (%eax),%eax
4000a957:	0f be c0             	movsbl %al,%eax
4000a95a:	89 ca                	mov    %ecx,%edx
4000a95c:	29 c2                	sub    %eax,%edx
4000a95e:	89 55 ec             	mov    %edx,-0x14(%ebp)
4000a961:	eb 29                	jmp    4000a98c <strcmp+0x88>
4000a963:	83 45 fc 01          	addl   $0x1,-0x4(%ebp)
4000a967:	8b 55 fc             	mov    -0x4(%ebp),%edx
4000a96a:	8b 45 08             	mov    0x8(%ebp),%eax
4000a96d:	01 d0                	add    %edx,%eax
4000a96f:	0f b6 00             	movzbl (%eax),%eax
4000a972:	84 c0                	test   %al,%al
4000a974:	75 ae                	jne    4000a924 <strcmp+0x20>
4000a976:	8b 55 fc             	mov    -0x4(%ebp),%edx
4000a979:	8b 45 0c             	mov    0xc(%ebp),%eax
4000a97c:	01 d0                	add    %edx,%eax
4000a97e:	0f b6 00             	movzbl (%eax),%eax
4000a981:	84 c0                	test   %al,%al
4000a983:	75 9f                	jne    4000a924 <strcmp+0x20>
4000a985:	c7 45 ec 00 00 00 00 	movl   $0x0,-0x14(%ebp)
4000a98c:	8b 45 ec             	mov    -0x14(%ebp),%eax
4000a98f:	c9                   	leave  
4000a990:	c3                   	ret    

4000a991 <strcpy>:
4000a991:	55                   	push   %ebp
4000a992:	89 e5                	mov    %esp,%ebp
4000a994:	83 ec 10             	sub    $0x10,%esp
4000a997:	c7 45 fc 00 00 00 00 	movl   $0x0,-0x4(%ebp)
4000a99e:	eb 1a                	jmp    4000a9ba <strcpy+0x29>
4000a9a0:	8b 55 fc             	mov    -0x4(%ebp),%edx
4000a9a3:	8b 45 08             	mov    0x8(%ebp),%eax
4000a9a6:	8d 0c 10             	lea    (%eax,%edx,1),%ecx
4000a9a9:	8b 55 fc             	mov    -0x4(%ebp),%edx
4000a9ac:	8b 45 0c             	mov    0xc(%ebp),%eax
4000a9af:	01 d0                	add    %edx,%eax
4000a9b1:	0f b6 00             	movzbl (%eax),%eax
4000a9b4:	88 01                	mov    %al,(%ecx)
4000a9b6:	83 45 fc 01          	addl   $0x1,-0x4(%ebp)
4000a9ba:	8b 55 fc             	mov    -0x4(%ebp),%edx
4000a9bd:	8b 45 0c             	mov    0xc(%ebp),%eax
4000a9c0:	01 d0                	add    %edx,%eax
4000a9c2:	0f b6 00             	movzbl (%eax),%eax
4000a9c5:	84 c0                	test   %al,%al
4000a9c7:	75 d7                	jne    4000a9a0 <strcpy+0xf>
4000a9c9:	8b 55 fc             	mov    -0x4(%ebp),%edx
4000a9cc:	8b 45 08             	mov    0x8(%ebp),%eax
4000a9cf:	01 d0                	add    %edx,%eax
4000a9d1:	c6 00 00             	movb   $0x0,(%eax)
4000a9d4:	8b 45 08             	mov    0x8(%ebp),%eax
4000a9d7:	c9                   	leave  
4000a9d8:	c3                   	ret    

4000a9d9 <strdup>:
4000a9d9:	55                   	push   %ebp
4000a9da:	89 e5                	mov    %esp,%ebp
4000a9dc:	83 ec 28             	sub    $0x28,%esp
4000a9df:	8b 45 08             	mov    0x8(%ebp),%eax
4000a9e2:	89 04 24             	mov    %eax,(%esp)
4000a9e5:	e8 3a 00 00 00       	call   4000aa24 <strlen>
4000a9ea:	83 c0 01             	add    $0x1,%eax
4000a9ed:	89 45 fc             	mov    %eax,-0x4(%ebp)
4000a9f0:	8b 45 fc             	mov    -0x4(%ebp),%eax
4000a9f3:	89 04 24             	mov    %eax,(%esp)
4000a9f6:	e8 d9 ca ff ff       	call   400074d4 <malloc>
4000a9fb:	89 c2                	mov    %eax,%edx
4000a9fd:	8b 45 fc             	mov    -0x4(%ebp),%eax
4000aa00:	89 44 24 08          	mov    %eax,0x8(%esp)
4000aa04:	8b 45 08             	mov    0x8(%ebp),%eax
4000aa07:	89 44 24 04          	mov    %eax,0x4(%esp)
4000aa0b:	89 14 24             	mov    %edx,(%esp)
4000aa0e:	e8 59 fc ff ff       	call   4000a66c <memcpy>
4000aa13:	c9                   	leave  
4000aa14:	c3                   	ret    

4000aa15 <strerror>:
4000aa15:	55                   	push   %ebp
4000aa16:	89 e5                	mov    %esp,%ebp
4000aa18:	8b 45 08             	mov    0x8(%ebp),%eax
4000aa1b:	8b 04 85 80 03 01 40 	mov    0x40010380(,%eax,4),%eax
4000aa22:	5d                   	pop    %ebp
4000aa23:	c3                   	ret    

4000aa24 <strlen>:
4000aa24:	55                   	push   %ebp
4000aa25:	89 e5                	mov    %esp,%ebp
4000aa27:	83 ec 10             	sub    $0x10,%esp
4000aa2a:	c7 45 fc 00 00 00 00 	movl   $0x0,-0x4(%ebp)
4000aa31:	eb 04                	jmp    4000aa37 <strlen+0x13>
4000aa33:	83 45 fc 01          	addl   $0x1,-0x4(%ebp)
4000aa37:	8b 55 fc             	mov    -0x4(%ebp),%edx
4000aa3a:	8b 45 08             	mov    0x8(%ebp),%eax
4000aa3d:	01 d0                	add    %edx,%eax
4000aa3f:	0f b6 00             	movzbl (%eax),%eax
4000aa42:	84 c0                	test   %al,%al
4000aa44:	75 ed                	jne    4000aa33 <strlen+0xf>
4000aa46:	8b 45 fc             	mov    -0x4(%ebp),%eax
4000aa49:	c9                   	leave  
4000aa4a:	c3                   	ret    

4000aa4b <strncat>:
4000aa4b:	55                   	push   %ebp
4000aa4c:	89 e5                	mov    %esp,%ebp
4000aa4e:	83 ec 1c             	sub    $0x1c,%esp
4000aa51:	8b 45 0c             	mov    0xc(%ebp),%eax
4000aa54:	89 04 24             	mov    %eax,(%esp)
4000aa57:	e8 c8 ff ff ff       	call   4000aa24 <strlen>
4000aa5c:	89 45 f4             	mov    %eax,-0xc(%ebp)
4000aa5f:	8b 45 10             	mov    0x10(%ebp),%eax
4000aa62:	89 45 e8             	mov    %eax,-0x18(%ebp)
4000aa65:	8b 45 f4             	mov    -0xc(%ebp),%eax
4000aa68:	89 45 ec             	mov    %eax,-0x14(%ebp)
4000aa6b:	8b 45 e8             	mov    -0x18(%ebp),%eax
4000aa6e:	39 45 ec             	cmp    %eax,-0x14(%ebp)
4000aa71:	76 06                	jbe    4000aa79 <strncat+0x2e>
4000aa73:	8b 45 e8             	mov    -0x18(%ebp),%eax
4000aa76:	89 45 ec             	mov    %eax,-0x14(%ebp)
4000aa79:	8b 45 ec             	mov    -0x14(%ebp),%eax
4000aa7c:	89 45 f4             	mov    %eax,-0xc(%ebp)
4000aa7f:	8b 45 08             	mov    0x8(%ebp),%eax
4000aa82:	89 04 24             	mov    %eax,(%esp)
4000aa85:	e8 9a ff ff ff       	call   4000aa24 <strlen>
4000aa8a:	89 45 f8             	mov    %eax,-0x8(%ebp)
4000aa8d:	c7 45 fc 00 00 00 00 	movl   $0x0,-0x4(%ebp)
4000aa94:	eb 1e                	jmp    4000aab4 <strncat+0x69>
4000aa96:	8b 55 fc             	mov    -0x4(%ebp),%edx
4000aa99:	8b 45 f8             	mov    -0x8(%ebp),%eax
4000aa9c:	01 d0                	add    %edx,%eax
4000aa9e:	89 c1                	mov    %eax,%ecx
4000aaa0:	03 4d 08             	add    0x8(%ebp),%ecx
4000aaa3:	8b 55 fc             	mov    -0x4(%ebp),%edx
4000aaa6:	8b 45 0c             	mov    0xc(%ebp),%eax
4000aaa9:	01 d0                	add    %edx,%eax
4000aaab:	0f b6 00             	movzbl (%eax),%eax
4000aaae:	88 01                	mov    %al,(%ecx)
4000aab0:	83 45 fc 01          	addl   $0x1,-0x4(%ebp)
4000aab4:	8b 45 fc             	mov    -0x4(%ebp),%eax
4000aab7:	3b 45 f4             	cmp    -0xc(%ebp),%eax
4000aaba:	72 da                	jb     4000aa96 <strncat+0x4b>
4000aabc:	8b 55 f4             	mov    -0xc(%ebp),%edx
4000aabf:	8b 45 f8             	mov    -0x8(%ebp),%eax
4000aac2:	01 d0                	add    %edx,%eax
4000aac4:	03 45 08             	add    0x8(%ebp),%eax
4000aac7:	c6 00 00             	movb   $0x0,(%eax)
4000aaca:	8b 45 08             	mov    0x8(%ebp),%eax
4000aacd:	c9                   	leave  
4000aace:	c3                   	ret    

4000aacf <strncmp>:
4000aacf:	55                   	push   %ebp
4000aad0:	89 e5                	mov    %esp,%ebp
4000aad2:	83 ec 14             	sub    $0x14,%esp
4000aad5:	8b 45 08             	mov    0x8(%ebp),%eax
4000aad8:	3b 45 0c             	cmp    0xc(%ebp),%eax
4000aadb:	75 09                	jne    4000aae6 <strncmp+0x17>
4000aadd:	c7 45 ec 00 00 00 00 	movl   $0x0,-0x14(%ebp)
4000aae4:	eb 79                	jmp    4000ab5f <strncmp+0x90>
4000aae6:	c7 45 fc 00 00 00 00 	movl   $0x0,-0x4(%ebp)
4000aaed:	eb 43                	jmp    4000ab32 <strncmp+0x63>
4000aaef:	8b 55 fc             	mov    -0x4(%ebp),%edx
4000aaf2:	8b 45 08             	mov    0x8(%ebp),%eax
4000aaf5:	01 d0                	add    %edx,%eax
4000aaf7:	0f b6 08             	movzbl (%eax),%ecx
4000aafa:	8b 55 fc             	mov    -0x4(%ebp),%edx
4000aafd:	8b 45 0c             	mov    0xc(%ebp),%eax
4000ab00:	01 d0                	add    %edx,%eax
4000ab02:	0f b6 00             	movzbl (%eax),%eax
4000ab05:	38 c1                	cmp    %al,%cl
4000ab07:	74 25                	je     4000ab2e <strncmp+0x5f>
4000ab09:	8b 55 fc             	mov    -0x4(%ebp),%edx
4000ab0c:	8b 45 08             	mov    0x8(%ebp),%eax
4000ab0f:	01 d0                	add    %edx,%eax
4000ab11:	0f b6 00             	movzbl (%eax),%eax
4000ab14:	0f be c8             	movsbl %al,%ecx
4000ab17:	8b 55 fc             	mov    -0x4(%ebp),%edx
4000ab1a:	8b 45 0c             	mov    0xc(%ebp),%eax
4000ab1d:	01 d0                	add    %edx,%eax
4000ab1f:	0f b6 00             	movzbl (%eax),%eax
4000ab22:	0f be c0             	movsbl %al,%eax
4000ab25:	89 ca                	mov    %ecx,%edx
4000ab27:	29 c2                	sub    %eax,%edx
4000ab29:	89 55 ec             	mov    %edx,-0x14(%ebp)
4000ab2c:	eb 31                	jmp    4000ab5f <strncmp+0x90>
4000ab2e:	83 45 fc 01          	addl   $0x1,-0x4(%ebp)
4000ab32:	8b 55 fc             	mov    -0x4(%ebp),%edx
4000ab35:	8b 45 08             	mov    0x8(%ebp),%eax
4000ab38:	01 d0                	add    %edx,%eax
4000ab3a:	0f b6 00             	movzbl (%eax),%eax
4000ab3d:	84 c0                	test   %al,%al
4000ab3f:	75 0f                	jne    4000ab50 <strncmp+0x81>
4000ab41:	8b 55 fc             	mov    -0x4(%ebp),%edx
4000ab44:	8b 45 0c             	mov    0xc(%ebp),%eax
4000ab47:	01 d0                	add    %edx,%eax
4000ab49:	0f b6 00             	movzbl (%eax),%eax
4000ab4c:	84 c0                	test   %al,%al
4000ab4e:	74 08                	je     4000ab58 <strncmp+0x89>
4000ab50:	8b 45 fc             	mov    -0x4(%ebp),%eax
4000ab53:	3b 45 10             	cmp    0x10(%ebp),%eax
4000ab56:	72 97                	jb     4000aaef <strncmp+0x20>
4000ab58:	c7 45 ec 00 00 00 00 	movl   $0x0,-0x14(%ebp)
4000ab5f:	8b 45 ec             	mov    -0x14(%ebp),%eax
4000ab62:	c9                   	leave  
4000ab63:	c3                   	ret    

4000ab64 <strncpy>:
4000ab64:	55                   	push   %ebp
4000ab65:	89 e5                	mov    %esp,%ebp
4000ab67:	83 ec 1c             	sub    $0x1c,%esp
4000ab6a:	8b 45 0c             	mov    0xc(%ebp),%eax
4000ab6d:	89 04 24             	mov    %eax,(%esp)
4000ab70:	e8 af fe ff ff       	call   4000aa24 <strlen>
4000ab75:	83 c0 01             	add    $0x1,%eax
4000ab78:	89 45 fc             	mov    %eax,-0x4(%ebp)
4000ab7b:	8b 45 10             	mov    0x10(%ebp),%eax
4000ab7e:	3b 45 fc             	cmp    -0x4(%ebp),%eax
4000ab81:	73 06                	jae    4000ab89 <strncpy+0x25>
4000ab83:	8b 45 10             	mov    0x10(%ebp),%eax
4000ab86:	89 45 fc             	mov    %eax,-0x4(%ebp)
4000ab89:	8b 45 fc             	mov    -0x4(%ebp),%eax
4000ab8c:	83 e8 01             	sub    $0x1,%eax
4000ab8f:	89 44 24 08          	mov    %eax,0x8(%esp)
4000ab93:	8b 45 0c             	mov    0xc(%ebp),%eax
4000ab96:	89 44 24 04          	mov    %eax,0x4(%esp)
4000ab9a:	8b 45 08             	mov    0x8(%ebp),%eax
4000ab9d:	89 04 24             	mov    %eax,(%esp)
4000aba0:	e8 c7 fa ff ff       	call   4000a66c <memcpy>
4000aba5:	8b 45 fc             	mov    -0x4(%ebp),%eax
4000aba8:	83 e8 01             	sub    $0x1,%eax
4000abab:	03 45 08             	add    0x8(%ebp),%eax
4000abae:	c6 00 00             	movb   $0x0,(%eax)
4000abb1:	8b 45 08             	mov    0x8(%ebp),%eax
4000abb4:	c9                   	leave  
4000abb5:	c3                   	ret    

4000abb6 <__strxspn>:
4000abb6:	55                   	push   %ebp
4000abb7:	89 e5                	mov    %esp,%ebp
4000abb9:	81 ec 1c 01 00 00    	sub    $0x11c,%esp
4000abbf:	c7 45 fc 00 00 00 00 	movl   $0x0,-0x4(%ebp)
4000abc6:	c7 44 24 08 00 01 00 	movl   $0x100,0x8(%esp)
4000abcd:	00 
4000abce:	c7 44 24 04 00 00 00 	movl   $0x0,0x4(%esp)
4000abd5:	00 
4000abd6:	8d 85 fc fe ff ff    	lea    -0x104(%ebp),%eax
4000abdc:	89 04 24             	mov    %eax,(%esp)
4000abdf:	e8 65 fc ff ff       	call   4000a849 <memset>
4000abe4:	eb 15                	jmp    4000abfb <__strxspn+0x45>
4000abe6:	8b 45 0c             	mov    0xc(%ebp),%eax
4000abe9:	0f b6 00             	movzbl (%eax),%eax
4000abec:	0f b6 c0             	movzbl %al,%eax
4000abef:	c6 84 05 fc fe ff ff 	movb   $0x1,-0x104(%ebp,%eax,1)
4000abf6:	01 
4000abf7:	83 45 0c 01          	addl   $0x1,0xc(%ebp)
4000abfb:	8b 45 0c             	mov    0xc(%ebp),%eax
4000abfe:	0f b6 00             	movzbl (%eax),%eax
4000ac01:	84 c0                	test   %al,%al
4000ac03:	75 e1                	jne    4000abe6 <__strxspn+0x30>
4000ac05:	8b 45 10             	mov    0x10(%ebp),%eax
4000ac08:	88 85 fc fe ff ff    	mov    %al,-0x104(%ebp)
4000ac0e:	eb 04                	jmp    4000ac14 <__strxspn+0x5e>
4000ac10:	83 45 fc 01          	addl   $0x1,-0x4(%ebp)
4000ac14:	8b 45 08             	mov    0x8(%ebp),%eax
4000ac17:	0f b6 00             	movzbl (%eax),%eax
4000ac1a:	0f b6 c0             	movzbl %al,%eax
4000ac1d:	0f b6 84 05 fc fe ff 	movzbl -0x104(%ebp,%eax,1),%eax
4000ac24:	ff 
4000ac25:	0f be c0             	movsbl %al,%eax
4000ac28:	3b 45 10             	cmp    0x10(%ebp),%eax
4000ac2b:	0f 95 c0             	setne  %al
4000ac2e:	83 45 08 01          	addl   $0x1,0x8(%ebp)
4000ac32:	84 c0                	test   %al,%al
4000ac34:	75 da                	jne    4000ac10 <__strxspn+0x5a>
4000ac36:	8b 45 fc             	mov    -0x4(%ebp),%eax
4000ac39:	c9                   	leave  
4000ac3a:	c3                   	ret    

4000ac3b <strpbrk>:
4000ac3b:	55                   	push   %ebp
4000ac3c:	89 e5                	mov    %esp,%ebp
4000ac3e:	83 ec 20             	sub    $0x20,%esp
4000ac41:	c7 44 24 08 01 00 00 	movl   $0x1,0x8(%esp)
4000ac48:	00 
4000ac49:	8b 45 0c             	mov    0xc(%ebp),%eax
4000ac4c:	89 44 24 04          	mov    %eax,0x4(%esp)
4000ac50:	8b 45 08             	mov    0x8(%ebp),%eax
4000ac53:	89 04 24             	mov    %eax,(%esp)
4000ac56:	e8 5b ff ff ff       	call   4000abb6 <__strxspn>
4000ac5b:	03 45 08             	add    0x8(%ebp),%eax
4000ac5e:	89 45 fc             	mov    %eax,-0x4(%ebp)
4000ac61:	8b 45 fc             	mov    -0x4(%ebp),%eax
4000ac64:	0f b6 00             	movzbl (%eax),%eax
4000ac67:	84 c0                	test   %al,%al
4000ac69:	74 08                	je     4000ac73 <strpbrk+0x38>
4000ac6b:	8b 45 fc             	mov    -0x4(%ebp),%eax
4000ac6e:	89 45 ec             	mov    %eax,-0x14(%ebp)
4000ac71:	eb 07                	jmp    4000ac7a <strpbrk+0x3f>
4000ac73:	c7 45 ec 00 00 00 00 	movl   $0x0,-0x14(%ebp)
4000ac7a:	8b 45 ec             	mov    -0x14(%ebp),%eax
4000ac7d:	c9                   	leave  
4000ac7e:	c3                   	ret    

4000ac7f <strsep>:
4000ac7f:	55                   	push   %ebp
4000ac80:	89 e5                	mov    %esp,%ebp
4000ac82:	83 ec 1c             	sub    $0x1c,%esp
4000ac85:	8b 45 08             	mov    0x8(%ebp),%eax
4000ac88:	8b 00                	mov    (%eax),%eax
4000ac8a:	89 45 f8             	mov    %eax,-0x8(%ebp)
4000ac8d:	83 7d f8 00          	cmpl   $0x0,-0x8(%ebp)
4000ac91:	75 09                	jne    4000ac9c <strsep+0x1d>
4000ac93:	c7 45 ec 00 00 00 00 	movl   $0x0,-0x14(%ebp)
4000ac9a:	eb 33                	jmp    4000accf <strsep+0x50>
4000ac9c:	8b 45 0c             	mov    0xc(%ebp),%eax
4000ac9f:	89 44 24 04          	mov    %eax,0x4(%esp)
4000aca3:	8b 45 f8             	mov    -0x8(%ebp),%eax
4000aca6:	89 04 24             	mov    %eax,(%esp)
4000aca9:	e8 8d ff ff ff       	call   4000ac3b <strpbrk>
4000acae:	89 45 fc             	mov    %eax,-0x4(%ebp)
4000acb1:	83 7d fc 00          	cmpl   $0x0,-0x4(%ebp)
4000acb5:	74 0a                	je     4000acc1 <strsep+0x42>
4000acb7:	8b 45 fc             	mov    -0x4(%ebp),%eax
4000acba:	c6 00 00             	movb   $0x0,(%eax)
4000acbd:	83 45 fc 01          	addl   $0x1,-0x4(%ebp)
4000acc1:	8b 55 08             	mov    0x8(%ebp),%edx
4000acc4:	8b 45 fc             	mov    -0x4(%ebp),%eax
4000acc7:	89 02                	mov    %eax,(%edx)
4000acc9:	8b 45 f8             	mov    -0x8(%ebp),%eax
4000accc:	89 45 ec             	mov    %eax,-0x14(%ebp)
4000accf:	8b 45 ec             	mov    -0x14(%ebp),%eax
4000acd2:	c9                   	leave  
4000acd3:	c3                   	ret    

4000acd4 <strtok>:
4000acd4:	55                   	push   %ebp
4000acd5:	89 e5                	mov    %esp,%ebp
4000acd7:	83 ec 08             	sub    $0x8,%esp
4000acda:	83 7d 08 00          	cmpl   $0x0,0x8(%ebp)
4000acde:	74 08                	je     4000ace8 <strtok+0x14>
4000ace0:	8b 45 08             	mov    0x8(%ebp),%eax
4000ace3:	a3 68 0b 01 40       	mov    %eax,0x40010b68
4000ace8:	8b 45 0c             	mov    0xc(%ebp),%eax
4000aceb:	89 44 24 04          	mov    %eax,0x4(%esp)
4000acef:	c7 04 24 68 0b 01 40 	movl   $0x40010b68,(%esp)
4000acf6:	e8 84 ff ff ff       	call   4000ac7f <strsep>
4000acfb:	89 45 08             	mov    %eax,0x8(%ebp)
4000acfe:	83 7d 08 00          	cmpl   $0x0,0x8(%ebp)
4000ad02:	74 0a                	je     4000ad0e <strtok+0x3a>
4000ad04:	8b 45 08             	mov    0x8(%ebp),%eax
4000ad07:	0f b6 00             	movzbl (%eax),%eax
4000ad0a:	84 c0                	test   %al,%al
4000ad0c:	74 da                	je     4000ace8 <strtok+0x14>
4000ad0e:	8b 45 08             	mov    0x8(%ebp),%eax
4000ad11:	c9                   	leave  
4000ad12:	c3                   	ret    

4000ad13 <strntoumax>:
4000ad13:	55                   	push   %ebp
4000ad14:	89 e5                	mov    %esp,%ebp
4000ad16:	53                   	push   %ebx
4000ad17:	83 ec 34             	sub    $0x34,%esp
4000ad1a:	c7 45 e4 00 00 00 00 	movl   $0x0,-0x1c(%ebp)
4000ad21:	c7 45 e8 00 00 00 00 	movl   $0x0,-0x18(%ebp)
4000ad28:	c7 45 ec 00 00 00 00 	movl   $0x0,-0x14(%ebp)
4000ad2f:	eb 08                	jmp    4000ad39 <strntoumax+0x26>
4000ad31:	83 45 08 01          	addl   $0x1,0x8(%ebp)
4000ad35:	83 6d 14 01          	subl   $0x1,0x14(%ebp)
4000ad39:	83 7d 14 00          	cmpl   $0x0,0x14(%ebp)
4000ad3d:	74 3c                	je     4000ad7b <strntoumax+0x68>
4000ad3f:	8b 45 08             	mov    0x8(%ebp),%eax
4000ad42:	0f b6 00             	movzbl (%eax),%eax
4000ad45:	3c 20                	cmp    $0x20,%al
4000ad47:	74 e8                	je     4000ad31 <strntoumax+0x1e>
4000ad49:	8b 45 08             	mov    0x8(%ebp),%eax
4000ad4c:	0f b6 00             	movzbl (%eax),%eax
4000ad4f:	3c 0c                	cmp    $0xc,%al
4000ad51:	74 de                	je     4000ad31 <strntoumax+0x1e>
4000ad53:	8b 45 08             	mov    0x8(%ebp),%eax
4000ad56:	0f b6 00             	movzbl (%eax),%eax
4000ad59:	3c 0a                	cmp    $0xa,%al
4000ad5b:	74 d4                	je     4000ad31 <strntoumax+0x1e>
4000ad5d:	8b 45 08             	mov    0x8(%ebp),%eax
4000ad60:	0f b6 00             	movzbl (%eax),%eax
4000ad63:	3c 0d                	cmp    $0xd,%al
4000ad65:	74 ca                	je     4000ad31 <strntoumax+0x1e>
4000ad67:	8b 45 08             	mov    0x8(%ebp),%eax
4000ad6a:	0f b6 00             	movzbl (%eax),%eax
4000ad6d:	3c 09                	cmp    $0x9,%al
4000ad6f:	74 c0                	je     4000ad31 <strntoumax+0x1e>
4000ad71:	8b 45 08             	mov    0x8(%ebp),%eax
4000ad74:	0f b6 00             	movzbl (%eax),%eax
4000ad77:	3c 0b                	cmp    $0xb,%al
4000ad79:	74 b6                	je     4000ad31 <strntoumax+0x1e>
4000ad7b:	83 7d 14 00          	cmpl   $0x0,0x14(%ebp)
4000ad7f:	74 2a                	je     4000adab <strntoumax+0x98>
4000ad81:	8b 45 08             	mov    0x8(%ebp),%eax
4000ad84:	0f b6 00             	movzbl (%eax),%eax
4000ad87:	88 45 f7             	mov    %al,-0x9(%ebp)
4000ad8a:	80 7d f7 2d          	cmpb   $0x2d,-0x9(%ebp)
4000ad8e:	74 06                	je     4000ad96 <strntoumax+0x83>
4000ad90:	80 7d f7 2b          	cmpb   $0x2b,-0x9(%ebp)
4000ad94:	75 15                	jne    4000adab <strntoumax+0x98>
4000ad96:	80 7d f7 2d          	cmpb   $0x2d,-0x9(%ebp)
4000ad9a:	0f 94 c0             	sete   %al
4000ad9d:	0f b6 c0             	movzbl %al,%eax
4000ada0:	89 45 e4             	mov    %eax,-0x1c(%ebp)
4000ada3:	83 45 08 01          	addl   $0x1,0x8(%ebp)
4000ada7:	83 6d 14 01          	subl   $0x1,0x14(%ebp)
4000adab:	83 7d 10 00          	cmpl   $0x0,0x10(%ebp)
4000adaf:	75 68                	jne    4000ae19 <strntoumax+0x106>
4000adb1:	83 7d 14 01          	cmpl   $0x1,0x14(%ebp)
4000adb5:	76 38                	jbe    4000adef <strntoumax+0xdc>
4000adb7:	8b 45 08             	mov    0x8(%ebp),%eax
4000adba:	0f b6 00             	movzbl (%eax),%eax
4000adbd:	3c 30                	cmp    $0x30,%al
4000adbf:	75 2e                	jne    4000adef <strntoumax+0xdc>
4000adc1:	8b 45 08             	mov    0x8(%ebp),%eax
4000adc4:	83 c0 01             	add    $0x1,%eax
4000adc7:	0f b6 00             	movzbl (%eax),%eax
4000adca:	3c 78                	cmp    $0x78,%al
4000adcc:	74 0d                	je     4000addb <strntoumax+0xc8>
4000adce:	8b 45 08             	mov    0x8(%ebp),%eax
4000add1:	83 c0 01             	add    $0x1,%eax
4000add4:	0f b6 00             	movzbl (%eax),%eax
4000add7:	3c 58                	cmp    $0x58,%al
4000add9:	75 14                	jne    4000adef <strntoumax+0xdc>
4000addb:	83 6d 14 02          	subl   $0x2,0x14(%ebp)
4000addf:	83 45 08 02          	addl   $0x2,0x8(%ebp)
4000ade3:	c7 45 10 10 00 00 00 	movl   $0x10,0x10(%ebp)
4000adea:	e9 9b 00 00 00       	jmp    4000ae8a <strntoumax+0x177>
4000adef:	83 7d 14 00          	cmpl   $0x0,0x14(%ebp)
4000adf3:	74 1b                	je     4000ae10 <strntoumax+0xfd>
4000adf5:	8b 45 08             	mov    0x8(%ebp),%eax
4000adf8:	0f b6 00             	movzbl (%eax),%eax
4000adfb:	3c 30                	cmp    $0x30,%al
4000adfd:	75 11                	jne    4000ae10 <strntoumax+0xfd>
4000adff:	83 6d 14 01          	subl   $0x1,0x14(%ebp)
4000ae03:	83 45 08 01          	addl   $0x1,0x8(%ebp)
4000ae07:	c7 45 10 08 00 00 00 	movl   $0x8,0x10(%ebp)
4000ae0e:	eb 7a                	jmp    4000ae8a <strntoumax+0x177>
4000ae10:	c7 45 10 0a 00 00 00 	movl   $0xa,0x10(%ebp)
4000ae17:	eb 71                	jmp    4000ae8a <strntoumax+0x177>
4000ae19:	83 7d 10 10          	cmpl   $0x10,0x10(%ebp)
4000ae1d:	75 6b                	jne    4000ae8a <strntoumax+0x177>
4000ae1f:	83 7d 14 01          	cmpl   $0x1,0x14(%ebp)
4000ae23:	76 65                	jbe    4000ae8a <strntoumax+0x177>
4000ae25:	8b 45 08             	mov    0x8(%ebp),%eax
4000ae28:	0f b6 00             	movzbl (%eax),%eax
4000ae2b:	3c 30                	cmp    $0x30,%al
4000ae2d:	75 5b                	jne    4000ae8a <strntoumax+0x177>
4000ae2f:	8b 45 08             	mov    0x8(%ebp),%eax
4000ae32:	83 c0 01             	add    $0x1,%eax
4000ae35:	0f b6 00             	movzbl (%eax),%eax
4000ae38:	3c 78                	cmp    $0x78,%al
4000ae3a:	74 0d                	je     4000ae49 <strntoumax+0x136>
4000ae3c:	8b 45 08             	mov    0x8(%ebp),%eax
4000ae3f:	83 c0 01             	add    $0x1,%eax
4000ae42:	0f b6 00             	movzbl (%eax),%eax
4000ae45:	3c 58                	cmp    $0x58,%al
4000ae47:	75 41                	jne    4000ae8a <strntoumax+0x177>
4000ae49:	83 6d 14 02          	subl   $0x2,0x14(%ebp)
4000ae4d:	83 45 08 02          	addl   $0x2,0x8(%ebp)
4000ae51:	eb 37                	jmp    4000ae8a <strntoumax+0x177>
4000ae53:	8b 45 10             	mov    0x10(%ebp),%eax
4000ae56:	89 c2                	mov    %eax,%edx
4000ae58:	c1 fa 1f             	sar    $0x1f,%edx
4000ae5b:	8b 4d e8             	mov    -0x18(%ebp),%ecx
4000ae5e:	0f af ca             	imul   %edx,%ecx
4000ae61:	8b 5d ec             	mov    -0x14(%ebp),%ebx
4000ae64:	0f af d8             	imul   %eax,%ebx
4000ae67:	01 d9                	add    %ebx,%ecx
4000ae69:	f7 65 e8             	mull   -0x18(%ebp)
4000ae6c:	01 d1                	add    %edx,%ecx
4000ae6e:	89 ca                	mov    %ecx,%edx
4000ae70:	8b 4d f0             	mov    -0x10(%ebp),%ecx
4000ae73:	89 cb                	mov    %ecx,%ebx
4000ae75:	c1 fb 1f             	sar    $0x1f,%ebx
4000ae78:	01 c8                	add    %ecx,%eax
4000ae7a:	11 da                	adc    %ebx,%edx
4000ae7c:	89 45 e8             	mov    %eax,-0x18(%ebp)
4000ae7f:	89 55 ec             	mov    %edx,-0x14(%ebp)
4000ae82:	83 6d 14 01          	subl   $0x1,0x14(%ebp)
4000ae86:	83 45 08 01          	addl   $0x1,0x8(%ebp)
4000ae8a:	83 7d 14 00          	cmpl   $0x0,0x14(%ebp)
4000ae8e:	74 22                	je     4000aeb2 <strntoumax+0x19f>
4000ae90:	8b 45 08             	mov    0x8(%ebp),%eax
4000ae93:	0f b6 00             	movzbl (%eax),%eax
4000ae96:	0f be c0             	movsbl %al,%eax
4000ae99:	89 04 24             	mov    %eax,(%esp)
4000ae9c:	e8 56 00 00 00       	call   4000aef7 <digitval>
4000aea1:	89 45 f0             	mov    %eax,-0x10(%ebp)
4000aea4:	83 7d f0 00          	cmpl   $0x0,-0x10(%ebp)
4000aea8:	78 08                	js     4000aeb2 <strntoumax+0x19f>
4000aeaa:	8b 45 f0             	mov    -0x10(%ebp),%eax
4000aead:	3b 45 10             	cmp    0x10(%ebp),%eax
4000aeb0:	7c a1                	jl     4000ae53 <strntoumax+0x140>
4000aeb2:	83 7d 0c 00          	cmpl   $0x0,0xc(%ebp)
4000aeb6:	74 08                	je     4000aec0 <strntoumax+0x1ad>
4000aeb8:	8b 55 08             	mov    0x8(%ebp),%edx
4000aebb:	8b 45 0c             	mov    0xc(%ebp),%eax
4000aebe:	89 10                	mov    %edx,(%eax)
4000aec0:	83 7d e4 00          	cmpl   $0x0,-0x1c(%ebp)
4000aec4:	74 19                	je     4000aedf <strntoumax+0x1cc>
4000aec6:	8b 45 e8             	mov    -0x18(%ebp),%eax
4000aec9:	8b 55 ec             	mov    -0x14(%ebp),%edx
4000aecc:	89 c1                	mov    %eax,%ecx
4000aece:	89 d3                	mov    %edx,%ebx
4000aed0:	f7 d9                	neg    %ecx
4000aed2:	83 d3 00             	adc    $0x0,%ebx
4000aed5:	f7 db                	neg    %ebx
4000aed7:	89 4d d0             	mov    %ecx,-0x30(%ebp)
4000aeda:	89 5d d4             	mov    %ebx,-0x2c(%ebp)
4000aedd:	eb 0c                	jmp    4000aeeb <strntoumax+0x1d8>
4000aedf:	8b 45 e8             	mov    -0x18(%ebp),%eax
4000aee2:	8b 55 ec             	mov    -0x14(%ebp),%edx
4000aee5:	89 45 d0             	mov    %eax,-0x30(%ebp)
4000aee8:	89 55 d4             	mov    %edx,-0x2c(%ebp)
4000aeeb:	8b 45 d0             	mov    -0x30(%ebp),%eax
4000aeee:	8b 55 d4             	mov    -0x2c(%ebp),%edx
4000aef1:	83 c4 34             	add    $0x34,%esp
4000aef4:	5b                   	pop    %ebx
4000aef5:	5d                   	pop    %ebp
4000aef6:	c3                   	ret    

4000aef7 <digitval>:
4000aef7:	55                   	push   %ebp
4000aef8:	89 e5                	mov    %esp,%ebp
4000aefa:	83 ec 04             	sub    $0x4,%esp
4000aefd:	83 7d 08 2f          	cmpl   $0x2f,0x8(%ebp)
4000af01:	7e 11                	jle    4000af14 <digitval+0x1d>
4000af03:	83 7d 08 39          	cmpl   $0x39,0x8(%ebp)
4000af07:	7f 0b                	jg     4000af14 <digitval+0x1d>
4000af09:	8b 45 08             	mov    0x8(%ebp),%eax
4000af0c:	83 e8 30             	sub    $0x30,%eax
4000af0f:	89 45 fc             	mov    %eax,-0x4(%ebp)
4000af12:	eb 35                	jmp    4000af49 <digitval+0x52>
4000af14:	83 7d 08 40          	cmpl   $0x40,0x8(%ebp)
4000af18:	7e 11                	jle    4000af2b <digitval+0x34>
4000af1a:	83 7d 08 5a          	cmpl   $0x5a,0x8(%ebp)
4000af1e:	7f 0b                	jg     4000af2b <digitval+0x34>
4000af20:	8b 45 08             	mov    0x8(%ebp),%eax
4000af23:	83 e8 37             	sub    $0x37,%eax
4000af26:	89 45 fc             	mov    %eax,-0x4(%ebp)
4000af29:	eb 1e                	jmp    4000af49 <digitval+0x52>
4000af2b:	83 7d 08 60          	cmpl   $0x60,0x8(%ebp)
4000af2f:	7e 11                	jle    4000af42 <digitval+0x4b>
4000af31:	83 7d 08 7a          	cmpl   $0x7a,0x8(%ebp)
4000af35:	7f 0b                	jg     4000af42 <digitval+0x4b>
4000af37:	8b 45 08             	mov    0x8(%ebp),%eax
4000af3a:	83 e8 57             	sub    $0x57,%eax
4000af3d:	89 45 fc             	mov    %eax,-0x4(%ebp)
4000af40:	eb 07                	jmp    4000af49 <digitval+0x52>
4000af42:	c7 45 fc ff ff ff ff 	movl   $0xffffffff,-0x4(%ebp)
4000af49:	8b 45 fc             	mov    -0x4(%ebp),%eax
4000af4c:	c9                   	leave  
4000af4d:	c3                   	ret    

4000af4e <strrchr>:
4000af4e:	55                   	push   %ebp
4000af4f:	89 e5                	mov    %esp,%ebp
4000af51:	83 ec 10             	sub    $0x10,%esp
4000af54:	c7 45 f8 00 00 00 00 	movl   $0x0,-0x8(%ebp)
4000af5b:	c7 45 fc 00 00 00 00 	movl   $0x0,-0x4(%ebp)
4000af62:	eb 20                	jmp    4000af84 <strrchr+0x36>
4000af64:	8b 55 fc             	mov    -0x4(%ebp),%edx
4000af67:	8b 45 08             	mov    0x8(%ebp),%eax
4000af6a:	01 d0                	add    %edx,%eax
4000af6c:	0f b6 00             	movzbl (%eax),%eax
4000af6f:	0f be c0             	movsbl %al,%eax
4000af72:	3b 45 0c             	cmp    0xc(%ebp),%eax
4000af75:	75 09                	jne    4000af80 <strrchr+0x32>
4000af77:	8b 45 08             	mov    0x8(%ebp),%eax
4000af7a:	03 45 fc             	add    -0x4(%ebp),%eax
4000af7d:	89 45 f8             	mov    %eax,-0x8(%ebp)
4000af80:	83 45 fc 01          	addl   $0x1,-0x4(%ebp)
4000af84:	8b 55 fc             	mov    -0x4(%ebp),%edx
4000af87:	8b 45 08             	mov    0x8(%ebp),%eax
4000af8a:	01 d0                	add    %edx,%eax
4000af8c:	0f b6 00             	movzbl (%eax),%eax
4000af8f:	84 c0                	test   %al,%al
4000af91:	75 d1                	jne    4000af64 <strrchr+0x16>
4000af93:	8b 45 f8             	mov    -0x8(%ebp),%eax
4000af96:	c9                   	leave  
4000af97:	c3                   	ret    

4000af98 <strxspn>:
4000af98:	55                   	push   %ebp
4000af99:	89 e5                	mov    %esp,%ebp
4000af9b:	81 ec 1c 01 00 00    	sub    $0x11c,%esp
4000afa1:	c7 45 fc 00 00 00 00 	movl   $0x0,-0x4(%ebp)
4000afa8:	c7 44 24 08 00 01 00 	movl   $0x100,0x8(%esp)
4000afaf:	00 
4000afb0:	c7 44 24 04 00 00 00 	movl   $0x0,0x4(%esp)
4000afb7:	00 
4000afb8:	8d 85 fc fe ff ff    	lea    -0x104(%ebp),%eax
4000afbe:	89 04 24             	mov    %eax,(%esp)
4000afc1:	e8 83 f8 ff ff       	call   4000a849 <memset>
4000afc6:	eb 15                	jmp    4000afdd <strxspn+0x45>
4000afc8:	8b 45 0c             	mov    0xc(%ebp),%eax
4000afcb:	0f b6 00             	movzbl (%eax),%eax
4000afce:	0f b6 c0             	movzbl %al,%eax
4000afd1:	c6 84 05 fc fe ff ff 	movb   $0x1,-0x104(%ebp,%eax,1)
4000afd8:	01 
4000afd9:	83 45 0c 01          	addl   $0x1,0xc(%ebp)
4000afdd:	8b 45 0c             	mov    0xc(%ebp),%eax
4000afe0:	0f b6 00             	movzbl (%eax),%eax
4000afe3:	84 c0                	test   %al,%al
4000afe5:	75 e1                	jne    4000afc8 <strxspn+0x30>
4000afe7:	8b 45 10             	mov    0x10(%ebp),%eax
4000afea:	88 85 fc fe ff ff    	mov    %al,-0x104(%ebp)
4000aff0:	eb 04                	jmp    4000aff6 <strxspn+0x5e>
4000aff2:	83 45 fc 01          	addl   $0x1,-0x4(%ebp)
4000aff6:	8b 45 08             	mov    0x8(%ebp),%eax
4000aff9:	0f b6 00             	movzbl (%eax),%eax
4000affc:	0f b6 c0             	movzbl %al,%eax
4000afff:	0f b6 84 05 fc fe ff 	movzbl -0x104(%ebp,%eax,1),%eax
4000b006:	ff 
4000b007:	0f be c0             	movsbl %al,%eax
4000b00a:	3b 45 10             	cmp    0x10(%ebp),%eax
4000b00d:	0f 95 c0             	setne  %al
4000b010:	83 45 08 01          	addl   $0x1,0x8(%ebp)
4000b014:	84 c0                	test   %al,%al
4000b016:	75 da                	jne    4000aff2 <strxspn+0x5a>
4000b018:	8b 45 fc             	mov    -0x4(%ebp),%eax
4000b01b:	c9                   	leave  
4000b01c:	c3                   	ret    

4000b01d <strspn>:
4000b01d:	55                   	push   %ebp
4000b01e:	89 e5                	mov    %esp,%ebp
4000b020:	83 ec 0c             	sub    $0xc,%esp
4000b023:	c7 44 24 08 00 00 00 	movl   $0x0,0x8(%esp)
4000b02a:	00 
4000b02b:	8b 45 0c             	mov    0xc(%ebp),%eax
4000b02e:	89 44 24 04          	mov    %eax,0x4(%esp)
4000b032:	8b 45 08             	mov    0x8(%ebp),%eax
4000b035:	89 04 24             	mov    %eax,(%esp)
4000b038:	e8 5b ff ff ff       	call   4000af98 <strxspn>
4000b03d:	c9                   	leave  
4000b03e:	c3                   	ret    

4000b03f <strcspn>:
4000b03f:	55                   	push   %ebp
4000b040:	89 e5                	mov    %esp,%ebp
4000b042:	83 ec 0c             	sub    $0xc,%esp
4000b045:	c7 44 24 08 01 00 00 	movl   $0x1,0x8(%esp)
4000b04c:	00 
4000b04d:	8b 45 0c             	mov    0xc(%ebp),%eax
4000b050:	89 44 24 04          	mov    %eax,0x4(%esp)
4000b054:	8b 45 08             	mov    0x8(%ebp),%eax
4000b057:	89 04 24             	mov    %eax,(%esp)
4000b05a:	e8 39 ff ff ff       	call   4000af98 <strxspn>
4000b05f:	c9                   	leave  
4000b060:	c3                   	ret    
4000b061:	90                   	nop    
4000b062:	90                   	nop    
4000b063:	90                   	nop    

4000b064 <llist_create>:
4000b064:	55                   	push   %ebp
4000b065:	89 e5                	mov    %esp,%ebp
4000b067:	83 ec 18             	sub    $0x18,%esp
4000b06a:	c7 04 24 08 00 00 00 	movl   $0x8,(%esp)
4000b071:	e8 5e c4 ff ff       	call   400074d4 <malloc>
4000b076:	89 45 fc             	mov    %eax,-0x4(%ebp)
4000b079:	8b 45 fc             	mov    -0x4(%ebp),%eax
4000b07c:	c7 00 00 00 00 00    	movl   $0x0,(%eax)
4000b082:	8b 45 fc             	mov    -0x4(%ebp),%eax
4000b085:	c7 40 04 00 00 00 00 	movl   $0x0,0x4(%eax)
4000b08c:	8b 45 fc             	mov    -0x4(%ebp),%eax
4000b08f:	c9                   	leave  
4000b090:	c3                   	ret    

4000b091 <llist_destroy>:
4000b091:	55                   	push   %ebp
4000b092:	89 e5                	mov    %esp,%ebp
4000b094:	83 ec 08             	sub    $0x8,%esp
4000b097:	8b 45 08             	mov    0x8(%ebp),%eax
4000b09a:	89 04 24             	mov    %eax,(%esp)
4000b09d:	e8 96 00 00 00       	call   4000b138 <llist_pop>
4000b0a2:	85 c0                	test   %eax,%eax
4000b0a4:	75 f1                	jne    4000b097 <llist_destroy+0x6>
4000b0a6:	8b 45 08             	mov    0x8(%ebp),%eax
4000b0a9:	89 04 24             	mov    %eax,(%esp)
4000b0ac:	e8 da c8 ff ff       	call   4000798b <free>
4000b0b1:	c9                   	leave  
4000b0b2:	c3                   	ret    

4000b0b3 <llist_size>:
4000b0b3:	55                   	push   %ebp
4000b0b4:	89 e5                	mov    %esp,%ebp
4000b0b6:	83 ec 04             	sub    $0x4,%esp
4000b0b9:	83 7d 08 00          	cmpl   $0x0,0x8(%ebp)
4000b0bd:	74 09                	je     4000b0c8 <llist_size+0x15>
4000b0bf:	8b 45 08             	mov    0x8(%ebp),%eax
4000b0c2:	8b 00                	mov    (%eax),%eax
4000b0c4:	85 c0                	test   %eax,%eax
4000b0c6:	75 09                	jne    4000b0d1 <llist_size+0x1e>
4000b0c8:	c7 45 fc 00 00 00 00 	movl   $0x0,-0x4(%ebp)
4000b0cf:	eb 09                	jmp    4000b0da <llist_size+0x27>
4000b0d1:	8b 45 08             	mov    0x8(%ebp),%eax
4000b0d4:	8b 40 04             	mov    0x4(%eax),%eax
4000b0d7:	89 45 fc             	mov    %eax,-0x4(%ebp)
4000b0da:	8b 45 fc             	mov    -0x4(%ebp),%eax
4000b0dd:	c9                   	leave  
4000b0de:	c3                   	ret    

4000b0df <llist_push>:
4000b0df:	55                   	push   %ebp
4000b0e0:	89 e5                	mov    %esp,%ebp
4000b0e2:	83 ec 18             	sub    $0x18,%esp
4000b0e5:	83 7d 08 00          	cmpl   $0x0,0x8(%ebp)
4000b0e9:	75 09                	jne    4000b0f4 <llist_push+0x15>
4000b0eb:	c7 45 ec 00 00 00 00 	movl   $0x0,-0x14(%ebp)
4000b0f2:	eb 3f                	jmp    4000b133 <llist_push+0x54>
4000b0f4:	c7 04 24 08 00 00 00 	movl   $0x8,(%esp)
4000b0fb:	e8 d4 c3 ff ff       	call   400074d4 <malloc>
4000b100:	89 45 fc             	mov    %eax,-0x4(%ebp)
4000b103:	8b 55 fc             	mov    -0x4(%ebp),%edx
4000b106:	8b 45 0c             	mov    0xc(%ebp),%eax
4000b109:	89 42 04             	mov    %eax,0x4(%edx)
4000b10c:	8b 45 08             	mov    0x8(%ebp),%eax
4000b10f:	8b 10                	mov    (%eax),%edx
4000b111:	8b 45 fc             	mov    -0x4(%ebp),%eax
4000b114:	89 10                	mov    %edx,(%eax)
4000b116:	8b 55 08             	mov    0x8(%ebp),%edx
4000b119:	8b 45 fc             	mov    -0x4(%ebp),%eax
4000b11c:	89 02                	mov    %eax,(%edx)
4000b11e:	8b 45 08             	mov    0x8(%ebp),%eax
4000b121:	8b 40 04             	mov    0x4(%eax),%eax
4000b124:	8d 50 01             	lea    0x1(%eax),%edx
4000b127:	8b 45 08             	mov    0x8(%ebp),%eax
4000b12a:	89 50 04             	mov    %edx,0x4(%eax)
4000b12d:	8b 45 08             	mov    0x8(%ebp),%eax
4000b130:	89 45 ec             	mov    %eax,-0x14(%ebp)
4000b133:	8b 45 ec             	mov    -0x14(%ebp),%eax
4000b136:	c9                   	leave  
4000b137:	c3                   	ret    

4000b138 <llist_pop>:
4000b138:	55                   	push   %ebp
4000b139:	89 e5                	mov    %esp,%ebp
4000b13b:	83 ec 18             	sub    $0x18,%esp
4000b13e:	83 7d 08 00          	cmpl   $0x0,0x8(%ebp)
4000b142:	75 09                	jne    4000b14d <llist_pop+0x15>
4000b144:	c7 45 ec 00 00 00 00 	movl   $0x0,-0x14(%ebp)
4000b14b:	eb 51                	jmp    4000b19e <llist_pop+0x66>
4000b14d:	8b 45 08             	mov    0x8(%ebp),%eax
4000b150:	8b 00                	mov    (%eax),%eax
4000b152:	85 c0                	test   %eax,%eax
4000b154:	74 3b                	je     4000b191 <llist_pop+0x59>
4000b156:	8b 45 08             	mov    0x8(%ebp),%eax
4000b159:	8b 00                	mov    (%eax),%eax
4000b15b:	8b 40 04             	mov    0x4(%eax),%eax
4000b15e:	89 45 fc             	mov    %eax,-0x4(%ebp)
4000b161:	8b 45 08             	mov    0x8(%ebp),%eax
4000b164:	8b 00                	mov    (%eax),%eax
4000b166:	89 45 f8             	mov    %eax,-0x8(%ebp)
4000b169:	8b 45 08             	mov    0x8(%ebp),%eax
4000b16c:	8b 00                	mov    (%eax),%eax
4000b16e:	8b 10                	mov    (%eax),%edx
4000b170:	8b 45 08             	mov    0x8(%ebp),%eax
4000b173:	89 10                	mov    %edx,(%eax)
4000b175:	8b 45 f8             	mov    -0x8(%ebp),%eax
4000b178:	89 04 24             	mov    %eax,(%esp)
4000b17b:	e8 0b c8 ff ff       	call   4000798b <free>
4000b180:	8b 45 08             	mov    0x8(%ebp),%eax
4000b183:	8b 40 04             	mov    0x4(%eax),%eax
4000b186:	8d 50 ff             	lea    -0x1(%eax),%edx
4000b189:	8b 45 08             	mov    0x8(%ebp),%eax
4000b18c:	89 50 04             	mov    %edx,0x4(%eax)
4000b18f:	eb 07                	jmp    4000b198 <llist_pop+0x60>
4000b191:	c7 45 fc 00 00 00 00 	movl   $0x0,-0x4(%ebp)
4000b198:	8b 45 fc             	mov    -0x4(%ebp),%eax
4000b19b:	89 45 ec             	mov    %eax,-0x14(%ebp)
4000b19e:	8b 45 ec             	mov    -0x14(%ebp),%eax
4000b1a1:	c9                   	leave  
4000b1a2:	c3                   	ret    

4000b1a3 <llist_get_node_at>:
4000b1a3:	55                   	push   %ebp
4000b1a4:	89 e5                	mov    %esp,%ebp
4000b1a6:	83 ec 14             	sub    $0x14,%esp
4000b1a9:	83 7d 08 00          	cmpl   $0x0,0x8(%ebp)
4000b1ad:	74 09                	je     4000b1b8 <llist_get_node_at+0x15>
4000b1af:	8b 45 08             	mov    0x8(%ebp),%eax
4000b1b2:	8b 00                	mov    (%eax),%eax
4000b1b4:	85 c0                	test   %eax,%eax
4000b1b6:	75 09                	jne    4000b1c1 <llist_get_node_at+0x1e>
4000b1b8:	c7 45 ec 00 00 00 00 	movl   $0x0,-0x14(%ebp)
4000b1bf:	eb 51                	jmp    4000b212 <llist_get_node_at+0x6f>
4000b1c1:	8b 45 08             	mov    0x8(%ebp),%eax
4000b1c4:	8b 00                	mov    (%eax),%eax
4000b1c6:	89 45 f8             	mov    %eax,-0x8(%ebp)
4000b1c9:	8b 45 0c             	mov    0xc(%ebp),%eax
4000b1cc:	89 45 fc             	mov    %eax,-0x4(%ebp)
4000b1cf:	8b 45 08             	mov    0x8(%ebp),%eax
4000b1d2:	8b 40 04             	mov    0x4(%eax),%eax
4000b1d5:	83 e8 01             	sub    $0x1,%eax
4000b1d8:	3b 45 0c             	cmp    0xc(%ebp),%eax
4000b1db:	73 20                	jae    4000b1fd <llist_get_node_at+0x5a>
4000b1dd:	c7 45 ec 00 00 00 00 	movl   $0x0,-0x14(%ebp)
4000b1e4:	eb 2c                	jmp    4000b212 <llist_get_node_at+0x6f>
4000b1e6:	8b 45 f8             	mov    -0x8(%ebp),%eax
4000b1e9:	8b 00                	mov    (%eax),%eax
4000b1eb:	89 45 f8             	mov    %eax,-0x8(%ebp)
4000b1ee:	83 7d f8 00          	cmpl   $0x0,-0x8(%ebp)
4000b1f2:	75 09                	jne    4000b1fd <llist_get_node_at+0x5a>
4000b1f4:	c7 45 ec 00 00 00 00 	movl   $0x0,-0x14(%ebp)
4000b1fb:	eb 15                	jmp    4000b212 <llist_get_node_at+0x6f>
4000b1fd:	83 7d fc 00          	cmpl   $0x0,-0x4(%ebp)
4000b201:	0f 95 c0             	setne  %al
4000b204:	83 6d fc 01          	subl   $0x1,-0x4(%ebp)
4000b208:	84 c0                	test   %al,%al
4000b20a:	75 da                	jne    4000b1e6 <llist_get_node_at+0x43>
4000b20c:	8b 45 f8             	mov    -0x8(%ebp),%eax
4000b20f:	89 45 ec             	mov    %eax,-0x14(%ebp)
4000b212:	8b 45 ec             	mov    -0x14(%ebp),%eax
4000b215:	c9                   	leave  
4000b216:	c3                   	ret    

4000b217 <llist_get>:
4000b217:	55                   	push   %ebp
4000b218:	89 e5                	mov    %esp,%ebp
4000b21a:	83 ec 1c             	sub    $0x1c,%esp
4000b21d:	8b 45 0c             	mov    0xc(%ebp),%eax
4000b220:	89 44 24 04          	mov    %eax,0x4(%esp)
4000b224:	8b 45 08             	mov    0x8(%ebp),%eax
4000b227:	89 04 24             	mov    %eax,(%esp)
4000b22a:	e8 74 ff ff ff       	call   4000b1a3 <llist_get_node_at>
4000b22f:	89 45 fc             	mov    %eax,-0x4(%ebp)
4000b232:	83 7d fc 00          	cmpl   $0x0,-0x4(%ebp)
4000b236:	75 09                	jne    4000b241 <llist_get+0x2a>
4000b238:	c7 45 ec 00 00 00 00 	movl   $0x0,-0x14(%ebp)
4000b23f:	eb 09                	jmp    4000b24a <llist_get+0x33>
4000b241:	8b 45 fc             	mov    -0x4(%ebp),%eax
4000b244:	8b 40 04             	mov    0x4(%eax),%eax
4000b247:	89 45 ec             	mov    %eax,-0x14(%ebp)
4000b24a:	8b 45 ec             	mov    -0x14(%ebp),%eax
4000b24d:	c9                   	leave  
4000b24e:	c3                   	ret    

4000b24f <llist_insert>:
4000b24f:	55                   	push   %ebp
4000b250:	89 e5                	mov    %esp,%ebp
4000b252:	83 ec 28             	sub    $0x28,%esp
4000b255:	c7 04 24 08 00 00 00 	movl   $0x8,(%esp)
4000b25c:	e8 73 c2 ff ff       	call   400074d4 <malloc>
4000b261:	89 45 f8             	mov    %eax,-0x8(%ebp)
4000b264:	8b 55 f8             	mov    -0x8(%ebp),%edx
4000b267:	8b 45 10             	mov    0x10(%ebp),%eax
4000b26a:	89 42 04             	mov    %eax,0x4(%edx)
4000b26d:	83 7d 08 00          	cmpl   $0x0,0x8(%ebp)
4000b271:	75 09                	jne    4000b27c <llist_insert+0x2d>
4000b273:	c7 45 ec 00 00 00 00 	movl   $0x0,-0x14(%ebp)
4000b27a:	eb 68                	jmp    4000b2e4 <llist_insert+0x95>
4000b27c:	83 7d 0c 00          	cmpl   $0x0,0xc(%ebp)
4000b280:	74 3b                	je     4000b2bd <llist_insert+0x6e>
4000b282:	8b 45 0c             	mov    0xc(%ebp),%eax
4000b285:	83 e8 01             	sub    $0x1,%eax
4000b288:	89 44 24 04          	mov    %eax,0x4(%esp)
4000b28c:	8b 45 08             	mov    0x8(%ebp),%eax
4000b28f:	89 04 24             	mov    %eax,(%esp)
4000b292:	e8 0c ff ff ff       	call   4000b1a3 <llist_get_node_at>
4000b297:	89 45 fc             	mov    %eax,-0x4(%ebp)
4000b29a:	83 7d fc 00          	cmpl   $0x0,-0x4(%ebp)
4000b29e:	75 09                	jne    4000b2a9 <llist_insert+0x5a>
4000b2a0:	c7 45 ec 00 00 00 00 	movl   $0x0,-0x14(%ebp)
4000b2a7:	eb 3b                	jmp    4000b2e4 <llist_insert+0x95>
4000b2a9:	8b 45 fc             	mov    -0x4(%ebp),%eax
4000b2ac:	8b 10                	mov    (%eax),%edx
4000b2ae:	8b 45 f8             	mov    -0x8(%ebp),%eax
4000b2b1:	89 10                	mov    %edx,(%eax)
4000b2b3:	8b 55 fc             	mov    -0x4(%ebp),%edx
4000b2b6:	8b 45 f8             	mov    -0x8(%ebp),%eax
4000b2b9:	89 02                	mov    %eax,(%edx)
4000b2bb:	eb 12                	jmp    4000b2cf <llist_insert+0x80>
4000b2bd:	8b 45 08             	mov    0x8(%ebp),%eax
4000b2c0:	8b 10                	mov    (%eax),%edx
4000b2c2:	8b 45 f8             	mov    -0x8(%ebp),%eax
4000b2c5:	89 10                	mov    %edx,(%eax)
4000b2c7:	8b 55 08             	mov    0x8(%ebp),%edx
4000b2ca:	8b 45 f8             	mov    -0x8(%ebp),%eax
4000b2cd:	89 02                	mov    %eax,(%edx)
4000b2cf:	8b 45 08             	mov    0x8(%ebp),%eax
4000b2d2:	8b 40 04             	mov    0x4(%eax),%eax
4000b2d5:	8d 50 01             	lea    0x1(%eax),%edx
4000b2d8:	8b 45 08             	mov    0x8(%ebp),%eax
4000b2db:	89 50 04             	mov    %edx,0x4(%eax)
4000b2de:	8b 45 08             	mov    0x8(%ebp),%eax
4000b2e1:	89 45 ec             	mov    %eax,-0x14(%ebp)
4000b2e4:	8b 45 ec             	mov    -0x14(%ebp),%eax
4000b2e7:	c9                   	leave  
4000b2e8:	c3                   	ret    

4000b2e9 <llist_remove>:
4000b2e9:	55                   	push   %ebp
4000b2ea:	89 e5                	mov    %esp,%ebp
4000b2ec:	83 ec 28             	sub    $0x28,%esp
4000b2ef:	83 7d 08 00          	cmpl   $0x0,0x8(%ebp)
4000b2f3:	75 0c                	jne    4000b301 <llist_remove+0x18>
4000b2f5:	c7 45 ec 00 00 00 00 	movl   $0x0,-0x14(%ebp)
4000b2fc:	e9 ab 00 00 00       	jmp    4000b3ac <llist_remove+0xc3>
4000b301:	83 7d 0c 00          	cmpl   $0x0,0xc(%ebp)
4000b305:	74 58                	je     4000b35f <llist_remove+0x76>
4000b307:	8b 45 0c             	mov    0xc(%ebp),%eax
4000b30a:	83 e8 01             	sub    $0x1,%eax
4000b30d:	89 44 24 04          	mov    %eax,0x4(%esp)
4000b311:	8b 45 08             	mov    0x8(%ebp),%eax
4000b314:	89 04 24             	mov    %eax,(%esp)
4000b317:	e8 87 fe ff ff       	call   4000b1a3 <llist_get_node_at>
4000b31c:	89 45 fc             	mov    %eax,-0x4(%ebp)
4000b31f:	83 7d fc 00          	cmpl   $0x0,-0x4(%ebp)
4000b323:	74 09                	je     4000b32e <llist_remove+0x45>
4000b325:	8b 45 fc             	mov    -0x4(%ebp),%eax
4000b328:	8b 00                	mov    (%eax),%eax
4000b32a:	85 c0                	test   %eax,%eax
4000b32c:	75 09                	jne    4000b337 <llist_remove+0x4e>
4000b32e:	c7 45 ec 00 00 00 00 	movl   $0x0,-0x14(%ebp)
4000b335:	eb 75                	jmp    4000b3ac <llist_remove+0xc3>
4000b337:	8b 45 fc             	mov    -0x4(%ebp),%eax
4000b33a:	8b 00                	mov    (%eax),%eax
4000b33c:	89 45 f8             	mov    %eax,-0x8(%ebp)
4000b33f:	8b 45 f8             	mov    -0x8(%ebp),%eax
4000b342:	8b 10                	mov    (%eax),%edx
4000b344:	8b 45 fc             	mov    -0x4(%ebp),%eax
4000b347:	89 10                	mov    %edx,(%eax)
4000b349:	8b 45 f8             	mov    -0x8(%ebp),%eax
4000b34c:	8b 40 04             	mov    0x4(%eax),%eax
4000b34f:	89 45 f4             	mov    %eax,-0xc(%ebp)
4000b352:	8b 45 f8             	mov    -0x8(%ebp),%eax
4000b355:	89 04 24             	mov    %eax,(%esp)
4000b358:	e8 2e c6 ff ff       	call   4000798b <free>
4000b35d:	eb 38                	jmp    4000b397 <llist_remove+0xae>
4000b35f:	8b 45 08             	mov    0x8(%ebp),%eax
4000b362:	8b 00                	mov    (%eax),%eax
4000b364:	85 c0                	test   %eax,%eax
4000b366:	75 09                	jne    4000b371 <llist_remove+0x88>
4000b368:	c7 45 ec 00 00 00 00 	movl   $0x0,-0x14(%ebp)
4000b36f:	eb 3b                	jmp    4000b3ac <llist_remove+0xc3>
4000b371:	8b 45 08             	mov    0x8(%ebp),%eax
4000b374:	8b 00                	mov    (%eax),%eax
4000b376:	89 45 f8             	mov    %eax,-0x8(%ebp)
4000b379:	8b 45 f8             	mov    -0x8(%ebp),%eax
4000b37c:	8b 10                	mov    (%eax),%edx
4000b37e:	8b 45 08             	mov    0x8(%ebp),%eax
4000b381:	89 10                	mov    %edx,(%eax)
4000b383:	8b 45 f8             	mov    -0x8(%ebp),%eax
4000b386:	8b 40 04             	mov    0x4(%eax),%eax
4000b389:	89 45 f4             	mov    %eax,-0xc(%ebp)
4000b38c:	8b 45 f8             	mov    -0x8(%ebp),%eax
4000b38f:	89 04 24             	mov    %eax,(%esp)
4000b392:	e8 f4 c5 ff ff       	call   4000798b <free>
4000b397:	8b 45 08             	mov    0x8(%ebp),%eax
4000b39a:	8b 40 04             	mov    0x4(%eax),%eax
4000b39d:	8d 50 ff             	lea    -0x1(%eax),%edx
4000b3a0:	8b 45 08             	mov    0x8(%ebp),%eax
4000b3a3:	89 50 04             	mov    %edx,0x4(%eax)
4000b3a6:	8b 45 f4             	mov    -0xc(%ebp),%eax
4000b3a9:	89 45 ec             	mov    %eax,-0x14(%ebp)
4000b3ac:	8b 45 ec             	mov    -0x14(%ebp),%eax
4000b3af:	c9                   	leave  
4000b3b0:	c3                   	ret    

4000b3b1 <llist_find>:
4000b3b1:	55                   	push   %ebp
4000b3b2:	89 e5                	mov    %esp,%ebp
4000b3b4:	83 ec 1c             	sub    $0x1c,%esp
4000b3b7:	c7 45 fc 00 00 00 00 	movl   $0x0,-0x4(%ebp)
4000b3be:	eb 14                	jmp    4000b3d4 <llist_find+0x23>
4000b3c0:	8b 45 f8             	mov    -0x8(%ebp),%eax
4000b3c3:	3b 45 0c             	cmp    0xc(%ebp),%eax
4000b3c6:	75 08                	jne    4000b3d0 <llist_find+0x1f>
4000b3c8:	8b 45 fc             	mov    -0x4(%ebp),%eax
4000b3cb:	89 45 ec             	mov    %eax,-0x14(%ebp)
4000b3ce:	eb 26                	jmp    4000b3f6 <llist_find+0x45>
4000b3d0:	83 45 fc 01          	addl   $0x1,-0x4(%ebp)
4000b3d4:	8b 45 fc             	mov    -0x4(%ebp),%eax
4000b3d7:	89 44 24 04          	mov    %eax,0x4(%esp)
4000b3db:	8b 45 08             	mov    0x8(%ebp),%eax
4000b3de:	89 04 24             	mov    %eax,(%esp)
4000b3e1:	e8 31 fe ff ff       	call   4000b217 <llist_get>
4000b3e6:	89 45 f8             	mov    %eax,-0x8(%ebp)
4000b3e9:	83 7d f8 00          	cmpl   $0x0,-0x8(%ebp)
4000b3ed:	75 d1                	jne    4000b3c0 <llist_find+0xf>
4000b3ef:	c7 45 ec ff ff ff ff 	movl   $0xffffffff,-0x14(%ebp)
4000b3f6:	8b 45 ec             	mov    -0x14(%ebp),%eax
4000b3f9:	c9                   	leave  
4000b3fa:	c3                   	ret    

4000b3fb <llist_copy>:
4000b3fb:	55                   	push   %ebp
4000b3fc:	89 e5                	mov    %esp,%ebp
4000b3fe:	83 ec 18             	sub    $0x18,%esp
4000b401:	e8 5e fc ff ff       	call   4000b064 <llist_create>
4000b406:	89 45 fc             	mov    %eax,-0x4(%ebp)
4000b409:	c7 45 f4 00 00 00 00 	movl   $0x0,-0xc(%ebp)
4000b410:	eb 16                	jmp    4000b428 <llist_copy+0x2d>
4000b412:	8b 45 f8             	mov    -0x8(%ebp),%eax
4000b415:	89 44 24 04          	mov    %eax,0x4(%esp)
4000b419:	8b 45 fc             	mov    -0x4(%ebp),%eax
4000b41c:	89 04 24             	mov    %eax,(%esp)
4000b41f:	e8 bb fc ff ff       	call   4000b0df <llist_push>
4000b424:	83 45 f4 01          	addl   $0x1,-0xc(%ebp)
4000b428:	8b 45 f4             	mov    -0xc(%ebp),%eax
4000b42b:	89 44 24 04          	mov    %eax,0x4(%esp)
4000b42f:	8b 45 08             	mov    0x8(%ebp),%eax
4000b432:	89 04 24             	mov    %eax,(%esp)
4000b435:	e8 dd fd ff ff       	call   4000b217 <llist_get>
4000b43a:	89 45 f8             	mov    %eax,-0x8(%ebp)
4000b43d:	83 7d f8 00          	cmpl   $0x0,-0x8(%ebp)
4000b441:	75 cf                	jne    4000b412 <llist_copy+0x17>
4000b443:	8b 45 fc             	mov    -0x4(%ebp),%eax
4000b446:	c9                   	leave  
4000b447:	c3                   	ret    

4000b448 <_libmeinos_init>:
4000b448:	55                   	push   %ebp
4000b449:	89 e5                	mov    %esp,%ebp
4000b44b:	83 ec 08             	sub    $0x8,%esp
4000b44e:	e8 39 2c 00 00       	call   4000e08c <_irq_init>
4000b453:	c9                   	leave  
4000b454:	c3                   	ret    

4000b455 <vfs_mount>:
4000b455:	55                   	push   %ebp
4000b456:	89 e5                	mov    %esp,%ebp
4000b458:	83 ec 28             	sub    $0x28,%esp
4000b45b:	8b 45 08             	mov    0x8(%ebp),%eax
4000b45e:	89 44 24 08          	mov    %eax,0x8(%esp)
4000b462:	c7 44 24 04 a8 f1 00 	movl   $0x4000f1a8,0x4(%esp)
4000b469:	40 
4000b46a:	8d 45 f8             	lea    -0x8(%ebp),%eax
4000b46d:	89 04 24             	mov    %eax,(%esp)
4000b470:	e8 4b 6c ff ff       	call   400020c0 <asprintf>
4000b475:	83 7d 10 00          	cmpl   $0x0,0x10(%ebp)
4000b479:	75 07                	jne    4000b482 <vfs_mount+0x2d>
4000b47b:	c7 45 10 b1 f1 00 40 	movl   $0x4000f1b1,0x10(%ebp)
4000b482:	8b 55 f8             	mov    -0x8(%ebp),%edx
4000b485:	8b 45 14             	mov    0x14(%ebp),%eax
4000b488:	89 44 24 14          	mov    %eax,0x14(%esp)
4000b48c:	8b 45 10             	mov    0x10(%ebp),%eax
4000b48f:	89 44 24 10          	mov    %eax,0x10(%esp)
4000b493:	8b 45 0c             	mov    0xc(%ebp),%eax
4000b496:	89 44 24 0c          	mov    %eax,0xc(%esp)
4000b49a:	8b 45 08             	mov    0x8(%ebp),%eax
4000b49d:	89 44 24 08          	mov    %eax,0x8(%esp)
4000b4a1:	c7 44 24 04 00 00 00 	movl   $0x0,0x4(%esp)
4000b4a8:	00 
4000b4a9:	89 14 24             	mov    %edx,(%esp)
4000b4ac:	e8 3a 0f 00 00       	call   4000c3eb <rpc_call>
4000b4b1:	89 45 fc             	mov    %eax,-0x4(%ebp)
4000b4b4:	8b 45 f8             	mov    -0x8(%ebp),%eax
4000b4b7:	89 04 24             	mov    %eax,(%esp)
4000b4ba:	e8 cc c4 ff ff       	call   4000798b <free>
4000b4bf:	8b 45 fc             	mov    -0x4(%ebp),%eax
4000b4c2:	c9                   	leave  
4000b4c3:	c3                   	ret    

4000b4c4 <vfs_unmount>:
4000b4c4:	55                   	push   %ebp
4000b4c5:	89 e5                	mov    %esp,%ebp
4000b4c7:	83 ec 28             	sub    $0x28,%esp
4000b4ca:	8b 45 08             	mov    0x8(%ebp),%eax
4000b4cd:	89 44 24 08          	mov    %eax,0x8(%esp)
4000b4d1:	c7 44 24 04 b2 f1 00 	movl   $0x4000f1b2,0x4(%esp)
4000b4d8:	40 
4000b4d9:	8d 45 f8             	lea    -0x8(%ebp),%eax
4000b4dc:	89 04 24             	mov    %eax,(%esp)
4000b4df:	e8 dc 6b ff ff       	call   400020c0 <asprintf>
4000b4e4:	8b 55 f8             	mov    -0x8(%ebp),%edx
4000b4e7:	8b 45 0c             	mov    0xc(%ebp),%eax
4000b4ea:	89 44 24 0c          	mov    %eax,0xc(%esp)
4000b4ee:	8b 45 08             	mov    0x8(%ebp),%eax
4000b4f1:	89 44 24 08          	mov    %eax,0x8(%esp)
4000b4f5:	c7 44 24 04 00 00 00 	movl   $0x0,0x4(%esp)
4000b4fc:	00 
4000b4fd:	89 14 24             	mov    %edx,(%esp)
4000b500:	e8 e6 0e 00 00       	call   4000c3eb <rpc_call>
4000b505:	89 45 fc             	mov    %eax,-0x4(%ebp)
4000b508:	8b 45 f8             	mov    -0x8(%ebp),%eax
4000b50b:	89 04 24             	mov    %eax,(%esp)
4000b50e:	e8 78 c4 ff ff       	call   4000798b <free>
4000b513:	8b 45 fc             	mov    -0x4(%ebp),%eax
4000b516:	c9                   	leave  
4000b517:	c3                   	ret    

4000b518 <path_parse>:
4000b518:	55                   	push   %ebp
4000b519:	89 e5                	mov    %esp,%ebp
4000b51b:	83 ec 28             	sub    $0x28,%esp
4000b51e:	83 7d 08 00          	cmpl   $0x0,0x8(%ebp)
4000b522:	75 0c                	jne    4000b530 <path_parse+0x18>
4000b524:	c7 45 dc 00 00 00 00 	movl   $0x0,-0x24(%ebp)
4000b52b:	e9 08 01 00 00       	jmp    4000b638 <path_parse+0x120>
4000b530:	c7 45 f0 01 00 00 00 	movl   $0x1,-0x10(%ebp)
4000b537:	c7 45 ec 00 00 00 00 	movl   $0x0,-0x14(%ebp)
4000b53e:	eb 17                	jmp    4000b557 <path_parse+0x3f>
4000b540:	8b 55 ec             	mov    -0x14(%ebp),%edx
4000b543:	8b 45 08             	mov    0x8(%ebp),%eax
4000b546:	01 d0                	add    %edx,%eax
4000b548:	0f b6 00             	movzbl (%eax),%eax
4000b54b:	3c 2f                	cmp    $0x2f,%al
4000b54d:	75 04                	jne    4000b553 <path_parse+0x3b>
4000b54f:	83 45 f0 01          	addl   $0x1,-0x10(%ebp)
4000b553:	83 45 ec 01          	addl   $0x1,-0x14(%ebp)
4000b557:	8b 55 ec             	mov    -0x14(%ebp),%edx
4000b55a:	8b 45 08             	mov    0x8(%ebp),%eax
4000b55d:	01 d0                	add    %edx,%eax
4000b55f:	0f b6 00             	movzbl (%eax),%eax
4000b562:	84 c0                	test   %al,%al
4000b564:	75 da                	jne    4000b540 <path_parse+0x28>
4000b566:	c7 04 24 10 00 00 00 	movl   $0x10,(%esp)
4000b56d:	e8 62 bf ff ff       	call   400074d4 <malloc>
4000b572:	89 45 f4             	mov    %eax,-0xc(%ebp)
4000b575:	8b 55 f4             	mov    -0xc(%ebp),%edx
4000b578:	8b 45 f0             	mov    -0x10(%ebp),%eax
4000b57b:	89 02                	mov    %eax,(%edx)
4000b57d:	8b 45 08             	mov    0x8(%ebp),%eax
4000b580:	89 04 24             	mov    %eax,(%esp)
4000b583:	e8 51 f4 ff ff       	call   4000a9d9 <strdup>
4000b588:	89 c2                	mov    %eax,%edx
4000b58a:	8b 45 f4             	mov    -0xc(%ebp),%eax
4000b58d:	89 50 08             	mov    %edx,0x8(%eax)
4000b590:	8b 45 f0             	mov    -0x10(%ebp),%eax
4000b593:	c1 e0 02             	shl    $0x2,%eax
4000b596:	89 04 24             	mov    %eax,(%esp)
4000b599:	e8 36 bf ff ff       	call   400074d4 <malloc>
4000b59e:	89 c2                	mov    %eax,%edx
4000b5a0:	8b 45 f4             	mov    -0xc(%ebp),%eax
4000b5a3:	89 50 04             	mov    %edx,0x4(%eax)
4000b5a6:	8b 45 08             	mov    0x8(%ebp),%eax
4000b5a9:	0f b6 00             	movzbl (%eax),%eax
4000b5ac:	3c 2f                	cmp    $0x2f,%al
4000b5ae:	0f 94 c0             	sete   %al
4000b5b1:	0f b6 d0             	movzbl %al,%edx
4000b5b4:	8b 45 f4             	mov    -0xc(%ebp),%eax
4000b5b7:	89 50 0c             	mov    %edx,0xc(%eax)
4000b5ba:	8b 45 f4             	mov    -0xc(%ebp),%eax
4000b5bd:	8b 40 08             	mov    0x8(%eax),%eax
4000b5c0:	89 45 f8             	mov    %eax,-0x8(%ebp)
4000b5c3:	c7 45 fc 00 00 00 00 	movl   $0x0,-0x4(%ebp)
4000b5ca:	c7 45 ec 00 00 00 00 	movl   $0x0,-0x14(%ebp)
4000b5d1:	eb 57                	jmp    4000b62a <path_parse+0x112>
4000b5d3:	83 45 fc 01          	addl   $0x1,-0x4(%ebp)
4000b5d7:	8b 45 f4             	mov    -0xc(%ebp),%eax
4000b5da:	8b 40 08             	mov    0x8(%eax),%eax
4000b5dd:	03 45 fc             	add    -0x4(%ebp),%eax
4000b5e0:	0f b6 00             	movzbl (%eax),%eax
4000b5e3:	3c 2f                	cmp    $0x2f,%al
4000b5e5:	74 10                	je     4000b5f7 <path_parse+0xdf>
4000b5e7:	8b 45 f4             	mov    -0xc(%ebp),%eax
4000b5ea:	8b 40 08             	mov    0x8(%eax),%eax
4000b5ed:	03 45 fc             	add    -0x4(%ebp),%eax
4000b5f0:	0f b6 00             	movzbl (%eax),%eax
4000b5f3:	84 c0                	test   %al,%al
4000b5f5:	75 dc                	jne    4000b5d3 <path_parse+0xbb>
4000b5f7:	8b 45 f4             	mov    -0xc(%ebp),%eax
4000b5fa:	8b 50 04             	mov    0x4(%eax),%edx
4000b5fd:	8b 45 ec             	mov    -0x14(%ebp),%eax
4000b600:	c1 e0 02             	shl    $0x2,%eax
4000b603:	01 c2                	add    %eax,%edx
4000b605:	8b 45 f8             	mov    -0x8(%ebp),%eax
4000b608:	89 02                	mov    %eax,(%edx)
4000b60a:	8b 45 f4             	mov    -0xc(%ebp),%eax
4000b60d:	8b 40 08             	mov    0x8(%eax),%eax
4000b610:	03 45 fc             	add    -0x4(%ebp),%eax
4000b613:	c6 00 00             	movb   $0x0,(%eax)
4000b616:	83 45 fc 01          	addl   $0x1,-0x4(%ebp)
4000b61a:	8b 45 f4             	mov    -0xc(%ebp),%eax
4000b61d:	8b 40 08             	mov    0x8(%eax),%eax
4000b620:	03 45 fc             	add    -0x4(%ebp),%eax
4000b623:	89 45 f8             	mov    %eax,-0x8(%ebp)
4000b626:	83 45 ec 01          	addl   $0x1,-0x14(%ebp)
4000b62a:	8b 45 ec             	mov    -0x14(%ebp),%eax
4000b62d:	3b 45 f0             	cmp    -0x10(%ebp),%eax
4000b630:	72 a5                	jb     4000b5d7 <path_parse+0xbf>
4000b632:	8b 45 f4             	mov    -0xc(%ebp),%eax
4000b635:	89 45 dc             	mov    %eax,-0x24(%ebp)
4000b638:	8b 45 dc             	mov    -0x24(%ebp),%eax
4000b63b:	c9                   	leave  
4000b63c:	c3                   	ret    

4000b63d <path_destroy>:
4000b63d:	55                   	push   %ebp
4000b63e:	89 e5                	mov    %esp,%ebp
4000b640:	83 ec 08             	sub    $0x8,%esp
4000b643:	83 7d 08 00          	cmpl   $0x0,0x8(%ebp)
4000b647:	74 27                	je     4000b670 <path_destroy+0x33>
4000b649:	8b 45 08             	mov    0x8(%ebp),%eax
4000b64c:	8b 40 04             	mov    0x4(%eax),%eax
4000b64f:	89 04 24             	mov    %eax,(%esp)
4000b652:	e8 34 c3 ff ff       	call   4000798b <free>
4000b657:	8b 45 08             	mov    0x8(%ebp),%eax
4000b65a:	8b 40 08             	mov    0x8(%eax),%eax
4000b65d:	89 04 24             	mov    %eax,(%esp)
4000b660:	e8 26 c3 ff ff       	call   4000798b <free>
4000b665:	8b 45 08             	mov    0x8(%ebp),%eax
4000b668:	89 04 24             	mov    %eax,(%esp)
4000b66b:	e8 1b c3 ff ff       	call   4000798b <free>
4000b670:	c9                   	leave  
4000b671:	c3                   	ret    

4000b672 <path_reject_dots>:
4000b672:	55                   	push   %ebp
4000b673:	89 e5                	mov    %esp,%ebp
4000b675:	83 ec 28             	sub    $0x28,%esp
4000b678:	83 7d 08 00          	cmpl   $0x0,0x8(%ebp)
4000b67c:	0f 84 60 01 00 00    	je     4000b7e2 <path_reject_dots+0x170>
4000b682:	c7 45 f8 00 00 00 00 	movl   $0x0,-0x8(%ebp)
4000b689:	e9 46 01 00 00       	jmp    4000b7d4 <path_reject_dots+0x162>
4000b68e:	8b 45 08             	mov    0x8(%ebp),%eax
4000b691:	8b 50 04             	mov    0x4(%eax),%edx
4000b694:	8b 45 f8             	mov    -0x8(%ebp),%eax
4000b697:	c1 e0 02             	shl    $0x2,%eax
4000b69a:	8d 04 02             	lea    (%edx,%eax,1),%eax
4000b69d:	8b 00                	mov    (%eax),%eax
4000b69f:	c7 44 24 04 bd f1 00 	movl   $0x4000f1bd,0x4(%esp)
4000b6a6:	40 
4000b6a7:	89 04 24             	mov    %eax,(%esp)
4000b6aa:	e8 55 f2 ff ff       	call   4000a904 <strcmp>
4000b6af:	85 c0                	test   %eax,%eax
4000b6b1:	75 45                	jne    4000b6f8 <path_reject_dots+0x86>
4000b6b3:	8b 45 08             	mov    0x8(%ebp),%eax
4000b6b6:	8b 50 04             	mov    0x4(%eax),%edx
4000b6b9:	8b 45 f8             	mov    -0x8(%ebp),%eax
4000b6bc:	c1 e0 02             	shl    $0x2,%eax
4000b6bf:	8d 04 02             	lea    (%edx,%eax,1),%eax
4000b6c2:	8b 00                	mov    (%eax),%eax
4000b6c4:	89 04 24             	mov    %eax,(%esp)
4000b6c7:	e8 58 f3 ff ff       	call   4000aa24 <strlen>
4000b6cc:	89 c1                	mov    %eax,%ecx
4000b6ce:	8b 45 08             	mov    0x8(%ebp),%eax
4000b6d1:	8b 50 04             	mov    0x4(%eax),%edx
4000b6d4:	8b 45 f8             	mov    -0x8(%ebp),%eax
4000b6d7:	c1 e0 02             	shl    $0x2,%eax
4000b6da:	8d 04 02             	lea    (%edx,%eax,1),%eax
4000b6dd:	8b 00                	mov    (%eax),%eax
4000b6df:	89 4c 24 08          	mov    %ecx,0x8(%esp)
4000b6e3:	c7 44 24 04 00 00 00 	movl   $0x0,0x4(%esp)
4000b6ea:	00 
4000b6eb:	89 04 24             	mov    %eax,(%esp)
4000b6ee:	e8 56 f1 ff ff       	call   4000a849 <memset>
4000b6f3:	e9 d8 00 00 00       	jmp    4000b7d0 <path_reject_dots+0x15e>
4000b6f8:	8b 45 08             	mov    0x8(%ebp),%eax
4000b6fb:	8b 50 04             	mov    0x4(%eax),%edx
4000b6fe:	8b 45 f8             	mov    -0x8(%ebp),%eax
4000b701:	c1 e0 02             	shl    $0x2,%eax
4000b704:	8d 04 02             	lea    (%edx,%eax,1),%eax
4000b707:	8b 00                	mov    (%eax),%eax
4000b709:	c7 44 24 04 bf f1 00 	movl   $0x4000f1bf,0x4(%esp)
4000b710:	40 
4000b711:	89 04 24             	mov    %eax,(%esp)
4000b714:	e8 eb f1 ff ff       	call   4000a904 <strcmp>
4000b719:	85 c0                	test   %eax,%eax
4000b71b:	0f 85 af 00 00 00    	jne    4000b7d0 <path_reject_dots+0x15e>
4000b721:	8b 45 08             	mov    0x8(%ebp),%eax
4000b724:	8b 50 04             	mov    0x4(%eax),%edx
4000b727:	8b 45 f8             	mov    -0x8(%ebp),%eax
4000b72a:	c1 e0 02             	shl    $0x2,%eax
4000b72d:	8d 04 02             	lea    (%edx,%eax,1),%eax
4000b730:	8b 00                	mov    (%eax),%eax
4000b732:	89 04 24             	mov    %eax,(%esp)
4000b735:	e8 ea f2 ff ff       	call   4000aa24 <strlen>
4000b73a:	89 c1                	mov    %eax,%ecx
4000b73c:	8b 45 08             	mov    0x8(%ebp),%eax
4000b73f:	8b 50 04             	mov    0x4(%eax),%edx
4000b742:	8b 45 f8             	mov    -0x8(%ebp),%eax
4000b745:	c1 e0 02             	shl    $0x2,%eax
4000b748:	8d 04 02             	lea    (%edx,%eax,1),%eax
4000b74b:	8b 00                	mov    (%eax),%eax
4000b74d:	89 4c 24 08          	mov    %ecx,0x8(%esp)
4000b751:	c7 44 24 04 00 00 00 	movl   $0x0,0x4(%esp)
4000b758:	00 
4000b759:	89 04 24             	mov    %eax,(%esp)
4000b75c:	e8 e8 f0 ff ff       	call   4000a849 <memset>
4000b761:	8b 45 f8             	mov    -0x8(%ebp),%eax
4000b764:	83 e8 01             	sub    $0x1,%eax
4000b767:	89 45 fc             	mov    %eax,-0x4(%ebp)
4000b76a:	eb 5e                	jmp    4000b7ca <path_reject_dots+0x158>
4000b76c:	8b 45 08             	mov    0x8(%ebp),%eax
4000b76f:	8b 50 04             	mov    0x4(%eax),%edx
4000b772:	8b 45 fc             	mov    -0x4(%ebp),%eax
4000b775:	c1 e0 02             	shl    $0x2,%eax
4000b778:	8d 04 02             	lea    (%edx,%eax,1),%eax
4000b77b:	8b 00                	mov    (%eax),%eax
4000b77d:	0f b6 00             	movzbl (%eax),%eax
4000b780:	84 c0                	test   %al,%al
4000b782:	74 42                	je     4000b7c6 <path_reject_dots+0x154>
4000b784:	8b 45 08             	mov    0x8(%ebp),%eax
4000b787:	8b 50 04             	mov    0x4(%eax),%edx
4000b78a:	8b 45 fc             	mov    -0x4(%ebp),%eax
4000b78d:	c1 e0 02             	shl    $0x2,%eax
4000b790:	8d 04 02             	lea    (%edx,%eax,1),%eax
4000b793:	8b 00                	mov    (%eax),%eax
4000b795:	89 04 24             	mov    %eax,(%esp)
4000b798:	e8 87 f2 ff ff       	call   4000aa24 <strlen>
4000b79d:	89 c1                	mov    %eax,%ecx
4000b79f:	8b 45 08             	mov    0x8(%ebp),%eax
4000b7a2:	8b 50 04             	mov    0x4(%eax),%edx
4000b7a5:	8b 45 fc             	mov    -0x4(%ebp),%eax
4000b7a8:	c1 e0 02             	shl    $0x2,%eax
4000b7ab:	8d 04 02             	lea    (%edx,%eax,1),%eax
4000b7ae:	8b 00                	mov    (%eax),%eax
4000b7b0:	89 4c 24 08          	mov    %ecx,0x8(%esp)
4000b7b4:	c7 44 24 04 00 00 00 	movl   $0x0,0x4(%esp)
4000b7bb:	00 
4000b7bc:	89 04 24             	mov    %eax,(%esp)
4000b7bf:	e8 85 f0 ff ff       	call   4000a849 <memset>
4000b7c4:	eb 0a                	jmp    4000b7d0 <path_reject_dots+0x15e>
4000b7c6:	83 6d fc 01          	subl   $0x1,-0x4(%ebp)
4000b7ca:	83 7d fc 00          	cmpl   $0x0,-0x4(%ebp)
4000b7ce:	79 9c                	jns    4000b76c <path_reject_dots+0xfa>
4000b7d0:	83 45 f8 01          	addl   $0x1,-0x8(%ebp)
4000b7d4:	8b 45 08             	mov    0x8(%ebp),%eax
4000b7d7:	8b 00                	mov    (%eax),%eax
4000b7d9:	3b 45 f8             	cmp    -0x8(%ebp),%eax
4000b7dc:	0f 87 ac fe ff ff    	ja     4000b68e <path_reject_dots+0x1c>
4000b7e2:	c9                   	leave  
4000b7e3:	c3                   	ret    

4000b7e4 <path_output>:
4000b7e4:	55                   	push   %ebp
4000b7e5:	89 e5                	mov    %esp,%ebp
4000b7e7:	83 ec 38             	sub    $0x38,%esp
4000b7ea:	83 7d 08 00          	cmpl   $0x0,0x8(%ebp)
4000b7ee:	75 0c                	jne    4000b7fc <path_output+0x18>
4000b7f0:	c7 45 dc 00 00 00 00 	movl   $0x0,-0x24(%ebp)
4000b7f7:	e9 bd 01 00 00       	jmp    4000b9b9 <path_output+0x1d5>
4000b7fc:	c7 45 ec 00 00 00 00 	movl   $0x0,-0x14(%ebp)
4000b803:	c7 45 f0 00 00 00 00 	movl   $0x0,-0x10(%ebp)
4000b80a:	eb 20                	jmp    4000b82c <path_output+0x48>
4000b80c:	8b 45 08             	mov    0x8(%ebp),%eax
4000b80f:	8b 50 04             	mov    0x4(%eax),%edx
4000b812:	8b 45 f0             	mov    -0x10(%ebp),%eax
4000b815:	c1 e0 02             	shl    $0x2,%eax
4000b818:	8d 04 02             	lea    (%edx,%eax,1),%eax
4000b81b:	8b 00                	mov    (%eax),%eax
4000b81d:	0f b6 00             	movzbl (%eax),%eax
4000b820:	84 c0                	test   %al,%al
4000b822:	74 04                	je     4000b828 <path_output+0x44>
4000b824:	83 45 ec 01          	addl   $0x1,-0x14(%ebp)
4000b828:	83 45 f0 01          	addl   $0x1,-0x10(%ebp)
4000b82c:	8b 45 08             	mov    0x8(%ebp),%eax
4000b82f:	8b 00                	mov    (%eax),%eax
4000b831:	3b 45 f0             	cmp    -0x10(%ebp),%eax
4000b834:	77 d6                	ja     4000b80c <path_output+0x28>
4000b836:	83 7d ec 00          	cmpl   $0x0,-0x14(%ebp)
4000b83a:	0f 84 4c 01 00 00    	je     4000b98c <path_output+0x1a8>
4000b840:	c7 45 f4 00 00 00 00 	movl   $0x0,-0xc(%ebp)
4000b847:	83 7d 0c 00          	cmpl   $0x0,0xc(%ebp)
4000b84b:	75 5d                	jne    4000b8aa <path_output+0xc6>
4000b84d:	8b 45 08             	mov    0x8(%ebp),%eax
4000b850:	8b 10                	mov    (%eax),%edx
4000b852:	8b 45 08             	mov    0x8(%ebp),%eax
4000b855:	8b 40 0c             	mov    0xc(%eax),%eax
4000b858:	85 c0                	test   %eax,%eax
4000b85a:	0f 95 c0             	setne  %al
4000b85d:	0f b6 c0             	movzbl %al,%eax
4000b860:	8d 04 02             	lea    (%edx,%eax,1),%eax
4000b863:	83 c0 01             	add    $0x1,%eax
4000b866:	89 45 f8             	mov    %eax,-0x8(%ebp)
4000b869:	c7 45 f0 00 00 00 00 	movl   $0x0,-0x10(%ebp)
4000b870:	eb 20                	jmp    4000b892 <path_output+0xae>
4000b872:	8b 45 08             	mov    0x8(%ebp),%eax
4000b875:	8b 50 04             	mov    0x4(%eax),%edx
4000b878:	8b 45 f0             	mov    -0x10(%ebp),%eax
4000b87b:	c1 e0 02             	shl    $0x2,%eax
4000b87e:	8d 04 02             	lea    (%edx,%eax,1),%eax
4000b881:	8b 00                	mov    (%eax),%eax
4000b883:	89 04 24             	mov    %eax,(%esp)
4000b886:	e8 99 f1 ff ff       	call   4000aa24 <strlen>
4000b88b:	01 45 f8             	add    %eax,-0x8(%ebp)
4000b88e:	83 45 f0 01          	addl   $0x1,-0x10(%ebp)
4000b892:	8b 45 08             	mov    0x8(%ebp),%eax
4000b895:	8b 00                	mov    (%eax),%eax
4000b897:	3b 45 f0             	cmp    -0x10(%ebp),%eax
4000b89a:	77 d6                	ja     4000b872 <path_output+0x8e>
4000b89c:	8b 45 f8             	mov    -0x8(%ebp),%eax
4000b89f:	89 04 24             	mov    %eax,(%esp)
4000b8a2:	e8 2d bc ff ff       	call   400074d4 <malloc>
4000b8a7:	89 45 0c             	mov    %eax,0xc(%ebp)
4000b8aa:	8b 45 08             	mov    0x8(%ebp),%eax
4000b8ad:	8b 40 0c             	mov    0xc(%eax),%eax
4000b8b0:	85 c0                	test   %eax,%eax
4000b8b2:	74 1f                	je     4000b8d3 <path_output+0xef>
4000b8b4:	8b 45 08             	mov    0x8(%ebp),%eax
4000b8b7:	8b 40 04             	mov    0x4(%eax),%eax
4000b8ba:	8b 00                	mov    (%eax),%eax
4000b8bc:	0f b6 00             	movzbl (%eax),%eax
4000b8bf:	84 c0                	test   %al,%al
4000b8c1:	74 10                	je     4000b8d3 <path_output+0xef>
4000b8c3:	8b 45 f4             	mov    -0xc(%ebp),%eax
4000b8c6:	8b 55 0c             	mov    0xc(%ebp),%edx
4000b8c9:	8d 04 02             	lea    (%edx,%eax,1),%eax
4000b8cc:	c6 00 2f             	movb   $0x2f,(%eax)
4000b8cf:	83 45 f4 01          	addl   $0x1,-0xc(%ebp)
4000b8d3:	c7 45 f0 00 00 00 00 	movl   $0x0,-0x10(%ebp)
4000b8da:	e9 8b 00 00 00       	jmp    4000b96a <path_output+0x186>
4000b8df:	8b 45 08             	mov    0x8(%ebp),%eax
4000b8e2:	8b 50 04             	mov    0x4(%eax),%edx
4000b8e5:	8b 45 f0             	mov    -0x10(%ebp),%eax
4000b8e8:	c1 e0 02             	shl    $0x2,%eax
4000b8eb:	8d 04 02             	lea    (%edx,%eax,1),%eax
4000b8ee:	8b 00                	mov    (%eax),%eax
4000b8f0:	89 04 24             	mov    %eax,(%esp)
4000b8f3:	e8 2c f1 ff ff       	call   4000aa24 <strlen>
4000b8f8:	89 45 fc             	mov    %eax,-0x4(%ebp)
4000b8fb:	8b 45 08             	mov    0x8(%ebp),%eax
4000b8fe:	8b 50 04             	mov    0x4(%eax),%edx
4000b901:	8b 45 f0             	mov    -0x10(%ebp),%eax
4000b904:	c1 e0 02             	shl    $0x2,%eax
4000b907:	8d 04 02             	lea    (%edx,%eax,1),%eax
4000b90a:	8b 08                	mov    (%eax),%ecx
4000b90c:	8b 55 f4             	mov    -0xc(%ebp),%edx
4000b90f:	8b 45 0c             	mov    0xc(%ebp),%eax
4000b912:	8d 14 10             	lea    (%eax,%edx,1),%edx
4000b915:	8b 45 fc             	mov    -0x4(%ebp),%eax
4000b918:	89 44 24 08          	mov    %eax,0x8(%esp)
4000b91c:	89 4c 24 04          	mov    %ecx,0x4(%esp)
4000b920:	89 14 24             	mov    %edx,(%esp)
4000b923:	e8 44 ed ff ff       	call   4000a66c <memcpy>
4000b928:	8b 45 fc             	mov    -0x4(%ebp),%eax
4000b92b:	01 45 f4             	add    %eax,-0xc(%ebp)
4000b92e:	8b 45 08             	mov    0x8(%ebp),%eax
4000b931:	8b 00                	mov    (%eax),%eax
4000b933:	83 e8 01             	sub    $0x1,%eax
4000b936:	3b 45 f0             	cmp    -0x10(%ebp),%eax
4000b939:	76 2b                	jbe    4000b966 <path_output+0x182>
4000b93b:	8b 45 08             	mov    0x8(%ebp),%eax
4000b93e:	8b 50 04             	mov    0x4(%eax),%edx
4000b941:	8b 45 f0             	mov    -0x10(%ebp),%eax
4000b944:	83 c0 01             	add    $0x1,%eax
4000b947:	c1 e0 02             	shl    $0x2,%eax
4000b94a:	8d 04 02             	lea    (%edx,%eax,1),%eax
4000b94d:	8b 00                	mov    (%eax),%eax
4000b94f:	0f b6 00             	movzbl (%eax),%eax
4000b952:	84 c0                	test   %al,%al
4000b954:	74 10                	je     4000b966 <path_output+0x182>
4000b956:	8b 45 f4             	mov    -0xc(%ebp),%eax
4000b959:	8b 55 0c             	mov    0xc(%ebp),%edx
4000b95c:	8d 04 02             	lea    (%edx,%eax,1),%eax
4000b95f:	c6 00 2f             	movb   $0x2f,(%eax)
4000b962:	83 45 f4 01          	addl   $0x1,-0xc(%ebp)
4000b966:	83 45 f0 01          	addl   $0x1,-0x10(%ebp)
4000b96a:	8b 45 08             	mov    0x8(%ebp),%eax
4000b96d:	8b 00                	mov    (%eax),%eax
4000b96f:	3b 45 f0             	cmp    -0x10(%ebp),%eax
4000b972:	0f 87 67 ff ff ff    	ja     4000b8df <path_output+0xfb>
4000b978:	8b 45 f4             	mov    -0xc(%ebp),%eax
4000b97b:	8b 55 0c             	mov    0xc(%ebp),%edx
4000b97e:	8d 04 02             	lea    (%edx,%eax,1),%eax
4000b981:	c6 00 00             	movb   $0x0,(%eax)
4000b984:	8b 45 0c             	mov    0xc(%ebp),%eax
4000b987:	89 45 dc             	mov    %eax,-0x24(%ebp)
4000b98a:	eb 2d                	jmp    4000b9b9 <path_output+0x1d5>
4000b98c:	83 7d 0c 00          	cmpl   $0x0,0xc(%ebp)
4000b990:	75 11                	jne    4000b9a3 <path_output+0x1bf>
4000b992:	c7 04 24 c2 f1 00 40 	movl   $0x4000f1c2,(%esp)
4000b999:	e8 3b f0 ff ff       	call   4000a9d9 <strdup>
4000b99e:	89 45 dc             	mov    %eax,-0x24(%ebp)
4000b9a1:	eb 16                	jmp    4000b9b9 <path_output+0x1d5>
4000b9a3:	c7 44 24 04 c2 f1 00 	movl   $0x4000f1c2,0x4(%esp)
4000b9aa:	40 
4000b9ab:	8b 45 0c             	mov    0xc(%ebp),%eax
4000b9ae:	89 04 24             	mov    %eax,(%esp)
4000b9b1:	e8 db ef ff ff       	call   4000a991 <strcpy>
4000b9b6:	89 45 dc             	mov    %eax,-0x24(%ebp)
4000b9b9:	8b 45 dc             	mov    -0x24(%ebp),%eax
4000b9bc:	c9                   	leave  
4000b9bd:	c3                   	ret    

4000b9be <path_compare>:
4000b9be:	55                   	push   %ebp
4000b9bf:	89 e5                	mov    %esp,%ebp
4000b9c1:	83 ec 28             	sub    $0x28,%esp
4000b9c4:	83 7d 08 00          	cmpl   $0x0,0x8(%ebp)
4000b9c8:	74 06                	je     4000b9d0 <path_compare+0x12>
4000b9ca:	83 7d 0c 00          	cmpl   $0x0,0xc(%ebp)
4000b9ce:	75 0c                	jne    4000b9dc <path_compare+0x1e>
4000b9d0:	c7 45 ec 00 00 00 00 	movl   $0x0,-0x14(%ebp)
4000b9d7:	e9 00 01 00 00       	jmp    4000badc <path_compare+0x11e>
4000b9dc:	c7 45 f4 00 00 00 00 	movl   $0x0,-0xc(%ebp)
4000b9e3:	c7 45 f8 00 00 00 00 	movl   $0x0,-0x8(%ebp)
4000b9ea:	c7 45 fc 00 00 00 00 	movl   $0x0,-0x4(%ebp)
4000b9f1:	8b 45 08             	mov    0x8(%ebp),%eax
4000b9f4:	8b 50 0c             	mov    0xc(%eax),%edx
4000b9f7:	8b 45 0c             	mov    0xc(%ebp),%eax
4000b9fa:	8b 40 0c             	mov    0xc(%eax),%eax
4000b9fd:	39 c2                	cmp    %eax,%edx
4000b9ff:	0f 84 b9 00 00 00    	je     4000babe <path_compare+0x100>
4000ba05:	c7 45 ec 00 00 00 00 	movl   $0x0,-0x14(%ebp)
4000ba0c:	e9 cb 00 00 00       	jmp    4000badc <path_compare+0x11e>
4000ba11:	8b 45 08             	mov    0x8(%ebp),%eax
4000ba14:	8b 50 04             	mov    0x4(%eax),%edx
4000ba17:	8b 45 f4             	mov    -0xc(%ebp),%eax
4000ba1a:	c1 e0 02             	shl    $0x2,%eax
4000ba1d:	8d 04 02             	lea    (%edx,%eax,1),%eax
4000ba20:	8b 00                	mov    (%eax),%eax
4000ba22:	0f b6 00             	movzbl (%eax),%eax
4000ba25:	84 c0                	test   %al,%al
4000ba27:	75 09                	jne    4000ba32 <path_compare+0x74>
4000ba29:	83 45 f4 01          	addl   $0x1,-0xc(%ebp)
4000ba2d:	e9 8c 00 00 00       	jmp    4000babe <path_compare+0x100>
4000ba32:	8b 45 0c             	mov    0xc(%ebp),%eax
4000ba35:	8b 50 04             	mov    0x4(%eax),%edx
4000ba38:	8b 45 f8             	mov    -0x8(%ebp),%eax
4000ba3b:	c1 e0 02             	shl    $0x2,%eax
4000ba3e:	8d 04 02             	lea    (%edx,%eax,1),%eax
4000ba41:	8b 00                	mov    (%eax),%eax
4000ba43:	0f b6 00             	movzbl (%eax),%eax
4000ba46:	84 c0                	test   %al,%al
4000ba48:	75 06                	jne    4000ba50 <path_compare+0x92>
4000ba4a:	83 45 f8 01          	addl   $0x1,-0x8(%ebp)
4000ba4e:	eb 6e                	jmp    4000babe <path_compare+0x100>
4000ba50:	8b 45 0c             	mov    0xc(%ebp),%eax
4000ba53:	8b 50 04             	mov    0x4(%eax),%edx
4000ba56:	8b 45 f8             	mov    -0x8(%ebp),%eax
4000ba59:	c1 e0 02             	shl    $0x2,%eax
4000ba5c:	8d 04 02             	lea    (%edx,%eax,1),%eax
4000ba5f:	8b 00                	mov    (%eax),%eax
4000ba61:	0f b6 00             	movzbl (%eax),%eax
4000ba64:	84 c0                	test   %al,%al
4000ba66:	74 4a                	je     4000bab2 <path_compare+0xf4>
4000ba68:	8b 45 0c             	mov    0xc(%ebp),%eax
4000ba6b:	8b 50 04             	mov    0x4(%eax),%edx
4000ba6e:	8b 45 f8             	mov    -0x8(%ebp),%eax
4000ba71:	c1 e0 02             	shl    $0x2,%eax
4000ba74:	8d 04 02             	lea    (%edx,%eax,1),%eax
4000ba77:	8b 00                	mov    (%eax),%eax
4000ba79:	0f b6 00             	movzbl (%eax),%eax
4000ba7c:	84 c0                	test   %al,%al
4000ba7e:	74 32                	je     4000bab2 <path_compare+0xf4>
4000ba80:	8b 45 0c             	mov    0xc(%ebp),%eax
4000ba83:	8b 50 04             	mov    0x4(%eax),%edx
4000ba86:	8b 45 f8             	mov    -0x8(%ebp),%eax
4000ba89:	c1 e0 02             	shl    $0x2,%eax
4000ba8c:	8d 04 02             	lea    (%edx,%eax,1),%eax
4000ba8f:	8b 08                	mov    (%eax),%ecx
4000ba91:	8b 45 08             	mov    0x8(%ebp),%eax
4000ba94:	8b 50 04             	mov    0x4(%eax),%edx
4000ba97:	8b 45 f4             	mov    -0xc(%ebp),%eax
4000ba9a:	c1 e0 02             	shl    $0x2,%eax
4000ba9d:	8d 04 02             	lea    (%edx,%eax,1),%eax
4000baa0:	8b 00                	mov    (%eax),%eax
4000baa2:	89 4c 24 04          	mov    %ecx,0x4(%esp)
4000baa6:	89 04 24             	mov    %eax,(%esp)
4000baa9:	e8 56 ee ff ff       	call   4000a904 <strcmp>
4000baae:	85 c0                	test   %eax,%eax
4000bab0:	75 24                	jne    4000bad6 <path_compare+0x118>
4000bab2:	83 45 f4 01          	addl   $0x1,-0xc(%ebp)
4000bab6:	83 45 f8 01          	addl   $0x1,-0x8(%ebp)
4000baba:	83 45 fc 01          	addl   $0x1,-0x4(%ebp)
4000babe:	8b 45 08             	mov    0x8(%ebp),%eax
4000bac1:	8b 00                	mov    (%eax),%eax
4000bac3:	3b 45 f4             	cmp    -0xc(%ebp),%eax
4000bac6:	76 0e                	jbe    4000bad6 <path_compare+0x118>
4000bac8:	8b 45 0c             	mov    0xc(%ebp),%eax
4000bacb:	8b 00                	mov    (%eax),%eax
4000bacd:	3b 45 f8             	cmp    -0x8(%ebp),%eax
4000bad0:	0f 87 3b ff ff ff    	ja     4000ba11 <path_compare+0x53>
4000bad6:	8b 45 fc             	mov    -0x4(%ebp),%eax
4000bad9:	89 45 ec             	mov    %eax,-0x14(%ebp)
4000badc:	8b 45 ec             	mov    -0x14(%ebp),%eax
4000badf:	c9                   	leave  
4000bae0:	c3                   	ret    

4000bae1 <path_cat>:
4000bae1:	55                   	push   %ebp
4000bae2:	89 e5                	mov    %esp,%ebp
4000bae4:	83 ec 38             	sub    $0x38,%esp
4000bae7:	83 7d 08 00          	cmpl   $0x0,0x8(%ebp)
4000baeb:	74 06                	je     4000baf3 <path_cat+0x12>
4000baed:	83 7d 0c 00          	cmpl   $0x0,0xc(%ebp)
4000baf1:	75 0c                	jne    4000baff <path_cat+0x1e>
4000baf3:	c7 45 dc 00 00 00 00 	movl   $0x0,-0x24(%ebp)
4000bafa:	e9 f2 01 00 00       	jmp    4000bcf1 <path_cat+0x210>
4000baff:	c7 04 24 10 00 00 00 	movl   $0x10,(%esp)
4000bb06:	e8 c9 b9 ff ff       	call   400074d4 <malloc>
4000bb0b:	89 45 ec             	mov    %eax,-0x14(%ebp)
4000bb0e:	8b 45 08             	mov    0x8(%ebp),%eax
4000bb11:	8b 50 0c             	mov    0xc(%eax),%edx
4000bb14:	8b 45 ec             	mov    -0x14(%ebp),%eax
4000bb17:	89 50 0c             	mov    %edx,0xc(%eax)
4000bb1a:	8b 45 08             	mov    0x8(%ebp),%eax
4000bb1d:	8b 10                	mov    (%eax),%edx
4000bb1f:	8b 45 0c             	mov    0xc(%ebp),%eax
4000bb22:	8b 00                	mov    (%eax),%eax
4000bb24:	01 c2                	add    %eax,%edx
4000bb26:	8b 45 ec             	mov    -0x14(%ebp),%eax
4000bb29:	89 10                	mov    %edx,(%eax)
4000bb2b:	c7 45 f8 00 00 00 00 	movl   $0x0,-0x8(%ebp)
4000bb32:	c7 45 fc 00 00 00 00 	movl   $0x0,-0x4(%ebp)
4000bb39:	c7 45 f0 00 00 00 00 	movl   $0x0,-0x10(%ebp)
4000bb40:	eb 26                	jmp    4000bb68 <path_cat+0x87>
4000bb42:	8b 45 08             	mov    0x8(%ebp),%eax
4000bb45:	8b 50 04             	mov    0x4(%eax),%edx
4000bb48:	8b 45 f0             	mov    -0x10(%ebp),%eax
4000bb4b:	c1 e0 02             	shl    $0x2,%eax
4000bb4e:	8d 04 02             	lea    (%edx,%eax,1),%eax
4000bb51:	8b 00                	mov    (%eax),%eax
4000bb53:	89 04 24             	mov    %eax,(%esp)
4000bb56:	e8 c9 ee ff ff       	call   4000aa24 <strlen>
4000bb5b:	03 45 f8             	add    -0x8(%ebp),%eax
4000bb5e:	83 c0 01             	add    $0x1,%eax
4000bb61:	89 45 f8             	mov    %eax,-0x8(%ebp)
4000bb64:	83 45 f0 01          	addl   $0x1,-0x10(%ebp)
4000bb68:	8b 45 08             	mov    0x8(%ebp),%eax
4000bb6b:	8b 00                	mov    (%eax),%eax
4000bb6d:	3b 45 f0             	cmp    -0x10(%ebp),%eax
4000bb70:	77 d0                	ja     4000bb42 <path_cat+0x61>
4000bb72:	c7 45 f0 00 00 00 00 	movl   $0x0,-0x10(%ebp)
4000bb79:	eb 26                	jmp    4000bba1 <path_cat+0xc0>
4000bb7b:	8b 45 0c             	mov    0xc(%ebp),%eax
4000bb7e:	8b 50 04             	mov    0x4(%eax),%edx
4000bb81:	8b 45 f0             	mov    -0x10(%ebp),%eax
4000bb84:	c1 e0 02             	shl    $0x2,%eax
4000bb87:	8d 04 02             	lea    (%edx,%eax,1),%eax
4000bb8a:	8b 00                	mov    (%eax),%eax
4000bb8c:	89 04 24             	mov    %eax,(%esp)
4000bb8f:	e8 90 ee ff ff       	call   4000aa24 <strlen>
4000bb94:	03 45 fc             	add    -0x4(%ebp),%eax
4000bb97:	83 c0 01             	add    $0x1,%eax
4000bb9a:	89 45 fc             	mov    %eax,-0x4(%ebp)
4000bb9d:	83 45 f0 01          	addl   $0x1,-0x10(%ebp)
4000bba1:	8b 45 0c             	mov    0xc(%ebp),%eax
4000bba4:	8b 00                	mov    (%eax),%eax
4000bba6:	3b 45 f0             	cmp    -0x10(%ebp),%eax
4000bba9:	77 d0                	ja     4000bb7b <path_cat+0x9a>
4000bbab:	8b 55 fc             	mov    -0x4(%ebp),%edx
4000bbae:	8b 45 f8             	mov    -0x8(%ebp),%eax
4000bbb1:	01 d0                	add    %edx,%eax
4000bbb3:	89 04 24             	mov    %eax,(%esp)
4000bbb6:	e8 19 b9 ff ff       	call   400074d4 <malloc>
4000bbbb:	89 c2                	mov    %eax,%edx
4000bbbd:	8b 45 ec             	mov    -0x14(%ebp),%eax
4000bbc0:	89 50 08             	mov    %edx,0x8(%eax)
4000bbc3:	8b 45 ec             	mov    -0x14(%ebp),%eax
4000bbc6:	8b 00                	mov    (%eax),%eax
4000bbc8:	c1 e0 02             	shl    $0x2,%eax
4000bbcb:	89 04 24             	mov    %eax,(%esp)
4000bbce:	e8 01 b9 ff ff       	call   400074d4 <malloc>
4000bbd3:	89 c2                	mov    %eax,%edx
4000bbd5:	8b 45 ec             	mov    -0x14(%ebp),%eax
4000bbd8:	89 50 04             	mov    %edx,0x4(%eax)
4000bbdb:	c7 45 f4 00 00 00 00 	movl   $0x0,-0xc(%ebp)
4000bbe2:	c7 45 f0 00 00 00 00 	movl   $0x0,-0x10(%ebp)
4000bbe9:	eb 6f                	jmp    4000bc5a <path_cat+0x179>
4000bbeb:	8b 45 08             	mov    0x8(%ebp),%eax
4000bbee:	8b 50 04             	mov    0x4(%eax),%edx
4000bbf1:	8b 45 f0             	mov    -0x10(%ebp),%eax
4000bbf4:	c1 e0 02             	shl    $0x2,%eax
4000bbf7:	8d 04 02             	lea    (%edx,%eax,1),%eax
4000bbfa:	8b 10                	mov    (%eax),%edx
4000bbfc:	8b 45 ec             	mov    -0x14(%ebp),%eax
4000bbff:	8b 40 08             	mov    0x8(%eax),%eax
4000bc02:	03 45 f4             	add    -0xc(%ebp),%eax
4000bc05:	89 54 24 04          	mov    %edx,0x4(%esp)
4000bc09:	89 04 24             	mov    %eax,(%esp)
4000bc0c:	e8 80 ed ff ff       	call   4000a991 <strcpy>
4000bc11:	8b 45 ec             	mov    -0x14(%ebp),%eax
4000bc14:	8b 50 04             	mov    0x4(%eax),%edx
4000bc17:	8b 45 f0             	mov    -0x10(%ebp),%eax
4000bc1a:	c1 e0 02             	shl    $0x2,%eax
4000bc1d:	01 c2                	add    %eax,%edx
4000bc1f:	8b 45 ec             	mov    -0x14(%ebp),%eax
4000bc22:	8b 40 08             	mov    0x8(%eax),%eax
4000bc25:	03 45 f4             	add    -0xc(%ebp),%eax
4000bc28:	89 02                	mov    %eax,(%edx)
4000bc2a:	8b 45 08             	mov    0x8(%ebp),%eax
4000bc2d:	8b 50 04             	mov    0x4(%eax),%edx
4000bc30:	8b 45 f0             	mov    -0x10(%ebp),%eax
4000bc33:	c1 e0 02             	shl    $0x2,%eax
4000bc36:	8d 04 02             	lea    (%edx,%eax,1),%eax
4000bc39:	8b 00                	mov    (%eax),%eax
4000bc3b:	89 04 24             	mov    %eax,(%esp)
4000bc3e:	e8 e1 ed ff ff       	call   4000aa24 <strlen>
4000bc43:	01 45 f4             	add    %eax,-0xc(%ebp)
4000bc46:	8b 45 ec             	mov    -0x14(%ebp),%eax
4000bc49:	8b 40 08             	mov    0x8(%eax),%eax
4000bc4c:	03 45 f4             	add    -0xc(%ebp),%eax
4000bc4f:	c6 00 00             	movb   $0x0,(%eax)
4000bc52:	83 45 f4 01          	addl   $0x1,-0xc(%ebp)
4000bc56:	83 45 f0 01          	addl   $0x1,-0x10(%ebp)
4000bc5a:	8b 45 08             	mov    0x8(%ebp),%eax
4000bc5d:	8b 00                	mov    (%eax),%eax
4000bc5f:	3b 45 f0             	cmp    -0x10(%ebp),%eax
4000bc62:	77 87                	ja     4000bbeb <path_cat+0x10a>
4000bc64:	c7 45 f0 00 00 00 00 	movl   $0x0,-0x10(%ebp)
4000bc6b:	eb 74                	jmp    4000bce1 <path_cat+0x200>
4000bc6d:	8b 45 0c             	mov    0xc(%ebp),%eax
4000bc70:	8b 50 04             	mov    0x4(%eax),%edx
4000bc73:	8b 45 f0             	mov    -0x10(%ebp),%eax
4000bc76:	c1 e0 02             	shl    $0x2,%eax
4000bc79:	8d 04 02             	lea    (%edx,%eax,1),%eax
4000bc7c:	8b 10                	mov    (%eax),%edx
4000bc7e:	8b 45 ec             	mov    -0x14(%ebp),%eax
4000bc81:	8b 40 08             	mov    0x8(%eax),%eax
4000bc84:	03 45 f4             	add    -0xc(%ebp),%eax
4000bc87:	89 54 24 04          	mov    %edx,0x4(%esp)
4000bc8b:	89 04 24             	mov    %eax,(%esp)
4000bc8e:	e8 fe ec ff ff       	call   4000a991 <strcpy>
4000bc93:	8b 45 ec             	mov    -0x14(%ebp),%eax
4000bc96:	8b 50 04             	mov    0x4(%eax),%edx
4000bc99:	8b 45 08             	mov    0x8(%ebp),%eax
4000bc9c:	8b 00                	mov    (%eax),%eax
4000bc9e:	03 45 f0             	add    -0x10(%ebp),%eax
4000bca1:	c1 e0 02             	shl    $0x2,%eax
4000bca4:	01 c2                	add    %eax,%edx
4000bca6:	8b 45 ec             	mov    -0x14(%ebp),%eax
4000bca9:	8b 40 08             	mov    0x8(%eax),%eax
4000bcac:	03 45 f4             	add    -0xc(%ebp),%eax
4000bcaf:	89 02                	mov    %eax,(%edx)
4000bcb1:	8b 45 0c             	mov    0xc(%ebp),%eax
4000bcb4:	8b 50 04             	mov    0x4(%eax),%edx
4000bcb7:	8b 45 f0             	mov    -0x10(%ebp),%eax
4000bcba:	c1 e0 02             	shl    $0x2,%eax
4000bcbd:	8d 04 02             	lea    (%edx,%eax,1),%eax
4000bcc0:	8b 00                	mov    (%eax),%eax
4000bcc2:	89 04 24             	mov    %eax,(%esp)
4000bcc5:	e8 5a ed ff ff       	call   4000aa24 <strlen>
4000bcca:	01 45 f4             	add    %eax,-0xc(%ebp)
4000bccd:	8b 45 ec             	mov    -0x14(%ebp),%eax
4000bcd0:	8b 40 08             	mov    0x8(%eax),%eax
4000bcd3:	03 45 f4             	add    -0xc(%ebp),%eax
4000bcd6:	c6 00 00             	movb   $0x0,(%eax)
4000bcd9:	83 45 f4 01          	addl   $0x1,-0xc(%ebp)
4000bcdd:	83 45 f0 01          	addl   $0x1,-0x10(%ebp)
4000bce1:	8b 45 0c             	mov    0xc(%ebp),%eax
4000bce4:	8b 00                	mov    (%eax),%eax
4000bce6:	3b 45 f0             	cmp    -0x10(%ebp),%eax
4000bce9:	77 82                	ja     4000bc6d <path_cat+0x18c>
4000bceb:	8b 45 ec             	mov    -0x14(%ebp),%eax
4000bcee:	89 45 dc             	mov    %eax,-0x24(%ebp)
4000bcf1:	8b 45 dc             	mov    -0x24(%ebp),%eax
4000bcf4:	c9                   	leave  
4000bcf5:	c3                   	ret    

4000bcf6 <path_parent>:
4000bcf6:	55                   	push   %ebp
4000bcf7:	89 e5                	mov    %esp,%ebp
4000bcf9:	8b 45 08             	mov    0x8(%ebp),%eax
4000bcfc:	8b 00                	mov    (%eax),%eax
4000bcfe:	85 c0                	test   %eax,%eax
4000bd00:	74 1f                	je     4000bd21 <path_parent+0x2b>
4000bd02:	8b 45 08             	mov    0x8(%ebp),%eax
4000bd05:	8b 48 04             	mov    0x4(%eax),%ecx
4000bd08:	8b 45 08             	mov    0x8(%ebp),%eax
4000bd0b:	8b 10                	mov    (%eax),%edx
4000bd0d:	b8 01 00 00 00       	mov    $0x1,%eax
4000bd12:	29 d0                	sub    %edx,%eax
4000bd14:	c1 e0 02             	shl    $0x2,%eax
4000bd17:	f7 d8                	neg    %eax
4000bd19:	8d 04 01             	lea    (%ecx,%eax,1),%eax
4000bd1c:	8b 00                	mov    (%eax),%eax
4000bd1e:	c6 00 00             	movb   $0x0,(%eax)
4000bd21:	5d                   	pop    %ebp
4000bd22:	c3                   	ret    
4000bd23:	90                   	nop    

4000bd24 <getname>:
4000bd24:	55                   	push   %ebp
4000bd25:	89 e5                	mov    %esp,%ebp
4000bd27:	83 ec 28             	sub    $0x28,%esp
4000bd2a:	c7 44 24 10 00 00 00 	movl   $0x0,0x10(%esp)
4000bd31:	00 
4000bd32:	c7 44 24 0c 00 00 00 	movl   $0x0,0xc(%esp)
4000bd39:	00 
4000bd3a:	8b 45 08             	mov    0x8(%ebp),%eax
4000bd3d:	89 44 24 08          	mov    %eax,0x8(%esp)
4000bd41:	c7 44 24 04 03 00 00 	movl   $0x3,0x4(%esp)
4000bd48:	00 
4000bd49:	c7 04 24 2f 00 00 00 	movl   $0x2f,(%esp)
4000bd50:	e8 7b 0c 00 00       	call   4000c9d0 <syscall_call>
4000bd55:	89 45 f8             	mov    %eax,-0x8(%ebp)
4000bd58:	8b 45 f8             	mov    -0x8(%ebp),%eax
4000bd5b:	89 04 24             	mov    %eax,(%esp)
4000bd5e:	e8 71 b7 ff ff       	call   400074d4 <malloc>
4000bd63:	89 45 fc             	mov    %eax,-0x4(%ebp)
4000bd66:	8b 45 f8             	mov    -0x8(%ebp),%eax
4000bd69:	89 44 24 10          	mov    %eax,0x10(%esp)
4000bd6d:	8b 45 fc             	mov    -0x4(%ebp),%eax
4000bd70:	89 44 24 0c          	mov    %eax,0xc(%esp)
4000bd74:	8b 45 08             	mov    0x8(%ebp),%eax
4000bd77:	89 44 24 08          	mov    %eax,0x8(%esp)
4000bd7b:	c7 44 24 04 03 00 00 	movl   $0x3,0x4(%esp)
4000bd82:	00 
4000bd83:	c7 04 24 2f 00 00 00 	movl   $0x2f,(%esp)
4000bd8a:	e8 41 0c 00 00       	call   4000c9d0 <syscall_call>
4000bd8f:	8b 45 fc             	mov    -0x4(%ebp),%eax
4000bd92:	c9                   	leave  
4000bd93:	c3                   	ret    

4000bd94 <proc_mempagelist>:
4000bd94:	55                   	push   %ebp
4000bd95:	89 e5                	mov    %esp,%ebp
4000bd97:	83 ec 28             	sub    $0x28,%esp
4000bd9a:	c7 44 24 10 00 00 00 	movl   $0x0,0x10(%esp)
4000bda1:	00 
4000bda2:	c7 44 24 0c 00 00 00 	movl   $0x0,0xc(%esp)
4000bda9:	00 
4000bdaa:	8b 45 08             	mov    0x8(%ebp),%eax
4000bdad:	89 44 24 08          	mov    %eax,0x8(%esp)
4000bdb1:	c7 44 24 04 03 00 00 	movl   $0x3,0x4(%esp)
4000bdb8:	00 
4000bdb9:	c7 04 24 3f 00 00 00 	movl   $0x3f,(%esp)
4000bdc0:	e8 0b 0c 00 00       	call   4000c9d0 <syscall_call>
4000bdc5:	89 45 f8             	mov    %eax,-0x8(%ebp)
4000bdc8:	83 7d f8 00          	cmpl   $0x0,-0x8(%ebp)
4000bdcc:	7e 49                	jle    4000be17 <proc_mempagelist+0x83>
4000bdce:	8b 45 f8             	mov    -0x8(%ebp),%eax
4000bdd1:	c1 e0 02             	shl    $0x2,%eax
4000bdd4:	89 04 24             	mov    %eax,(%esp)
4000bdd7:	e8 f8 b6 ff ff       	call   400074d4 <malloc>
4000bddc:	89 45 fc             	mov    %eax,-0x4(%ebp)
4000bddf:	8b 45 f8             	mov    -0x8(%ebp),%eax
4000bde2:	89 44 24 10          	mov    %eax,0x10(%esp)
4000bde6:	8b 45 fc             	mov    -0x4(%ebp),%eax
4000bde9:	89 44 24 0c          	mov    %eax,0xc(%esp)
4000bded:	8b 45 08             	mov    0x8(%ebp),%eax
4000bdf0:	89 44 24 08          	mov    %eax,0x8(%esp)
4000bdf4:	c7 44 24 04 03 00 00 	movl   $0x3,0x4(%esp)
4000bdfb:	00 
4000bdfc:	c7 04 24 3f 00 00 00 	movl   $0x3f,(%esp)
4000be03:	e8 c8 0b 00 00       	call   4000c9d0 <syscall_call>
4000be08:	89 c2                	mov    %eax,%edx
4000be0a:	8b 45 0c             	mov    0xc(%ebp),%eax
4000be0d:	89 10                	mov    %edx,(%eax)
4000be0f:	8b 45 fc             	mov    -0x4(%ebp),%eax
4000be12:	89 45 ec             	mov    %eax,-0x14(%ebp)
4000be15:	eb 07                	jmp    4000be1e <proc_mempagelist+0x8a>
4000be17:	c7 45 ec 00 00 00 00 	movl   $0x0,-0x14(%ebp)
4000be1e:	8b 45 ec             	mov    -0x14(%ebp),%eax
4000be21:	c9                   	leave  
4000be22:	c3                   	ret    
4000be23:	90                   	nop    

4000be24 <rpc_func_create>:
4000be24:	55                   	push   %ebp
4000be25:	89 e5                	mov    %esp,%ebp
4000be27:	83 ec 38             	sub    $0x38,%esp
4000be2a:	8b 45 14             	mov    0x14(%ebp),%eax
4000be2d:	89 44 24 14          	mov    %eax,0x14(%esp)
4000be31:	8b 45 10             	mov    0x10(%ebp),%eax
4000be34:	89 44 24 10          	mov    %eax,0x10(%esp)
4000be38:	8b 45 0c             	mov    0xc(%ebp),%eax
4000be3b:	89 44 24 0c          	mov    %eax,0xc(%esp)
4000be3f:	8b 45 08             	mov    0x8(%ebp),%eax
4000be42:	89 44 24 08          	mov    %eax,0x8(%esp)
4000be46:	c7 44 24 04 04 00 00 	movl   $0x4,0x4(%esp)
4000be4d:	00 
4000be4e:	c7 04 24 21 00 00 00 	movl   $0x21,(%esp)
4000be55:	e8 76 0b 00 00       	call   4000c9d0 <syscall_call>
4000be5a:	89 45 fc             	mov    %eax,-0x4(%ebp)
4000be5d:	83 7d fc 00          	cmpl   $0x0,-0x4(%ebp)
4000be61:	79 0c                	jns    4000be6f <rpc_func_create+0x4b>
4000be63:	8b 45 fc             	mov    -0x4(%ebp),%eax
4000be66:	89 c2                	mov    %eax,%edx
4000be68:	f7 da                	neg    %edx
4000be6a:	89 55 ec             	mov    %edx,-0x14(%ebp)
4000be6d:	eb 07                	jmp    4000be76 <rpc_func_create+0x52>
4000be6f:	c7 45 ec 00 00 00 00 	movl   $0x0,-0x14(%ebp)
4000be76:	8b 45 ec             	mov    -0x14(%ebp),%eax
4000be79:	a3 10 1c 01 40       	mov    %eax,0x40011c10
4000be7e:	8b 45 fc             	mov    -0x4(%ebp),%eax
4000be81:	c1 f8 1f             	sar    $0x1f,%eax
4000be84:	0b 45 fc             	or     -0x4(%ebp),%eax
4000be87:	c9                   	leave  
4000be88:	c3                   	ret    

4000be89 <rpc_func_destroy>:
4000be89:	55                   	push   %ebp
4000be8a:	89 e5                	mov    %esp,%ebp
4000be8c:	83 ec 28             	sub    $0x28,%esp
4000be8f:	8b 45 08             	mov    0x8(%ebp),%eax
4000be92:	89 44 24 08          	mov    %eax,0x8(%esp)
4000be96:	c7 44 24 04 01 00 00 	movl   $0x1,0x4(%esp)
4000be9d:	00 
4000be9e:	c7 04 24 22 00 00 00 	movl   $0x22,(%esp)
4000bea5:	e8 26 0b 00 00       	call   4000c9d0 <syscall_call>
4000beaa:	89 45 fc             	mov    %eax,-0x4(%ebp)
4000bead:	83 7d fc 00          	cmpl   $0x0,-0x4(%ebp)
4000beb1:	79 0c                	jns    4000bebf <rpc_func_destroy+0x36>
4000beb3:	8b 45 fc             	mov    -0x4(%ebp),%eax
4000beb6:	89 c2                	mov    %eax,%edx
4000beb8:	f7 da                	neg    %edx
4000beba:	89 55 ec             	mov    %edx,-0x14(%ebp)
4000bebd:	eb 07                	jmp    4000bec6 <rpc_func_destroy+0x3d>
4000bebf:	c7 45 ec 00 00 00 00 	movl   $0x0,-0x14(%ebp)
4000bec6:	8b 45 ec             	mov    -0x14(%ebp),%eax
4000bec9:	a3 10 1c 01 40       	mov    %eax,0x40011c10
4000bece:	8b 45 fc             	mov    -0x4(%ebp),%eax
4000bed1:	c1 f8 1f             	sar    $0x1f,%eax
4000bed4:	0b 45 fc             	or     -0x4(%ebp),%eax
4000bed7:	c9                   	leave  
4000bed8:	c3                   	ret    

4000bed9 <rpc_vcall>:
4000bed9:	55                   	push   %ebp
4000beda:	89 e5                	mov    %esp,%ebp
4000bedc:	81 ec 68 01 00 00    	sub    $0x168,%esp
4000bee2:	c7 44 24 24 00 00 00 	movl   $0x0,0x24(%esp)
4000bee9:	00 
4000beea:	c7 44 24 20 00 01 00 	movl   $0x100,0x20(%esp)
4000bef1:	00 
4000bef2:	8d 85 e8 fe ff ff    	lea    -0x118(%ebp),%eax
4000bef8:	89 44 24 1c          	mov    %eax,0x1c(%esp)
4000befc:	8d 85 e4 fe ff ff    	lea    -0x11c(%ebp),%eax
4000bf02:	89 44 24 18          	mov    %eax,0x18(%esp)
4000bf06:	c7 44 24 14 00 00 00 	movl   $0x0,0x14(%esp)
4000bf0d:	00 
4000bf0e:	c7 44 24 10 00 00 00 	movl   $0x0,0x10(%esp)
4000bf15:	00 
4000bf16:	8b 45 08             	mov    0x8(%ebp),%eax
4000bf19:	89 44 24 0c          	mov    %eax,0xc(%esp)
4000bf1d:	c7 44 24 08 ff ff ff 	movl   $0xffffffff,0x8(%esp)
4000bf24:	ff 
4000bf25:	c7 44 24 04 08 00 00 	movl   $0x8,0x4(%esp)
4000bf2c:	00 
4000bf2d:	c7 04 24 23 00 00 00 	movl   $0x23,(%esp)
4000bf34:	e8 97 0a 00 00       	call   4000c9d0 <syscall_call>
4000bf39:	89 45 f0             	mov    %eax,-0x10(%ebp)
4000bf3c:	83 7d f0 00          	cmpl   $0x0,-0x10(%ebp)
4000bf40:	0f 88 89 04 00 00    	js     4000c3cf <rpc_vcall+0x4f6>
4000bf46:	8b 85 e4 fe ff ff    	mov    -0x11c(%ebp),%eax
4000bf4c:	89 04 24             	mov    %eax,(%esp)
4000bf4f:	e8 80 b5 ff ff       	call   400074d4 <malloc>
4000bf54:	89 04 24             	mov    %eax,(%esp)
4000bf57:	e8 e8 1e 00 00       	call   4000de44 <pack_create>
4000bf5c:	89 45 f8             	mov    %eax,-0x8(%ebp)
4000bf5f:	8d 85 e8 fe ff ff    	lea    -0x118(%ebp),%eax
4000bf65:	89 04 24             	mov    %eax,(%esp)
4000bf68:	e8 b7 ea ff ff       	call   4000aa24 <strlen>
4000bf6d:	c1 e0 02             	shl    $0x2,%eax
4000bf70:	89 04 24             	mov    %eax,(%esp)
4000bf73:	e8 5c b5 ff ff       	call   400074d4 <malloc>
4000bf78:	89 45 fc             	mov    %eax,-0x4(%ebp)
4000bf7b:	c7 45 f4 00 00 00 00 	movl   $0x0,-0xc(%ebp)
4000bf82:	e9 b6 01 00 00       	jmp    4000c13d <rpc_vcall+0x264>
4000bf87:	8b 45 f4             	mov    -0xc(%ebp),%eax
4000bf8a:	c1 e0 02             	shl    $0x2,%eax
4000bf8d:	89 c1                	mov    %eax,%ecx
4000bf8f:	03 4d fc             	add    -0x4(%ebp),%ecx
4000bf92:	8b 55 10             	mov    0x10(%ebp),%edx
4000bf95:	8d 42 04             	lea    0x4(%edx),%eax
4000bf98:	89 45 10             	mov    %eax,0x10(%ebp)
4000bf9b:	89 d0                	mov    %edx,%eax
4000bf9d:	8b 00                	mov    (%eax),%eax
4000bf9f:	89 01                	mov    %eax,(%ecx)
4000bfa1:	8b 45 f4             	mov    -0xc(%ebp),%eax
4000bfa4:	0f b6 84 05 e8 fe ff 	movzbl -0x118(%ebp,%eax,1),%eax
4000bfab:	ff 
4000bfac:	3c 62                	cmp    $0x62,%al
4000bfae:	75 26                	jne    4000bfd6 <rpc_vcall+0xfd>
4000bfb0:	8b 45 f8             	mov    -0x8(%ebp),%eax
4000bfb3:	8b 00                	mov    (%eax),%eax
4000bfb5:	89 c2                	mov    %eax,%edx
4000bfb7:	8b 45 f4             	mov    -0xc(%ebp),%eax
4000bfba:	c1 e0 02             	shl    $0x2,%eax
4000bfbd:	03 45 fc             	add    -0x4(%ebp),%eax
4000bfc0:	8b 00                	mov    (%eax),%eax
4000bfc2:	88 02                	mov    %al,(%edx)
4000bfc4:	8b 45 f8             	mov    -0x8(%ebp),%eax
4000bfc7:	8b 00                	mov    (%eax),%eax
4000bfc9:	8d 50 01             	lea    0x1(%eax),%edx
4000bfcc:	8b 45 f8             	mov    -0x8(%ebp),%eax
4000bfcf:	89 10                	mov    %edx,(%eax)
4000bfd1:	e9 63 01 00 00       	jmp    4000c139 <rpc_vcall+0x260>
4000bfd6:	8b 45 f4             	mov    -0xc(%ebp),%eax
4000bfd9:	0f b6 84 05 e8 fe ff 	movzbl -0x118(%ebp,%eax,1),%eax
4000bfe0:	ff 
4000bfe1:	3c 77                	cmp    $0x77,%al
4000bfe3:	75 27                	jne    4000c00c <rpc_vcall+0x133>
4000bfe5:	8b 45 f8             	mov    -0x8(%ebp),%eax
4000bfe8:	8b 00                	mov    (%eax),%eax
4000bfea:	89 c2                	mov    %eax,%edx
4000bfec:	8b 45 f4             	mov    -0xc(%ebp),%eax
4000bfef:	c1 e0 02             	shl    $0x2,%eax
4000bff2:	03 45 fc             	add    -0x4(%ebp),%eax
4000bff5:	8b 00                	mov    (%eax),%eax
4000bff7:	66 89 02             	mov    %ax,(%edx)
4000bffa:	8b 45 f8             	mov    -0x8(%ebp),%eax
4000bffd:	8b 00                	mov    (%eax),%eax
4000bfff:	8d 50 02             	lea    0x2(%eax),%edx
4000c002:	8b 45 f8             	mov    -0x8(%ebp),%eax
4000c005:	89 10                	mov    %edx,(%eax)
4000c007:	e9 2d 01 00 00       	jmp    4000c139 <rpc_vcall+0x260>
4000c00c:	8b 45 f4             	mov    -0xc(%ebp),%eax
4000c00f:	0f b6 84 05 e8 fe ff 	movzbl -0x118(%ebp,%eax,1),%eax
4000c016:	ff 
4000c017:	3c 64                	cmp    $0x64,%al
4000c019:	75 26                	jne    4000c041 <rpc_vcall+0x168>
4000c01b:	8b 45 f8             	mov    -0x8(%ebp),%eax
4000c01e:	8b 00                	mov    (%eax),%eax
4000c020:	89 c2                	mov    %eax,%edx
4000c022:	8b 45 f4             	mov    -0xc(%ebp),%eax
4000c025:	c1 e0 02             	shl    $0x2,%eax
4000c028:	03 45 fc             	add    -0x4(%ebp),%eax
4000c02b:	8b 00                	mov    (%eax),%eax
4000c02d:	89 02                	mov    %eax,(%edx)
4000c02f:	8b 45 f8             	mov    -0x8(%ebp),%eax
4000c032:	8b 00                	mov    (%eax),%eax
4000c034:	8d 50 04             	lea    0x4(%eax),%edx
4000c037:	8b 45 f8             	mov    -0x8(%ebp),%eax
4000c03a:	89 10                	mov    %edx,(%eax)
4000c03c:	e9 f8 00 00 00       	jmp    4000c139 <rpc_vcall+0x260>
4000c041:	8b 45 f4             	mov    -0xc(%ebp),%eax
4000c044:	0f b6 84 05 e8 fe ff 	movzbl -0x118(%ebp,%eax,1),%eax
4000c04b:	ff 
4000c04c:	3c 63                	cmp    $0x63,%al
4000c04e:	75 26                	jne    4000c076 <rpc_vcall+0x19d>
4000c050:	8b 45 f8             	mov    -0x8(%ebp),%eax
4000c053:	8b 00                	mov    (%eax),%eax
4000c055:	89 c2                	mov    %eax,%edx
4000c057:	8b 45 f4             	mov    -0xc(%ebp),%eax
4000c05a:	c1 e0 02             	shl    $0x2,%eax
4000c05d:	03 45 fc             	add    -0x4(%ebp),%eax
4000c060:	8b 00                	mov    (%eax),%eax
4000c062:	88 02                	mov    %al,(%edx)
4000c064:	8b 45 f8             	mov    -0x8(%ebp),%eax
4000c067:	8b 00                	mov    (%eax),%eax
4000c069:	8d 50 01             	lea    0x1(%eax),%edx
4000c06c:	8b 45 f8             	mov    -0x8(%ebp),%eax
4000c06f:	89 10                	mov    %edx,(%eax)
4000c071:	e9 c3 00 00 00       	jmp    4000c139 <rpc_vcall+0x260>
4000c076:	8b 45 f4             	mov    -0xc(%ebp),%eax
4000c079:	0f b6 84 05 e8 fe ff 	movzbl -0x118(%ebp,%eax,1),%eax
4000c080:	ff 
4000c081:	3c 73                	cmp    $0x73,%al
4000c083:	75 27                	jne    4000c0ac <rpc_vcall+0x1d3>
4000c085:	8b 45 f8             	mov    -0x8(%ebp),%eax
4000c088:	8b 00                	mov    (%eax),%eax
4000c08a:	89 c2                	mov    %eax,%edx
4000c08c:	8b 45 f4             	mov    -0xc(%ebp),%eax
4000c08f:	c1 e0 02             	shl    $0x2,%eax
4000c092:	03 45 fc             	add    -0x4(%ebp),%eax
4000c095:	8b 00                	mov    (%eax),%eax
4000c097:	66 89 02             	mov    %ax,(%edx)
4000c09a:	8b 45 f8             	mov    -0x8(%ebp),%eax
4000c09d:	8b 00                	mov    (%eax),%eax
4000c09f:	8d 50 02             	lea    0x2(%eax),%edx
4000c0a2:	8b 45 f8             	mov    -0x8(%ebp),%eax
4000c0a5:	89 10                	mov    %edx,(%eax)
4000c0a7:	e9 8d 00 00 00       	jmp    4000c139 <rpc_vcall+0x260>
4000c0ac:	8b 45 f4             	mov    -0xc(%ebp),%eax
4000c0af:	0f b6 84 05 e8 fe ff 	movzbl -0x118(%ebp,%eax,1),%eax
4000c0b6:	ff 
4000c0b7:	3c 69                	cmp    $0x69,%al
4000c0b9:	75 23                	jne    4000c0de <rpc_vcall+0x205>
4000c0bb:	8b 45 f8             	mov    -0x8(%ebp),%eax
4000c0be:	8b 00                	mov    (%eax),%eax
4000c0c0:	89 c2                	mov    %eax,%edx
4000c0c2:	8b 45 f4             	mov    -0xc(%ebp),%eax
4000c0c5:	c1 e0 02             	shl    $0x2,%eax
4000c0c8:	03 45 fc             	add    -0x4(%ebp),%eax
4000c0cb:	8b 00                	mov    (%eax),%eax
4000c0cd:	89 02                	mov    %eax,(%edx)
4000c0cf:	8b 45 f8             	mov    -0x8(%ebp),%eax
4000c0d2:	8b 00                	mov    (%eax),%eax
4000c0d4:	8d 50 04             	lea    0x4(%eax),%edx
4000c0d7:	8b 45 f8             	mov    -0x8(%ebp),%eax
4000c0da:	89 10                	mov    %edx,(%eax)
4000c0dc:	eb 5b                	jmp    4000c139 <rpc_vcall+0x260>
4000c0de:	8b 45 f4             	mov    -0xc(%ebp),%eax
4000c0e1:	0f b6 84 05 e8 fe ff 	movzbl -0x118(%ebp,%eax,1),%eax
4000c0e8:	ff 
4000c0e9:	3c 6c                	cmp    $0x6c,%al
4000c0eb:	75 23                	jne    4000c110 <rpc_vcall+0x237>
4000c0ed:	8b 45 f8             	mov    -0x8(%ebp),%eax
4000c0f0:	8b 00                	mov    (%eax),%eax
4000c0f2:	89 c2                	mov    %eax,%edx
4000c0f4:	8b 45 f4             	mov    -0xc(%ebp),%eax
4000c0f7:	c1 e0 02             	shl    $0x2,%eax
4000c0fa:	03 45 fc             	add    -0x4(%ebp),%eax
4000c0fd:	8b 00                	mov    (%eax),%eax
4000c0ff:	89 02                	mov    %eax,(%edx)
4000c101:	8b 45 f8             	mov    -0x8(%ebp),%eax
4000c104:	8b 00                	mov    (%eax),%eax
4000c106:	8d 50 04             	lea    0x4(%eax),%edx
4000c109:	8b 45 f8             	mov    -0x8(%ebp),%eax
4000c10c:	89 10                	mov    %edx,(%eax)
4000c10e:	eb 29                	jmp    4000c139 <rpc_vcall+0x260>
4000c110:	8b 45 f4             	mov    -0xc(%ebp),%eax
4000c113:	0f b6 84 05 e8 fe ff 	movzbl -0x118(%ebp,%eax,1),%eax
4000c11a:	ff 
4000c11b:	3c 24                	cmp    $0x24,%al
4000c11d:	75 1a                	jne    4000c139 <rpc_vcall+0x260>
4000c11f:	8b 45 f4             	mov    -0xc(%ebp),%eax
4000c122:	c1 e0 02             	shl    $0x2,%eax
4000c125:	03 45 fc             	add    -0x4(%ebp),%eax
4000c128:	8b 00                	mov    (%eax),%eax
4000c12a:	89 44 24 04          	mov    %eax,0x4(%esp)
4000c12e:	8b 45 f8             	mov    -0x8(%ebp),%eax
4000c131:	89 04 24             	mov    %eax,(%esp)
4000c134:	e8 36 1d 00 00       	call   4000de6f <packstr>
4000c139:	83 45 f4 01          	addl   $0x1,-0xc(%ebp)
4000c13d:	8b 45 f4             	mov    -0xc(%ebp),%eax
4000c140:	0f b6 84 05 e8 fe ff 	movzbl -0x118(%ebp,%eax,1),%eax
4000c147:	ff 
4000c148:	84 c0                	test   %al,%al
4000c14a:	0f 85 37 fe ff ff    	jne    4000bf87 <rpc_vcall+0xae>
4000c150:	83 7d 0c 00          	cmpl   $0x0,0xc(%ebp)
4000c154:	74 0e                	je     4000c164 <rpc_vcall+0x28b>
4000c156:	8b 45 f8             	mov    -0x8(%ebp),%eax
4000c159:	8b 40 04             	mov    0x4(%eax),%eax
4000c15c:	89 85 c8 fe ff ff    	mov    %eax,-0x138(%ebp)
4000c162:	eb 0a                	jmp    4000c16e <rpc_vcall+0x295>
4000c164:	c7 85 c8 fe ff ff 00 	movl   $0x0,-0x138(%ebp)
4000c16b:	00 00 00 
4000c16e:	8b 45 f8             	mov    -0x8(%ebp),%eax
4000c171:	8b 50 04             	mov    0x4(%eax),%edx
4000c174:	8d 45 e8             	lea    -0x18(%ebp),%eax
4000c177:	89 44 24 18          	mov    %eax,0x18(%esp)
4000c17b:	8b 85 c8 fe ff ff    	mov    -0x138(%ebp),%eax
4000c181:	89 44 24 14          	mov    %eax,0x14(%esp)
4000c185:	8d 45 ec             	lea    -0x14(%ebp),%eax
4000c188:	89 44 24 10          	mov    %eax,0x10(%esp)
4000c18c:	89 54 24 0c          	mov    %edx,0xc(%esp)
4000c190:	8b 45 f0             	mov    -0x10(%ebp),%eax
4000c193:	89 44 24 08          	mov    %eax,0x8(%esp)
4000c197:	c7 44 24 04 05 00 00 	movl   $0x5,0x4(%esp)
4000c19e:	00 
4000c19f:	c7 04 24 24 00 00 00 	movl   $0x24,(%esp)
4000c1a6:	e8 25 08 00 00       	call   4000c9d0 <syscall_call>
4000c1ab:	85 c0                	test   %eax,%eax
4000c1ad:	75 07                	jne    4000c1b6 <rpc_vcall+0x2dd>
4000c1af:	c7 45 e8 01 00 00 00 	movl   $0x1,-0x18(%ebp)
4000c1b6:	83 7d 0c 00          	cmpl   $0x0,0xc(%ebp)
4000c1ba:	0f 84 d6 01 00 00    	je     4000c396 <rpc_vcall+0x4bd>
4000c1c0:	8b 45 f8             	mov    -0x8(%ebp),%eax
4000c1c3:	8b 50 04             	mov    0x4(%eax),%edx
4000c1c6:	8b 45 f8             	mov    -0x8(%ebp),%eax
4000c1c9:	89 10                	mov    %edx,(%eax)
4000c1cb:	c7 45 f4 00 00 00 00 	movl   $0x0,-0xc(%ebp)
4000c1d2:	e9 ac 01 00 00       	jmp    4000c383 <rpc_vcall+0x4aa>
4000c1d7:	8b 45 f4             	mov    -0xc(%ebp),%eax
4000c1da:	0f b6 84 05 e8 fe ff 	movzbl -0x118(%ebp,%eax,1),%eax
4000c1e1:	ff 
4000c1e2:	3c 62                	cmp    $0x62,%al
4000c1e4:	75 23                	jne    4000c209 <rpc_vcall+0x330>
4000c1e6:	8b 45 f8             	mov    -0x8(%ebp),%eax
4000c1e9:	8b 00                	mov    (%eax),%eax
4000c1eb:	0f b6 00             	movzbl (%eax),%eax
4000c1ee:	0f b6 c0             	movzbl %al,%eax
4000c1f1:	89 85 e0 fe ff ff    	mov    %eax,-0x120(%ebp)
4000c1f7:	8b 45 f8             	mov    -0x8(%ebp),%eax
4000c1fa:	8b 00                	mov    (%eax),%eax
4000c1fc:	8d 50 01             	lea    0x1(%eax),%edx
4000c1ff:	8b 45 f8             	mov    -0x8(%ebp),%eax
4000c202:	89 10                	mov    %edx,(%eax)
4000c204:	e9 76 01 00 00       	jmp    4000c37f <rpc_vcall+0x4a6>
4000c209:	8b 45 f4             	mov    -0xc(%ebp),%eax
4000c20c:	0f b6 84 05 e8 fe ff 	movzbl -0x118(%ebp,%eax,1),%eax
4000c213:	ff 
4000c214:	3c 77                	cmp    $0x77,%al
4000c216:	75 23                	jne    4000c23b <rpc_vcall+0x362>
4000c218:	8b 45 f8             	mov    -0x8(%ebp),%eax
4000c21b:	8b 00                	mov    (%eax),%eax
4000c21d:	0f b7 00             	movzwl (%eax),%eax
4000c220:	0f b7 c0             	movzwl %ax,%eax
4000c223:	89 85 e0 fe ff ff    	mov    %eax,-0x120(%ebp)
4000c229:	8b 45 f8             	mov    -0x8(%ebp),%eax
4000c22c:	8b 00                	mov    (%eax),%eax
4000c22e:	8d 50 02             	lea    0x2(%eax),%edx
4000c231:	8b 45 f8             	mov    -0x8(%ebp),%eax
4000c234:	89 10                	mov    %edx,(%eax)
4000c236:	e9 44 01 00 00       	jmp    4000c37f <rpc_vcall+0x4a6>
4000c23b:	8b 45 f4             	mov    -0xc(%ebp),%eax
4000c23e:	0f b6 84 05 e8 fe ff 	movzbl -0x118(%ebp,%eax,1),%eax
4000c245:	ff 
4000c246:	3c 64                	cmp    $0x64,%al
4000c248:	75 1f                	jne    4000c269 <rpc_vcall+0x390>
4000c24a:	8b 45 f8             	mov    -0x8(%ebp),%eax
4000c24d:	8b 00                	mov    (%eax),%eax
4000c24f:	8b 00                	mov    (%eax),%eax
4000c251:	89 85 e0 fe ff ff    	mov    %eax,-0x120(%ebp)
4000c257:	8b 45 f8             	mov    -0x8(%ebp),%eax
4000c25a:	8b 00                	mov    (%eax),%eax
4000c25c:	8d 50 04             	lea    0x4(%eax),%edx
4000c25f:	8b 45 f8             	mov    -0x8(%ebp),%eax
4000c262:	89 10                	mov    %edx,(%eax)
4000c264:	e9 16 01 00 00       	jmp    4000c37f <rpc_vcall+0x4a6>
4000c269:	8b 45 f4             	mov    -0xc(%ebp),%eax
4000c26c:	0f b6 84 05 e8 fe ff 	movzbl -0x118(%ebp,%eax,1),%eax
4000c273:	ff 
4000c274:	3c 63                	cmp    $0x63,%al
4000c276:	75 23                	jne    4000c29b <rpc_vcall+0x3c2>
4000c278:	8b 45 f8             	mov    -0x8(%ebp),%eax
4000c27b:	8b 00                	mov    (%eax),%eax
4000c27d:	0f b6 00             	movzbl (%eax),%eax
4000c280:	0f be c0             	movsbl %al,%eax
4000c283:	89 85 e0 fe ff ff    	mov    %eax,-0x120(%ebp)
4000c289:	8b 45 f8             	mov    -0x8(%ebp),%eax
4000c28c:	8b 00                	mov    (%eax),%eax
4000c28e:	8d 50 01             	lea    0x1(%eax),%edx
4000c291:	8b 45 f8             	mov    -0x8(%ebp),%eax
4000c294:	89 10                	mov    %edx,(%eax)
4000c296:	e9 e4 00 00 00       	jmp    4000c37f <rpc_vcall+0x4a6>
4000c29b:	8b 45 f4             	mov    -0xc(%ebp),%eax
4000c29e:	0f b6 84 05 e8 fe ff 	movzbl -0x118(%ebp,%eax,1),%eax
4000c2a5:	ff 
4000c2a6:	3c 73                	cmp    $0x73,%al
4000c2a8:	75 21                	jne    4000c2cb <rpc_vcall+0x3f2>
4000c2aa:	8b 45 f8             	mov    -0x8(%ebp),%eax
4000c2ad:	8b 00                	mov    (%eax),%eax
4000c2af:	0f b7 00             	movzwl (%eax),%eax
4000c2b2:	98                   	cwtl   
4000c2b3:	89 85 e0 fe ff ff    	mov    %eax,-0x120(%ebp)
4000c2b9:	8b 45 f8             	mov    -0x8(%ebp),%eax
4000c2bc:	8b 00                	mov    (%eax),%eax
4000c2be:	8d 50 02             	lea    0x2(%eax),%edx
4000c2c1:	8b 45 f8             	mov    -0x8(%ebp),%eax
4000c2c4:	89 10                	mov    %edx,(%eax)
4000c2c6:	e9 b4 00 00 00       	jmp    4000c37f <rpc_vcall+0x4a6>
4000c2cb:	8b 45 f4             	mov    -0xc(%ebp),%eax
4000c2ce:	0f b6 84 05 e8 fe ff 	movzbl -0x118(%ebp,%eax,1),%eax
4000c2d5:	ff 
4000c2d6:	3c 69                	cmp    $0x69,%al
4000c2d8:	75 1f                	jne    4000c2f9 <rpc_vcall+0x420>
4000c2da:	8b 45 f8             	mov    -0x8(%ebp),%eax
4000c2dd:	8b 00                	mov    (%eax),%eax
4000c2df:	8b 00                	mov    (%eax),%eax
4000c2e1:	89 85 e0 fe ff ff    	mov    %eax,-0x120(%ebp)
4000c2e7:	8b 45 f8             	mov    -0x8(%ebp),%eax
4000c2ea:	8b 00                	mov    (%eax),%eax
4000c2ec:	8d 50 04             	lea    0x4(%eax),%edx
4000c2ef:	8b 45 f8             	mov    -0x8(%ebp),%eax
4000c2f2:	89 10                	mov    %edx,(%eax)
4000c2f4:	e9 86 00 00 00       	jmp    4000c37f <rpc_vcall+0x4a6>
4000c2f9:	8b 45 f4             	mov    -0xc(%ebp),%eax
4000c2fc:	0f b6 84 05 e8 fe ff 	movzbl -0x118(%ebp,%eax,1),%eax
4000c303:	ff 
4000c304:	3c 6c                	cmp    $0x6c,%al
4000c306:	75 1c                	jne    4000c324 <rpc_vcall+0x44b>
4000c308:	8b 45 f8             	mov    -0x8(%ebp),%eax
4000c30b:	8b 00                	mov    (%eax),%eax
4000c30d:	8b 00                	mov    (%eax),%eax
4000c30f:	89 85 e0 fe ff ff    	mov    %eax,-0x120(%ebp)
4000c315:	8b 45 f8             	mov    -0x8(%ebp),%eax
4000c318:	8b 00                	mov    (%eax),%eax
4000c31a:	8d 50 04             	lea    0x4(%eax),%edx
4000c31d:	8b 45 f8             	mov    -0x8(%ebp),%eax
4000c320:	89 10                	mov    %edx,(%eax)
4000c322:	eb 5b                	jmp    4000c37f <rpc_vcall+0x4a6>
4000c324:	8b 45 f4             	mov    -0xc(%ebp),%eax
4000c327:	0f b6 84 05 e8 fe ff 	movzbl -0x118(%ebp,%eax,1),%eax
4000c32e:	ff 
4000c32f:	3c 24                	cmp    $0x24,%al
4000c331:	75 4c                	jne    4000c37f <rpc_vcall+0x4a6>
4000c333:	8d 85 dc fe ff ff    	lea    -0x124(%ebp),%eax
4000c339:	89 44 24 04          	mov    %eax,0x4(%esp)
4000c33d:	8b 45 f8             	mov    -0x8(%ebp),%eax
4000c340:	89 04 24             	mov    %eax,(%esp)
4000c343:	e8 f7 1b 00 00       	call   4000df3f <unpackstr>
4000c348:	8b 45 f4             	mov    -0xc(%ebp),%eax
4000c34b:	c1 e0 02             	shl    $0x2,%eax
4000c34e:	03 45 fc             	add    -0x4(%ebp),%eax
4000c351:	8b 00                	mov    (%eax),%eax
4000c353:	89 04 24             	mov    %eax,(%esp)
4000c356:	e8 c9 e6 ff ff       	call   4000aa24 <strlen>
4000c35b:	8d 50 01             	lea    0x1(%eax),%edx
4000c35e:	8b 8d dc fe ff ff    	mov    -0x124(%ebp),%ecx
4000c364:	8b 45 f4             	mov    -0xc(%ebp),%eax
4000c367:	c1 e0 02             	shl    $0x2,%eax
4000c36a:	03 45 fc             	add    -0x4(%ebp),%eax
4000c36d:	8b 00                	mov    (%eax),%eax
4000c36f:	89 54 24 08          	mov    %edx,0x8(%esp)
4000c373:	89 4c 24 04          	mov    %ecx,0x4(%esp)
4000c377:	89 04 24             	mov    %eax,(%esp)
4000c37a:	e8 e5 e7 ff ff       	call   4000ab64 <strncpy>
4000c37f:	83 45 f4 01          	addl   $0x1,-0xc(%ebp)
4000c383:	8b 45 f4             	mov    -0xc(%ebp),%eax
4000c386:	0f b6 84 05 e8 fe ff 	movzbl -0x118(%ebp,%eax,1),%eax
4000c38d:	ff 
4000c38e:	84 c0                	test   %al,%al
4000c390:	0f 85 41 fe ff ff    	jne    4000c1d7 <rpc_vcall+0x2fe>
4000c396:	c7 05 10 1c 01 40 00 	movl   $0x0,0x40011c10
4000c39d:	00 00 00 
4000c3a0:	8b 45 fc             	mov    -0x4(%ebp),%eax
4000c3a3:	89 04 24             	mov    %eax,(%esp)
4000c3a6:	e8 e0 b5 ff ff       	call   4000798b <free>
4000c3ab:	8b 45 f8             	mov    -0x8(%ebp),%eax
4000c3ae:	8b 40 04             	mov    0x4(%eax),%eax
4000c3b1:	89 04 24             	mov    %eax,(%esp)
4000c3b4:	e8 d2 b5 ff ff       	call   4000798b <free>
4000c3b9:	8b 45 f8             	mov    -0x8(%ebp),%eax
4000c3bc:	89 04 24             	mov    %eax,(%esp)
4000c3bf:	e8 c7 b5 ff ff       	call   4000798b <free>
4000c3c4:	8b 45 ec             	mov    -0x14(%ebp),%eax
4000c3c7:	89 85 cc fe ff ff    	mov    %eax,-0x134(%ebp)
4000c3cd:	eb 14                	jmp    4000c3e3 <rpc_vcall+0x50a>
4000c3cf:	c7 05 10 1c 01 40 1c 	movl   $0x1c,0x40011c10
4000c3d6:	00 00 00 
4000c3d9:	c7 85 cc fe ff ff ff 	movl   $0xffffffff,-0x134(%ebp)
4000c3e0:	ff ff ff 
4000c3e3:	8b 85 cc fe ff ff    	mov    -0x134(%ebp),%eax
4000c3e9:	c9                   	leave  
4000c3ea:	c3                   	ret    

4000c3eb <rpc_call>:
4000c3eb:	55                   	push   %ebp
4000c3ec:	89 e5                	mov    %esp,%ebp
4000c3ee:	83 ec 28             	sub    $0x28,%esp
4000c3f1:	8d 45 10             	lea    0x10(%ebp),%eax
4000c3f4:	89 45 f8             	mov    %eax,-0x8(%ebp)
4000c3f7:	8b 45 f8             	mov    -0x8(%ebp),%eax
4000c3fa:	89 44 24 08          	mov    %eax,0x8(%esp)
4000c3fe:	8b 45 0c             	mov    0xc(%ebp),%eax
4000c401:	89 44 24 04          	mov    %eax,0x4(%esp)
4000c405:	8b 45 08             	mov    0x8(%ebp),%eax
4000c408:	89 04 24             	mov    %eax,(%esp)
4000c40b:	e8 c9 fa ff ff       	call   4000bed9 <rpc_vcall>
4000c410:	89 45 fc             	mov    %eax,-0x4(%ebp)
4000c413:	8b 45 fc             	mov    -0x4(%ebp),%eax
4000c416:	c9                   	leave  
4000c417:	c3                   	ret    

4000c418 <rpc_vcallself>:
4000c418:	55                   	push   %ebp
4000c419:	89 e5                	mov    %esp,%ebp
4000c41b:	81 ec 58 01 00 00    	sub    $0x158,%esp
4000c421:	c7 44 24 04 00 00 00 	movl   $0x0,0x4(%esp)
4000c428:	00 
4000c429:	c7 04 24 28 00 00 00 	movl   $0x28,(%esp)
4000c430:	e8 9b 05 00 00       	call   4000c9d0 <syscall_call>
4000c435:	89 c2                	mov    %eax,%edx
4000c437:	c7 44 24 24 01 00 00 	movl   $0x1,0x24(%esp)
4000c43e:	00 
4000c43f:	c7 44 24 20 00 01 00 	movl   $0x100,0x20(%esp)
4000c446:	00 
4000c447:	8d 85 ec fe ff ff    	lea    -0x114(%ebp),%eax
4000c44d:	89 44 24 1c          	mov    %eax,0x1c(%esp)
4000c451:	c7 44 24 18 00 00 00 	movl   $0x0,0x18(%esp)
4000c458:	00 
4000c459:	c7 44 24 14 00 00 00 	movl   $0x0,0x14(%esp)
4000c460:	00 
4000c461:	89 54 24 10          	mov    %edx,0x10(%esp)
4000c465:	8b 45 08             	mov    0x8(%ebp),%eax
4000c468:	89 44 24 0c          	mov    %eax,0xc(%esp)
4000c46c:	c7 44 24 08 ff ff ff 	movl   $0xffffffff,0x8(%esp)
4000c473:	ff 
4000c474:	c7 44 24 04 08 00 00 	movl   $0x8,0x4(%esp)
4000c47b:	00 
4000c47c:	c7 04 24 23 00 00 00 	movl   $0x23,(%esp)
4000c483:	e8 48 05 00 00       	call   4000c9d0 <syscall_call>
4000c488:	89 45 ec             	mov    %eax,-0x14(%ebp)
4000c48b:	83 7d ec 00          	cmpl   $0x0,-0x14(%ebp)
4000c48f:	0f 88 83 00 00 00    	js     4000c518 <rpc_vcallself+0x100>
4000c495:	8d 85 ec fe ff ff    	lea    -0x114(%ebp),%eax
4000c49b:	89 04 24             	mov    %eax,(%esp)
4000c49e:	e8 81 e5 ff ff       	call   4000aa24 <strlen>
4000c4a3:	89 45 f4             	mov    %eax,-0xc(%ebp)
4000c4a6:	8b 45 f4             	mov    -0xc(%ebp),%eax
4000c4a9:	c1 e0 02             	shl    $0x2,%eax
4000c4ac:	89 04 24             	mov    %eax,(%esp)
4000c4af:	e8 20 b0 ff ff       	call   400074d4 <malloc>
4000c4b4:	89 45 fc             	mov    %eax,-0x4(%ebp)
4000c4b7:	c7 45 f8 00 00 00 00 	movl   $0x0,-0x8(%ebp)
4000c4be:	eb 1e                	jmp    4000c4de <rpc_vcallself+0xc6>
4000c4c0:	8b 45 f8             	mov    -0x8(%ebp),%eax
4000c4c3:	c1 e0 02             	shl    $0x2,%eax
4000c4c6:	89 c1                	mov    %eax,%ecx
4000c4c8:	03 4d fc             	add    -0x4(%ebp),%ecx
4000c4cb:	8b 55 14             	mov    0x14(%ebp),%edx
4000c4ce:	8d 42 04             	lea    0x4(%edx),%eax
4000c4d1:	89 45 14             	mov    %eax,0x14(%ebp)
4000c4d4:	89 d0                	mov    %edx,%eax
4000c4d6:	8b 00                	mov    (%eax),%eax
4000c4d8:	89 01                	mov    %eax,(%ecx)
4000c4da:	83 45 f8 01          	addl   $0x1,-0x8(%ebp)
4000c4de:	8b 45 f8             	mov    -0x8(%ebp),%eax
4000c4e1:	3b 45 f4             	cmp    -0xc(%ebp),%eax
4000c4e4:	72 da                	jb     4000c4c0 <rpc_vcallself+0xa8>
4000c4e6:	8b 45 f4             	mov    -0xc(%ebp),%eax
4000c4e9:	89 44 24 08          	mov    %eax,0x8(%esp)
4000c4ed:	8b 45 fc             	mov    -0x4(%ebp),%eax
4000c4f0:	89 44 24 04          	mov    %eax,0x4(%esp)
4000c4f4:	8b 45 0c             	mov    0xc(%ebp),%eax
4000c4f7:	89 04 24             	mov    %eax,(%esp)
4000c4fa:	e8 11 19 00 00       	call   4000de10 <dyn_call>
4000c4ff:	89 45 f0             	mov    %eax,-0x10(%ebp)
4000c502:	8b 45 fc             	mov    -0x4(%ebp),%eax
4000c505:	89 04 24             	mov    %eax,(%esp)
4000c508:	e8 7e b4 ff ff       	call   4000798b <free>
4000c50d:	8b 45 f0             	mov    -0x10(%ebp),%eax
4000c510:	89 85 dc fe ff ff    	mov    %eax,-0x124(%ebp)
4000c516:	eb 0a                	jmp    4000c522 <rpc_vcallself+0x10a>
4000c518:	c7 85 dc fe ff ff ff 	movl   $0xffffffff,-0x124(%ebp)
4000c51f:	ff ff ff 
4000c522:	8b 85 dc fe ff ff    	mov    -0x124(%ebp),%eax
4000c528:	c9                   	leave  
4000c529:	c3                   	ret    

4000c52a <rpc_callself>:
4000c52a:	55                   	push   %ebp
4000c52b:	89 e5                	mov    %esp,%ebp
4000c52d:	83 ec 28             	sub    $0x28,%esp
4000c530:	8d 45 14             	lea    0x14(%ebp),%eax
4000c533:	89 45 f8             	mov    %eax,-0x8(%ebp)
4000c536:	8b 45 f8             	mov    -0x8(%ebp),%eax
4000c539:	89 44 24 0c          	mov    %eax,0xc(%esp)
4000c53d:	8b 45 10             	mov    0x10(%ebp),%eax
4000c540:	89 44 24 08          	mov    %eax,0x8(%esp)
4000c544:	8b 45 0c             	mov    0xc(%ebp),%eax
4000c547:	89 44 24 04          	mov    %eax,0x4(%esp)
4000c54b:	8b 45 08             	mov    0x8(%ebp),%eax
4000c54e:	89 04 24             	mov    %eax,(%esp)
4000c551:	e8 c2 fe ff ff       	call   4000c418 <rpc_vcallself>
4000c556:	89 45 fc             	mov    %eax,-0x4(%ebp)
4000c559:	8b 45 fc             	mov    -0x4(%ebp),%eax
4000c55c:	c9                   	leave  
4000c55d:	c3                   	ret    

4000c55e <rpc_poll>:
4000c55e:	55                   	push   %ebp
4000c55f:	89 e5                	mov    %esp,%ebp
4000c561:	81 ec 58 01 00 00    	sub    $0x158,%esp
4000c567:	c7 44 24 04 00 00 00 	movl   $0x0,0x4(%esp)
4000c56e:	00 
4000c56f:	c7 04 24 28 00 00 00 	movl   $0x28,(%esp)
4000c576:	e8 55 04 00 00       	call   4000c9d0 <syscall_call>
4000c57b:	89 c2                	mov    %eax,%edx
4000c57d:	c7 44 24 24 01 00 00 	movl   $0x1,0x24(%esp)
4000c584:	00 
4000c585:	c7 44 24 20 00 01 00 	movl   $0x100,0x20(%esp)
4000c58c:	00 
4000c58d:	8d 85 e8 fe ff ff    	lea    -0x118(%ebp),%eax
4000c593:	89 44 24 1c          	mov    %eax,0x1c(%esp)
4000c597:	8d 45 e8             	lea    -0x18(%ebp),%eax
4000c59a:	89 44 24 18          	mov    %eax,0x18(%esp)
4000c59e:	c7 44 24 14 01 00 00 	movl   $0x1,0x14(%esp)
4000c5a5:	00 
4000c5a6:	89 54 24 10          	mov    %edx,0x10(%esp)
4000c5aa:	c7 44 24 0c 00 00 00 	movl   $0x0,0xc(%esp)
4000c5b1:	00 
4000c5b2:	8b 45 08             	mov    0x8(%ebp),%eax
4000c5b5:	89 44 24 08          	mov    %eax,0x8(%esp)
4000c5b9:	c7 44 24 04 08 00 00 	movl   $0x8,0x4(%esp)
4000c5c0:	00 
4000c5c1:	c7 04 24 23 00 00 00 	movl   $0x23,(%esp)
4000c5c8:	e8 03 04 00 00       	call   4000c9d0 <syscall_call>
4000c5cd:	89 45 08             	mov    %eax,0x8(%ebp)
4000c5d0:	83 7d 08 00          	cmpl   $0x0,0x8(%ebp)
4000c5d4:	0f 88 da 02 00 00    	js     4000c8b4 <rpc_poll+0x356>
4000c5da:	8d 85 e8 fe ff ff    	lea    -0x118(%ebp),%eax
4000c5e0:	89 04 24             	mov    %eax,(%esp)
4000c5e3:	e8 3c e4 ff ff       	call   4000aa24 <strlen>
4000c5e8:	89 45 ec             	mov    %eax,-0x14(%ebp)
4000c5eb:	8b 45 e8             	mov    -0x18(%ebp),%eax
4000c5ee:	89 04 24             	mov    %eax,(%esp)
4000c5f1:	e8 de ae ff ff       	call   400074d4 <malloc>
4000c5f6:	89 04 24             	mov    %eax,(%esp)
4000c5f9:	e8 46 18 00 00       	call   4000de44 <pack_create>
4000c5fe:	89 45 f0             	mov    %eax,-0x10(%ebp)
4000c601:	8b 45 f0             	mov    -0x10(%ebp),%eax
4000c604:	8b 40 04             	mov    0x4(%eax),%eax
4000c607:	c7 44 24 14 08 1c 01 	movl   $0x40011c08,0x14(%esp)
4000c60e:	40 
4000c60f:	89 44 24 10          	mov    %eax,0x10(%esp)
4000c613:	8d 85 e4 fe ff ff    	lea    -0x11c(%ebp),%eax
4000c619:	89 44 24 0c          	mov    %eax,0xc(%esp)
4000c61d:	8b 45 08             	mov    0x8(%ebp),%eax
4000c620:	89 44 24 08          	mov    %eax,0x8(%esp)
4000c624:	c7 44 24 04 04 00 00 	movl   $0x4,0x4(%esp)
4000c62b:	00 
4000c62c:	c7 04 24 25 00 00 00 	movl   $0x25,(%esp)
4000c633:	e8 98 03 00 00       	call   4000c9d0 <syscall_call>
4000c638:	85 c0                	test   %eax,%eax
4000c63a:	0f 85 5b 02 00 00    	jne    4000c89b <rpc_poll+0x33d>
4000c640:	8b 45 ec             	mov    -0x14(%ebp),%eax
4000c643:	c1 e0 02             	shl    $0x2,%eax
4000c646:	89 04 24             	mov    %eax,(%esp)
4000c649:	e8 86 ae ff ff       	call   400074d4 <malloc>
4000c64e:	89 45 f8             	mov    %eax,-0x8(%ebp)
4000c651:	c7 45 fc 00 00 00 00 	movl   $0x0,-0x4(%ebp)
4000c658:	e9 a9 01 00 00       	jmp    4000c806 <rpc_poll+0x2a8>
4000c65d:	8b 45 fc             	mov    -0x4(%ebp),%eax
4000c660:	0f b6 84 05 e8 fe ff 	movzbl -0x118(%ebp,%eax,1),%eax
4000c667:	ff 
4000c668:	3c 62                	cmp    $0x62,%al
4000c66a:	75 2a                	jne    4000c696 <rpc_poll+0x138>
4000c66c:	8b 45 fc             	mov    -0x4(%ebp),%eax
4000c66f:	c1 e0 02             	shl    $0x2,%eax
4000c672:	89 c2                	mov    %eax,%edx
4000c674:	03 55 f8             	add    -0x8(%ebp),%edx
4000c677:	8b 45 f0             	mov    -0x10(%ebp),%eax
4000c67a:	8b 00                	mov    (%eax),%eax
4000c67c:	0f b6 00             	movzbl (%eax),%eax
4000c67f:	0f b6 c0             	movzbl %al,%eax
4000c682:	89 02                	mov    %eax,(%edx)
4000c684:	8b 45 f0             	mov    -0x10(%ebp),%eax
4000c687:	8b 00                	mov    (%eax),%eax
4000c689:	8d 50 01             	lea    0x1(%eax),%edx
4000c68c:	8b 45 f0             	mov    -0x10(%ebp),%eax
4000c68f:	89 10                	mov    %edx,(%eax)
4000c691:	e9 6c 01 00 00       	jmp    4000c802 <rpc_poll+0x2a4>
4000c696:	8b 45 fc             	mov    -0x4(%ebp),%eax
4000c699:	0f b6 84 05 e8 fe ff 	movzbl -0x118(%ebp,%eax,1),%eax
4000c6a0:	ff 
4000c6a1:	3c 77                	cmp    $0x77,%al
4000c6a3:	75 2a                	jne    4000c6cf <rpc_poll+0x171>
4000c6a5:	8b 45 fc             	mov    -0x4(%ebp),%eax
4000c6a8:	c1 e0 02             	shl    $0x2,%eax
4000c6ab:	89 c2                	mov    %eax,%edx
4000c6ad:	03 55 f8             	add    -0x8(%ebp),%edx
4000c6b0:	8b 45 f0             	mov    -0x10(%ebp),%eax
4000c6b3:	8b 00                	mov    (%eax),%eax
4000c6b5:	0f b7 00             	movzwl (%eax),%eax
4000c6b8:	0f b7 c0             	movzwl %ax,%eax
4000c6bb:	89 02                	mov    %eax,(%edx)
4000c6bd:	8b 45 f0             	mov    -0x10(%ebp),%eax
4000c6c0:	8b 00                	mov    (%eax),%eax
4000c6c2:	8d 50 02             	lea    0x2(%eax),%edx
4000c6c5:	8b 45 f0             	mov    -0x10(%ebp),%eax
4000c6c8:	89 10                	mov    %edx,(%eax)
4000c6ca:	e9 33 01 00 00       	jmp    4000c802 <rpc_poll+0x2a4>
4000c6cf:	8b 45 fc             	mov    -0x4(%ebp),%eax
4000c6d2:	0f b6 84 05 e8 fe ff 	movzbl -0x118(%ebp,%eax,1),%eax
4000c6d9:	ff 
4000c6da:	3c 64                	cmp    $0x64,%al
4000c6dc:	75 26                	jne    4000c704 <rpc_poll+0x1a6>
4000c6de:	8b 45 fc             	mov    -0x4(%ebp),%eax
4000c6e1:	c1 e0 02             	shl    $0x2,%eax
4000c6e4:	89 c2                	mov    %eax,%edx
4000c6e6:	03 55 f8             	add    -0x8(%ebp),%edx
4000c6e9:	8b 45 f0             	mov    -0x10(%ebp),%eax
4000c6ec:	8b 00                	mov    (%eax),%eax
4000c6ee:	8b 00                	mov    (%eax),%eax
4000c6f0:	89 02                	mov    %eax,(%edx)
4000c6f2:	8b 45 f0             	mov    -0x10(%ebp),%eax
4000c6f5:	8b 00                	mov    (%eax),%eax
4000c6f7:	8d 50 04             	lea    0x4(%eax),%edx
4000c6fa:	8b 45 f0             	mov    -0x10(%ebp),%eax
4000c6fd:	89 10                	mov    %edx,(%eax)
4000c6ff:	e9 fe 00 00 00       	jmp    4000c802 <rpc_poll+0x2a4>
4000c704:	8b 45 fc             	mov    -0x4(%ebp),%eax
4000c707:	0f b6 84 05 e8 fe ff 	movzbl -0x118(%ebp,%eax,1),%eax
4000c70e:	ff 
4000c70f:	3c 63                	cmp    $0x63,%al
4000c711:	75 2a                	jne    4000c73d <rpc_poll+0x1df>
4000c713:	8b 45 fc             	mov    -0x4(%ebp),%eax
4000c716:	c1 e0 02             	shl    $0x2,%eax
4000c719:	89 c2                	mov    %eax,%edx
4000c71b:	03 55 f8             	add    -0x8(%ebp),%edx
4000c71e:	8b 45 f0             	mov    -0x10(%ebp),%eax
4000c721:	8b 00                	mov    (%eax),%eax
4000c723:	0f b6 00             	movzbl (%eax),%eax
4000c726:	0f be c0             	movsbl %al,%eax
4000c729:	89 02                	mov    %eax,(%edx)
4000c72b:	8b 45 f0             	mov    -0x10(%ebp),%eax
4000c72e:	8b 00                	mov    (%eax),%eax
4000c730:	8d 50 01             	lea    0x1(%eax),%edx
4000c733:	8b 45 f0             	mov    -0x10(%ebp),%eax
4000c736:	89 10                	mov    %edx,(%eax)
4000c738:	e9 c5 00 00 00       	jmp    4000c802 <rpc_poll+0x2a4>
4000c73d:	8b 45 fc             	mov    -0x4(%ebp),%eax
4000c740:	0f b6 84 05 e8 fe ff 	movzbl -0x118(%ebp,%eax,1),%eax
4000c747:	ff 
4000c748:	3c 73                	cmp    $0x73,%al
4000c74a:	75 28                	jne    4000c774 <rpc_poll+0x216>
4000c74c:	8b 45 fc             	mov    -0x4(%ebp),%eax
4000c74f:	c1 e0 02             	shl    $0x2,%eax
4000c752:	89 c2                	mov    %eax,%edx
4000c754:	03 55 f8             	add    -0x8(%ebp),%edx
4000c757:	8b 45 f0             	mov    -0x10(%ebp),%eax
4000c75a:	8b 00                	mov    (%eax),%eax
4000c75c:	0f b7 00             	movzwl (%eax),%eax
4000c75f:	98                   	cwtl   
4000c760:	89 02                	mov    %eax,(%edx)
4000c762:	8b 45 f0             	mov    -0x10(%ebp),%eax
4000c765:	8b 00                	mov    (%eax),%eax
4000c767:	8d 50 02             	lea    0x2(%eax),%edx
4000c76a:	8b 45 f0             	mov    -0x10(%ebp),%eax
4000c76d:	89 10                	mov    %edx,(%eax)
4000c76f:	e9 8e 00 00 00       	jmp    4000c802 <rpc_poll+0x2a4>
4000c774:	8b 45 fc             	mov    -0x4(%ebp),%eax
4000c777:	0f b6 84 05 e8 fe ff 	movzbl -0x118(%ebp,%eax,1),%eax
4000c77e:	ff 
4000c77f:	3c 69                	cmp    $0x69,%al
4000c781:	75 23                	jne    4000c7a6 <rpc_poll+0x248>
4000c783:	8b 45 fc             	mov    -0x4(%ebp),%eax
4000c786:	c1 e0 02             	shl    $0x2,%eax
4000c789:	89 c2                	mov    %eax,%edx
4000c78b:	03 55 f8             	add    -0x8(%ebp),%edx
4000c78e:	8b 45 f0             	mov    -0x10(%ebp),%eax
4000c791:	8b 00                	mov    (%eax),%eax
4000c793:	8b 00                	mov    (%eax),%eax
4000c795:	89 02                	mov    %eax,(%edx)
4000c797:	8b 45 f0             	mov    -0x10(%ebp),%eax
4000c79a:	8b 00                	mov    (%eax),%eax
4000c79c:	8d 50 04             	lea    0x4(%eax),%edx
4000c79f:	8b 45 f0             	mov    -0x10(%ebp),%eax
4000c7a2:	89 10                	mov    %edx,(%eax)
4000c7a4:	eb 5c                	jmp    4000c802 <rpc_poll+0x2a4>
4000c7a6:	8b 45 fc             	mov    -0x4(%ebp),%eax
4000c7a9:	0f b6 84 05 e8 fe ff 	movzbl -0x118(%ebp,%eax,1),%eax
4000c7b0:	ff 
4000c7b1:	3c 6c                	cmp    $0x6c,%al
4000c7b3:	75 23                	jne    4000c7d8 <rpc_poll+0x27a>
4000c7b5:	8b 45 fc             	mov    -0x4(%ebp),%eax
4000c7b8:	c1 e0 02             	shl    $0x2,%eax
4000c7bb:	89 c2                	mov    %eax,%edx
4000c7bd:	03 55 f8             	add    -0x8(%ebp),%edx
4000c7c0:	8b 45 f0             	mov    -0x10(%ebp),%eax
4000c7c3:	8b 00                	mov    (%eax),%eax
4000c7c5:	8b 00                	mov    (%eax),%eax
4000c7c7:	89 02                	mov    %eax,(%edx)
4000c7c9:	8b 45 f0             	mov    -0x10(%ebp),%eax
4000c7cc:	8b 00                	mov    (%eax),%eax
4000c7ce:	8d 50 04             	lea    0x4(%eax),%edx
4000c7d1:	8b 45 f0             	mov    -0x10(%ebp),%eax
4000c7d4:	89 10                	mov    %edx,(%eax)
4000c7d6:	eb 2a                	jmp    4000c802 <rpc_poll+0x2a4>
4000c7d8:	8b 45 fc             	mov    -0x4(%ebp),%eax
4000c7db:	0f b6 84 05 e8 fe ff 	movzbl -0x118(%ebp,%eax,1),%eax
4000c7e2:	ff 
4000c7e3:	3c 24                	cmp    $0x24,%al
4000c7e5:	75 1b                	jne    4000c802 <rpc_poll+0x2a4>
4000c7e7:	8b 55 f8             	mov    -0x8(%ebp),%edx
4000c7ea:	8b 45 fc             	mov    -0x4(%ebp),%eax
4000c7ed:	c1 e0 02             	shl    $0x2,%eax
4000c7f0:	8d 04 02             	lea    (%edx,%eax,1),%eax
4000c7f3:	89 44 24 04          	mov    %eax,0x4(%esp)
4000c7f7:	8b 45 f0             	mov    -0x10(%ebp),%eax
4000c7fa:	89 04 24             	mov    %eax,(%esp)
4000c7fd:	e8 3d 17 00 00       	call   4000df3f <unpackstr>
4000c802:	83 45 fc 01          	addl   $0x1,-0x4(%ebp)
4000c806:	8b 45 fc             	mov    -0x4(%ebp),%eax
4000c809:	3b 45 ec             	cmp    -0x14(%ebp),%eax
4000c80c:	0f 82 4b fe ff ff    	jb     4000c65d <rpc_poll+0xff>
4000c812:	8b 95 e4 fe ff ff    	mov    -0x11c(%ebp),%edx
4000c818:	8b 45 ec             	mov    -0x14(%ebp),%eax
4000c81b:	89 44 24 08          	mov    %eax,0x8(%esp)
4000c81f:	8b 45 f8             	mov    -0x8(%ebp),%eax
4000c822:	89 44 24 04          	mov    %eax,0x4(%esp)
4000c826:	89 14 24             	mov    %edx,(%esp)
4000c829:	e8 e2 15 00 00       	call   4000de10 <dyn_call>
4000c82e:	89 45 f4             	mov    %eax,-0xc(%ebp)
4000c831:	8b 45 f8             	mov    -0x8(%ebp),%eax
4000c834:	89 04 24             	mov    %eax,(%esp)
4000c837:	e8 4f b1 ff ff       	call   4000798b <free>
4000c83c:	8b 45 f0             	mov    -0x10(%ebp),%eax
4000c83f:	8b 40 04             	mov    0x4(%eax),%eax
4000c842:	89 44 24 10          	mov    %eax,0x10(%esp)
4000c846:	8b 45 f4             	mov    -0xc(%ebp),%eax
4000c849:	89 44 24 0c          	mov    %eax,0xc(%esp)
4000c84d:	8b 45 08             	mov    0x8(%ebp),%eax
4000c850:	89 44 24 08          	mov    %eax,0x8(%esp)
4000c854:	c7 44 24 04 03 00 00 	movl   $0x3,0x4(%esp)
4000c85b:	00 
4000c85c:	c7 04 24 26 00 00 00 	movl   $0x26,(%esp)
4000c863:	e8 68 01 00 00       	call   4000c9d0 <syscall_call>
4000c868:	85 c0                	test   %eax,%eax
4000c86a:	75 2f                	jne    4000c89b <rpc_poll+0x33d>
4000c86c:	c7 05 10 1c 01 40 00 	movl   $0x0,0x40011c10
4000c873:	00 00 00 
4000c876:	8b 45 f0             	mov    -0x10(%ebp),%eax
4000c879:	8b 40 04             	mov    0x4(%eax),%eax
4000c87c:	89 04 24             	mov    %eax,(%esp)
4000c87f:	e8 07 b1 ff ff       	call   4000798b <free>
4000c884:	8b 45 f0             	mov    -0x10(%ebp),%eax
4000c887:	89 04 24             	mov    %eax,(%esp)
4000c88a:	e8 fc b0 ff ff       	call   4000798b <free>
4000c88f:	c7 85 dc fe ff ff 00 	movl   $0x0,-0x124(%ebp)
4000c896:	00 00 00 
4000c899:	eb 2d                	jmp    4000c8c8 <rpc_poll+0x36a>
4000c89b:	8b 45 f0             	mov    -0x10(%ebp),%eax
4000c89e:	8b 40 04             	mov    0x4(%eax),%eax
4000c8a1:	89 04 24             	mov    %eax,(%esp)
4000c8a4:	e8 e2 b0 ff ff       	call   4000798b <free>
4000c8a9:	8b 45 f0             	mov    -0x10(%ebp),%eax
4000c8ac:	89 04 24             	mov    %eax,(%esp)
4000c8af:	e8 d7 b0 ff ff       	call   4000798b <free>
4000c8b4:	c7 05 10 1c 01 40 1c 	movl   $0x1c,0x40011c10
4000c8bb:	00 00 00 
4000c8be:	c7 85 dc fe ff ff ff 	movl   $0xffffffff,-0x124(%ebp)
4000c8c5:	ff ff ff 
4000c8c8:	8b 85 dc fe ff ff    	mov    -0x124(%ebp),%eax
4000c8ce:	c9                   	leave  
4000c8cf:	c3                   	ret    

4000c8d0 <rpc_mainloop>:
4000c8d0:	55                   	push   %ebp
4000c8d1:	89 e5                	mov    %esp,%ebp
4000c8d3:	83 ec 08             	sub    $0x8,%esp
4000c8d6:	e8 0d 00 00 00       	call   4000c8e8 <init_ready>
4000c8db:	8b 45 08             	mov    0x8(%ebp),%eax
4000c8de:	89 04 24             	mov    %eax,(%esp)
4000c8e1:	e8 78 fc ff ff       	call   4000c55e <rpc_poll>
4000c8e6:	eb f3                	jmp    4000c8db <rpc_mainloop+0xb>

4000c8e8 <init_ready>:
4000c8e8:	55                   	push   %ebp
4000c8e9:	89 e5                	mov    %esp,%ebp
4000c8eb:	83 ec 08             	sub    $0x8,%esp
4000c8ee:	c7 44 24 04 0a 00 00 	movl   $0xa,0x4(%esp)
4000c8f5:	00 
4000c8f6:	c7 04 24 01 00 00 00 	movl   $0x1,(%esp)
4000c8fd:	e8 02 00 00 00       	call   4000c904 <kill>
4000c902:	c9                   	leave  
4000c903:	c3                   	ret    

4000c904 <kill>:
4000c904:	55                   	push   %ebp
4000c905:	89 e5                	mov    %esp,%ebp
4000c907:	83 ec 18             	sub    $0x18,%esp
4000c90a:	8b 45 0c             	mov    0xc(%ebp),%eax
4000c90d:	89 44 24 0c          	mov    %eax,0xc(%esp)
4000c911:	8b 45 08             	mov    0x8(%ebp),%eax
4000c914:	89 44 24 08          	mov    %eax,0x8(%esp)
4000c918:	c7 44 24 04 02 00 00 	movl   $0x2,0x4(%esp)
4000c91f:	00 
4000c920:	c7 04 24 4d 00 00 00 	movl   $0x4d,(%esp)
4000c927:	e8 a4 00 00 00       	call   4000c9d0 <syscall_call>
4000c92c:	c9                   	leave  
4000c92d:	c3                   	ret    

4000c92e <rpc_list>:
4000c92e:	55                   	push   %ebp
4000c92f:	89 e5                	mov    %esp,%ebp
4000c931:	83 ec 28             	sub    $0x28,%esp
4000c934:	e8 2b e7 ff ff       	call   4000b064 <llist_create>
4000c939:	89 45 f0             	mov    %eax,-0x10(%ebp)
4000c93c:	c7 45 f4 00 00 00 00 	movl   $0x0,-0xc(%ebp)
4000c943:	c7 44 24 10 00 00 00 	movl   $0x0,0x10(%esp)
4000c94a:	00 
4000c94b:	c7 44 24 0c 00 00 00 	movl   $0x0,0xc(%esp)
4000c952:	00 
4000c953:	8b 45 f4             	mov    -0xc(%ebp),%eax
4000c956:	89 44 24 08          	mov    %eax,0x8(%esp)
4000c95a:	c7 44 24 04 03 00 00 	movl   $0x3,0x4(%esp)
4000c961:	00 
4000c962:	c7 04 24 27 00 00 00 	movl   $0x27,(%esp)
4000c969:	e8 62 00 00 00       	call   4000c9d0 <syscall_call>
4000c96e:	89 45 f8             	mov    %eax,-0x8(%ebp)
4000c971:	83 7d f8 00          	cmpl   $0x0,-0x8(%ebp)
4000c975:	74 52                	je     4000c9c9 <rpc_list+0x9b>
4000c977:	8b 45 f8             	mov    -0x8(%ebp),%eax
4000c97a:	89 04 24             	mov    %eax,(%esp)
4000c97d:	e8 52 ab ff ff       	call   400074d4 <malloc>
4000c982:	89 45 fc             	mov    %eax,-0x4(%ebp)
4000c985:	8b 45 f8             	mov    -0x8(%ebp),%eax
4000c988:	89 44 24 10          	mov    %eax,0x10(%esp)
4000c98c:	8b 45 fc             	mov    -0x4(%ebp),%eax
4000c98f:	89 44 24 0c          	mov    %eax,0xc(%esp)
4000c993:	8b 45 f4             	mov    -0xc(%ebp),%eax
4000c996:	89 44 24 08          	mov    %eax,0x8(%esp)
4000c99a:	c7 44 24 04 03 00 00 	movl   $0x3,0x4(%esp)
4000c9a1:	00 
4000c9a2:	c7 04 24 27 00 00 00 	movl   $0x27,(%esp)
4000c9a9:	e8 22 00 00 00       	call   4000c9d0 <syscall_call>
4000c9ae:	8b 45 fc             	mov    -0x4(%ebp),%eax
4000c9b1:	89 44 24 04          	mov    %eax,0x4(%esp)
4000c9b5:	8b 45 f0             	mov    -0x10(%ebp),%eax
4000c9b8:	89 04 24             	mov    %eax,(%esp)
4000c9bb:	e8 1f e7 ff ff       	call   4000b0df <llist_push>
4000c9c0:	83 45 f4 01          	addl   $0x1,-0xc(%ebp)
4000c9c4:	e9 7a ff ff ff       	jmp    4000c943 <rpc_list+0x15>
4000c9c9:	8b 45 f0             	mov    -0x10(%ebp),%eax
4000c9cc:	c9                   	leave  
4000c9cd:	c3                   	ret    
4000c9ce:	90                   	nop    
4000c9cf:	90                   	nop    

4000c9d0 <syscall_call>:
4000c9d0:	55                   	push   %ebp
4000c9d1:	89 e5                	mov    %esp,%ebp
4000c9d3:	56                   	push   %esi
4000c9d4:	53                   	push   %ebx
4000c9d5:	83 ec 30             	sub    $0x30,%esp
4000c9d8:	89 e0                	mov    %esp,%eax
4000c9da:	89 45 e4             	mov    %eax,-0x1c(%ebp)
4000c9dd:	8b 75 0c             	mov    0xc(%ebp),%esi
4000c9e0:	89 75 d0             	mov    %esi,-0x30(%ebp)
4000c9e3:	c7 45 d4 00 00 00 00 	movl   $0x0,-0x2c(%ebp)
4000c9ea:	8b 45 d0             	mov    -0x30(%ebp),%eax
4000c9ed:	80 e4 ff             	and    $0xff,%ah
4000c9f0:	8b 55 d4             	mov    -0x2c(%ebp),%edx
4000c9f3:	83 e2 0f             	and    $0xf,%edx
4000c9f6:	89 45 d0             	mov    %eax,-0x30(%ebp)
4000c9f9:	89 55 d4             	mov    %edx,-0x2c(%ebp)
4000c9fc:	8b 4d d0             	mov    -0x30(%ebp),%ecx
4000c9ff:	8b 5d d4             	mov    -0x2c(%ebp),%ebx
4000ca02:	0f a4 cb 05          	shld   $0x5,%ecx,%ebx
4000ca06:	c1 e1 05             	shl    $0x5,%ecx
4000ca09:	89 c8                	mov    %ecx,%eax
4000ca0b:	80 e4 ff             	and    $0xff,%ah
4000ca0e:	89 da                	mov    %ebx,%edx
4000ca10:	83 e2 0f             	and    $0xf,%edx
4000ca13:	89 c1                	mov    %eax,%ecx
4000ca15:	89 d3                	mov    %edx,%ebx
4000ca17:	89 75 d8             	mov    %esi,-0x28(%ebp)
4000ca1a:	c7 45 dc 00 00 00 00 	movl   $0x0,-0x24(%ebp)
4000ca21:	8b 45 d8             	mov    -0x28(%ebp),%eax
4000ca24:	80 e4 ff             	and    $0xff,%ah
4000ca27:	8b 55 dc             	mov    -0x24(%ebp),%edx
4000ca2a:	83 e2 0f             	and    $0xf,%edx
4000ca2d:	89 45 d8             	mov    %eax,-0x28(%ebp)
4000ca30:	89 55 dc             	mov    %edx,-0x24(%ebp)
4000ca33:	8b 4d d8             	mov    -0x28(%ebp),%ecx
4000ca36:	8b 5d dc             	mov    -0x24(%ebp),%ebx
4000ca39:	0f a4 cb 05          	shld   $0x5,%ecx,%ebx
4000ca3d:	c1 e1 05             	shl    $0x5,%ecx
4000ca40:	89 c8                	mov    %ecx,%eax
4000ca42:	80 e4 ff             	and    $0xff,%ah
4000ca45:	89 da                	mov    %ebx,%edx
4000ca47:	83 e2 0f             	and    $0xf,%edx
4000ca4a:	89 c1                	mov    %eax,%ecx
4000ca4c:	89 d3                	mov    %edx,%ebx
4000ca4e:	8d 04 b5 00 00 00 00 	lea    0x0(,%esi,4),%eax
4000ca55:	83 c0 0f             	add    $0xf,%eax
4000ca58:	83 c0 0f             	add    $0xf,%eax
4000ca5b:	c1 e8 04             	shr    $0x4,%eax
4000ca5e:	c1 e0 04             	shl    $0x4,%eax
4000ca61:	29 c4                	sub    %eax,%esp
4000ca63:	89 65 e0             	mov    %esp,-0x20(%ebp)
4000ca66:	8b 45 e0             	mov    -0x20(%ebp),%eax
4000ca69:	83 c0 0f             	add    $0xf,%eax
4000ca6c:	c1 e8 04             	shr    $0x4,%eax
4000ca6f:	c1 e0 04             	shl    $0x4,%eax
4000ca72:	89 45 e0             	mov    %eax,-0x20(%ebp)
4000ca75:	8b 45 e0             	mov    -0x20(%ebp),%eax
4000ca78:	89 45 ec             	mov    %eax,-0x14(%ebp)
4000ca7b:	8d 45 10             	lea    0x10(%ebp),%eax
4000ca7e:	89 45 e8             	mov    %eax,-0x18(%ebp)
4000ca81:	c7 45 f0 00 00 00 00 	movl   $0x0,-0x10(%ebp)
4000ca88:	eb 1a                	jmp    4000caa4 <syscall_call+0xd4>
4000ca8a:	8b 4d f0             	mov    -0x10(%ebp),%ecx
4000ca8d:	8b 55 e8             	mov    -0x18(%ebp),%edx
4000ca90:	8d 42 04             	lea    0x4(%edx),%eax
4000ca93:	89 45 e8             	mov    %eax,-0x18(%ebp)
4000ca96:	89 d0                	mov    %edx,%eax
4000ca98:	8b 10                	mov    (%eax),%edx
4000ca9a:	8b 45 ec             	mov    -0x14(%ebp),%eax
4000ca9d:	89 14 88             	mov    %edx,(%eax,%ecx,4)
4000caa0:	83 45 f0 01          	addl   $0x1,-0x10(%ebp)
4000caa4:	8b 45 f0             	mov    -0x10(%ebp),%eax
4000caa7:	3b 45 0c             	cmp    0xc(%ebp),%eax
4000caaa:	72 de                	jb     4000ca8a <syscall_call+0xba>
4000caac:	8b 45 ec             	mov    -0x14(%ebp),%eax
4000caaf:	50                   	push   %eax
4000cab0:	8b 45 08             	mov    0x8(%ebp),%eax
4000cab3:	50                   	push   %eax
4000cab4:	cd 37                	int    $0x37
4000cab6:	89 45 f4             	mov    %eax,-0xc(%ebp)
4000cab9:	b8 08 00 00 00       	mov    $0x8,%eax
4000cabe:	01 c4                	add    %eax,%esp
4000cac0:	8b 45 f4             	mov    -0xc(%ebp),%eax
4000cac3:	8b 65 e4             	mov    -0x1c(%ebp),%esp
4000cac6:	8d 65 f8             	lea    -0x8(%ebp),%esp
4000cac9:	5b                   	pop    %ebx
4000caca:	5e                   	pop    %esi
4000cacb:	5d                   	pop    %ebp
4000cacc:	c3                   	ret    
4000cacd:	90                   	nop    
4000cace:	90                   	nop    
4000cacf:	90                   	nop    

4000cad0 <abort>:
4000cad0:	55                   	push   %ebp
4000cad1:	89 e5                	mov    %esp,%ebp
4000cad3:	83 ec 28             	sub    $0x28,%esp
4000cad6:	a1 18 1c 01 40       	mov    0x40011c18,%eax
4000cadb:	89 45 f8             	mov    %eax,-0x8(%ebp)
4000cade:	c7 44 24 04 00 00 00 	movl   $0x0,0x4(%esp)
4000cae5:	00 
4000cae6:	c7 04 24 28 00 00 00 	movl   $0x28,(%esp)
4000caed:	e8 de fe ff ff       	call   4000c9d0 <syscall_call>
4000caf2:	89 45 fc             	mov    %eax,-0x4(%ebp)
4000caf5:	8b 45 fc             	mov    -0x4(%ebp),%eax
4000caf8:	89 04 24             	mov    %eax,(%esp)
4000cafb:	e8 24 f2 ff ff       	call   4000bd24 <getname>
4000cb00:	89 c2                	mov    %eax,%edx
4000cb02:	8b 45 fc             	mov    -0x4(%ebp),%eax
4000cb05:	89 44 24 0c          	mov    %eax,0xc(%esp)
4000cb09:	89 54 24 08          	mov    %edx,0x8(%esp)
4000cb0d:	c7 44 24 04 c4 f1 00 	movl   $0x4000f1c4,0x4(%esp)
4000cb14:	40 
4000cb15:	8b 45 f8             	mov    -0x8(%ebp),%eax
4000cb18:	89 04 24             	mov    %eax,(%esp)
4000cb1b:	e8 98 78 ff ff       	call   400043b8 <fprintf>
4000cb20:	8b 45 00             	mov    0x0(%ebp),%eax
4000cb23:	8b 40 04             	mov    0x4(%eax),%eax
4000cb26:	89 44 24 08          	mov    %eax,0x8(%esp)
4000cb2a:	c7 44 24 04 e8 f1 00 	movl   $0x4000f1e8,0x4(%esp)
4000cb31:	40 
4000cb32:	8b 45 f8             	mov    -0x8(%ebp),%eax
4000cb35:	89 04 24             	mov    %eax,(%esp)
4000cb38:	e8 7b 78 ff ff       	call   400043b8 <fprintf>
4000cb3d:	89 e8                	mov    %ebp,%eax
4000cb3f:	89 44 24 08          	mov    %eax,0x8(%esp)
4000cb43:	c7 44 24 04 f9 f1 00 	movl   $0x4000f1f9,0x4(%esp)
4000cb4a:	40 
4000cb4b:	8b 45 f8             	mov    -0x8(%ebp),%eax
4000cb4e:	89 04 24             	mov    %eax,(%esp)
4000cb51:	e8 62 78 ff ff       	call   400043b8 <fprintf>
4000cb56:	e8 ca 5f ff ff       	call   40002b25 <_close_all_filehandles>
4000cb5b:	c7 44 24 04 00 00 00 	movl   $0x0,0x4(%esp)
4000cb62:	00 
4000cb63:	c7 04 24 35 00 00 00 	movl   $0x35,(%esp)
4000cb6a:	e8 61 fe ff ff       	call   4000c9d0 <syscall_call>
4000cb6f:	c9                   	leave  
4000cb70:	c3                   	ret    
4000cb71:	90                   	nop    
4000cb72:	90                   	nop    
4000cb73:	90                   	nop    

4000cb74 <env_init>:
4000cb74:	55                   	push   %ebp
4000cb75:	89 e5                	mov    %esp,%ebp
4000cb77:	83 ec 08             	sub    $0x8,%esp
4000cb7a:	e8 e5 e4 ff ff       	call   4000b064 <llist_create>
4000cb7f:	a3 6c 0b 01 40       	mov    %eax,0x40010b6c
4000cb84:	c9                   	leave  
4000cb85:	c3                   	ret    

4000cb86 <_findenv>:
4000cb86:	55                   	push   %ebp
4000cb87:	89 e5                	mov    %esp,%ebp
4000cb89:	83 ec 28             	sub    $0x28,%esp
4000cb8c:	83 7d 08 00          	cmpl   $0x0,0x8(%ebp)
4000cb90:	74 71                	je     4000cc03 <_findenv+0x7d>
4000cb92:	8b 45 08             	mov    0x8(%ebp),%eax
4000cb95:	89 04 24             	mov    %eax,(%esp)
4000cb98:	e8 87 de ff ff       	call   4000aa24 <strlen>
4000cb9d:	85 c0                	test   %eax,%eax
4000cb9f:	74 62                	je     4000cc03 <_findenv+0x7d>
4000cba1:	c7 44 24 04 3d 00 00 	movl   $0x3d,0x4(%esp)
4000cba8:	00 
4000cba9:	8b 45 08             	mov    0x8(%ebp),%eax
4000cbac:	89 04 24             	mov    %eax,(%esp)
4000cbaf:	e8 f0 dc ff ff       	call   4000a8a4 <strchr>
4000cbb4:	85 c0                	test   %eax,%eax
4000cbb6:	75 4b                	jne    4000cc03 <_findenv+0x7d>
4000cbb8:	c7 45 f8 00 00 00 00 	movl   $0x0,-0x8(%ebp)
4000cbbf:	eb 24                	jmp    4000cbe5 <_findenv+0x5f>
4000cbc1:	8b 45 fc             	mov    -0x4(%ebp),%eax
4000cbc4:	8b 10                	mov    (%eax),%edx
4000cbc6:	8b 45 08             	mov    0x8(%ebp),%eax
4000cbc9:	89 44 24 04          	mov    %eax,0x4(%esp)
4000cbcd:	89 14 24             	mov    %edx,(%esp)
4000cbd0:	e8 2f dd ff ff       	call   4000a904 <strcmp>
4000cbd5:	85 c0                	test   %eax,%eax
4000cbd7:	75 08                	jne    4000cbe1 <_findenv+0x5b>
4000cbd9:	8b 45 f8             	mov    -0x8(%ebp),%eax
4000cbdc:	89 45 ec             	mov    %eax,-0x14(%ebp)
4000cbdf:	eb 33                	jmp    4000cc14 <_findenv+0x8e>
4000cbe1:	83 45 f8 01          	addl   $0x1,-0x8(%ebp)
4000cbe5:	8b 45 f8             	mov    -0x8(%ebp),%eax
4000cbe8:	8b 15 6c 0b 01 40    	mov    0x40010b6c,%edx
4000cbee:	89 44 24 04          	mov    %eax,0x4(%esp)
4000cbf2:	89 14 24             	mov    %edx,(%esp)
4000cbf5:	e8 1d e6 ff ff       	call   4000b217 <llist_get>
4000cbfa:	89 45 fc             	mov    %eax,-0x4(%ebp)
4000cbfd:	83 7d fc 00          	cmpl   $0x0,-0x4(%ebp)
4000cc01:	75 be                	jne    4000cbc1 <_findenv+0x3b>
4000cc03:	c7 05 10 1c 01 40 1c 	movl   $0x1c,0x40011c10
4000cc0a:	00 00 00 
4000cc0d:	c7 45 ec ff ff ff ff 	movl   $0xffffffff,-0x14(%ebp)
4000cc14:	8b 45 ec             	mov    -0x14(%ebp),%eax
4000cc17:	c9                   	leave  
4000cc18:	c3                   	ret    

4000cc19 <getenv>:
4000cc19:	55                   	push   %ebp
4000cc1a:	89 e5                	mov    %esp,%ebp
4000cc1c:	83 ec 28             	sub    $0x28,%esp
4000cc1f:	8b 45 08             	mov    0x8(%ebp),%eax
4000cc22:	89 04 24             	mov    %eax,(%esp)
4000cc25:	e8 5c ff ff ff       	call   4000cb86 <_findenv>
4000cc2a:	8b 15 6c 0b 01 40    	mov    0x40010b6c,%edx
4000cc30:	89 44 24 04          	mov    %eax,0x4(%esp)
4000cc34:	89 14 24             	mov    %edx,(%esp)
4000cc37:	e8 db e5 ff ff       	call   4000b217 <llist_get>
4000cc3c:	89 45 fc             	mov    %eax,-0x4(%ebp)
4000cc3f:	83 7d fc 00          	cmpl   $0x0,-0x4(%ebp)
4000cc43:	75 09                	jne    4000cc4e <getenv+0x35>
4000cc45:	c7 45 ec 00 00 00 00 	movl   $0x0,-0x14(%ebp)
4000cc4c:	eb 09                	jmp    4000cc57 <getenv+0x3e>
4000cc4e:	8b 45 fc             	mov    -0x4(%ebp),%eax
4000cc51:	8b 40 04             	mov    0x4(%eax),%eax
4000cc54:	89 45 ec             	mov    %eax,-0x14(%ebp)
4000cc57:	8b 45 ec             	mov    -0x14(%ebp),%eax
4000cc5a:	c9                   	leave  
4000cc5b:	c3                   	ret    

4000cc5c <setenv>:
4000cc5c:	55                   	push   %ebp
4000cc5d:	89 e5                	mov    %esp,%ebp
4000cc5f:	83 ec 28             	sub    $0x28,%esp
4000cc62:	8b 45 08             	mov    0x8(%ebp),%eax
4000cc65:	89 04 24             	mov    %eax,(%esp)
4000cc68:	e8 19 ff ff ff       	call   4000cb86 <_findenv>
4000cc6d:	8b 15 6c 0b 01 40    	mov    0x40010b6c,%edx
4000cc73:	89 44 24 04          	mov    %eax,0x4(%esp)
4000cc77:	89 14 24             	mov    %edx,(%esp)
4000cc7a:	e8 98 e5 ff ff       	call   4000b217 <llist_get>
4000cc7f:	89 45 fc             	mov    %eax,-0x4(%ebp)
4000cc82:	83 7d fc 00          	cmpl   $0x0,-0x4(%ebp)
4000cc86:	75 4b                	jne    4000ccd3 <setenv+0x77>
4000cc88:	c7 04 24 08 00 00 00 	movl   $0x8,(%esp)
4000cc8f:	e8 40 a8 ff ff       	call   400074d4 <malloc>
4000cc94:	89 45 fc             	mov    %eax,-0x4(%ebp)
4000cc97:	8b 45 08             	mov    0x8(%ebp),%eax
4000cc9a:	89 04 24             	mov    %eax,(%esp)
4000cc9d:	e8 37 dd ff ff       	call   4000a9d9 <strdup>
4000cca2:	89 c2                	mov    %eax,%edx
4000cca4:	8b 45 fc             	mov    -0x4(%ebp),%eax
4000cca7:	89 10                	mov    %edx,(%eax)
4000cca9:	8b 45 0c             	mov    0xc(%ebp),%eax
4000ccac:	89 04 24             	mov    %eax,(%esp)
4000ccaf:	e8 25 dd ff ff       	call   4000a9d9 <strdup>
4000ccb4:	89 c2                	mov    %eax,%edx
4000ccb6:	8b 45 fc             	mov    -0x4(%ebp),%eax
4000ccb9:	89 50 04             	mov    %edx,0x4(%eax)
4000ccbc:	8b 15 6c 0b 01 40    	mov    0x40010b6c,%edx
4000ccc2:	8b 45 fc             	mov    -0x4(%ebp),%eax
4000ccc5:	89 44 24 04          	mov    %eax,0x4(%esp)
4000ccc9:	89 14 24             	mov    %edx,(%esp)
4000cccc:	e8 0e e4 ff ff       	call   4000b0df <llist_push>
4000ccd1:	eb 32                	jmp    4000cd05 <setenv+0xa9>
4000ccd3:	83 7d 10 00          	cmpl   $0x0,0x10(%ebp)
4000ccd7:	74 23                	je     4000ccfc <setenv+0xa0>
4000ccd9:	8b 45 fc             	mov    -0x4(%ebp),%eax
4000ccdc:	8b 40 04             	mov    0x4(%eax),%eax
4000ccdf:	89 04 24             	mov    %eax,(%esp)
4000cce2:	e8 a4 ac ff ff       	call   4000798b <free>
4000cce7:	8b 45 0c             	mov    0xc(%ebp),%eax
4000ccea:	89 04 24             	mov    %eax,(%esp)
4000cced:	e8 e7 dc ff ff       	call   4000a9d9 <strdup>
4000ccf2:	89 c2                	mov    %eax,%edx
4000ccf4:	8b 45 fc             	mov    -0x4(%ebp),%eax
4000ccf7:	89 50 04             	mov    %edx,0x4(%eax)
4000ccfa:	eb 09                	jmp    4000cd05 <setenv+0xa9>
4000ccfc:	c7 45 ec ff ff ff ff 	movl   $0xffffffff,-0x14(%ebp)
4000cd03:	eb 07                	jmp    4000cd0c <setenv+0xb0>
4000cd05:	c7 45 ec 00 00 00 00 	movl   $0x0,-0x14(%ebp)
4000cd0c:	8b 45 ec             	mov    -0x14(%ebp),%eax
4000cd0f:	c9                   	leave  
4000cd10:	c3                   	ret    

4000cd11 <unsetenv>:
4000cd11:	55                   	push   %ebp
4000cd12:	89 e5                	mov    %esp,%ebp
4000cd14:	83 ec 28             	sub    $0x28,%esp
4000cd17:	8b 45 08             	mov    0x8(%ebp),%eax
4000cd1a:	89 04 24             	mov    %eax,(%esp)
4000cd1d:	e8 64 fe ff ff       	call   4000cb86 <_findenv>
4000cd22:	89 45 f8             	mov    %eax,-0x8(%ebp)
4000cd25:	83 7d f8 ff          	cmpl   $0xffffffff,-0x8(%ebp)
4000cd29:	74 47                	je     4000cd72 <unsetenv+0x61>
4000cd2b:	8b 45 f8             	mov    -0x8(%ebp),%eax
4000cd2e:	8b 15 6c 0b 01 40    	mov    0x40010b6c,%edx
4000cd34:	89 44 24 04          	mov    %eax,0x4(%esp)
4000cd38:	89 14 24             	mov    %edx,(%esp)
4000cd3b:	e8 a9 e5 ff ff       	call   4000b2e9 <llist_remove>
4000cd40:	89 45 fc             	mov    %eax,-0x4(%ebp)
4000cd43:	8b 45 fc             	mov    -0x4(%ebp),%eax
4000cd46:	8b 00                	mov    (%eax),%eax
4000cd48:	89 04 24             	mov    %eax,(%esp)
4000cd4b:	e8 3b ac ff ff       	call   4000798b <free>
4000cd50:	8b 45 fc             	mov    -0x4(%ebp),%eax
4000cd53:	8b 40 04             	mov    0x4(%eax),%eax
4000cd56:	89 04 24             	mov    %eax,(%esp)
4000cd59:	e8 2d ac ff ff       	call   4000798b <free>
4000cd5e:	8b 45 fc             	mov    -0x4(%ebp),%eax
4000cd61:	89 04 24             	mov    %eax,(%esp)
4000cd64:	e8 22 ac ff ff       	call   4000798b <free>
4000cd69:	c7 45 ec 00 00 00 00 	movl   $0x0,-0x14(%ebp)
4000cd70:	eb 11                	jmp    4000cd83 <unsetenv+0x72>
4000cd72:	c7 05 10 1c 01 40 1c 	movl   $0x1c,0x40011c10
4000cd79:	00 00 00 
4000cd7c:	c7 45 ec ff ff ff ff 	movl   $0xffffffff,-0x14(%ebp)
4000cd83:	8b 45 ec             	mov    -0x14(%ebp),%eax
4000cd86:	c9                   	leave  
4000cd87:	c3                   	ret    

4000cd88 <printf>:
4000cd88:	55                   	push   %ebp
4000cd89:	89 e5                	mov    %esp,%ebp
4000cd8b:	83 ec 28             	sub    $0x28,%esp
4000cd8e:	8d 45 0c             	lea    0xc(%ebp),%eax
4000cd91:	89 45 f8             	mov    %eax,-0x8(%ebp)
4000cd94:	8b 45 f8             	mov    -0x8(%ebp),%eax
4000cd97:	8b 15 0c 1c 01 40    	mov    0x40011c0c,%edx
4000cd9d:	89 44 24 08          	mov    %eax,0x8(%esp)
4000cda1:	8b 45 08             	mov    0x8(%ebp),%eax
4000cda4:	89 44 24 04          	mov    %eax,0x4(%esp)
4000cda8:	89 14 24             	mov    %edx,(%esp)
4000cdab:	e8 04 cc ff ff       	call   400099b4 <vfprintf>
4000cdb0:	89 45 fc             	mov    %eax,-0x4(%ebp)
4000cdb3:	8b 45 fc             	mov    -0x4(%ebp),%eax
4000cdb6:	c9                   	leave  
4000cdb7:	c3                   	ret    

4000cdb8 <pwd_init>:
4000cdb8:	55                   	push   %ebp
4000cdb9:	89 e5                	mov    %esp,%ebp
4000cdbb:	5d                   	pop    %ebp
4000cdbc:	c3                   	ret    

4000cdbd <getpwnam>:
4000cdbd:	55                   	push   %ebp
4000cdbe:	89 e5                	mov    %esp,%ebp
4000cdc0:	83 ec 28             	sub    $0x28,%esp
4000cdc3:	a1 70 0b 01 40       	mov    0x40010b70,%eax
4000cdc8:	85 c0                	test   %eax,%eax
4000cdca:	75 05                	jne    4000cdd1 <getpwnam+0x14>
4000cdcc:	e8 e7 ff ff ff       	call   4000cdb8 <pwd_init>
4000cdd1:	c7 45 f8 00 00 00 00 	movl   $0x0,-0x8(%ebp)
4000cdd8:	eb 24                	jmp    4000cdfe <getpwnam+0x41>
4000cdda:	8b 45 fc             	mov    -0x4(%ebp),%eax
4000cddd:	8b 10                	mov    (%eax),%edx
4000cddf:	8b 45 08             	mov    0x8(%ebp),%eax
4000cde2:	89 44 24 04          	mov    %eax,0x4(%esp)
4000cde6:	89 14 24             	mov    %edx,(%esp)
4000cde9:	e8 16 db ff ff       	call   4000a904 <strcmp>
4000cdee:	85 c0                	test   %eax,%eax
4000cdf0:	75 08                	jne    4000cdfa <getpwnam+0x3d>
4000cdf2:	8b 45 fc             	mov    -0x4(%ebp),%eax
4000cdf5:	89 45 ec             	mov    %eax,-0x14(%ebp)
4000cdf8:	eb 28                	jmp    4000ce22 <getpwnam+0x65>
4000cdfa:	83 45 f8 01          	addl   $0x1,-0x8(%ebp)
4000cdfe:	a1 70 0b 01 40       	mov    0x40010b70,%eax
4000ce03:	8b 55 f8             	mov    -0x8(%ebp),%edx
4000ce06:	89 54 24 04          	mov    %edx,0x4(%esp)
4000ce0a:	89 04 24             	mov    %eax,(%esp)
4000ce0d:	e8 05 e4 ff ff       	call   4000b217 <llist_get>
4000ce12:	89 45 fc             	mov    %eax,-0x4(%ebp)
4000ce15:	83 7d fc 00          	cmpl   $0x0,-0x4(%ebp)
4000ce19:	75 bf                	jne    4000cdda <getpwnam+0x1d>
4000ce1b:	c7 45 ec 00 00 00 00 	movl   $0x0,-0x14(%ebp)
4000ce22:	8b 45 ec             	mov    -0x14(%ebp),%eax
4000ce25:	c9                   	leave  
4000ce26:	c3                   	ret    

4000ce27 <getpwuid>:
4000ce27:	55                   	push   %ebp
4000ce28:	89 e5                	mov    %esp,%ebp
4000ce2a:	83 ec 28             	sub    $0x28,%esp
4000ce2d:	a1 70 0b 01 40       	mov    0x40010b70,%eax
4000ce32:	85 c0                	test   %eax,%eax
4000ce34:	75 05                	jne    4000ce3b <getpwuid+0x14>
4000ce36:	e8 7d ff ff ff       	call   4000cdb8 <pwd_init>
4000ce3b:	c7 45 f8 00 00 00 00 	movl   $0x0,-0x8(%ebp)
4000ce42:	eb 17                	jmp    4000ce5b <getpwuid+0x34>
4000ce44:	8b 45 fc             	mov    -0x4(%ebp),%eax
4000ce47:	8b 40 04             	mov    0x4(%eax),%eax
4000ce4a:	3b 45 08             	cmp    0x8(%ebp),%eax
4000ce4d:	75 08                	jne    4000ce57 <getpwuid+0x30>
4000ce4f:	8b 45 fc             	mov    -0x4(%ebp),%eax
4000ce52:	89 45 ec             	mov    %eax,-0x14(%ebp)
4000ce55:	eb 28                	jmp    4000ce7f <getpwuid+0x58>
4000ce57:	83 45 f8 01          	addl   $0x1,-0x8(%ebp)
4000ce5b:	a1 70 0b 01 40       	mov    0x40010b70,%eax
4000ce60:	8b 55 f8             	mov    -0x8(%ebp),%edx
4000ce63:	89 54 24 04          	mov    %edx,0x4(%esp)
4000ce67:	89 04 24             	mov    %eax,(%esp)
4000ce6a:	e8 a8 e3 ff ff       	call   4000b217 <llist_get>
4000ce6f:	89 45 fc             	mov    %eax,-0x4(%ebp)
4000ce72:	83 7d fc 00          	cmpl   $0x0,-0x4(%ebp)
4000ce76:	75 cc                	jne    4000ce44 <getpwuid+0x1d>
4000ce78:	c7 45 ec 00 00 00 00 	movl   $0x0,-0x14(%ebp)
4000ce7f:	8b 45 ec             	mov    -0x14(%ebp),%eax
4000ce82:	c9                   	leave  
4000ce83:	c3                   	ret    

4000ce84 <getpwent>:
4000ce84:	55                   	push   %ebp
4000ce85:	89 e5                	mov    %esp,%ebp
4000ce87:	83 ec 08             	sub    $0x8,%esp
4000ce8a:	a1 74 0b 01 40       	mov    0x40010b74,%eax
4000ce8f:	89 c2                	mov    %eax,%edx
4000ce91:	83 c0 01             	add    $0x1,%eax
4000ce94:	a3 74 0b 01 40       	mov    %eax,0x40010b74
4000ce99:	a1 70 0b 01 40       	mov    0x40010b70,%eax
4000ce9e:	89 54 24 04          	mov    %edx,0x4(%esp)
4000cea2:	89 04 24             	mov    %eax,(%esp)
4000cea5:	e8 6d e3 ff ff       	call   4000b217 <llist_get>
4000ceaa:	c9                   	leave  
4000ceab:	c3                   	ret    

4000ceac <setpwent>:
4000ceac:	55                   	push   %ebp
4000cead:	89 e5                	mov    %esp,%ebp
4000ceaf:	c7 05 74 0b 01 40 00 	movl   $0x0,0x40010b74
4000ceb6:	00 00 00 
4000ceb9:	5d                   	pop    %ebp
4000ceba:	c3                   	ret    
4000cebb:	90                   	nop    

4000cebc <sprintf>:
4000cebc:	55                   	push   %ebp
4000cebd:	89 e5                	mov    %esp,%ebp
4000cebf:	83 ec 28             	sub    $0x28,%esp
4000cec2:	8d 45 10             	lea    0x10(%ebp),%eax
4000cec5:	89 45 f8             	mov    %eax,-0x8(%ebp)
4000cec8:	8b 45 f8             	mov    -0x8(%ebp),%eax
4000cecb:	89 44 24 0c          	mov    %eax,0xc(%esp)
4000cecf:	8b 45 0c             	mov    0xc(%ebp),%eax
4000ced2:	89 44 24 08          	mov    %eax,0x8(%esp)
4000ced6:	c7 44 24 04 ff ff ff 	movl   $0xffffffff,0x4(%esp)
4000cedd:	ff 
4000cede:	8b 45 08             	mov    0x8(%ebp),%eax
4000cee1:	89 04 24             	mov    %eax,(%esp)
4000cee4:	e8 e0 ce ff ff       	call   40009dc9 <vsnprintf>
4000cee9:	89 45 fc             	mov    %eax,-0x4(%ebp)
4000ceec:	8b 45 fc             	mov    -0x4(%ebp),%eax
4000ceef:	c9                   	leave  
4000cef0:	c3                   	ret    
4000cef1:	90                   	nop    
4000cef2:	90                   	nop    
4000cef3:	90                   	nop    

4000cef4 <create_stream>:
4000cef4:	55                   	push   %ebp
4000cef5:	89 e5                	mov    %esp,%ebp
4000cef7:	83 ec 18             	sub    $0x18,%esp
4000cefa:	c7 04 24 1c 00 00 00 	movl   $0x1c,(%esp)
4000cf01:	e8 ce a5 ff ff       	call   400074d4 <malloc>
4000cf06:	89 45 fc             	mov    %eax,-0x4(%ebp)
4000cf09:	8b 55 fc             	mov    -0x4(%ebp),%edx
4000cf0c:	8b 45 08             	mov    0x8(%ebp),%eax
4000cf0f:	89 02                	mov    %eax,(%edx)
4000cf11:	8b 55 fc             	mov    -0x4(%ebp),%edx
4000cf14:	8b 45 0c             	mov    0xc(%ebp),%eax
4000cf17:	89 42 08             	mov    %eax,0x8(%edx)
4000cf1a:	8b 45 fc             	mov    -0x4(%ebp),%eax
4000cf1d:	c7 40 04 00 00 00 00 	movl   $0x0,0x4(%eax)
4000cf24:	8b 45 fc             	mov    -0x4(%ebp),%eax
4000cf27:	c7 40 0c 00 00 00 00 	movl   $0x0,0xc(%eax)
4000cf2e:	c7 04 24 00 08 00 00 	movl   $0x800,(%esp)
4000cf35:	e8 9a a5 ff ff       	call   400074d4 <malloc>
4000cf3a:	89 c2                	mov    %eax,%edx
4000cf3c:	8b 45 fc             	mov    -0x4(%ebp),%eax
4000cf3f:	89 50 10             	mov    %edx,0x10(%eax)
4000cf42:	8b 45 fc             	mov    -0x4(%ebp),%eax
4000cf45:	8b 50 10             	mov    0x10(%eax),%edx
4000cf48:	8b 45 fc             	mov    -0x4(%ebp),%eax
4000cf4b:	89 50 14             	mov    %edx,0x14(%eax)
4000cf4e:	8b 45 fc             	mov    -0x4(%ebp),%eax
4000cf51:	c7 40 18 01 00 00 00 	movl   $0x1,0x18(%eax)
4000cf58:	8b 45 fc             	mov    -0x4(%ebp),%eax
4000cf5b:	c9                   	leave  
4000cf5c:	c3                   	ret    

4000cf5d <stdio_exit>:
4000cf5d:	55                   	push   %ebp
4000cf5e:	89 e5                	mov    %esp,%ebp
4000cf60:	83 ec 08             	sub    $0x8,%esp
4000cf63:	a1 0c 1c 01 40       	mov    0x40011c0c,%eax
4000cf68:	89 04 24             	mov    %eax,(%esp)
4000cf6b:	e8 1c 03 00 00       	call   4000d28c <fflush>
4000cf70:	a1 18 1c 01 40       	mov    0x40011c18,%eax
4000cf75:	89 04 24             	mov    %eax,(%esp)
4000cf78:	e8 0f 03 00 00       	call   4000d28c <fflush>
4000cf7d:	a1 14 1c 01 40       	mov    0x40011c14,%eax
4000cf82:	89 04 24             	mov    %eax,(%esp)
4000cf85:	e8 cd 01 00 00       	call   4000d157 <fclose>
4000cf8a:	a1 0c 1c 01 40       	mov    0x40011c0c,%eax
4000cf8f:	89 04 24             	mov    %eax,(%esp)
4000cf92:	e8 c0 01 00 00       	call   4000d157 <fclose>
4000cf97:	a1 18 1c 01 40       	mov    0x40011c18,%eax
4000cf9c:	89 04 24             	mov    %eax,(%esp)
4000cf9f:	e8 b3 01 00 00       	call   4000d157 <fclose>
4000cfa4:	c9                   	leave  
4000cfa5:	c3                   	ret    

4000cfa6 <stdio_init>:
4000cfa6:	55                   	push   %ebp
4000cfa7:	89 e5                	mov    %esp,%ebp
4000cfa9:	83 ec 08             	sub    $0x8,%esp
4000cfac:	c7 44 24 04 01 00 00 	movl   $0x1,0x4(%esp)
4000cfb3:	00 
4000cfb4:	c7 04 24 00 00 00 00 	movl   $0x0,(%esp)
4000cfbb:	e8 34 ff ff ff       	call   4000cef4 <create_stream>
4000cfc0:	a3 14 1c 01 40       	mov    %eax,0x40011c14
4000cfc5:	c7 44 24 04 02 00 00 	movl   $0x2,0x4(%esp)
4000cfcc:	00 
4000cfcd:	c7 04 24 01 00 00 00 	movl   $0x1,(%esp)
4000cfd4:	e8 1b ff ff ff       	call   4000cef4 <create_stream>
4000cfd9:	a3 0c 1c 01 40       	mov    %eax,0x40011c0c
4000cfde:	c7 44 24 04 02 00 00 	movl   $0x2,0x4(%esp)
4000cfe5:	00 
4000cfe6:	c7 04 24 02 00 00 00 	movl   $0x2,(%esp)
4000cfed:	e8 02 ff ff ff       	call   4000cef4 <create_stream>
4000cff2:	a3 18 1c 01 40       	mov    %eax,0x40011c18
4000cff7:	b8 5d cf 00 40       	mov    $0x4000cf5d,%eax
4000cffc:	89 04 24             	mov    %eax,(%esp)
4000cfff:	e8 10 c4 ff ff       	call   40009414 <atexit>
4000d004:	c9                   	leave  
4000d005:	c3                   	ret    

4000d006 <oflag_str2num>:
4000d006:	55                   	push   %ebp
4000d007:	89 e5                	mov    %esp,%ebp
4000d009:	83 ec 10             	sub    $0x10,%esp
4000d00c:	8b 45 08             	mov    0x8(%ebp),%eax
4000d00f:	0f b6 00             	movzbl (%eax),%eax
4000d012:	3c 72                	cmp    $0x72,%al
4000d014:	75 09                	jne    4000d01f <oflag_str2num+0x19>
4000d016:	c7 45 fc 01 00 00 00 	movl   $0x1,-0x4(%ebp)
4000d01d:	eb 2d                	jmp    4000d04c <oflag_str2num+0x46>
4000d01f:	8b 45 08             	mov    0x8(%ebp),%eax
4000d022:	0f b6 00             	movzbl (%eax),%eax
4000d025:	3c 77                	cmp    $0x77,%al
4000d027:	75 09                	jne    4000d032 <oflag_str2num+0x2c>
4000d029:	c7 45 fc 26 00 00 00 	movl   $0x26,-0x4(%ebp)
4000d030:	eb 1a                	jmp    4000d04c <oflag_str2num+0x46>
4000d032:	8b 45 08             	mov    0x8(%ebp),%eax
4000d035:	0f b6 00             	movzbl (%eax),%eax
4000d038:	3c 61                	cmp    $0x61,%al
4000d03a:	75 09                	jne    4000d045 <oflag_str2num+0x3f>
4000d03c:	c7 45 fc 64 00 00 00 	movl   $0x64,-0x4(%ebp)
4000d043:	eb 07                	jmp    4000d04c <oflag_str2num+0x46>
4000d045:	c7 45 fc ff ff ff ff 	movl   $0xffffffff,-0x4(%ebp)
4000d04c:	8b 45 08             	mov    0x8(%ebp),%eax
4000d04f:	83 c0 01             	add    $0x1,%eax
4000d052:	0f b6 00             	movzbl (%eax),%eax
4000d055:	3c 2b                	cmp    $0x2b,%al
4000d057:	75 0a                	jne    4000d063 <oflag_str2num+0x5d>
4000d059:	83 7d fc ff          	cmpl   $0xffffffff,-0x4(%ebp)
4000d05d:	74 04                	je     4000d063 <oflag_str2num+0x5d>
4000d05f:	83 4d fc 03          	orl    $0x3,-0x4(%ebp)
4000d063:	8b 45 fc             	mov    -0x4(%ebp),%eax
4000d066:	c9                   	leave  
4000d067:	c3                   	ret    

4000d068 <tmpnam>:
4000d068:	55                   	push   %ebp
4000d069:	89 e5                	mov    %esp,%ebp
4000d06b:	83 ec 28             	sub    $0x28,%esp
4000d06e:	83 7d 08 00          	cmpl   $0x0,0x8(%ebp)
4000d072:	75 21                	jne    4000d095 <tmpnam+0x2d>
4000d074:	c7 44 24 08 00 04 00 	movl   $0x400,0x8(%esp)
4000d07b:	00 
4000d07c:	c7 44 24 04 00 00 00 	movl   $0x0,0x4(%esp)
4000d083:	00 
4000d084:	c7 04 24 80 0b 01 40 	movl   $0x40010b80,(%esp)
4000d08b:	e8 b9 d7 ff ff       	call   4000a849 <memset>
4000d090:	89 45 ec             	mov    %eax,-0x14(%ebp)
4000d093:	eb 06                	jmp    4000d09b <tmpnam+0x33>
4000d095:	8b 45 08             	mov    0x8(%ebp),%eax
4000d098:	89 45 ec             	mov    %eax,-0x14(%ebp)
4000d09b:	8b 45 ec             	mov    -0x14(%ebp),%eax
4000d09e:	89 45 fc             	mov    %eax,-0x4(%ebp)
4000d0a1:	a1 80 1b 01 40       	mov    0x40011b80,%eax
4000d0a6:	89 c2                	mov    %eax,%edx
4000d0a8:	83 c0 01             	add    $0x1,%eax
4000d0ab:	a3 80 1b 01 40       	mov    %eax,0x40011b80
4000d0b0:	89 54 24 10          	mov    %edx,0x10(%esp)
4000d0b4:	c7 44 24 0c 0d f2 00 	movl   $0x4000f20d,0xc(%esp)
4000d0bb:	40 
4000d0bc:	c7 44 24 08 12 f2 00 	movl   $0x4000f212,0x8(%esp)
4000d0c3:	40 
4000d0c4:	c7 44 24 04 00 04 00 	movl   $0x400,0x4(%esp)
4000d0cb:	00 
4000d0cc:	8b 45 fc             	mov    -0x4(%ebp),%eax
4000d0cf:	89 04 24             	mov    %eax,(%esp)
4000d0d2:	e8 75 11 00 00       	call   4000e24c <snprintf>
4000d0d7:	8b 45 fc             	mov    -0x4(%ebp),%eax
4000d0da:	c9                   	leave  
4000d0db:	c3                   	ret    

4000d0dc <clearerr>:
4000d0dc:	55                   	push   %ebp
4000d0dd:	89 e5                	mov    %esp,%ebp
4000d0df:	8b 45 08             	mov    0x8(%ebp),%eax
4000d0e2:	c7 40 04 00 00 00 00 	movl   $0x0,0x4(%eax)
4000d0e9:	5d                   	pop    %ebp
4000d0ea:	c3                   	ret    

4000d0eb <feof>:
4000d0eb:	55                   	push   %ebp
4000d0ec:	89 e5                	mov    %esp,%ebp
4000d0ee:	83 ec 04             	sub    $0x4,%esp
4000d0f1:	83 7d 08 00          	cmpl   $0x0,0x8(%ebp)
4000d0f5:	74 14                	je     4000d10b <feof+0x20>
4000d0f7:	8b 45 08             	mov    0x8(%ebp),%eax
4000d0fa:	8b 00                	mov    (%eax),%eax
4000d0fc:	85 c0                	test   %eax,%eax
4000d0fe:	78 0b                	js     4000d10b <feof+0x20>
4000d100:	8b 45 08             	mov    0x8(%ebp),%eax
4000d103:	8b 40 0c             	mov    0xc(%eax),%eax
4000d106:	89 45 fc             	mov    %eax,-0x4(%ebp)
4000d109:	eb 11                	jmp    4000d11c <feof+0x31>
4000d10b:	c7 05 10 1c 01 40 08 	movl   $0x8,0x40011c10
4000d112:	00 00 00 
4000d115:	c7 45 fc 00 00 00 00 	movl   $0x0,-0x4(%ebp)
4000d11c:	8b 45 fc             	mov    -0x4(%ebp),%eax
4000d11f:	c9                   	leave  
4000d120:	c3                   	ret    

4000d121 <ferror>:
4000d121:	55                   	push   %ebp
4000d122:	89 e5                	mov    %esp,%ebp
4000d124:	83 ec 04             	sub    $0x4,%esp
4000d127:	83 7d 08 00          	cmpl   $0x0,0x8(%ebp)
4000d12b:	74 14                	je     4000d141 <ferror+0x20>
4000d12d:	8b 45 08             	mov    0x8(%ebp),%eax
4000d130:	8b 00                	mov    (%eax),%eax
4000d132:	85 c0                	test   %eax,%eax
4000d134:	78 0b                	js     4000d141 <ferror+0x20>
4000d136:	8b 45 08             	mov    0x8(%ebp),%eax
4000d139:	8b 40 04             	mov    0x4(%eax),%eax
4000d13c:	89 45 fc             	mov    %eax,-0x4(%ebp)
4000d13f:	eb 11                	jmp    4000d152 <ferror+0x31>
4000d141:	c7 05 10 1c 01 40 08 	movl   $0x8,0x40011c10
4000d148:	00 00 00 
4000d14b:	c7 45 fc 00 00 00 00 	movl   $0x0,-0x4(%ebp)
4000d152:	8b 45 fc             	mov    -0x4(%ebp),%eax
4000d155:	c9                   	leave  
4000d156:	c3                   	ret    

4000d157 <fclose>:
4000d157:	55                   	push   %ebp
4000d158:	89 e5                	mov    %esp,%ebp
4000d15a:	83 ec 08             	sub    $0x8,%esp
4000d15d:	83 7d 08 00          	cmpl   $0x0,0x8(%ebp)
4000d161:	74 44                	je     4000d1a7 <fclose+0x50>
4000d163:	8b 45 08             	mov    0x8(%ebp),%eax
4000d166:	8b 00                	mov    (%eax),%eax
4000d168:	85 c0                	test   %eax,%eax
4000d16a:	78 3b                	js     4000d1a7 <fclose+0x50>
4000d16c:	8b 45 08             	mov    0x8(%ebp),%eax
4000d16f:	89 04 24             	mov    %eax,(%esp)
4000d172:	e8 15 01 00 00       	call   4000d28c <fflush>
4000d177:	85 c0                	test   %eax,%eax
4000d179:	75 36                	jne    4000d1b1 <fclose+0x5a>
4000d17b:	8b 45 08             	mov    0x8(%ebp),%eax
4000d17e:	8b 00                	mov    (%eax),%eax
4000d180:	89 04 24             	mov    %eax,(%esp)
4000d183:	e8 fc 59 ff ff       	call   40002b84 <close>
4000d188:	85 c0                	test   %eax,%eax
4000d18a:	75 25                	jne    4000d1b1 <fclose+0x5a>
4000d18c:	8b 45 08             	mov    0x8(%ebp),%eax
4000d18f:	8b 40 10             	mov    0x10(%eax),%eax
4000d192:	89 04 24             	mov    %eax,(%esp)
4000d195:	e8 f1 a7 ff ff       	call   4000798b <free>
4000d19a:	8b 45 08             	mov    0x8(%ebp),%eax
4000d19d:	89 04 24             	mov    %eax,(%esp)
4000d1a0:	e8 e6 a7 ff ff       	call   4000798b <free>
4000d1a5:	eb 0a                	jmp    4000d1b1 <fclose+0x5a>
4000d1a7:	c7 05 10 1c 01 40 08 	movl   $0x8,0x40011c10
4000d1ae:	00 00 00 
4000d1b1:	b8 ff ff ff ff       	mov    $0xffffffff,%eax
4000d1b6:	c9                   	leave  
4000d1b7:	c3                   	ret    

4000d1b8 <fdopen>:
4000d1b8:	55                   	push   %ebp
4000d1b9:	89 e5                	mov    %esp,%ebp
4000d1bb:	83 ec 08             	sub    $0x8,%esp
4000d1be:	8b 45 0c             	mov    0xc(%ebp),%eax
4000d1c1:	89 04 24             	mov    %eax,(%esp)
4000d1c4:	e8 3d fe ff ff       	call   4000d006 <oflag_str2num>
4000d1c9:	89 44 24 04          	mov    %eax,0x4(%esp)
4000d1cd:	8b 45 08             	mov    0x8(%ebp),%eax
4000d1d0:	89 04 24             	mov    %eax,(%esp)
4000d1d3:	e8 1c fd ff ff       	call   4000cef4 <create_stream>
4000d1d8:	c9                   	leave  
4000d1d9:	c3                   	ret    

4000d1da <fileno>:
4000d1da:	55                   	push   %ebp
4000d1db:	89 e5                	mov    %esp,%ebp
4000d1dd:	83 ec 04             	sub    $0x4,%esp
4000d1e0:	83 7d 08 00          	cmpl   $0x0,0x8(%ebp)
4000d1e4:	74 13                	je     4000d1f9 <fileno+0x1f>
4000d1e6:	8b 45 08             	mov    0x8(%ebp),%eax
4000d1e9:	8b 00                	mov    (%eax),%eax
4000d1eb:	85 c0                	test   %eax,%eax
4000d1ed:	78 0a                	js     4000d1f9 <fileno+0x1f>
4000d1ef:	8b 45 08             	mov    0x8(%ebp),%eax
4000d1f2:	8b 00                	mov    (%eax),%eax
4000d1f4:	89 45 fc             	mov    %eax,-0x4(%ebp)
4000d1f7:	eb 11                	jmp    4000d20a <fileno+0x30>
4000d1f9:	c7 05 10 1c 01 40 08 	movl   $0x8,0x40011c10
4000d200:	00 00 00 
4000d203:	c7 45 fc 00 00 00 00 	movl   $0x0,-0x4(%ebp)
4000d20a:	8b 45 fc             	mov    -0x4(%ebp),%eax
4000d20d:	c9                   	leave  
4000d20e:	c3                   	ret    

4000d20f <fopen>:
4000d20f:	55                   	push   %ebp
4000d210:	89 e5                	mov    %esp,%ebp
4000d212:	83 ec 28             	sub    $0x28,%esp
4000d215:	8b 45 0c             	mov    0xc(%ebp),%eax
4000d218:	89 04 24             	mov    %eax,(%esp)
4000d21b:	e8 e6 fd ff ff       	call   4000d006 <oflag_str2num>
4000d220:	89 45 f8             	mov    %eax,-0x8(%ebp)
4000d223:	83 7d f8 00          	cmpl   $0x0,-0x8(%ebp)
4000d227:	7e 57                	jle    4000d280 <fopen+0x71>
4000d229:	c7 44 24 08 ff 01 00 	movl   $0x1ff,0x8(%esp)
4000d230:	00 
4000d231:	8b 45 f8             	mov    -0x8(%ebp),%eax
4000d234:	89 44 24 04          	mov    %eax,0x4(%esp)
4000d238:	8b 45 08             	mov    0x8(%ebp),%eax
4000d23b:	89 04 24             	mov    %eax,(%esp)
4000d23e:	e8 be 56 ff ff       	call   40002901 <open>
4000d243:	89 45 fc             	mov    %eax,-0x4(%ebp)
4000d246:	83 7d fc 00          	cmpl   $0x0,-0x4(%ebp)
4000d24a:	78 34                	js     4000d280 <fopen+0x71>
4000d24c:	8b 45 f8             	mov    -0x8(%ebp),%eax
4000d24f:	83 e0 20             	and    $0x20,%eax
4000d252:	85 c0                	test   %eax,%eax
4000d254:	74 13                	je     4000d269 <fopen+0x5a>
4000d256:	c7 44 24 04 00 00 00 	movl   $0x0,0x4(%esp)
4000d25d:	00 
4000d25e:	8b 45 fc             	mov    -0x4(%ebp),%eax
4000d261:	89 04 24             	mov    %eax,(%esp)
4000d264:	e8 72 61 ff ff       	call   400033db <ftruncate>
4000d269:	8b 45 f8             	mov    -0x8(%ebp),%eax
4000d26c:	89 44 24 04          	mov    %eax,0x4(%esp)
4000d270:	8b 45 fc             	mov    -0x4(%ebp),%eax
4000d273:	89 04 24             	mov    %eax,(%esp)
4000d276:	e8 79 fc ff ff       	call   4000cef4 <create_stream>
4000d27b:	89 45 ec             	mov    %eax,-0x14(%ebp)
4000d27e:	eb 07                	jmp    4000d287 <fopen+0x78>
4000d280:	c7 45 ec 00 00 00 00 	movl   $0x0,-0x14(%ebp)
4000d287:	8b 45 ec             	mov    -0x14(%ebp),%eax
4000d28a:	c9                   	leave  
4000d28b:	c3                   	ret    

4000d28c <fflush>:
4000d28c:	55                   	push   %ebp
4000d28d:	89 e5                	mov    %esp,%ebp
4000d28f:	83 ec 28             	sub    $0x28,%esp
4000d292:	8b 45 08             	mov    0x8(%ebp),%eax
4000d295:	8b 40 18             	mov    0x18(%eax),%eax
4000d298:	85 c0                	test   %eax,%eax
4000d29a:	74 78                	je     4000d314 <fflush+0x88>
4000d29c:	8b 45 08             	mov    0x8(%ebp),%eax
4000d29f:	8b 40 14             	mov    0x14(%eax),%eax
4000d2a2:	89 c2                	mov    %eax,%edx
4000d2a4:	8b 45 08             	mov    0x8(%ebp),%eax
4000d2a7:	8b 40 10             	mov    0x10(%eax),%eax
4000d2aa:	89 d1                	mov    %edx,%ecx
4000d2ac:	29 c1                	sub    %eax,%ecx
4000d2ae:	89 c8                	mov    %ecx,%eax
4000d2b0:	89 c2                	mov    %eax,%edx
4000d2b2:	8b 45 08             	mov    0x8(%ebp),%eax
4000d2b5:	8b 48 10             	mov    0x10(%eax),%ecx
4000d2b8:	8b 45 08             	mov    0x8(%ebp),%eax
4000d2bb:	8b 00                	mov    (%eax),%eax
4000d2bd:	89 54 24 08          	mov    %edx,0x8(%esp)
4000d2c1:	89 4c 24 04          	mov    %ecx,0x4(%esp)
4000d2c5:	89 04 24             	mov    %eax,(%esp)
4000d2c8:	e8 e8 5c ff ff       	call   40002fb5 <write>
4000d2cd:	89 45 fc             	mov    %eax,-0x4(%ebp)
4000d2d0:	83 7d fc 00          	cmpl   $0x0,-0x4(%ebp)
4000d2d4:	7e 2a                	jle    4000d300 <fflush+0x74>
4000d2d6:	8b 45 08             	mov    0x8(%ebp),%eax
4000d2d9:	8b 40 14             	mov    0x14(%eax),%eax
4000d2dc:	89 c2                	mov    %eax,%edx
4000d2de:	8b 45 08             	mov    0x8(%ebp),%eax
4000d2e1:	8b 40 10             	mov    0x10(%eax),%eax
4000d2e4:	89 d1                	mov    %edx,%ecx
4000d2e6:	29 c1                	sub    %eax,%ecx
4000d2e8:	89 c8                	mov    %ecx,%eax
4000d2ea:	3b 45 fc             	cmp    -0x4(%ebp),%eax
4000d2ed:	7e 11                	jle    4000d300 <fflush+0x74>
4000d2ef:	8b 45 08             	mov    0x8(%ebp),%eax
4000d2f2:	c7 40 0c 01 00 00 00 	movl   $0x1,0xc(%eax)
4000d2f9:	c7 45 fc ff ff ff ff 	movl   $0xffffffff,-0x4(%ebp)
4000d300:	8b 45 08             	mov    0x8(%ebp),%eax
4000d303:	8b 50 10             	mov    0x10(%eax),%edx
4000d306:	8b 45 08             	mov    0x8(%ebp),%eax
4000d309:	89 50 14             	mov    %edx,0x14(%eax)
4000d30c:	8b 45 fc             	mov    -0x4(%ebp),%eax
4000d30f:	89 45 ec             	mov    %eax,-0x14(%ebp)
4000d312:	eb 07                	jmp    4000d31b <fflush+0x8f>
4000d314:	c7 45 ec 00 00 00 00 	movl   $0x0,-0x14(%ebp)
4000d31b:	8b 45 ec             	mov    -0x14(%ebp),%eax
4000d31e:	c9                   	leave  
4000d31f:	c3                   	ret    

4000d320 <puts>:
4000d320:	55                   	push   %ebp
4000d321:	89 e5                	mov    %esp,%ebp
4000d323:	83 ec 18             	sub    $0x18,%esp
4000d326:	a1 0c 1c 01 40       	mov    0x40011c0c,%eax
4000d32b:	89 44 24 04          	mov    %eax,0x4(%esp)
4000d32f:	8b 45 08             	mov    0x8(%ebp),%eax
4000d332:	89 04 24             	mov    %eax,(%esp)
4000d335:	e8 1e 00 00 00       	call   4000d358 <fputs>
4000d33a:	89 45 fc             	mov    %eax,-0x4(%ebp)
4000d33d:	83 7d fc 00          	cmpl   $0x0,-0x4(%ebp)
4000d341:	7e 10                	jle    4000d353 <puts+0x33>
4000d343:	c7 04 24 0a 00 00 00 	movl   $0xa,(%esp)
4000d34a:	e8 34 00 00 00       	call   4000d383 <putchar>
4000d34f:	83 45 fc 01          	addl   $0x1,-0x4(%ebp)
4000d353:	8b 45 fc             	mov    -0x4(%ebp),%eax
4000d356:	c9                   	leave  
4000d357:	c3                   	ret    

4000d358 <fputs>:
4000d358:	55                   	push   %ebp
4000d359:	89 e5                	mov    %esp,%ebp
4000d35b:	83 ec 18             	sub    $0x18,%esp
4000d35e:	8b 45 08             	mov    0x8(%ebp),%eax
4000d361:	89 04 24             	mov    %eax,(%esp)
4000d364:	e8 bb d6 ff ff       	call   4000aa24 <strlen>
4000d369:	89 c2                	mov    %eax,%edx
4000d36b:	8b 45 0c             	mov    0xc(%ebp),%eax
4000d36e:	89 44 24 08          	mov    %eax,0x8(%esp)
4000d372:	89 54 24 04          	mov    %edx,0x4(%esp)
4000d376:	8b 45 08             	mov    0x8(%ebp),%eax
4000d379:	89 04 24             	mov    %eax,(%esp)
4000d37c:	e8 5d 00 00 00       	call   4000d3de <_fwrite>
4000d381:	c9                   	leave  
4000d382:	c3                   	ret    

4000d383 <putchar>:
4000d383:	55                   	push   %ebp
4000d384:	89 e5                	mov    %esp,%ebp
4000d386:	83 ec 08             	sub    $0x8,%esp
4000d389:	a1 0c 1c 01 40       	mov    0x40011c0c,%eax
4000d38e:	89 44 24 04          	mov    %eax,0x4(%esp)
4000d392:	8b 45 08             	mov    0x8(%ebp),%eax
4000d395:	89 04 24             	mov    %eax,(%esp)
4000d398:	e8 02 00 00 00       	call   4000d39f <fputc>
4000d39d:	c9                   	leave  
4000d39e:	c3                   	ret    

4000d39f <fputc>:
4000d39f:	55                   	push   %ebp
4000d3a0:	89 e5                	mov    %esp,%ebp
4000d3a2:	83 ec 28             	sub    $0x28,%esp
4000d3a5:	8b 45 08             	mov    0x8(%ebp),%eax
4000d3a8:	88 45 ff             	mov    %al,-0x1(%ebp)
4000d3ab:	8b 45 0c             	mov    0xc(%ebp),%eax
4000d3ae:	89 44 24 08          	mov    %eax,0x8(%esp)
4000d3b2:	c7 44 24 04 01 00 00 	movl   $0x1,0x4(%esp)
4000d3b9:	00 
4000d3ba:	8d 45 ff             	lea    -0x1(%ebp),%eax
4000d3bd:	89 04 24             	mov    %eax,(%esp)
4000d3c0:	e8 19 00 00 00       	call   4000d3de <_fwrite>
4000d3c5:	83 f8 01             	cmp    $0x1,%eax
4000d3c8:	75 08                	jne    4000d3d2 <fputc+0x33>
4000d3ca:	8b 45 08             	mov    0x8(%ebp),%eax
4000d3cd:	89 45 ec             	mov    %eax,-0x14(%ebp)
4000d3d0:	eb 07                	jmp    4000d3d9 <fputc+0x3a>
4000d3d2:	c7 45 ec ff ff ff ff 	movl   $0xffffffff,-0x14(%ebp)
4000d3d9:	8b 45 ec             	mov    -0x14(%ebp),%eax
4000d3dc:	c9                   	leave  
4000d3dd:	c3                   	ret    

4000d3de <_fwrite>:
4000d3de:	55                   	push   %ebp
4000d3df:	89 e5                	mov    %esp,%ebp
4000d3e1:	83 ec 28             	sub    $0x28,%esp
4000d3e4:	83 7d 0c 00          	cmpl   $0x0,0xc(%ebp)
4000d3e8:	75 0c                	jne    4000d3f6 <_fwrite+0x18>
4000d3ea:	c7 45 ec 00 00 00 00 	movl   $0x0,-0x14(%ebp)
4000d3f1:	e9 3c 01 00 00       	jmp    4000d532 <_fwrite+0x154>
4000d3f6:	83 7d 10 00          	cmpl   $0x0,0x10(%ebp)
4000d3fa:	0f 84 21 01 00 00    	je     4000d521 <_fwrite+0x143>
4000d400:	8b 45 10             	mov    0x10(%ebp),%eax
4000d403:	8b 00                	mov    (%eax),%eax
4000d405:	85 c0                	test   %eax,%eax
4000d407:	0f 88 14 01 00 00    	js     4000d521 <_fwrite+0x143>
4000d40d:	8b 45 10             	mov    0x10(%ebp),%eax
4000d410:	8b 40 08             	mov    0x8(%eax),%eax
4000d413:	83 e0 02             	and    $0x2,%eax
4000d416:	85 c0                	test   %eax,%eax
4000d418:	0f 84 f0 00 00 00    	je     4000d50e <_fwrite+0x130>
4000d41e:	8b 45 10             	mov    0x10(%ebp),%eax
4000d421:	8b 40 18             	mov    0x18(%eax),%eax
4000d424:	85 c0                	test   %eax,%eax
4000d426:	0f 84 93 00 00 00    	je     4000d4bf <_fwrite+0xe1>
4000d42c:	8b 45 10             	mov    0x10(%ebp),%eax
4000d42f:	8b 40 14             	mov    0x14(%eax),%eax
4000d432:	89 c2                	mov    %eax,%edx
4000d434:	03 55 0c             	add    0xc(%ebp),%edx
4000d437:	8b 45 10             	mov    0x10(%ebp),%eax
4000d43a:	8b 40 10             	mov    0x10(%eax),%eax
4000d43d:	05 00 08 00 00       	add    $0x800,%eax
4000d442:	39 c2                	cmp    %eax,%edx
4000d444:	76 0b                	jbe    4000d451 <_fwrite+0x73>
4000d446:	8b 45 10             	mov    0x10(%ebp),%eax
4000d449:	89 04 24             	mov    %eax,(%esp)
4000d44c:	e8 3b fe ff ff       	call   4000d28c <fflush>
4000d451:	81 7d 0c 00 08 00 00 	cmpl   $0x800,0xc(%ebp)
4000d458:	76 07                	jbe    4000d461 <_fwrite+0x83>
4000d45a:	c7 45 0c 00 08 00 00 	movl   $0x800,0xc(%ebp)
4000d461:	8b 45 10             	mov    0x10(%ebp),%eax
4000d464:	8b 50 14             	mov    0x14(%eax),%edx
4000d467:	8b 45 0c             	mov    0xc(%ebp),%eax
4000d46a:	89 44 24 08          	mov    %eax,0x8(%esp)
4000d46e:	8b 45 08             	mov    0x8(%ebp),%eax
4000d471:	89 44 24 04          	mov    %eax,0x4(%esp)
4000d475:	89 14 24             	mov    %edx,(%esp)
4000d478:	e8 ef d1 ff ff       	call   4000a66c <memcpy>
4000d47d:	8b 45 10             	mov    0x10(%ebp),%eax
4000d480:	8b 40 14             	mov    0x14(%eax),%eax
4000d483:	89 c2                	mov    %eax,%edx
4000d485:	03 55 0c             	add    0xc(%ebp),%edx
4000d488:	8b 45 10             	mov    0x10(%ebp),%eax
4000d48b:	89 50 14             	mov    %edx,0x14(%eax)
4000d48e:	8b 45 0c             	mov    0xc(%ebp),%eax
4000d491:	89 44 24 08          	mov    %eax,0x8(%esp)
4000d495:	c7 44 24 04 0a 00 00 	movl   $0xa,0x4(%esp)
4000d49c:	00 
4000d49d:	8b 45 08             	mov    0x8(%ebp),%eax
4000d4a0:	89 04 24             	mov    %eax,(%esp)
4000d4a3:	e8 74 d0 ff ff       	call   4000a51c <memchr>
4000d4a8:	85 c0                	test   %eax,%eax
4000d4aa:	74 0b                	je     4000d4b7 <_fwrite+0xd9>
4000d4ac:	8b 45 10             	mov    0x10(%ebp),%eax
4000d4af:	89 04 24             	mov    %eax,(%esp)
4000d4b2:	e8 d5 fd ff ff       	call   4000d28c <fflush>
4000d4b7:	8b 45 0c             	mov    0xc(%ebp),%eax
4000d4ba:	89 45 ec             	mov    %eax,-0x14(%ebp)
4000d4bd:	eb 73                	jmp    4000d532 <_fwrite+0x154>
4000d4bf:	8b 45 10             	mov    0x10(%ebp),%eax
4000d4c2:	8b 10                	mov    (%eax),%edx
4000d4c4:	8b 45 0c             	mov    0xc(%ebp),%eax
4000d4c7:	89 44 24 08          	mov    %eax,0x8(%esp)
4000d4cb:	8b 45 08             	mov    0x8(%ebp),%eax
4000d4ce:	89 44 24 04          	mov    %eax,0x4(%esp)
4000d4d2:	89 14 24             	mov    %edx,(%esp)
4000d4d5:	e8 db 5a ff ff       	call   40002fb5 <write>
4000d4da:	89 45 fc             	mov    %eax,-0x4(%ebp)
4000d4dd:	83 7d fc 00          	cmpl   $0x0,-0x4(%ebp)
4000d4e1:	7e 23                	jle    4000d506 <_fwrite+0x128>
4000d4e3:	8b 45 10             	mov    0x10(%ebp),%eax
4000d4e6:	8b 40 14             	mov    0x14(%eax),%eax
4000d4e9:	89 c2                	mov    %eax,%edx
4000d4eb:	8b 45 10             	mov    0x10(%ebp),%eax
4000d4ee:	8b 40 10             	mov    0x10(%eax),%eax
4000d4f1:	89 d1                	mov    %edx,%ecx
4000d4f3:	29 c1                	sub    %eax,%ecx
4000d4f5:	89 c8                	mov    %ecx,%eax
4000d4f7:	3b 45 fc             	cmp    -0x4(%ebp),%eax
4000d4fa:	7e 0a                	jle    4000d506 <_fwrite+0x128>
4000d4fc:	8b 45 10             	mov    0x10(%ebp),%eax
4000d4ff:	c7 40 0c 01 00 00 00 	movl   $0x1,0xc(%eax)
4000d506:	8b 45 fc             	mov    -0x4(%ebp),%eax
4000d509:	89 45 ec             	mov    %eax,-0x14(%ebp)
4000d50c:	eb 24                	jmp    4000d532 <_fwrite+0x154>
4000d50e:	8b 45 10             	mov    0x10(%ebp),%eax
4000d511:	c7 40 0c 01 00 00 00 	movl   $0x1,0xc(%eax)
4000d518:	c7 45 ec 00 00 00 00 	movl   $0x0,-0x14(%ebp)
4000d51f:	eb 11                	jmp    4000d532 <_fwrite+0x154>
4000d521:	c7 05 10 1c 01 40 08 	movl   $0x8,0x40011c10
4000d528:	00 00 00 
4000d52b:	c7 45 ec ff ff ff ff 	movl   $0xffffffff,-0x14(%ebp)
4000d532:	8b 45 ec             	mov    -0x14(%ebp),%eax
4000d535:	c9                   	leave  
4000d536:	c3                   	ret    

4000d537 <fgets>:
4000d537:	55                   	push   %ebp
4000d538:	89 e5                	mov    %esp,%ebp
4000d53a:	83 ec 18             	sub    $0x18,%esp
4000d53d:	83 7d 10 00          	cmpl   $0x0,0x10(%ebp)
4000d541:	0f 84 8f 00 00 00    	je     4000d5d6 <fgets+0x9f>
4000d547:	8b 45 10             	mov    0x10(%ebp),%eax
4000d54a:	8b 00                	mov    (%eax),%eax
4000d54c:	85 c0                	test   %eax,%eax
4000d54e:	0f 88 82 00 00 00    	js     4000d5d6 <fgets+0x9f>
4000d554:	c7 45 f8 00 00 00 00 	movl   $0x0,-0x8(%ebp)
4000d55b:	eb 5d                	jmp    4000d5ba <fgets+0x83>
4000d55d:	8b 45 10             	mov    0x10(%ebp),%eax
4000d560:	89 04 24             	mov    %eax,(%esp)
4000d563:	e8 84 00 00 00       	call   4000d5ec <fgetc>
4000d568:	89 45 fc             	mov    %eax,-0x4(%ebp)
4000d56b:	83 7d fc ff          	cmpl   $0xffffffff,-0x4(%ebp)
4000d56f:	74 54                	je     4000d5c5 <fgets+0x8e>
4000d571:	8b 45 f8             	mov    -0x8(%ebp),%eax
4000d574:	89 c2                	mov    %eax,%edx
4000d576:	03 55 08             	add    0x8(%ebp),%edx
4000d579:	8b 45 fc             	mov    -0x4(%ebp),%eax
4000d57c:	88 02                	mov    %al,(%edx)
4000d57e:	a1 10 1c 01 40       	mov    0x40011c10,%eax
4000d583:	85 c0                	test   %eax,%eax
4000d585:	7e 15                	jle    4000d59c <fgets+0x65>
4000d587:	8b 15 10 1c 01 40    	mov    0x40011c10,%edx
4000d58d:	8b 45 10             	mov    0x10(%ebp),%eax
4000d590:	89 50 04             	mov    %edx,0x4(%eax)
4000d593:	c7 45 ec 00 00 00 00 	movl   $0x0,-0x14(%ebp)
4000d59a:	eb 4b                	jmp    4000d5e7 <fgets+0xb0>
4000d59c:	8b 45 f8             	mov    -0x8(%ebp),%eax
4000d59f:	03 45 08             	add    0x8(%ebp),%eax
4000d5a2:	0f b6 00             	movzbl (%eax),%eax
4000d5a5:	84 c0                	test   %al,%al
4000d5a7:	74 1c                	je     4000d5c5 <fgets+0x8e>
4000d5a9:	8b 45 f8             	mov    -0x8(%ebp),%eax
4000d5ac:	03 45 08             	add    0x8(%ebp),%eax
4000d5af:	0f b6 00             	movzbl (%eax),%eax
4000d5b2:	3c 0a                	cmp    $0xa,%al
4000d5b4:	74 0f                	je     4000d5c5 <fgets+0x8e>
4000d5b6:	83 45 f8 01          	addl   $0x1,-0x8(%ebp)
4000d5ba:	8b 45 0c             	mov    0xc(%ebp),%eax
4000d5bd:	83 e8 01             	sub    $0x1,%eax
4000d5c0:	3b 45 f8             	cmp    -0x8(%ebp),%eax
4000d5c3:	7f 98                	jg     4000d55d <fgets+0x26>
4000d5c5:	8b 45 f8             	mov    -0x8(%ebp),%eax
4000d5c8:	03 45 08             	add    0x8(%ebp),%eax
4000d5cb:	c6 00 00             	movb   $0x0,(%eax)
4000d5ce:	8b 45 08             	mov    0x8(%ebp),%eax
4000d5d1:	89 45 ec             	mov    %eax,-0x14(%ebp)
4000d5d4:	eb 11                	jmp    4000d5e7 <fgets+0xb0>
4000d5d6:	c7 05 10 1c 01 40 08 	movl   $0x8,0x40011c10
4000d5dd:	00 00 00 
4000d5e0:	c7 45 ec 00 00 00 00 	movl   $0x0,-0x14(%ebp)
4000d5e7:	8b 45 ec             	mov    -0x14(%ebp),%eax
4000d5ea:	c9                   	leave  
4000d5eb:	c3                   	ret    

4000d5ec <fgetc>:
4000d5ec:	55                   	push   %ebp
4000d5ed:	89 e5                	mov    %esp,%ebp
4000d5ef:	83 ec 28             	sub    $0x28,%esp
4000d5f2:	c6 45 ff ff          	movb   $0xff,-0x1(%ebp)
4000d5f6:	8b 45 08             	mov    0x8(%ebp),%eax
4000d5f9:	89 44 24 08          	mov    %eax,0x8(%esp)
4000d5fd:	c7 44 24 04 01 00 00 	movl   $0x1,0x4(%esp)
4000d604:	00 
4000d605:	8d 45 ff             	lea    -0x1(%ebp),%eax
4000d608:	89 04 24             	mov    %eax,(%esp)
4000d60b:	e8 1b 00 00 00       	call   4000d62b <_fread>
4000d610:	0f b6 45 ff          	movzbl -0x1(%ebp),%eax
4000d614:	3c ff                	cmp    $0xff,%al
4000d616:	75 0a                	jne    4000d622 <fgetc+0x36>
4000d618:	8b 45 08             	mov    0x8(%ebp),%eax
4000d61b:	c7 40 0c 01 00 00 00 	movl   $0x1,0xc(%eax)
4000d622:	0f b6 45 ff          	movzbl -0x1(%ebp),%eax
4000d626:	0f be c0             	movsbl %al,%eax
4000d629:	c9                   	leave  
4000d62a:	c3                   	ret    

4000d62b <_fread>:
4000d62b:	55                   	push   %ebp
4000d62c:	89 e5                	mov    %esp,%ebp
4000d62e:	83 ec 28             	sub    $0x28,%esp
4000d631:	83 7d 10 00          	cmpl   $0x0,0x10(%ebp)
4000d635:	74 50                	je     4000d687 <_fread+0x5c>
4000d637:	8b 45 10             	mov    0x10(%ebp),%eax
4000d63a:	8b 00                	mov    (%eax),%eax
4000d63c:	85 c0                	test   %eax,%eax
4000d63e:	78 47                	js     4000d687 <_fread+0x5c>
4000d640:	8b 45 10             	mov    0x10(%ebp),%eax
4000d643:	8b 10                	mov    (%eax),%edx
4000d645:	8b 45 0c             	mov    0xc(%ebp),%eax
4000d648:	89 44 24 08          	mov    %eax,0x8(%esp)
4000d64c:	8b 45 08             	mov    0x8(%ebp),%eax
4000d64f:	89 44 24 04          	mov    %eax,0x4(%esp)
4000d653:	89 14 24             	mov    %edx,(%esp)
4000d656:	e8 1c 58 ff ff       	call   40002e77 <read>
4000d65b:	89 45 fc             	mov    %eax,-0x4(%ebp)
4000d65e:	83 7d fc 00          	cmpl   $0x0,-0x4(%ebp)
4000d662:	7e 1a                	jle    4000d67e <_fread+0x53>
4000d664:	8b 45 fc             	mov    -0x4(%ebp),%eax
4000d667:	3b 45 0c             	cmp    0xc(%ebp),%eax
4000d66a:	73 0a                	jae    4000d676 <_fread+0x4b>
4000d66c:	8b 45 10             	mov    0x10(%ebp),%eax
4000d66f:	c7 40 0c 01 00 00 00 	movl   $0x1,0xc(%eax)
4000d676:	8b 45 fc             	mov    -0x4(%ebp),%eax
4000d679:	89 45 ec             	mov    %eax,-0x14(%ebp)
4000d67c:	eb 1a                	jmp    4000d698 <_fread+0x6d>
4000d67e:	c7 45 ec ff ff ff ff 	movl   $0xffffffff,-0x14(%ebp)
4000d685:	eb 11                	jmp    4000d698 <_fread+0x6d>
4000d687:	c7 05 10 1c 01 40 08 	movl   $0x8,0x40011c10
4000d68e:	00 00 00 
4000d691:	c7 45 ec ff ff ff ff 	movl   $0xffffffff,-0x14(%ebp)
4000d698:	8b 45 ec             	mov    -0x14(%ebp),%eax
4000d69b:	c9                   	leave  
4000d69c:	c3                   	ret    

4000d69d <fgetpos>:
4000d69d:	55                   	push   %ebp
4000d69e:	89 e5                	mov    %esp,%ebp
4000d6a0:	83 ec 08             	sub    $0x8,%esp
4000d6a3:	83 7d 08 00          	cmpl   $0x0,0x8(%ebp)
4000d6a7:	74 24                	je     4000d6cd <fgetpos+0x30>
4000d6a9:	8b 45 08             	mov    0x8(%ebp),%eax
4000d6ac:	8b 00                	mov    (%eax),%eax
4000d6ae:	85 c0                	test   %eax,%eax
4000d6b0:	78 1b                	js     4000d6cd <fgetpos+0x30>
4000d6b2:	8b 45 08             	mov    0x8(%ebp),%eax
4000d6b5:	89 04 24             	mov    %eax,(%esp)
4000d6b8:	e8 26 00 00 00       	call   4000d6e3 <ftello>
4000d6bd:	89 c2                	mov    %eax,%edx
4000d6bf:	8b 45 0c             	mov    0xc(%ebp),%eax
4000d6c2:	89 10                	mov    %edx,(%eax)
4000d6c4:	c7 45 fc 00 00 00 00 	movl   $0x0,-0x4(%ebp)
4000d6cb:	eb 11                	jmp    4000d6de <fgetpos+0x41>
4000d6cd:	c7 05 10 1c 01 40 08 	movl   $0x8,0x40011c10
4000d6d4:	00 00 00 
4000d6d7:	c7 45 fc ff ff ff ff 	movl   $0xffffffff,-0x4(%ebp)
4000d6de:	8b 45 fc             	mov    -0x4(%ebp),%eax
4000d6e1:	c9                   	leave  
4000d6e2:	c3                   	ret    

4000d6e3 <ftello>:
4000d6e3:	55                   	push   %ebp
4000d6e4:	89 e5                	mov    %esp,%ebp
4000d6e6:	83 ec 18             	sub    $0x18,%esp
4000d6e9:	8b 45 08             	mov    0x8(%ebp),%eax
4000d6ec:	8b 00                	mov    (%eax),%eax
4000d6ee:	c7 44 24 08 01 00 00 	movl   $0x1,0x8(%esp)
4000d6f5:	00 
4000d6f6:	c7 44 24 04 00 00 00 	movl   $0x0,0x4(%esp)
4000d6fd:	00 
4000d6fe:	89 04 24             	mov    %eax,(%esp)
4000d701:	e8 65 59 ff ff       	call   4000306b <lseek>
4000d706:	c9                   	leave  
4000d707:	c3                   	ret    

4000d708 <fsetpos>:
4000d708:	55                   	push   %ebp
4000d709:	89 e5                	mov    %esp,%ebp
4000d70b:	83 ec 18             	sub    $0x18,%esp
4000d70e:	83 7d 08 00          	cmpl   $0x0,0x8(%ebp)
4000d712:	74 2e                	je     4000d742 <fsetpos+0x3a>
4000d714:	8b 45 08             	mov    0x8(%ebp),%eax
4000d717:	8b 00                	mov    (%eax),%eax
4000d719:	85 c0                	test   %eax,%eax
4000d71b:	78 25                	js     4000d742 <fsetpos+0x3a>
4000d71d:	8b 45 0c             	mov    0xc(%ebp),%eax
4000d720:	8b 00                	mov    (%eax),%eax
4000d722:	c7 44 24 08 00 00 00 	movl   $0x0,0x8(%esp)
4000d729:	00 
4000d72a:	89 44 24 04          	mov    %eax,0x4(%esp)
4000d72e:	8b 45 08             	mov    0x8(%ebp),%eax
4000d731:	89 04 24             	mov    %eax,(%esp)
4000d734:	e8 1f 00 00 00       	call   4000d758 <fseeko>
4000d739:	c7 45 fc 00 00 00 00 	movl   $0x0,-0x4(%ebp)
4000d740:	eb 11                	jmp    4000d753 <fsetpos+0x4b>
4000d742:	c7 05 10 1c 01 40 08 	movl   $0x8,0x40011c10
4000d749:	00 00 00 
4000d74c:	c7 45 fc ff ff ff ff 	movl   $0xffffffff,-0x4(%ebp)
4000d753:	8b 45 fc             	mov    -0x4(%ebp),%eax
4000d756:	c9                   	leave  
4000d757:	c3                   	ret    

4000d758 <fseeko>:
4000d758:	55                   	push   %ebp
4000d759:	89 e5                	mov    %esp,%ebp
4000d75b:	83 ec 18             	sub    $0x18,%esp
4000d75e:	8b 45 08             	mov    0x8(%ebp),%eax
4000d761:	89 04 24             	mov    %eax,(%esp)
4000d764:	e8 23 fb ff ff       	call   4000d28c <fflush>
4000d769:	8b 45 08             	mov    0x8(%ebp),%eax
4000d76c:	8b 10                	mov    (%eax),%edx
4000d76e:	8b 45 10             	mov    0x10(%ebp),%eax
4000d771:	89 44 24 08          	mov    %eax,0x8(%esp)
4000d775:	8b 45 0c             	mov    0xc(%ebp),%eax
4000d778:	89 44 24 04          	mov    %eax,0x4(%esp)
4000d77c:	89 14 24             	mov    %edx,(%esp)
4000d77f:	e8 e7 58 ff ff       	call   4000306b <lseek>
4000d784:	3b 45 0c             	cmp    0xc(%ebp),%eax
4000d787:	75 09                	jne    4000d792 <fseeko+0x3a>
4000d789:	c7 45 fc 00 00 00 00 	movl   $0x0,-0x4(%ebp)
4000d790:	eb 07                	jmp    4000d799 <fseeko+0x41>
4000d792:	c7 45 fc ff ff ff ff 	movl   $0xffffffff,-0x4(%ebp)
4000d799:	8b 45 fc             	mov    -0x4(%ebp),%eax
4000d79c:	c9                   	leave  
4000d79d:	c3                   	ret    

4000d79e <freopen>:
4000d79e:	55                   	push   %ebp
4000d79f:	89 e5                	mov    %esp,%ebp
4000d7a1:	83 ec 18             	sub    $0x18,%esp
4000d7a4:	83 7d 10 00          	cmpl   $0x0,0x10(%ebp)
4000d7a8:	74 6c                	je     4000d816 <freopen+0x78>
4000d7aa:	8b 45 10             	mov    0x10(%ebp),%eax
4000d7ad:	8b 00                	mov    (%eax),%eax
4000d7af:	85 c0                	test   %eax,%eax
4000d7b1:	78 63                	js     4000d816 <freopen+0x78>
4000d7b3:	8b 45 10             	mov    0x10(%ebp),%eax
4000d7b6:	89 04 24             	mov    %eax,(%esp)
4000d7b9:	e8 ce fa ff ff       	call   4000d28c <fflush>
4000d7be:	8b 45 10             	mov    0x10(%ebp),%eax
4000d7c1:	8b 00                	mov    (%eax),%eax
4000d7c3:	89 04 24             	mov    %eax,(%esp)
4000d7c6:	e8 b9 53 ff ff       	call   40002b84 <close>
4000d7cb:	8b 45 0c             	mov    0xc(%ebp),%eax
4000d7ce:	89 04 24             	mov    %eax,(%esp)
4000d7d1:	e8 30 f8 ff ff       	call   4000d006 <oflag_str2num>
4000d7d6:	89 c2                	mov    %eax,%edx
4000d7d8:	8b 45 10             	mov    0x10(%ebp),%eax
4000d7db:	89 50 08             	mov    %edx,0x8(%eax)
4000d7de:	8b 45 10             	mov    0x10(%ebp),%eax
4000d7e1:	c7 40 0c 00 00 00 00 	movl   $0x0,0xc(%eax)
4000d7e8:	8b 45 10             	mov    0x10(%ebp),%eax
4000d7eb:	c7 40 04 00 00 00 00 	movl   $0x0,0x4(%eax)
4000d7f2:	8b 45 10             	mov    0x10(%ebp),%eax
4000d7f5:	8b 40 08             	mov    0x8(%eax),%eax
4000d7f8:	89 44 24 04          	mov    %eax,0x4(%esp)
4000d7fc:	8b 45 08             	mov    0x8(%ebp),%eax
4000d7ff:	89 04 24             	mov    %eax,(%esp)
4000d802:	e8 fa 50 ff ff       	call   40002901 <open>
4000d807:	89 c2                	mov    %eax,%edx
4000d809:	8b 45 10             	mov    0x10(%ebp),%eax
4000d80c:	89 10                	mov    %edx,(%eax)
4000d80e:	8b 45 10             	mov    0x10(%ebp),%eax
4000d811:	89 45 fc             	mov    %eax,-0x4(%ebp)
4000d814:	eb 11                	jmp    4000d827 <freopen+0x89>
4000d816:	c7 05 10 1c 01 40 08 	movl   $0x8,0x40011c10
4000d81d:	00 00 00 
4000d820:	c7 45 fc 00 00 00 00 	movl   $0x0,-0x4(%ebp)
4000d827:	8b 45 fc             	mov    -0x4(%ebp),%eax
4000d82a:	c9                   	leave  
4000d82b:	c3                   	ret    

4000d82c <fscanf>:
4000d82c:	55                   	push   %ebp
4000d82d:	89 e5                	mov    %esp,%ebp
4000d82f:	b8 00 00 00 00       	mov    $0x0,%eax
4000d834:	5d                   	pop    %ebp
4000d835:	c3                   	ret    

4000d836 <ungetc>:
4000d836:	55                   	push   %ebp
4000d837:	89 e5                	mov    %esp,%ebp
4000d839:	b8 00 00 00 00       	mov    $0x0,%eax
4000d83e:	5d                   	pop    %ebp
4000d83f:	c3                   	ret    

4000d840 <is_leapyear>:
4000d840:	55                   	push   %ebp
4000d841:	89 e5                	mov    %esp,%ebp
4000d843:	83 ec 10             	sub    $0x10,%esp
4000d846:	8b 4d 08             	mov    0x8(%ebp),%ecx
4000d849:	c7 45 f0 1f 85 eb 51 	movl   $0x51eb851f,-0x10(%ebp)
4000d850:	8b 45 f0             	mov    -0x10(%ebp),%eax
4000d853:	f7 e1                	mul    %ecx
4000d855:	89 d0                	mov    %edx,%eax
4000d857:	c1 e8 07             	shr    $0x7,%eax
4000d85a:	89 45 f4             	mov    %eax,-0xc(%ebp)
4000d85d:	69 45 f4 90 01 00 00 	imul   $0x190,-0xc(%ebp),%eax
4000d864:	89 ca                	mov    %ecx,%edx
4000d866:	29 c2                	sub    %eax,%edx
4000d868:	89 55 f4             	mov    %edx,-0xc(%ebp)
4000d86b:	83 7d f4 00          	cmpl   $0x0,-0xc(%ebp)
4000d86f:	75 09                	jne    4000d87a <is_leapyear+0x3a>
4000d871:	c7 45 f8 01 00 00 00 	movl   $0x1,-0x8(%ebp)
4000d878:	eb 4b                	jmp    4000d8c5 <is_leapyear+0x85>
4000d87a:	8b 4d 08             	mov    0x8(%ebp),%ecx
4000d87d:	c7 45 f0 1f 85 eb 51 	movl   $0x51eb851f,-0x10(%ebp)
4000d884:	8b 45 f0             	mov    -0x10(%ebp),%eax
4000d887:	f7 e1                	mul    %ecx
4000d889:	89 d0                	mov    %edx,%eax
4000d88b:	c1 e8 05             	shr    $0x5,%eax
4000d88e:	89 45 fc             	mov    %eax,-0x4(%ebp)
4000d891:	6b 45 fc 64          	imul   $0x64,-0x4(%ebp),%eax
4000d895:	89 ca                	mov    %ecx,%edx
4000d897:	29 c2                	sub    %eax,%edx
4000d899:	89 55 fc             	mov    %edx,-0x4(%ebp)
4000d89c:	83 7d fc 00          	cmpl   $0x0,-0x4(%ebp)
4000d8a0:	75 09                	jne    4000d8ab <is_leapyear+0x6b>
4000d8a2:	c7 45 f8 00 00 00 00 	movl   $0x0,-0x8(%ebp)
4000d8a9:	eb 1a                	jmp    4000d8c5 <is_leapyear+0x85>
4000d8ab:	8b 45 08             	mov    0x8(%ebp),%eax
4000d8ae:	83 e0 03             	and    $0x3,%eax
4000d8b1:	85 c0                	test   %eax,%eax
4000d8b3:	75 09                	jne    4000d8be <is_leapyear+0x7e>
4000d8b5:	c7 45 f8 01 00 00 00 	movl   $0x1,-0x8(%ebp)
4000d8bc:	eb 07                	jmp    4000d8c5 <is_leapyear+0x85>
4000d8be:	c7 45 f8 00 00 00 00 	movl   $0x0,-0x8(%ebp)
4000d8c5:	8b 45 f8             	mov    -0x8(%ebp),%eax
4000d8c8:	c9                   	leave  
4000d8c9:	c3                   	ret    

4000d8ca <getyday>:
4000d8ca:	55                   	push   %ebp
4000d8cb:	89 e5                	mov    %esp,%ebp
4000d8cd:	83 ec 38             	sub    $0x38,%esp
4000d8d0:	c7 45 d0 1f 00 00 00 	movl   $0x1f,-0x30(%ebp)
4000d8d7:	c7 45 d4 3b 00 00 00 	movl   $0x3b,-0x2c(%ebp)
4000d8de:	c7 45 d8 5a 00 00 00 	movl   $0x5a,-0x28(%ebp)
4000d8e5:	c7 45 dc 78 00 00 00 	movl   $0x78,-0x24(%ebp)
4000d8ec:	c7 45 e0 97 00 00 00 	movl   $0x97,-0x20(%ebp)
4000d8f3:	c7 45 e4 b5 00 00 00 	movl   $0xb5,-0x1c(%ebp)
4000d8fa:	c7 45 e8 d4 00 00 00 	movl   $0xd4,-0x18(%ebp)
4000d901:	c7 45 ec f3 00 00 00 	movl   $0xf3,-0x14(%ebp)
4000d908:	c7 45 f0 11 01 00 00 	movl   $0x111,-0x10(%ebp)
4000d90f:	c7 45 f4 30 01 00 00 	movl   $0x130,-0xc(%ebp)
4000d916:	c7 45 f8 4e 01 00 00 	movl   $0x14e,-0x8(%ebp)
4000d91d:	c7 45 fc 6d 01 00 00 	movl   $0x16d,-0x4(%ebp)
4000d924:	8b 45 08             	mov    0x8(%ebp),%eax
4000d927:	8b 40 10             	mov    0x10(%eax),%eax
4000d92a:	85 c0                	test   %eax,%eax
4000d92c:	7e 12                	jle    4000d940 <getyday+0x76>
4000d92e:	8b 45 08             	mov    0x8(%ebp),%eax
4000d931:	8b 40 10             	mov    0x10(%eax),%eax
4000d934:	83 e8 01             	sub    $0x1,%eax
4000d937:	8b 44 85 d0          	mov    -0x30(%ebp,%eax,4),%eax
4000d93b:	89 45 cc             	mov    %eax,-0x34(%ebp)
4000d93e:	eb 07                	jmp    4000d947 <getyday+0x7d>
4000d940:	c7 45 cc 00 00 00 00 	movl   $0x0,-0x34(%ebp)
4000d947:	8b 45 08             	mov    0x8(%ebp),%eax
4000d94a:	8b 40 0c             	mov    0xc(%eax),%eax
4000d94d:	03 45 cc             	add    -0x34(%ebp),%eax
4000d950:	89 c2                	mov    %eax,%edx
4000d952:	8b 45 08             	mov    0x8(%ebp),%eax
4000d955:	89 50 1c             	mov    %edx,0x1c(%eax)
4000d958:	8b 45 08             	mov    0x8(%ebp),%eax
4000d95b:	8b 40 14             	mov    0x14(%eax),%eax
4000d95e:	05 6c 07 00 00       	add    $0x76c,%eax
4000d963:	89 04 24             	mov    %eax,(%esp)
4000d966:	e8 d5 fe ff ff       	call   4000d840 <is_leapyear>
4000d96b:	85 c0                	test   %eax,%eax
4000d96d:	74 0f                	je     4000d97e <getyday+0xb4>
4000d96f:	8b 45 08             	mov    0x8(%ebp),%eax
4000d972:	8b 40 1c             	mov    0x1c(%eax),%eax
4000d975:	8d 50 01             	lea    0x1(%eax),%edx
4000d978:	8b 45 08             	mov    0x8(%ebp),%eax
4000d97b:	89 50 1c             	mov    %edx,0x1c(%eax)
4000d97e:	c9                   	leave  
4000d97f:	c3                   	ret    

4000d980 <getwday>:
4000d980:	55                   	push   %ebp
4000d981:	89 e5                	mov    %esp,%ebp
4000d983:	53                   	push   %ebx
4000d984:	83 ec 50             	sub    $0x50,%esp
4000d987:	c7 45 d0 01 00 00 00 	movl   $0x1,-0x30(%ebp)
4000d98e:	c7 45 d4 06 00 00 00 	movl   $0x6,-0x2c(%ebp)
4000d995:	c7 45 d8 04 00 00 00 	movl   $0x4,-0x28(%ebp)
4000d99c:	c7 45 dc 02 00 00 00 	movl   $0x2,-0x24(%ebp)
4000d9a3:	8b 45 08             	mov    0x8(%ebp),%eax
4000d9a6:	8b 40 14             	mov    0x14(%eax),%eax
4000d9a9:	05 6c 07 00 00       	add    $0x76c,%eax
4000d9ae:	89 45 e0             	mov    %eax,-0x20(%ebp)
4000d9b1:	8b 55 e0             	mov    -0x20(%ebp),%edx
4000d9b4:	c7 45 b0 1f 85 eb 51 	movl   $0x51eb851f,-0x50(%ebp)
4000d9bb:	8b 45 b0             	mov    -0x50(%ebp),%eax
4000d9be:	f7 e2                	mul    %edx
4000d9c0:	89 d0                	mov    %edx,%eax
4000d9c2:	c1 e8 05             	shr    $0x5,%eax
4000d9c5:	83 e0 03             	and    $0x3,%eax
4000d9c8:	89 45 e4             	mov    %eax,-0x1c(%ebp)
4000d9cb:	8b 4d e0             	mov    -0x20(%ebp),%ecx
4000d9ce:	c7 45 b0 1f 85 eb 51 	movl   $0x51eb851f,-0x50(%ebp)
4000d9d5:	8b 45 b0             	mov    -0x50(%ebp),%eax
4000d9d8:	f7 e1                	mul    %ecx
4000d9da:	89 d3                	mov    %edx,%ebx
4000d9dc:	c1 eb 05             	shr    $0x5,%ebx
4000d9df:	89 5d b4             	mov    %ebx,-0x4c(%ebp)
4000d9e2:	6b 45 b4 64          	imul   $0x64,-0x4c(%ebp),%eax
4000d9e6:	89 ca                	mov    %ecx,%edx
4000d9e8:	29 c2                	sub    %eax,%edx
4000d9ea:	89 55 b4             	mov    %edx,-0x4c(%ebp)
4000d9ed:	c7 45 b0 ab aa aa aa 	movl   $0xaaaaaaab,-0x50(%ebp)
4000d9f4:	8b 45 b0             	mov    -0x50(%ebp),%eax
4000d9f7:	f7 65 b4             	mull   -0x4c(%ebp)
4000d9fa:	89 d0                	mov    %edx,%eax
4000d9fc:	c1 e8 03             	shr    $0x3,%eax
4000d9ff:	89 45 e8             	mov    %eax,-0x18(%ebp)
4000da02:	8b 4d e0             	mov    -0x20(%ebp),%ecx
4000da05:	c7 45 b0 1f 85 eb 51 	movl   $0x51eb851f,-0x50(%ebp)
4000da0c:	8b 45 b0             	mov    -0x50(%ebp),%eax
4000da0f:	f7 e1                	mul    %ecx
4000da11:	89 d3                	mov    %edx,%ebx
4000da13:	c1 eb 05             	shr    $0x5,%ebx
4000da16:	89 5d b8             	mov    %ebx,-0x48(%ebp)
4000da19:	6b 45 b8 64          	imul   $0x64,-0x48(%ebp),%eax
4000da1d:	89 ca                	mov    %ecx,%edx
4000da1f:	29 c2                	sub    %eax,%edx
4000da21:	89 55 b8             	mov    %edx,-0x48(%ebp)
4000da24:	c7 45 b0 ab aa aa aa 	movl   $0xaaaaaaab,-0x50(%ebp)
4000da2b:	8b 45 b0             	mov    -0x50(%ebp),%eax
4000da2e:	f7 65 b8             	mull   -0x48(%ebp)
4000da31:	89 d0                	mov    %edx,%eax
4000da33:	c1 e8 03             	shr    $0x3,%eax
4000da36:	89 45 ec             	mov    %eax,-0x14(%ebp)
4000da39:	8b 55 ec             	mov    -0x14(%ebp),%edx
4000da3c:	89 d0                	mov    %edx,%eax
4000da3e:	01 c0                	add    %eax,%eax
4000da40:	01 d0                	add    %edx,%eax
4000da42:	c1 e0 02             	shl    $0x2,%eax
4000da45:	8b 55 b8             	mov    -0x48(%ebp),%edx
4000da48:	29 c2                	sub    %eax,%edx
4000da4a:	89 d0                	mov    %edx,%eax
4000da4c:	89 45 ec             	mov    %eax,-0x14(%ebp)
4000da4f:	8b 45 ec             	mov    -0x14(%ebp),%eax
4000da52:	c1 e8 02             	shr    $0x2,%eax
4000da55:	89 45 f0             	mov    %eax,-0x10(%ebp)
4000da58:	8b 45 e4             	mov    -0x1c(%ebp),%eax
4000da5b:	8b 5c 85 d0          	mov    -0x30(%ebp,%eax,4),%ebx
4000da5f:	8b 55 ec             	mov    -0x14(%ebp),%edx
4000da62:	8b 45 e8             	mov    -0x18(%ebp),%eax
4000da65:	01 d0                	add    %edx,%eax
4000da67:	89 c1                	mov    %eax,%ecx
4000da69:	03 4d f0             	add    -0x10(%ebp),%ecx
4000da6c:	c7 45 b0 25 49 92 24 	movl   $0x24924925,-0x50(%ebp)
4000da73:	8b 45 b0             	mov    -0x50(%ebp),%eax
4000da76:	f7 e1                	mul    %ecx
4000da78:	89 c8                	mov    %ecx,%eax
4000da7a:	29 d0                	sub    %edx,%eax
4000da7c:	d1 e8                	shr    %eax
4000da7e:	8d 04 02             	lea    (%edx,%eax,1),%eax
4000da81:	89 c2                	mov    %eax,%edx
4000da83:	c1 ea 02             	shr    $0x2,%edx
4000da86:	89 55 bc             	mov    %edx,-0x44(%ebp)
4000da89:	8b 45 bc             	mov    -0x44(%ebp),%eax
4000da8c:	c1 e0 03             	shl    $0x3,%eax
4000da8f:	2b 45 bc             	sub    -0x44(%ebp),%eax
4000da92:	89 ca                	mov    %ecx,%edx
4000da94:	29 c2                	sub    %eax,%edx
4000da96:	89 55 bc             	mov    %edx,-0x44(%ebp)
4000da99:	8b 45 bc             	mov    -0x44(%ebp),%eax
4000da9c:	8d 0c 03             	lea    (%ebx,%eax,1),%ecx
4000da9f:	c7 45 b0 25 49 92 24 	movl   $0x24924925,-0x50(%ebp)
4000daa6:	8b 45 b0             	mov    -0x50(%ebp),%eax
4000daa9:	f7 e1                	mul    %ecx
4000daab:	89 c8                	mov    %ecx,%eax
4000daad:	29 d0                	sub    %edx,%eax
4000daaf:	d1 e8                	shr    %eax
4000dab1:	8d 04 02             	lea    (%edx,%eax,1),%eax
4000dab4:	c1 e8 02             	shr    $0x2,%eax
4000dab7:	89 45 f4             	mov    %eax,-0xc(%ebp)
4000daba:	8b 55 f4             	mov    -0xc(%ebp),%edx
4000dabd:	89 d0                	mov    %edx,%eax
4000dabf:	c1 e0 03             	shl    $0x3,%eax
4000dac2:	29 d0                	sub    %edx,%eax
4000dac4:	89 ca                	mov    %ecx,%edx
4000dac6:	29 c2                	sub    %eax,%edx
4000dac8:	89 d0                	mov    %edx,%eax
4000daca:	89 45 f4             	mov    %eax,-0xc(%ebp)
4000dacd:	8b 45 e0             	mov    -0x20(%ebp),%eax
4000dad0:	89 04 24             	mov    %eax,(%esp)
4000dad3:	e8 68 fd ff ff       	call   4000d840 <is_leapyear>
4000dad8:	83 f8 c5             	cmp    $0xffffffc5,%eax
4000dadb:	74 09                	je     4000dae6 <getwday+0x166>
4000dadd:	c7 45 c0 06 00 00 00 	movl   $0x6,-0x40(%ebp)
4000dae4:	eb 07                	jmp    4000daed <getwday+0x16d>
4000dae6:	c7 45 c0 07 00 00 00 	movl   $0x7,-0x40(%ebp)
4000daed:	8b 45 c0             	mov    -0x40(%ebp),%eax
4000daf0:	03 45 f4             	add    -0xc(%ebp),%eax
4000daf3:	89 45 f8             	mov    %eax,-0x8(%ebp)
4000daf6:	8b 45 08             	mov    0x8(%ebp),%eax
4000daf9:	8b 48 1c             	mov    0x1c(%eax),%ecx
4000dafc:	c7 45 b0 93 24 49 92 	movl   $0x92492493,-0x50(%ebp)
4000db03:	8b 45 b0             	mov    -0x50(%ebp),%eax
4000db06:	f7 e9                	imul   %ecx
4000db08:	8d 04 0a             	lea    (%edx,%ecx,1),%eax
4000db0b:	89 c2                	mov    %eax,%edx
4000db0d:	c1 fa 02             	sar    $0x2,%edx
4000db10:	89 c8                	mov    %ecx,%eax
4000db12:	c1 f8 1f             	sar    $0x1f,%eax
4000db15:	89 d3                	mov    %edx,%ebx
4000db17:	29 c3                	sub    %eax,%ebx
4000db19:	89 5d c4             	mov    %ebx,-0x3c(%ebp)
4000db1c:	8b 45 c4             	mov    -0x3c(%ebp),%eax
4000db1f:	c1 e0 03             	shl    $0x3,%eax
4000db22:	2b 45 c4             	sub    -0x3c(%ebp),%eax
4000db25:	89 ca                	mov    %ecx,%edx
4000db27:	29 c2                	sub    %eax,%edx
4000db29:	89 55 c4             	mov    %edx,-0x3c(%ebp)
4000db2c:	8b 45 c4             	mov    -0x3c(%ebp),%eax
4000db2f:	89 c1                	mov    %eax,%ecx
4000db31:	03 4d f8             	add    -0x8(%ebp),%ecx
4000db34:	c7 45 b0 25 49 92 24 	movl   $0x24924925,-0x50(%ebp)
4000db3b:	8b 45 b0             	mov    -0x50(%ebp),%eax
4000db3e:	f7 e1                	mul    %ecx
4000db40:	89 c8                	mov    %ecx,%eax
4000db42:	29 d0                	sub    %edx,%eax
4000db44:	d1 e8                	shr    %eax
4000db46:	8d 04 02             	lea    (%edx,%eax,1),%eax
4000db49:	89 c2                	mov    %eax,%edx
4000db4b:	c1 ea 02             	shr    $0x2,%edx
4000db4e:	89 55 c8             	mov    %edx,-0x38(%ebp)
4000db51:	8b 45 c8             	mov    -0x38(%ebp),%eax
4000db54:	c1 e0 03             	shl    $0x3,%eax
4000db57:	2b 45 c8             	sub    -0x38(%ebp),%eax
4000db5a:	89 cb                	mov    %ecx,%ebx
4000db5c:	29 c3                	sub    %eax,%ebx
4000db5e:	89 5d c8             	mov    %ebx,-0x38(%ebp)
4000db61:	8b 45 c8             	mov    -0x38(%ebp),%eax
4000db64:	83 e8 01             	sub    $0x1,%eax
4000db67:	89 c2                	mov    %eax,%edx
4000db69:	8b 45 08             	mov    0x8(%ebp),%eax
4000db6c:	89 50 18             	mov    %edx,0x18(%eax)
4000db6f:	83 c4 50             	add    $0x50,%esp
4000db72:	5b                   	pop    %ebx
4000db73:	5d                   	pop    %ebp
4000db74:	c3                   	ret    

4000db75 <gettimeofday>:
4000db75:	55                   	push   %ebp
4000db76:	89 e5                	mov    %esp,%ebp
4000db78:	57                   	push   %edi
4000db79:	56                   	push   %esi
4000db7a:	53                   	push   %ebx
4000db7b:	83 ec 6c             	sub    $0x6c,%esp
4000db7e:	a1 84 1b 01 40       	mov    0x40011b84,%eax
4000db83:	85 c0                	test   %eax,%eax
4000db85:	0f 85 f0 01 00 00    	jne    4000dd7b <gettimeofday+0x206>
4000db8b:	c7 04 24 00 00 00 00 	movl   $0x0,(%esp)
4000db92:	e8 29 04 00 00       	call   4000dfc0 <cmos_read>
4000db97:	c1 f8 04             	sar    $0x4,%eax
4000db9a:	89 c2                	mov    %eax,%edx
4000db9c:	83 e2 0f             	and    $0xf,%edx
4000db9f:	89 d0                	mov    %edx,%eax
4000dba1:	c1 e0 02             	shl    $0x2,%eax
4000dba4:	01 d0                	add    %edx,%eax
4000dba6:	01 c0                	add    %eax,%eax
4000dba8:	89 c3                	mov    %eax,%ebx
4000dbaa:	c7 04 24 00 00 00 00 	movl   $0x0,(%esp)
4000dbb1:	e8 0a 04 00 00       	call   4000dfc0 <cmos_read>
4000dbb6:	83 e0 0f             	and    $0xf,%eax
4000dbb9:	01 c3                	add    %eax,%ebx
4000dbbb:	89 5d a8             	mov    %ebx,-0x58(%ebp)
4000dbbe:	c7 04 24 02 00 00 00 	movl   $0x2,(%esp)
4000dbc5:	e8 f6 03 00 00       	call   4000dfc0 <cmos_read>
4000dbca:	c1 f8 04             	sar    $0x4,%eax
4000dbcd:	89 c2                	mov    %eax,%edx
4000dbcf:	83 e2 0f             	and    $0xf,%edx
4000dbd2:	89 d0                	mov    %edx,%eax
4000dbd4:	c1 e0 02             	shl    $0x2,%eax
4000dbd7:	01 d0                	add    %edx,%eax
4000dbd9:	01 c0                	add    %eax,%eax
4000dbdb:	89 c3                	mov    %eax,%ebx
4000dbdd:	c7 04 24 02 00 00 00 	movl   $0x2,(%esp)
4000dbe4:	e8 d7 03 00 00       	call   4000dfc0 <cmos_read>
4000dbe9:	83 e0 0f             	and    $0xf,%eax
4000dbec:	01 c3                	add    %eax,%ebx
4000dbee:	89 5d ac             	mov    %ebx,-0x54(%ebp)
4000dbf1:	c7 04 24 04 00 00 00 	movl   $0x4,(%esp)
4000dbf8:	e8 c3 03 00 00       	call   4000dfc0 <cmos_read>
4000dbfd:	c1 f8 04             	sar    $0x4,%eax
4000dc00:	89 c2                	mov    %eax,%edx
4000dc02:	83 e2 0f             	and    $0xf,%edx
4000dc05:	89 d0                	mov    %edx,%eax
4000dc07:	c1 e0 02             	shl    $0x2,%eax
4000dc0a:	01 d0                	add    %edx,%eax
4000dc0c:	01 c0                	add    %eax,%eax
4000dc0e:	89 c3                	mov    %eax,%ebx
4000dc10:	c7 04 24 04 00 00 00 	movl   $0x4,(%esp)
4000dc17:	e8 a4 03 00 00       	call   4000dfc0 <cmos_read>
4000dc1c:	83 e0 0f             	and    $0xf,%eax
4000dc1f:	01 c3                	add    %eax,%ebx
4000dc21:	89 5d b0             	mov    %ebx,-0x50(%ebp)
4000dc24:	c7 04 24 07 00 00 00 	movl   $0x7,(%esp)
4000dc2b:	e8 90 03 00 00       	call   4000dfc0 <cmos_read>
4000dc30:	c1 f8 04             	sar    $0x4,%eax
4000dc33:	89 c2                	mov    %eax,%edx
4000dc35:	83 e2 0f             	and    $0xf,%edx
4000dc38:	89 d0                	mov    %edx,%eax
4000dc3a:	c1 e0 02             	shl    $0x2,%eax
4000dc3d:	01 d0                	add    %edx,%eax
4000dc3f:	01 c0                	add    %eax,%eax
4000dc41:	89 c3                	mov    %eax,%ebx
4000dc43:	c7 04 24 07 00 00 00 	movl   $0x7,(%esp)
4000dc4a:	e8 71 03 00 00       	call   4000dfc0 <cmos_read>
4000dc4f:	83 e0 0f             	and    $0xf,%eax
4000dc52:	01 c3                	add    %eax,%ebx
4000dc54:	89 5d b4             	mov    %ebx,-0x4c(%ebp)
4000dc57:	c7 04 24 08 00 00 00 	movl   $0x8,(%esp)
4000dc5e:	e8 5d 03 00 00       	call   4000dfc0 <cmos_read>
4000dc63:	c1 f8 04             	sar    $0x4,%eax
4000dc66:	89 c2                	mov    %eax,%edx
4000dc68:	83 e2 0f             	and    $0xf,%edx
4000dc6b:	89 d0                	mov    %edx,%eax
4000dc6d:	c1 e0 02             	shl    $0x2,%eax
4000dc70:	01 d0                	add    %edx,%eax
4000dc72:	01 c0                	add    %eax,%eax
4000dc74:	89 c3                	mov    %eax,%ebx
4000dc76:	c7 04 24 08 00 00 00 	movl   $0x8,(%esp)
4000dc7d:	e8 3e 03 00 00       	call   4000dfc0 <cmos_read>
4000dc82:	83 e0 0f             	and    $0xf,%eax
4000dc85:	8d 04 03             	lea    (%ebx,%eax,1),%eax
4000dc88:	83 e8 01             	sub    $0x1,%eax
4000dc8b:	89 45 b8             	mov    %eax,-0x48(%ebp)
4000dc8e:	c7 04 24 09 00 00 00 	movl   $0x9,(%esp)
4000dc95:	e8 26 03 00 00       	call   4000dfc0 <cmos_read>
4000dc9a:	c1 f8 04             	sar    $0x4,%eax
4000dc9d:	89 c2                	mov    %eax,%edx
4000dc9f:	83 e2 0f             	and    $0xf,%edx
4000dca2:	89 d0                	mov    %edx,%eax
4000dca4:	c1 e0 02             	shl    $0x2,%eax
4000dca7:	01 d0                	add    %edx,%eax
4000dca9:	01 c0                	add    %eax,%eax
4000dcab:	89 c6                	mov    %eax,%esi
4000dcad:	c7 04 24 32 00 00 00 	movl   $0x32,(%esp)
4000dcb4:	e8 07 03 00 00       	call   4000dfc0 <cmos_read>
4000dcb9:	c1 f8 04             	sar    $0x4,%eax
4000dcbc:	89 c2                	mov    %eax,%edx
4000dcbe:	83 e2 0f             	and    $0xf,%edx
4000dcc1:	89 d0                	mov    %edx,%eax
4000dcc3:	c1 e0 02             	shl    $0x2,%eax
4000dcc6:	01 d0                	add    %edx,%eax
4000dcc8:	01 c0                	add    %eax,%eax
4000dcca:	89 c3                	mov    %eax,%ebx
4000dccc:	c7 04 24 32 00 00 00 	movl   $0x32,(%esp)
4000dcd3:	e8 e8 02 00 00       	call   4000dfc0 <cmos_read>
4000dcd8:	83 e0 0f             	and    $0xf,%eax
4000dcdb:	8d 04 03             	lea    (%ebx,%eax,1),%eax
4000dcde:	6b c0 64             	imul   $0x64,%eax,%eax
4000dce1:	8d 1c 06             	lea    (%esi,%eax,1),%ebx
4000dce4:	c7 04 24 09 00 00 00 	movl   $0x9,(%esp)
4000dceb:	e8 d0 02 00 00       	call   4000dfc0 <cmos_read>
4000dcf0:	83 e0 0f             	and    $0xf,%eax
4000dcf3:	8d 04 03             	lea    (%ebx,%eax,1),%eax
4000dcf6:	2d 6c 07 00 00       	sub    $0x76c,%eax
4000dcfb:	89 45 bc             	mov    %eax,-0x44(%ebp)
4000dcfe:	8d 45 d0             	lea    -0x30(%ebp),%eax
4000dd01:	89 45 a4             	mov    %eax,-0x5c(%ebp)
4000dd04:	c7 45 a0 00 00 00 00 	movl   $0x0,-0x60(%ebp)
4000dd0b:	b8 24 00 00 00       	mov    $0x24,%eax
4000dd10:	83 f8 04             	cmp    $0x4,%eax
4000dd13:	72 12                	jb     4000dd27 <gettimeofday+0x1b2>
4000dd15:	c7 45 9c 09 00 00 00 	movl   $0x9,-0x64(%ebp)
4000dd1c:	8b 7d a4             	mov    -0x5c(%ebp),%edi
4000dd1f:	8b 4d 9c             	mov    -0x64(%ebp),%ecx
4000dd22:	8b 45 a0             	mov    -0x60(%ebp),%eax
4000dd25:	f3 ab                	rep stos %eax,%es:(%edi)
4000dd27:	8b 45 a8             	mov    -0x58(%ebp),%eax
4000dd2a:	89 45 d0             	mov    %eax,-0x30(%ebp)
4000dd2d:	8b 55 ac             	mov    -0x54(%ebp),%edx
4000dd30:	89 55 d4             	mov    %edx,-0x2c(%ebp)
4000dd33:	8b 4d b0             	mov    -0x50(%ebp),%ecx
4000dd36:	89 4d d8             	mov    %ecx,-0x28(%ebp)
4000dd39:	8b 7d b4             	mov    -0x4c(%ebp),%edi
4000dd3c:	89 7d dc             	mov    %edi,-0x24(%ebp)
4000dd3f:	8b 45 b8             	mov    -0x48(%ebp),%eax
4000dd42:	89 45 e0             	mov    %eax,-0x20(%ebp)
4000dd45:	8b 55 bc             	mov    -0x44(%ebp),%edx
4000dd48:	89 55 e4             	mov    %edx,-0x1c(%ebp)
4000dd4b:	8d 45 d0             	lea    -0x30(%ebp),%eax
4000dd4e:	89 04 24             	mov    %eax,(%esp)
4000dd51:	e8 74 fb ff ff       	call   4000d8ca <getyday>
4000dd56:	8d 45 d0             	lea    -0x30(%ebp),%eax
4000dd59:	89 04 24             	mov    %eax,(%esp)
4000dd5c:	e8 1f fc ff ff       	call   4000d980 <getwday>
4000dd61:	8d 45 d0             	lea    -0x30(%ebp),%eax
4000dd64:	89 04 24             	mov    %eax,(%esp)
4000dd67:	e8 04 ba ff ff       	call   40009770 <mktime>
4000dd6c:	a3 84 1b 01 40       	mov    %eax,0x40011b84
4000dd71:	e8 f8 ba ff ff       	call   4000986e <clock>
4000dd76:	a3 88 1b 01 40       	mov    %eax,0x40011b88
4000dd7b:	e8 ee ba ff ff       	call   4000986e <clock>
4000dd80:	89 c2                	mov    %eax,%edx
4000dd82:	a1 88 1b 01 40       	mov    0x40011b88,%eax
4000dd87:	29 c2                	sub    %eax,%edx
4000dd89:	c7 45 98 1f 85 eb 51 	movl   $0x51eb851f,-0x68(%ebp)
4000dd90:	8b 45 98             	mov    -0x68(%ebp),%eax
4000dd93:	f7 e2                	mul    %edx
4000dd95:	c1 ea 05             	shr    $0x5,%edx
4000dd98:	a1 84 1b 01 40       	mov    0x40011b84,%eax
4000dd9d:	01 c2                	add    %eax,%edx
4000dd9f:	8b 45 08             	mov    0x8(%ebp),%eax
4000dda2:	89 10                	mov    %edx,(%eax)
4000dda4:	e8 c5 ba ff ff       	call   4000986e <clock>
4000dda9:	89 c2                	mov    %eax,%edx
4000ddab:	a1 88 1b 01 40       	mov    0x40011b88,%eax
4000ddb0:	89 d1                	mov    %edx,%ecx
4000ddb2:	29 c1                	sub    %eax,%ecx
4000ddb4:	89 c8                	mov    %ecx,%eax
4000ddb6:	69 d0 40 42 0f 00    	imul   $0xf4240,%eax,%edx
4000ddbc:	c7 45 98 1f 85 eb 51 	movl   $0x51eb851f,-0x68(%ebp)
4000ddc3:	8b 45 98             	mov    -0x68(%ebp),%eax
4000ddc6:	f7 e2                	mul    %edx
4000ddc8:	89 d1                	mov    %edx,%ecx
4000ddca:	c1 e9 05             	shr    $0x5,%ecx
4000ddcd:	c7 45 98 83 de 1b 43 	movl   $0x431bde83,-0x68(%ebp)
4000ddd4:	8b 45 98             	mov    -0x68(%ebp),%eax
4000ddd7:	f7 e1                	mul    %ecx
4000ddd9:	89 d7                	mov    %edx,%edi
4000dddb:	c1 ef 12             	shr    $0x12,%edi
4000ddde:	89 7d c0             	mov    %edi,-0x40(%ebp)
4000dde1:	69 45 c0 40 42 0f 00 	imul   $0xf4240,-0x40(%ebp),%eax
4000dde8:	89 ca                	mov    %ecx,%edx
4000ddea:	29 c2                	sub    %eax,%edx
4000ddec:	89 55 c0             	mov    %edx,-0x40(%ebp)
4000ddef:	8b 55 c0             	mov    -0x40(%ebp),%edx
4000ddf2:	8b 45 08             	mov    0x8(%ebp),%eax
4000ddf5:	89 50 04             	mov    %edx,0x4(%eax)
4000ddf8:	b8 00 00 00 00       	mov    $0x0,%eax
4000ddfd:	83 c4 6c             	add    $0x6c,%esp
4000de00:	5b                   	pop    %ebx
4000de01:	5e                   	pop    %esi
4000de02:	5f                   	pop    %edi
4000de03:	5d                   	pop    %ebp
4000de04:	c3                   	ret    
4000de05:	90                   	nop    
4000de06:	90                   	nop    
4000de07:	90                   	nop    
4000de08:	90                   	nop    
4000de09:	90                   	nop    
4000de0a:	90                   	nop    
4000de0b:	90                   	nop    
4000de0c:	90                   	nop    
4000de0d:	90                   	nop    
4000de0e:	90                   	nop    
4000de0f:	90                   	nop    

4000de10 <dyn_call>:
4000de10:	55                   	push   %ebp
4000de11:	53                   	push   %ebx
4000de12:	89 e5                	mov    %esp,%ebp
4000de14:	8b 45 0c             	mov    0xc(%ebp),%eax
4000de17:	8b 5d 10             	mov    0x10(%ebp),%ebx
4000de1a:	8b 55 14             	mov    0x14(%ebp),%edx
4000de1d:	50                   	push   %eax
4000de1e:	52                   	push   %edx
4000de1f:	b8 04 00 00 00       	mov    $0x4,%eax
4000de24:	f7 e2                	mul    %edx
4000de26:	01 c3                	add    %eax,%ebx
4000de28:	5a                   	pop    %edx
4000de29:	58                   	pop    %eax
4000de2a:	09 d2                	or     %edx,%edx
4000de2c:	74 0c                	je     4000de3a <dyn_call.lpe>
4000de2e:	89 d1                	mov    %edx,%ecx

4000de30 <dyn_call.lpb>:
4000de30:	81 eb 04 00 00 00    	sub    $0x4,%ebx
4000de36:	ff 33                	pushl  (%ebx)
4000de38:	e2 f6                	loop   4000de30 <dyn_call.lpb>

4000de3a <dyn_call.lpe>:
4000de3a:	ff d0                	call   *%eax
4000de3c:	89 ec                	mov    %ebp,%esp
4000de3e:	5b                   	pop    %ebx
4000de3f:	5d                   	pop    %ebp
4000de40:	c3                   	ret    
4000de41:	90                   	nop    
4000de42:	90                   	nop    
4000de43:	90                   	nop    

4000de44 <pack_create>:
4000de44:	55                   	push   %ebp
4000de45:	89 e5                	mov    %esp,%ebp
4000de47:	83 ec 18             	sub    $0x18,%esp
4000de4a:	c7 04 24 08 00 00 00 	movl   $0x8,(%esp)
4000de51:	e8 7e 96 ff ff       	call   400074d4 <malloc>
4000de56:	89 45 fc             	mov    %eax,-0x4(%ebp)
4000de59:	8b 55 fc             	mov    -0x4(%ebp),%edx
4000de5c:	8b 45 08             	mov    0x8(%ebp),%eax
4000de5f:	89 42 04             	mov    %eax,0x4(%edx)
4000de62:	8b 55 fc             	mov    -0x4(%ebp),%edx
4000de65:	8b 45 08             	mov    0x8(%ebp),%eax
4000de68:	89 02                	mov    %eax,(%edx)
4000de6a:	8b 45 fc             	mov    -0x4(%ebp),%eax
4000de6d:	c9                   	leave  
4000de6e:	c3                   	ret    

4000de6f <packstr>:
4000de6f:	55                   	push   %ebp
4000de70:	89 e5                	mov    %esp,%ebp
4000de72:	53                   	push   %ebx
4000de73:	83 ec 14             	sub    $0x14,%esp
4000de76:	8b 45 08             	mov    0x8(%ebp),%eax
4000de79:	8b 00                	mov    (%eax),%eax
4000de7b:	89 c2                	mov    %eax,%edx
4000de7d:	8b 45 0c             	mov    0xc(%ebp),%eax
4000de80:	89 44 24 04          	mov    %eax,0x4(%esp)
4000de84:	89 14 24             	mov    %edx,(%esp)
4000de87:	e8 05 cb ff ff       	call   4000a991 <strcpy>
4000de8c:	8b 45 08             	mov    0x8(%ebp),%eax
4000de8f:	8b 18                	mov    (%eax),%ebx
4000de91:	8b 45 0c             	mov    0xc(%ebp),%eax
4000de94:	89 04 24             	mov    %eax,(%esp)
4000de97:	e8 88 cb ff ff       	call   4000aa24 <strlen>
4000de9c:	83 c0 01             	add    $0x1,%eax
4000de9f:	8d 14 03             	lea    (%ebx,%eax,1),%edx
4000dea2:	8b 45 08             	mov    0x8(%ebp),%eax
4000dea5:	89 10                	mov    %edx,(%eax)
4000dea7:	83 c4 14             	add    $0x14,%esp
4000deaa:	5b                   	pop    %ebx
4000deab:	5d                   	pop    %ebp
4000deac:	c3                   	ret    

4000dead <packnstr>:
4000dead:	55                   	push   %ebp
4000deae:	89 e5                	mov    %esp,%ebp
4000deb0:	53                   	push   %ebx
4000deb1:	83 ec 14             	sub    $0x14,%esp
4000deb4:	8b 45 08             	mov    0x8(%ebp),%eax
4000deb7:	8b 00                	mov    (%eax),%eax
4000deb9:	89 c2                	mov    %eax,%edx
4000debb:	8b 45 10             	mov    0x10(%ebp),%eax
4000debe:	89 44 24 08          	mov    %eax,0x8(%esp)
4000dec2:	8b 45 0c             	mov    0xc(%ebp),%eax
4000dec5:	89 44 24 04          	mov    %eax,0x4(%esp)
4000dec9:	89 14 24             	mov    %edx,(%esp)
4000decc:	e8 93 cc ff ff       	call   4000ab64 <strncpy>
4000ded1:	8b 45 08             	mov    0x8(%ebp),%eax
4000ded4:	8b 18                	mov    (%eax),%ebx
4000ded6:	8b 45 08             	mov    0x8(%ebp),%eax
4000ded9:	8b 00                	mov    (%eax),%eax
4000dedb:	89 04 24             	mov    %eax,(%esp)
4000dede:	e8 41 cb ff ff       	call   4000aa24 <strlen>
4000dee3:	83 c0 01             	add    $0x1,%eax
4000dee6:	8d 14 03             	lea    (%ebx,%eax,1),%edx
4000dee9:	8b 45 08             	mov    0x8(%ebp),%eax
4000deec:	89 10                	mov    %edx,(%eax)
4000deee:	83 c4 14             	add    $0x14,%esp
4000def1:	5b                   	pop    %ebx
4000def2:	5d                   	pop    %ebp
4000def3:	c3                   	ret    

4000def4 <packdata>:
4000def4:	55                   	push   %ebp
4000def5:	89 e5                	mov    %esp,%ebp
4000def7:	83 ec 18             	sub    $0x18,%esp
4000defa:	8b 45 08             	mov    0x8(%ebp),%eax
4000defd:	8b 00                	mov    (%eax),%eax
4000deff:	89 c2                	mov    %eax,%edx
4000df01:	8b 45 10             	mov    0x10(%ebp),%eax
4000df04:	89 02                	mov    %eax,(%edx)
4000df06:	8b 45 08             	mov    0x8(%ebp),%eax
4000df09:	8b 00                	mov    (%eax),%eax
4000df0b:	8d 50 04             	lea    0x4(%eax),%edx
4000df0e:	8b 45 08             	mov    0x8(%ebp),%eax
4000df11:	89 10                	mov    %edx,(%eax)
4000df13:	8b 45 08             	mov    0x8(%ebp),%eax
4000df16:	8b 10                	mov    (%eax),%edx
4000df18:	8b 45 10             	mov    0x10(%ebp),%eax
4000df1b:	89 44 24 08          	mov    %eax,0x8(%esp)
4000df1f:	8b 45 0c             	mov    0xc(%ebp),%eax
4000df22:	89 44 24 04          	mov    %eax,0x4(%esp)
4000df26:	89 14 24             	mov    %edx,(%esp)
4000df29:	e8 3e c7 ff ff       	call   4000a66c <memcpy>
4000df2e:	8b 45 08             	mov    0x8(%ebp),%eax
4000df31:	8b 00                	mov    (%eax),%eax
4000df33:	89 c2                	mov    %eax,%edx
4000df35:	03 55 10             	add    0x10(%ebp),%edx
4000df38:	8b 45 08             	mov    0x8(%ebp),%eax
4000df3b:	89 10                	mov    %edx,(%eax)
4000df3d:	c9                   	leave  
4000df3e:	c3                   	ret    

4000df3f <unpackstr>:
4000df3f:	55                   	push   %ebp
4000df40:	89 e5                	mov    %esp,%ebp
4000df42:	53                   	push   %ebx
4000df43:	83 ec 04             	sub    $0x4,%esp
4000df46:	8b 45 08             	mov    0x8(%ebp),%eax
4000df49:	8b 00                	mov    (%eax),%eax
4000df4b:	89 c2                	mov    %eax,%edx
4000df4d:	8b 45 0c             	mov    0xc(%ebp),%eax
4000df50:	89 10                	mov    %edx,(%eax)
4000df52:	8b 45 08             	mov    0x8(%ebp),%eax
4000df55:	8b 18                	mov    (%eax),%ebx
4000df57:	8b 45 08             	mov    0x8(%ebp),%eax
4000df5a:	8b 00                	mov    (%eax),%eax
4000df5c:	89 04 24             	mov    %eax,(%esp)
4000df5f:	e8 c0 ca ff ff       	call   4000aa24 <strlen>
4000df64:	83 c0 01             	add    $0x1,%eax
4000df67:	8d 14 03             	lea    (%ebx,%eax,1),%edx
4000df6a:	8b 45 08             	mov    0x8(%ebp),%eax
4000df6d:	89 10                	mov    %edx,(%eax)
4000df6f:	83 c4 04             	add    $0x4,%esp
4000df72:	5b                   	pop    %ebx
4000df73:	5d                   	pop    %ebp
4000df74:	c3                   	ret    

4000df75 <unpackdata>:
4000df75:	55                   	push   %ebp
4000df76:	89 e5                	mov    %esp,%ebp
4000df78:	83 ec 28             	sub    $0x28,%esp
4000df7b:	8b 45 08             	mov    0x8(%ebp),%eax
4000df7e:	8b 00                	mov    (%eax),%eax
4000df80:	8b 00                	mov    (%eax),%eax
4000df82:	89 45 fc             	mov    %eax,-0x4(%ebp)
4000df85:	8b 45 08             	mov    0x8(%ebp),%eax
4000df88:	8b 00                	mov    (%eax),%eax
4000df8a:	8d 50 04             	lea    0x4(%eax),%edx
4000df8d:	8b 45 08             	mov    0x8(%ebp),%eax
4000df90:	89 10                	mov    %edx,(%eax)
4000df92:	8b 55 fc             	mov    -0x4(%ebp),%edx
4000df95:	8b 45 08             	mov    0x8(%ebp),%eax
4000df98:	8b 00                	mov    (%eax),%eax
4000df9a:	89 54 24 08          	mov    %edx,0x8(%esp)
4000df9e:	89 44 24 04          	mov    %eax,0x4(%esp)
4000dfa2:	8b 45 0c             	mov    0xc(%ebp),%eax
4000dfa5:	89 04 24             	mov    %eax,(%esp)
4000dfa8:	e8 bf c6 ff ff       	call   4000a66c <memcpy>
4000dfad:	8b 45 08             	mov    0x8(%ebp),%eax
4000dfb0:	8b 10                	mov    (%eax),%edx
4000dfb2:	8b 45 fc             	mov    -0x4(%ebp),%eax
4000dfb5:	01 c2                	add    %eax,%edx
4000dfb7:	8b 45 08             	mov    0x8(%ebp),%eax
4000dfba:	89 10                	mov    %edx,(%eax)
4000dfbc:	c9                   	leave  
4000dfbd:	c3                   	ret    
4000dfbe:	90                   	nop    
4000dfbf:	90                   	nop    

4000dfc0 <cmos_read>:
4000dfc0:	55                   	push   %ebp
4000dfc1:	89 e5                	mov    %esp,%ebp
4000dfc3:	83 ec 18             	sub    $0x18,%esp
4000dfc6:	c7 04 24 70 00 00 00 	movl   $0x70,(%esp)
4000dfcd:	e8 55 00 00 00       	call   4000e027 <inb>
4000dfd2:	89 c2                	mov    %eax,%edx
4000dfd4:	83 e2 80             	and    $0xffffff80,%edx
4000dfd7:	8b 45 08             	mov    0x8(%ebp),%eax
4000dfda:	83 e0 7f             	and    $0x7f,%eax
4000dfdd:	09 d0                	or     %edx,%eax
4000dfdf:	0f b6 c0             	movzbl %al,%eax
4000dfe2:	89 44 24 04          	mov    %eax,0x4(%esp)
4000dfe6:	c7 04 24 70 00 00 00 	movl   $0x70,(%esp)
4000dfed:	e8 17 00 00 00       	call   4000e009 <outb>
4000dff2:	c7 04 24 71 00 00 00 	movl   $0x71,(%esp)
4000dff9:	e8 29 00 00 00       	call   4000e027 <inb>
4000dffe:	0f b6 c0             	movzbl %al,%eax
4000e001:	89 45 fc             	mov    %eax,-0x4(%ebp)
4000e004:	8b 45 fc             	mov    -0x4(%ebp),%eax
4000e007:	c9                   	leave  
4000e008:	c3                   	ret    

4000e009 <outb>:
4000e009:	55                   	push   %ebp
4000e00a:	89 e5                	mov    %esp,%ebp
4000e00c:	83 ec 08             	sub    $0x8,%esp
4000e00f:	8b 45 08             	mov    0x8(%ebp),%eax
4000e012:	8b 55 0c             	mov    0xc(%ebp),%edx
4000e015:	66 89 45 fc          	mov    %ax,-0x4(%ebp)
4000e019:	88 55 f8             	mov    %dl,-0x8(%ebp)
4000e01c:	0f b6 45 f8          	movzbl -0x8(%ebp),%eax
4000e020:	0f b7 55 fc          	movzwl -0x4(%ebp),%edx
4000e024:	ee                   	out    %al,(%dx)
4000e025:	c9                   	leave  
4000e026:	c3                   	ret    

4000e027 <inb>:
4000e027:	55                   	push   %ebp
4000e028:	89 e5                	mov    %esp,%ebp
4000e02a:	83 ec 14             	sub    $0x14,%esp
4000e02d:	8b 45 08             	mov    0x8(%ebp),%eax
4000e030:	66 89 45 ec          	mov    %ax,-0x14(%ebp)
4000e034:	0f b7 55 ec          	movzwl -0x14(%ebp),%edx
4000e038:	ec                   	in     (%dx),%al
4000e039:	88 45 ff             	mov    %al,-0x1(%ebp)
4000e03c:	0f b6 45 ff          	movzbl -0x1(%ebp),%eax
4000e040:	c9                   	leave  
4000e041:	c3                   	ret    

4000e042 <cmos_write>:
4000e042:	55                   	push   %ebp
4000e043:	89 e5                	mov    %esp,%ebp
4000e045:	83 ec 08             	sub    $0x8,%esp
4000e048:	c7 04 24 70 00 00 00 	movl   $0x70,(%esp)
4000e04f:	e8 d3 ff ff ff       	call   4000e027 <inb>
4000e054:	89 c2                	mov    %eax,%edx
4000e056:	83 e2 80             	and    $0xffffff80,%edx
4000e059:	8b 45 08             	mov    0x8(%ebp),%eax
4000e05c:	83 e0 7f             	and    $0x7f,%eax
4000e05f:	09 d0                	or     %edx,%eax
4000e061:	0f b6 c0             	movzbl %al,%eax
4000e064:	89 44 24 04          	mov    %eax,0x4(%esp)
4000e068:	c7 04 24 70 00 00 00 	movl   $0x70,(%esp)
4000e06f:	e8 95 ff ff ff       	call   4000e009 <outb>
4000e074:	8b 45 0c             	mov    0xc(%ebp),%eax
4000e077:	0f b6 c0             	movzbl %al,%eax
4000e07a:	89 44 24 04          	mov    %eax,0x4(%esp)
4000e07e:	c7 04 24 71 00 00 00 	movl   $0x71,(%esp)
4000e085:	e8 7f ff ff ff       	call   4000e009 <outb>
4000e08a:	c9                   	leave  
4000e08b:	c3                   	ret    

4000e08c <_irq_init>:
4000e08c:	55                   	push   %ebp
4000e08d:	89 e5                	mov    %esp,%ebp
4000e08f:	53                   	push   %ebx
4000e090:	83 ec 14             	sub    $0x14,%esp
4000e093:	c7 45 f8 00 00 00 00 	movl   $0x0,-0x8(%ebp)
4000e09a:	eb 13                	jmp    4000e0af <_irq_init+0x23>
4000e09c:	8b 5d f8             	mov    -0x8(%ebp),%ebx
4000e09f:	e8 c0 cf ff ff       	call   4000b064 <llist_create>
4000e0a4:	89 04 9d c0 1b 01 40 	mov    %eax,0x40011bc0(,%ebx,4)
4000e0ab:	83 45 f8 01          	addl   $0x1,-0x8(%ebp)
4000e0af:	83 7d f8 0f          	cmpl   $0xf,-0x8(%ebp)
4000e0b3:	76 e7                	jbe    4000e09c <_irq_init+0x10>
4000e0b5:	b8 00 00 00 00       	mov    $0x0,%eax
4000e0ba:	83 c4 14             	add    $0x14,%esp
4000e0bd:	5b                   	pop    %ebx
4000e0be:	5d                   	pop    %ebp
4000e0bf:	c3                   	ret    

4000e0c0 <irq_reghandler>:
4000e0c0:	55                   	push   %ebp
4000e0c1:	89 e5                	mov    %esp,%ebp
4000e0c3:	83 ec 28             	sub    $0x28,%esp
4000e0c6:	83 7d 08 0f          	cmpl   $0xf,0x8(%ebp)
4000e0ca:	0f 87 92 00 00 00    	ja     4000e162 <irq_reghandler+0xa2>
4000e0d0:	8b 45 08             	mov    0x8(%ebp),%eax
4000e0d3:	8b 04 85 c0 1b 01 40 	mov    0x40011bc0(,%eax,4),%eax
4000e0da:	89 04 24             	mov    %eax,(%esp)
4000e0dd:	e8 d1 cf ff ff       	call   4000b0b3 <llist_size>
4000e0e2:	85 c0                	test   %eax,%eax
4000e0e4:	75 31                	jne    4000e117 <irq_reghandler+0x57>
4000e0e6:	c7 44 24 0c 40 f2 00 	movl   $0x4000f240,0xc(%esp)
4000e0ed:	40 
4000e0ee:	8b 45 08             	mov    0x8(%ebp),%eax
4000e0f1:	89 44 24 08          	mov    %eax,0x8(%esp)
4000e0f5:	c7 44 24 04 02 00 00 	movl   $0x2,0x4(%esp)
4000e0fc:	00 
4000e0fd:	c7 04 24 4a 00 00 00 	movl   $0x4a,(%esp)
4000e104:	e8 c7 e8 ff ff       	call   4000c9d0 <syscall_call>
4000e109:	83 f8 ff             	cmp    $0xffffffff,%eax
4000e10c:	75 09                	jne    4000e117 <irq_reghandler+0x57>
4000e10e:	c7 45 ec ff ff ff ff 	movl   $0xffffffff,-0x14(%ebp)
4000e115:	eb 52                	jmp    4000e169 <irq_reghandler+0xa9>
4000e117:	c7 04 24 0c 00 00 00 	movl   $0xc,(%esp)
4000e11e:	e8 b1 93 ff ff       	call   400074d4 <malloc>
4000e123:	89 45 fc             	mov    %eax,-0x4(%ebp)
4000e126:	8b 55 fc             	mov    -0x4(%ebp),%edx
4000e129:	8b 45 0c             	mov    0xc(%ebp),%eax
4000e12c:	89 02                	mov    %eax,(%edx)
4000e12e:	8b 55 fc             	mov    -0x4(%ebp),%edx
4000e131:	8b 45 10             	mov    0x10(%ebp),%eax
4000e134:	89 42 04             	mov    %eax,0x4(%edx)
4000e137:	8b 55 fc             	mov    -0x4(%ebp),%edx
4000e13a:	8b 45 14             	mov    0x14(%ebp),%eax
4000e13d:	89 42 08             	mov    %eax,0x8(%edx)
4000e140:	8b 45 08             	mov    0x8(%ebp),%eax
4000e143:	8b 14 85 c0 1b 01 40 	mov    0x40011bc0(,%eax,4),%edx
4000e14a:	8b 45 fc             	mov    -0x4(%ebp),%eax
4000e14d:	89 44 24 04          	mov    %eax,0x4(%esp)
4000e151:	89 14 24             	mov    %edx,(%esp)
4000e154:	e8 86 cf ff ff       	call   4000b0df <llist_push>
4000e159:	c7 45 ec 00 00 00 00 	movl   $0x0,-0x14(%ebp)
4000e160:	eb 07                	jmp    4000e169 <irq_reghandler+0xa9>
4000e162:	c7 45 ec ff ff ff ff 	movl   $0xffffffff,-0x14(%ebp)
4000e169:	8b 45 ec             	mov    -0x14(%ebp),%eax
4000e16c:	c9                   	leave  
4000e16d:	c3                   	ret    

4000e16e <_irq_handler>:
4000e16e:	55                   	push   %ebp
4000e16f:	89 e5                	mov    %esp,%ebp
4000e171:	83 ec 18             	sub    $0x18,%esp
4000e174:	83 7d 08 0f          	cmpl   $0xf,0x8(%ebp)
4000e178:	0f 87 8f 00 00 00    	ja     4000e20d <_irq_handler+0x9f>
4000e17e:	a1 a0 1b 01 40       	mov    0x40011ba0,%eax
4000e183:	85 c0                	test   %eax,%eax
4000e185:	0f 85 82 00 00 00    	jne    4000e20d <_irq_handler+0x9f>
4000e18b:	c7 45 f0 00 00 00 00 	movl   $0x0,-0x10(%ebp)
4000e192:	eb 57                	jmp    4000e1eb <_irq_handler+0x7d>
4000e194:	c7 05 a0 1b 01 40 01 	movl   $0x1,0x40011ba0
4000e19b:	00 00 00 
4000e19e:	8b 45 f4             	mov    -0xc(%ebp),%eax
4000e1a1:	8b 40 08             	mov    0x8(%eax),%eax
4000e1a4:	85 c0                	test   %eax,%eax
4000e1a6:	74 1f                	je     4000e1c7 <_irq_handler+0x59>
4000e1a8:	8b 45 f4             	mov    -0xc(%ebp),%eax
4000e1ab:	8b 00                	mov    (%eax),%eax
4000e1ad:	89 45 f8             	mov    %eax,-0x8(%ebp)
4000e1b0:	8b 45 f4             	mov    -0xc(%ebp),%eax
4000e1b3:	8b 40 04             	mov    0x4(%eax),%eax
4000e1b6:	89 44 24 04          	mov    %eax,0x4(%esp)
4000e1ba:	8b 45 08             	mov    0x8(%ebp),%eax
4000e1bd:	89 04 24             	mov    %eax,(%esp)
4000e1c0:	8b 45 f8             	mov    -0x8(%ebp),%eax
4000e1c3:	ff d0                	call   *%eax
4000e1c5:	eb 16                	jmp    4000e1dd <_irq_handler+0x6f>
4000e1c7:	8b 45 f4             	mov    -0xc(%ebp),%eax
4000e1ca:	8b 00                	mov    (%eax),%eax
4000e1cc:	89 45 fc             	mov    %eax,-0x4(%ebp)
4000e1cf:	8b 45 f4             	mov    -0xc(%ebp),%eax
4000e1d2:	8b 40 04             	mov    0x4(%eax),%eax
4000e1d5:	89 04 24             	mov    %eax,(%esp)
4000e1d8:	8b 45 fc             	mov    -0x4(%ebp),%eax
4000e1db:	ff d0                	call   *%eax
4000e1dd:	c7 05 a0 1b 01 40 00 	movl   $0x0,0x40011ba0
4000e1e4:	00 00 00 
4000e1e7:	83 45 f0 01          	addl   $0x1,-0x10(%ebp)
4000e1eb:	8b 45 08             	mov    0x8(%ebp),%eax
4000e1ee:	8b 14 85 c0 1b 01 40 	mov    0x40011bc0(,%eax,4),%edx
4000e1f5:	8b 45 f0             	mov    -0x10(%ebp),%eax
4000e1f8:	89 44 24 04          	mov    %eax,0x4(%esp)
4000e1fc:	89 14 24             	mov    %edx,(%esp)
4000e1ff:	e8 13 d0 ff ff       	call   4000b217 <llist_get>
4000e204:	89 45 f4             	mov    %eax,-0xc(%ebp)
4000e207:	83 7d f4 00          	cmpl   $0x0,-0xc(%ebp)
4000e20b:	75 87                	jne    4000e194 <_irq_handler+0x26>
4000e20d:	c9                   	leave  
4000e20e:	c3                   	ret    

4000e20f <irq_sleep>:
4000e20f:	55                   	push   %ebp
4000e210:	89 e5                	mov    %esp,%ebp
4000e212:	83 ec 18             	sub    $0x18,%esp
4000e215:	83 7d 08 0f          	cmpl   $0xf,0x8(%ebp)
4000e219:	77 24                	ja     4000e23f <irq_sleep+0x30>
4000e21b:	8b 45 08             	mov    0x8(%ebp),%eax
4000e21e:	89 44 24 08          	mov    %eax,0x8(%esp)
4000e222:	c7 44 24 04 01 00 00 	movl   $0x1,0x4(%esp)
4000e229:	00 
4000e22a:	c7 04 24 4b 00 00 00 	movl   $0x4b,(%esp)
4000e231:	e8 9a e7 ff ff       	call   4000c9d0 <syscall_call>
4000e236:	c7 45 fc 00 00 00 00 	movl   $0x0,-0x4(%ebp)
4000e23d:	eb 07                	jmp    4000e246 <irq_sleep+0x37>
4000e23f:	c7 45 fc ff ff ff ff 	movl   $0xffffffff,-0x4(%ebp)
4000e246:	8b 45 fc             	mov    -0x4(%ebp),%eax
4000e249:	c9                   	leave  
4000e24a:	c3                   	ret    
4000e24b:	90                   	nop    

4000e24c <snprintf>:
4000e24c:	55                   	push   %ebp
4000e24d:	89 e5                	mov    %esp,%ebp
4000e24f:	83 ec 28             	sub    $0x28,%esp
4000e252:	8d 45 14             	lea    0x14(%ebp),%eax
4000e255:	89 45 f8             	mov    %eax,-0x8(%ebp)
4000e258:	8b 45 f8             	mov    -0x8(%ebp),%eax
4000e25b:	89 44 24 0c          	mov    %eax,0xc(%esp)
4000e25f:	8b 45 10             	mov    0x10(%ebp),%eax
4000e262:	89 44 24 08          	mov    %eax,0x8(%esp)
4000e266:	8b 45 0c             	mov    0xc(%ebp),%eax
4000e269:	89 44 24 04          	mov    %eax,0x4(%esp)
4000e26d:	8b 45 08             	mov    0x8(%ebp),%eax
4000e270:	89 04 24             	mov    %eax,(%esp)
4000e273:	e8 51 bb ff ff       	call   40009dc9 <vsnprintf>
4000e278:	89 45 fc             	mov    %eax,-0x4(%ebp)
4000e27b:	8b 45 fc             	mov    -0x4(%ebp),%eax
4000e27e:	c9                   	leave  
4000e27f:	c3                   	ret    

4000e280 <__udivdi3>:
#endif

#ifdef L_udivdi3
UDWtype
__udivdi3 (UDWtype n, UDWtype d)
{
4000e280:	55                   	push   %ebp
4000e281:	89 e5                	mov    %esp,%ebp
4000e283:	57                   	push   %edi
4000e284:	56                   	push   %esi
4000e285:	83 ec 20             	sub    $0x20,%esp
4000e288:	c7 45 e0 00 00 00 00 	movl   $0x0,-0x20(%ebp)
4000e28f:	8b 45 10             	mov    0x10(%ebp),%eax
4000e292:	8b 55 14             	mov    0x14(%ebp),%edx
  DWunion rr;
  UWtype d0, d1, n0, n1, n2;
  UWtype q0, q1;
  UWtype b, bm;

  d0 = dd.s.low;
4000e295:	89 45 f4             	mov    %eax,-0xc(%ebp)
4000e298:	89 c1                	mov    %eax,%ecx
  d1 = dd.s.high;
  n0 = nn.s.low;
4000e29a:	8b 45 08             	mov    0x8(%ebp),%eax
4000e29d:	c7 45 e4 00 00 00 00 	movl   $0x0,-0x1c(%ebp)
  UWtype d0, d1, n0, n1, n2;
  UWtype q0, q1;
  UWtype b, bm;

  d0 = dd.s.low;
  d1 = dd.s.high;
4000e2a4:	89 d7                	mov    %edx,%edi
  n0 = nn.s.low;
4000e2a6:	89 45 ec             	mov    %eax,-0x14(%ebp)
  n1 = nn.s.high;
4000e2a9:	8b 75 0c             	mov    0xc(%ebp),%esi

#if !UDIV_NEEDS_NORMALIZATION
  if (d1 == 0)
4000e2ac:	85 d2                	test   %edx,%edx
4000e2ae:	75 30                	jne    4000e2e0 <__udivdi3+0x60>
    {
      if (d0 > n1)
4000e2b0:	39 f1                	cmp    %esi,%ecx
4000e2b2:	0f 86 a8 00 00 00    	jbe    4000e360 <__udivdi3+0xe0>
	{
	  /* 0q = nn / 0D */

	  udiv_qrnnd (q0, n0, n1, n0, d0);
4000e2b8:	89 f2                	mov    %esi,%edx
4000e2ba:	f7 f1                	div    %ecx
4000e2bc:	89 c1                	mov    %eax,%ecx
4000e2be:	31 c0                	xor    %eax,%eax
		}
	    }
	}
    }

  const DWunion ww = {{.low = q0, .high = q1}};
4000e2c0:	89 4d e0             	mov    %ecx,-0x20(%ebp)
4000e2c3:	89 45 e4             	mov    %eax,-0x1c(%ebp)
#ifdef L_udivdi3
UDWtype
__udivdi3 (UDWtype n, UDWtype d)
{
  return __udivmoddi4 (n, d, (UDWtype *) 0);
}
4000e2c6:	8b 45 e0             	mov    -0x20(%ebp),%eax
4000e2c9:	8b 55 e4             	mov    -0x1c(%ebp),%edx
4000e2cc:	83 c4 20             	add    $0x20,%esp
4000e2cf:	5e                   	pop    %esi
4000e2d0:	5f                   	pop    %edi
4000e2d1:	5d                   	pop    %ebp
4000e2d2:	c3                   	ret    
4000e2d3:	8d b6 00 00 00 00    	lea    0x0(%esi),%esi
4000e2d9:	8d bc 27 00 00 00 00 	lea    0x0(%edi),%edi
    }
#endif /* UDIV_NEEDS_NORMALIZATION */

  else
    {
      if (d1 > n1)
4000e2e0:	39 f2                	cmp    %esi,%edx
4000e2e2:	0f 87 b8 00 00 00    	ja     4000e3a0 <__udivdi3+0x120>
	}
      else
	{
	  /* 0q = NN / dd */

	  count_leading_zeros (bm, d1);
4000e2e8:	0f bd c2             	bsr    %edx,%eax
	  if (bm == 0)
4000e2eb:	83 f0 1f             	xor    $0x1f,%eax
4000e2ee:	89 45 e8             	mov    %eax,-0x18(%ebp)
4000e2f1:	0f 84 99 00 00 00    	je     4000e390 <__udivdi3+0x110>
	      UWtype m1, m0;
	      /* Normalize.  */

	      b = W_TYPE_SIZE - bm;

	      d1 = (d1 << bm) | (d0 >> b);
4000e2f7:	8b 55 e8             	mov    -0x18(%ebp),%edx
4000e2fa:	b8 20 00 00 00       	mov    $0x20,%eax
4000e2ff:	29 d0                	sub    %edx,%eax
4000e301:	8b 55 f4             	mov    -0xc(%ebp),%edx
4000e304:	89 45 f0             	mov    %eax,-0x10(%ebp)
4000e307:	89 f8                	mov    %edi,%eax
4000e309:	8a 4d f0             	mov    -0x10(%ebp),%cl
	      d0 = d0 << bm;
4000e30c:	8b 7d f4             	mov    -0xc(%ebp),%edi
	      UWtype m1, m0;
	      /* Normalize.  */

	      b = W_TYPE_SIZE - bm;

	      d1 = (d1 << bm) | (d0 >> b);
4000e30f:	d3 ea                	shr    %cl,%edx
4000e311:	8a 4d e8             	mov    -0x18(%ebp),%cl
4000e314:	d3 e0                	shl    %cl,%eax
4000e316:	09 c2                	or     %eax,%edx
	      d0 = d0 << bm;
	      n2 = n1 >> b;
	      n1 = (n1 << bm) | (n0 >> b);
4000e318:	8b 45 ec             	mov    -0x14(%ebp),%eax
	      /* Normalize.  */

	      b = W_TYPE_SIZE - bm;

	      d1 = (d1 << bm) | (d0 >> b);
	      d0 = d0 << bm;
4000e31b:	d3 e7                	shl    %cl,%edi
	      n2 = n1 >> b;
	      n1 = (n1 << bm) | (n0 >> b);
4000e31d:	8a 4d f0             	mov    -0x10(%ebp),%cl
	      UWtype m1, m0;
	      /* Normalize.  */

	      b = W_TYPE_SIZE - bm;

	      d1 = (d1 << bm) | (d0 >> b);
4000e320:	89 55 dc             	mov    %edx,-0x24(%ebp)
	      d0 = d0 << bm;
	      n2 = n1 >> b;
	      n1 = (n1 << bm) | (n0 >> b);
4000e323:	d3 e8                	shr    %cl,%eax
4000e325:	89 f2                	mov    %esi,%edx
4000e327:	8a 4d e8             	mov    -0x18(%ebp),%cl
4000e32a:	d3 e2                	shl    %cl,%edx
	      n0 = n0 << bm;

	      udiv_qrnnd (q0, n1, n2, n1, d1);
4000e32c:	8a 4d f0             	mov    -0x10(%ebp),%cl
	      b = W_TYPE_SIZE - bm;

	      d1 = (d1 << bm) | (d0 >> b);
	      d0 = d0 << bm;
	      n2 = n1 >> b;
	      n1 = (n1 << bm) | (n0 >> b);
4000e32f:	09 d0                	or     %edx,%eax
	      n0 = n0 << bm;

	      udiv_qrnnd (q0, n1, n2, n1, d1);
4000e331:	d3 ee                	shr    %cl,%esi
4000e333:	89 f2                	mov    %esi,%edx
4000e335:	89 75 d8             	mov    %esi,-0x28(%ebp)
4000e338:	f7 75 dc             	divl   -0x24(%ebp)
4000e33b:	89 d1                	mov    %edx,%ecx
4000e33d:	89 45 d8             	mov    %eax,-0x28(%ebp)
	      umul_ppmm (m1, m0, q0, d0);
4000e340:	f7 e7                	mul    %edi
4000e342:	89 c6                	mov    %eax,%esi

	      if (m1 > n1 || (m1 == n1 && m0 > n0))
4000e344:	39 d1                	cmp    %edx,%ecx
4000e346:	0f 82 7c 00 00 00    	jb     4000e3c8 <__udivdi3+0x148>
4000e34c:	39 ca                	cmp    %ecx,%edx
4000e34e:	74 6c                	je     4000e3bc <__udivdi3+0x13c>
4000e350:	8b 4d d8             	mov    -0x28(%ebp),%ecx
4000e353:	31 c0                	xor    %eax,%eax
4000e355:	e9 66 ff ff ff       	jmp    4000e2c0 <__udivdi3+0x40>
4000e35a:	8d b6 00 00 00 00    	lea    0x0(%esi),%esi
	}
      else
	{
	  /* qq = NN / 0d */

	  if (d0 == 0)
4000e360:	8b 45 f4             	mov    -0xc(%ebp),%eax
4000e363:	85 c0                	test   %eax,%eax
4000e365:	75 0c                	jne    4000e373 <__udivdi3+0xf3>
	    d0 = 1 / d0;	/* Divide intentionally by zero.  */
4000e367:	b8 01 00 00 00       	mov    $0x1,%eax
4000e36c:	31 d2                	xor    %edx,%edx
4000e36e:	f7 75 f4             	divl   -0xc(%ebp)
4000e371:	89 c1                	mov    %eax,%ecx

	  udiv_qrnnd (q1, n1, 0, n1, d0);
4000e373:	89 f0                	mov    %esi,%eax
4000e375:	89 fa                	mov    %edi,%edx
4000e377:	f7 f1                	div    %ecx
4000e379:	89 c6                	mov    %eax,%esi
	  udiv_qrnnd (q0, n0, n1, n0, d0);
4000e37b:	8b 45 ec             	mov    -0x14(%ebp),%eax
4000e37e:	f7 f1                	div    %ecx
4000e380:	89 c1                	mov    %eax,%ecx
4000e382:	89 f0                	mov    %esi,%eax
4000e384:	e9 37 ff ff ff       	jmp    4000e2c0 <__udivdi3+0x40>
4000e389:	8d b4 26 00 00 00 00 	lea    0x0(%esi),%esi

		 This special case is necessary, not an optimization.  */

	      /* The condition on the next line takes advantage of that
		 n1 >= d1 (true due to program flow).  */
	      if (n1 > d1 || n0 >= d0)
4000e390:	39 d6                	cmp    %edx,%esi
4000e392:	77 1c                	ja     4000e3b0 <__udivdi3+0x130>
4000e394:	8b 55 f4             	mov    -0xc(%ebp),%edx
4000e397:	39 55 ec             	cmp    %edx,-0x14(%ebp)
4000e39a:	73 14                	jae    4000e3b0 <__udivdi3+0x130>
4000e39c:	8d 74 26 00          	lea    0x0(%esi),%esi
	      umul_ppmm (m1, m0, q0, d0);

	      if (m1 > n1 || (m1 == n1 && m0 > n0))
		{
		  q0--;
		  sub_ddmmss (m1, m0, m1, m0, d1, d0);
4000e3a0:	31 c9                	xor    %ecx,%ecx
4000e3a2:	31 c0                	xor    %eax,%eax
4000e3a4:	e9 17 ff ff ff       	jmp    4000e2c0 <__udivdi3+0x40>
4000e3a9:	8d b4 26 00 00 00 00 	lea    0x0(%esi),%esi
	      /* The condition on the next line takes advantage of that
		 n1 >= d1 (true due to program flow).  */
	      if (n1 > d1 || n0 >= d0)
		{
		  q0 = 1;
		  sub_ddmmss (n1, n0, n1, n0, d1, d0);
4000e3b0:	b9 01 00 00 00       	mov    $0x1,%ecx
4000e3b5:	31 c0                	xor    %eax,%eax
4000e3b7:	e9 04 ff ff ff       	jmp    4000e2c0 <__udivdi3+0x40>
	      n0 = n0 << bm;

	      udiv_qrnnd (q0, n1, n2, n1, d1);
	      umul_ppmm (m1, m0, q0, d0);

	      if (m1 > n1 || (m1 == n1 && m0 > n0))
4000e3bc:	8b 45 ec             	mov    -0x14(%ebp),%eax
4000e3bf:	8a 4d e8             	mov    -0x18(%ebp),%cl
4000e3c2:	d3 e0                	shl    %cl,%eax
4000e3c4:	39 c6                	cmp    %eax,%esi
4000e3c6:	76 88                	jbe    4000e350 <__udivdi3+0xd0>
		{
		  q0--;
		  sub_ddmmss (m1, m0, m1, m0, d1, d0);
4000e3c8:	8b 4d d8             	mov    -0x28(%ebp),%ecx
4000e3cb:	31 c0                	xor    %eax,%eax
4000e3cd:	49                   	dec    %ecx
4000e3ce:	e9 ed fe ff ff       	jmp    4000e2c0 <__udivdi3+0x40>
4000e3d3:	90                   	nop    
4000e3d4:	90                   	nop    
4000e3d5:	90                   	nop    
4000e3d6:	90                   	nop    
4000e3d7:	90                   	nop    
4000e3d8:	90                   	nop    
4000e3d9:	90                   	nop    
4000e3da:	90                   	nop    
4000e3db:	90                   	nop    
4000e3dc:	90                   	nop    
4000e3dd:	90                   	nop    
4000e3de:	90                   	nop    
4000e3df:	90                   	nop    

4000e3e0 <__umoddi3>:
#endif

#ifdef L_umoddi3
UDWtype
__umoddi3 (UDWtype u, UDWtype v)
{
4000e3e0:	55                   	push   %ebp
4000e3e1:	89 e5                	mov    %esp,%ebp
4000e3e3:	57                   	push   %edi
4000e3e4:	56                   	push   %esi
4000e3e5:	83 ec 30             	sub    $0x30,%esp
4000e3e8:	c7 45 d0 00 00 00 00 	movl   $0x0,-0x30(%ebp)
4000e3ef:	8b 55 14             	mov    0x14(%ebp),%edx
4000e3f2:	8b 45 10             	mov    0x10(%ebp),%eax
  UWtype d0, d1, n0, n1, n2;
  UWtype q0, q1;
  UWtype b, bm;

  d0 = dd.s.low;
  d1 = dd.s.high;
4000e3f5:	89 55 e8             	mov    %edx,-0x18(%ebp)
#endif

#ifdef L_umoddi3
UDWtype
__umoddi3 (UDWtype u, UDWtype v)
{
4000e3f8:	8b 75 08             	mov    0x8(%ebp),%esi
4000e3fb:	8b 7d 0c             	mov    0xc(%ebp),%edi
  DWunion rr;
  UWtype d0, d1, n0, n1, n2;
  UWtype q0, q1;
  UWtype b, bm;

  d0 = dd.s.low;
4000e3fe:	89 45 ec             	mov    %eax,-0x14(%ebp)
4000e401:	89 c1                	mov    %eax,%ecx
  d1 = dd.s.high;
  n0 = nn.s.low;
  n1 = nn.s.high;

#if !UDIV_NEEDS_NORMALIZATION
  if (d1 == 0)
4000e403:	8b 45 e8             	mov    -0x18(%ebp),%eax
4000e406:	c7 45 d4 00 00 00 00 	movl   $0x0,-0x2c(%ebp)
  UWtype q0, q1;
  UWtype b, bm;

  d0 = dd.s.low;
  d1 = dd.s.high;
  n0 = nn.s.low;
4000e40d:	89 75 e4             	mov    %esi,-0x1c(%ebp)
4000e410:	89 75 f0             	mov    %esi,-0x10(%ebp)
  n1 = nn.s.high;
4000e413:	89 7d e0             	mov    %edi,-0x20(%ebp)
4000e416:	89 fa                	mov    %edi,%edx

#if !UDIV_NEEDS_NORMALIZATION
  if (d1 == 0)
4000e418:	85 c0                	test   %eax,%eax
4000e41a:	75 14                	jne    4000e430 <__umoddi3+0x50>
    {
      if (d0 > n1)
4000e41c:	39 f9                	cmp    %edi,%ecx
4000e41e:	76 60                	jbe    4000e480 <__umoddi3+0xa0>
	{
	  /* 0q = nn / 0D */

	  udiv_qrnnd (q0, n0, n1, n0, d0);
4000e420:	89 f0                	mov    %esi,%eax
4000e422:	f7 f1                	div    %ecx
	  /* Remainder in n0.  */
	}

      if (rp != 0)
	{
	  rr.s.low = n0;
4000e424:	89 55 d0             	mov    %edx,-0x30(%ebp)
	  rr.s.high = 0;
4000e427:	c7 45 d4 00 00 00 00 	movl   $0x0,-0x2c(%ebp)
4000e42e:	eb 10                	jmp    4000e440 <__umoddi3+0x60>
    }
#endif /* UDIV_NEEDS_NORMALIZATION */

  else
    {
      if (d1 > n1)
4000e430:	8b 4d e0             	mov    -0x20(%ebp),%ecx
4000e433:	39 4d e8             	cmp    %ecx,-0x18(%ebp)
4000e436:	76 18                	jbe    4000e450 <__umoddi3+0x70>
	  q1 = 0;

	  /* Remainder in n1n0.  */
	  if (rp != 0)
	    {
	      rr.s.low = n0;
4000e438:	89 75 d0             	mov    %esi,-0x30(%ebp)
	      rr.s.high = n1;
4000e43b:	89 7d d4             	mov    %edi,-0x2c(%ebp)
4000e43e:	66 90                	xchg   %ax,%ax
  UDWtype w;

  (void) __udivmoddi4 (u, v, &w);

  return w;
}
4000e440:	8b 45 d0             	mov    -0x30(%ebp),%eax
4000e443:	8b 55 d4             	mov    -0x2c(%ebp),%edx
4000e446:	83 c4 30             	add    $0x30,%esp
4000e449:	5e                   	pop    %esi
4000e44a:	5f                   	pop    %edi
4000e44b:	5d                   	pop    %ebp
4000e44c:	c3                   	ret    
4000e44d:	8d 76 00             	lea    0x0(%esi),%esi
	}
      else
	{
	  /* 0q = NN / dd */

	  count_leading_zeros (bm, d1);
4000e450:	0f bd 45 e8          	bsr    -0x18(%ebp),%eax
	  if (bm == 0)
4000e454:	83 f0 1f             	xor    $0x1f,%eax
4000e457:	89 45 d8             	mov    %eax,-0x28(%ebp)
4000e45a:	75 54                	jne    4000e4b0 <__umoddi3+0xd0>

		 This special case is necessary, not an optimization.  */

	      /* The condition on the next line takes advantage of that
		 n1 >= d1 (true due to program flow).  */
	      if (n1 > d1 || n0 >= d0)
4000e45c:	8b 45 e8             	mov    -0x18(%ebp),%eax
4000e45f:	39 45 e0             	cmp    %eax,-0x20(%ebp)
4000e462:	0f 87 d6 00 00 00    	ja     4000e53e <__umoddi3+0x15e>
4000e468:	8b 4d ec             	mov    -0x14(%ebp),%ecx
4000e46b:	39 4d e4             	cmp    %ecx,-0x1c(%ebp)
4000e46e:	0f 83 ca 00 00 00    	jae    4000e53e <__umoddi3+0x15e>

	      q1 = 0;

	      if (rp != 0)
		{
		  rr.s.low = n0;
4000e474:	8b 4d f0             	mov    -0x10(%ebp),%ecx
		  rr.s.high = n1;
4000e477:	89 55 d4             	mov    %edx,-0x2c(%ebp)

	      q1 = 0;

	      if (rp != 0)
		{
		  rr.s.low = n0;
4000e47a:	89 4d d0             	mov    %ecx,-0x30(%ebp)
4000e47d:	eb c1                	jmp    4000e440 <__umoddi3+0x60>
4000e47f:	90                   	nop    
	}
      else
	{
	  /* qq = NN / 0d */

	  if (d0 == 0)
4000e480:	8b 75 ec             	mov    -0x14(%ebp),%esi
4000e483:	85 f6                	test   %esi,%esi
4000e485:	75 0c                	jne    4000e493 <__umoddi3+0xb3>
	    d0 = 1 / d0;	/* Divide intentionally by zero.  */
4000e487:	b8 01 00 00 00       	mov    $0x1,%eax
4000e48c:	31 d2                	xor    %edx,%edx
4000e48e:	f7 75 ec             	divl   -0x14(%ebp)
4000e491:	89 c1                	mov    %eax,%ecx

	  udiv_qrnnd (q1, n1, 0, n1, d0);
4000e493:	8b 45 e0             	mov    -0x20(%ebp),%eax
4000e496:	8b 55 e8             	mov    -0x18(%ebp),%edx
4000e499:	f7 f1                	div    %ecx
	  udiv_qrnnd (q0, n0, n1, n0, d0);
4000e49b:	8b 45 e4             	mov    -0x1c(%ebp),%eax
4000e49e:	f7 f1                	div    %ecx
4000e4a0:	eb 82                	jmp    4000e424 <__umoddi3+0x44>
4000e4a2:	8d b4 26 00 00 00 00 	lea    0x0(%esi),%esi
4000e4a9:	8d bc 27 00 00 00 00 	lea    0x0(%edi),%edi
	      UWtype m1, m0;
	      /* Normalize.  */

	      b = W_TYPE_SIZE - bm;

	      d1 = (d1 << bm) | (d0 >> b);
4000e4b0:	8b 55 d8             	mov    -0x28(%ebp),%edx
4000e4b3:	b8 20 00 00 00       	mov    $0x20,%eax
4000e4b8:	29 d0                	sub    %edx,%eax
4000e4ba:	8b 55 ec             	mov    -0x14(%ebp),%edx
4000e4bd:	89 45 dc             	mov    %eax,-0x24(%ebp)
4000e4c0:	8b 45 e8             	mov    -0x18(%ebp),%eax
4000e4c3:	8a 4d dc             	mov    -0x24(%ebp),%cl
	      d0 = d0 << bm;
4000e4c6:	8b 75 ec             	mov    -0x14(%ebp),%esi
	      UWtype m1, m0;
	      /* Normalize.  */

	      b = W_TYPE_SIZE - bm;

	      d1 = (d1 << bm) | (d0 >> b);
4000e4c9:	d3 ea                	shr    %cl,%edx
4000e4cb:	8a 4d d8             	mov    -0x28(%ebp),%cl
	      d0 = d0 << bm;
	      n2 = n1 >> b;
	      n1 = (n1 << bm) | (n0 >> b);
	      n0 = n0 << bm;
4000e4ce:	8b 7d e4             	mov    -0x1c(%ebp),%edi
	      UWtype m1, m0;
	      /* Normalize.  */

	      b = W_TYPE_SIZE - bm;

	      d1 = (d1 << bm) | (d0 >> b);
4000e4d1:	d3 e0                	shl    %cl,%eax
4000e4d3:	09 c2                	or     %eax,%edx
	      d0 = d0 << bm;
	      n2 = n1 >> b;
	      n1 = (n1 << bm) | (n0 >> b);
4000e4d5:	8b 45 e4             	mov    -0x1c(%ebp),%eax
	      /* Normalize.  */

	      b = W_TYPE_SIZE - bm;

	      d1 = (d1 << bm) | (d0 >> b);
	      d0 = d0 << bm;
4000e4d8:	d3 e6                	shl    %cl,%esi
	      n2 = n1 >> b;
	      n1 = (n1 << bm) | (n0 >> b);
4000e4da:	8a 4d dc             	mov    -0x24(%ebp),%cl
	      UWtype m1, m0;
	      /* Normalize.  */

	      b = W_TYPE_SIZE - bm;

	      d1 = (d1 << bm) | (d0 >> b);
4000e4dd:	89 55 f4             	mov    %edx,-0xc(%ebp)
	      d0 = d0 << bm;
	      n2 = n1 >> b;
	      n1 = (n1 << bm) | (n0 >> b);
4000e4e0:	d3 e8                	shr    %cl,%eax
4000e4e2:	8b 55 e0             	mov    -0x20(%ebp),%edx
4000e4e5:	8a 4d d8             	mov    -0x28(%ebp),%cl
4000e4e8:	d3 e2                	shl    %cl,%edx
4000e4ea:	09 d0                	or     %edx,%eax
	      n0 = n0 << bm;

	      udiv_qrnnd (q0, n1, n2, n1, d1);
4000e4ec:	8b 55 e0             	mov    -0x20(%ebp),%edx

	      d1 = (d1 << bm) | (d0 >> b);
	      d0 = d0 << bm;
	      n2 = n1 >> b;
	      n1 = (n1 << bm) | (n0 >> b);
	      n0 = n0 << bm;
4000e4ef:	d3 e7                	shl    %cl,%edi

	      udiv_qrnnd (q0, n1, n2, n1, d1);
4000e4f1:	8a 4d dc             	mov    -0x24(%ebp),%cl
4000e4f4:	d3 ea                	shr    %cl,%edx
4000e4f6:	f7 75 f4             	divl   -0xc(%ebp)
4000e4f9:	89 55 cc             	mov    %edx,-0x34(%ebp)
	      umul_ppmm (m1, m0, q0, d0);
4000e4fc:	f7 e6                	mul    %esi

	      if (m1 > n1 || (m1 == n1 && m0 > n0))
4000e4fe:	39 55 cc             	cmp    %edx,-0x34(%ebp)
4000e501:	72 53                	jb     4000e556 <__umoddi3+0x176>
4000e503:	3b 55 cc             	cmp    -0x34(%ebp),%edx
4000e506:	74 4a                	je     4000e552 <__umoddi3+0x172>
4000e508:	90                   	nop    
4000e509:	8d b4 26 00 00 00 00 	lea    0x0(%esi),%esi
	      q1 = 0;

	      /* Remainder in (n1n0 - m1m0) >> bm.  */
	      if (rp != 0)
		{
		  sub_ddmmss (n1, n0, n1, n0, m1, m0);
4000e510:	8b 4d cc             	mov    -0x34(%ebp),%ecx
4000e513:	29 c7                	sub    %eax,%edi
4000e515:	19 d1                	sbb    %edx,%ecx
4000e517:	89 4d cc             	mov    %ecx,-0x34(%ebp)
		  rr.s.low = (n1 << b) | (n0 >> bm);
4000e51a:	89 fa                	mov    %edi,%edx
4000e51c:	8a 4d d8             	mov    -0x28(%ebp),%cl
4000e51f:	8b 45 cc             	mov    -0x34(%ebp),%eax
4000e522:	d3 ea                	shr    %cl,%edx
4000e524:	8a 4d dc             	mov    -0x24(%ebp),%cl
4000e527:	d3 e0                	shl    %cl,%eax
4000e529:	09 c2                	or     %eax,%edx
		  rr.s.high = n1 >> bm;
4000e52b:	8a 4d d8             	mov    -0x28(%ebp),%cl
4000e52e:	8b 45 cc             	mov    -0x34(%ebp),%eax

	      /* Remainder in (n1n0 - m1m0) >> bm.  */
	      if (rp != 0)
		{
		  sub_ddmmss (n1, n0, n1, n0, m1, m0);
		  rr.s.low = (n1 << b) | (n0 >> bm);
4000e531:	89 55 d0             	mov    %edx,-0x30(%ebp)
		  rr.s.high = n1 >> bm;
4000e534:	d3 e8                	shr    %cl,%eax
4000e536:	89 45 d4             	mov    %eax,-0x2c(%ebp)
4000e539:	e9 02 ff ff ff       	jmp    4000e440 <__umoddi3+0x60>
	      /* The condition on the next line takes advantage of that
		 n1 >= d1 (true due to program flow).  */
	      if (n1 > d1 || n0 >= d0)
		{
		  q0 = 1;
		  sub_ddmmss (n1, n0, n1, n0, d1, d0);
4000e53e:	8b 55 e0             	mov    -0x20(%ebp),%edx
4000e541:	8b 45 e4             	mov    -0x1c(%ebp),%eax
4000e544:	2b 45 ec             	sub    -0x14(%ebp),%eax
4000e547:	1b 55 e8             	sbb    -0x18(%ebp),%edx
4000e54a:	89 45 f0             	mov    %eax,-0x10(%ebp)
4000e54d:	e9 22 ff ff ff       	jmp    4000e474 <__umoddi3+0x94>
	      n0 = n0 << bm;

	      udiv_qrnnd (q0, n1, n2, n1, d1);
	      umul_ppmm (m1, m0, q0, d0);

	      if (m1 > n1 || (m1 == n1 && m0 > n0))
4000e552:	39 f8                	cmp    %edi,%eax
4000e554:	76 ba                	jbe    4000e510 <__umoddi3+0x130>
		{
		  q0--;
		  sub_ddmmss (m1, m0, m1, m0, d1, d0);
4000e556:	29 f0                	sub    %esi,%eax
4000e558:	1b 55 f4             	sbb    -0xc(%ebp),%edx
4000e55b:	eb b3                	jmp    4000e510 <__umoddi3+0x130>
4000e55d:	90                   	nop    
4000e55e:	90                   	nop    
4000e55f:	90                   	nop    

4000e560 <__do_global_ctors_aux>:
4000e560:	55                   	push   %ebp
4000e561:	89 e5                	mov    %esp,%ebp
4000e563:	56                   	push   %esi
4000e564:	53                   	push   %ebx
4000e565:	e8 00 00 00 00       	call   4000e56a <__do_global_ctors_aux+0xa>
4000e56a:	5b                   	pop    %ebx
4000e56b:	81 c3 92 1d 00 00    	add    $0x1d92,%ebx
4000e571:	8d 83 e4 ff ff ff    	lea    -0x1c(%ebx),%eax
4000e577:	8d 50 fc             	lea    -0x4(%eax),%edx
4000e57a:	8b 40 fc             	mov    -0x4(%eax),%eax
4000e57d:	83 f8 ff             	cmp    $0xffffffff,%eax
4000e580:	74 1b                	je     4000e59d <__do_global_ctors_aux+0x3d>
4000e582:	89 d6                	mov    %edx,%esi
4000e584:	8d b6 00 00 00 00    	lea    0x0(%esi),%esi
4000e58a:	8d bf 00 00 00 00    	lea    0x0(%edi),%edi
4000e590:	ff d0                	call   *%eax
4000e592:	8b 46 fc             	mov    -0x4(%esi),%eax
4000e595:	83 ee 04             	sub    $0x4,%esi
4000e598:	83 f8 ff             	cmp    $0xffffffff,%eax
4000e59b:	75 f3                	jne    4000e590 <__do_global_ctors_aux+0x30>
4000e59d:	5b                   	pop    %ebx
4000e59e:	5e                   	pop    %esi
4000e59f:	5d                   	pop    %ebp
4000e5a0:	c3                   	ret    
Disassembly of section .fini:

4000e5a1 <.fini>:
4000e5a1:	e8 ca 2d ff ff       	call   40001370 <__do_global_dtors_aux>
