
console:     file format elf32-i386

Disassembly of section .init:

40001094 <.init>:
40001094:	e8 d7 01 00 00       	call   40001270 <frame_dummy>
40001099:	e8 d2 df 00 00       	call   4000f070 <__do_global_ctors_aux>
Disassembly of section .text:

400010a0 <get_cmdline>:
400010a0:	55                   	push   %ebp
400010a1:	89 e5                	mov    %esp,%ebp
400010a3:	83 ec 18             	sub    $0x18,%esp
400010a6:	8b 45 08             	mov    0x8(%ebp),%eax
400010a9:	8b 40 0c             	mov    0xc(%eax),%eax
400010ac:	89 45 f0             	mov    %eax,-0x10(%ebp)
400010af:	8b 45 f0             	mov    -0x10(%ebp),%eax
400010b2:	83 c0 01             	add    $0x1,%eax
400010b5:	c1 e0 02             	shl    $0x2,%eax
400010b8:	89 04 24             	mov    %eax,(%esp)
400010bb:	e8 90 6b 00 00       	call   40007c50 <malloc>
400010c0:	89 45 f4             	mov    %eax,-0xc(%ebp)
400010c3:	c7 45 f8 00 00 00 00 	movl   $0x0,-0x8(%ebp)
400010ca:	c7 45 fc 00 00 00 00 	movl   $0x0,-0x4(%ebp)
400010d1:	eb 34                	jmp    40001107 <get_cmdline+0x67>
400010d3:	8b 45 fc             	mov    -0x4(%ebp),%eax
400010d6:	c1 e0 02             	shl    $0x2,%eax
400010d9:	89 c2                	mov    %eax,%edx
400010db:	03 55 f4             	add    -0xc(%ebp),%edx
400010de:	8b 45 08             	mov    0x8(%ebp),%eax
400010e1:	83 c0 10             	add    $0x10,%eax
400010e4:	03 45 f8             	add    -0x8(%ebp),%eax
400010e7:	89 02                	mov    %eax,(%edx)
400010e9:	8b 45 08             	mov    0x8(%ebp),%eax
400010ec:	83 c0 10             	add    $0x10,%eax
400010ef:	03 45 f8             	add    -0x8(%ebp),%eax
400010f2:	89 04 24             	mov    %eax,(%esp)
400010f5:	e8 e6 a2 00 00       	call   4000b3e0 <strlen>
400010fa:	03 45 f8             	add    -0x8(%ebp),%eax
400010fd:	83 c0 01             	add    $0x1,%eax
40001100:	89 45 f8             	mov    %eax,-0x8(%ebp)
40001103:	83 45 fc 01          	addl   $0x1,-0x4(%ebp)
40001107:	8b 45 f0             	mov    -0x10(%ebp),%eax
4000110a:	3b 45 fc             	cmp    -0x4(%ebp),%eax
4000110d:	77 c4                	ja     400010d3 <get_cmdline+0x33>
4000110f:	8b 45 fc             	mov    -0x4(%ebp),%eax
40001112:	c1 e0 02             	shl    $0x2,%eax
40001115:	03 45 f4             	add    -0xc(%ebp),%eax
40001118:	c7 00 00 00 00 00    	movl   $0x0,(%eax)
4000111e:	8b 55 0c             	mov    0xc(%ebp),%edx
40001121:	8b 45 f4             	mov    -0xc(%ebp),%eax
40001124:	89 02                	mov    %eax,(%edx)
40001126:	8b 55 10             	mov    0x10(%ebp),%edx
40001129:	8b 45 f0             	mov    -0x10(%ebp),%eax
4000112c:	89 02                	mov    %eax,(%edx)
4000112e:	c9                   	leave  
4000112f:	c3                   	ret    

40001130 <_start>:
40001130:	55                   	push   %ebp
40001131:	89 e5                	mov    %esp,%ebp
40001133:	83 ec 28             	sub    $0x28,%esp
40001136:	e8 d9 82 00 00       	call   40009414 <_stdlib_init_pre>
4000113b:	e8 ec b2 00 00       	call   4000c42c <_libmeinos_init>
40001140:	c7 44 24 04 00 00 00 	movl   $0x0,0x4(%esp)
40001147:	00 
40001148:	c7 04 24 28 00 00 00 	movl   $0x28,(%esp)
4000114f:	e8 2c c7 00 00       	call   4000d880 <syscall_call>
40001154:	89 44 24 08          	mov    %eax,0x8(%esp)
40001158:	c7 44 24 04 01 00 00 	movl   $0x1,0x4(%esp)
4000115f:	00 
40001160:	c7 04 24 32 00 00 00 	movl   $0x32,(%esp)
40001167:	e8 14 c7 00 00       	call   4000d880 <syscall_call>
4000116c:	89 45 f8             	mov    %eax,-0x8(%ebp)
4000116f:	83 7d f8 ff          	cmpl   $0xffffffff,-0x8(%ebp)
40001173:	74 44                	je     400011b9 <_start+0x89>
40001175:	c7 44 24 08 00 00 00 	movl   $0x0,0x8(%esp)
4000117c:	00 
4000117d:	c7 44 24 04 00 00 00 	movl   $0x0,0x4(%esp)
40001184:	00 
40001185:	8b 45 f8             	mov    -0x8(%ebp),%eax
40001188:	89 04 24             	mov    %eax,(%esp)
4000118b:	e8 c0 7f 00 00       	call   40009150 <shmat>
40001190:	a3 28 29 01 40       	mov    %eax,0x40012928
40001195:	a1 28 29 01 40       	mov    0x40012928,%eax
4000119a:	85 c0                	test   %eax,%eax
4000119c:	74 1b                	je     400011b9 <_start+0x89>
4000119e:	a1 28 29 01 40       	mov    0x40012928,%eax
400011a3:	8d 55 f4             	lea    -0xc(%ebp),%edx
400011a6:	89 54 24 08          	mov    %edx,0x8(%esp)
400011aa:	8d 55 f0             	lea    -0x10(%ebp),%edx
400011ad:	89 54 24 04          	mov    %edx,0x4(%esp)
400011b1:	89 04 24             	mov    %eax,(%esp)
400011b4:	e8 e7 fe ff ff       	call   400010a0 <get_cmdline>
400011b9:	e8 bb 82 00 00       	call   40009479 <_stdlib_init_post>
400011be:	8b 45 f0             	mov    -0x10(%ebp),%eax
400011c1:	8b 55 f4             	mov    -0xc(%ebp),%edx
400011c4:	89 44 24 04          	mov    %eax,0x4(%esp)
400011c8:	89 14 24             	mov    %edx,(%esp)
400011cb:	e8 c4 05 00 00       	call   40001794 <main>
400011d0:	89 45 fc             	mov    %eax,-0x4(%ebp)
400011d3:	a1 28 29 01 40       	mov    0x40012928,%eax
400011d8:	89 04 24             	mov    %eax,(%esp)
400011db:	e8 f3 7f 00 00       	call   400091d3 <shmdt>
400011e0:	c7 44 24 08 00 00 00 	movl   $0x0,0x8(%esp)
400011e7:	00 
400011e8:	c7 44 24 04 01 00 00 	movl   $0x1,0x4(%esp)
400011ef:	00 
400011f0:	8b 45 f8             	mov    -0x8(%ebp),%eax
400011f3:	89 04 24             	mov    %eax,(%esp)
400011f6:	e8 48 80 00 00       	call   40009243 <shmctl>
400011fb:	8b 45 fc             	mov    -0x4(%ebp),%eax
400011fe:	89 04 24             	mov    %eax,(%esp)
40001201:	e8 8a 82 00 00       	call   40009490 <exit>
40001206:	eb fe                	jmp    40001206 <_start+0xd6>
40001208:	90                   	nop    
40001209:	90                   	nop    
4000120a:	90                   	nop    
4000120b:	90                   	nop    
4000120c:	90                   	nop    
4000120d:	90                   	nop    
4000120e:	90                   	nop    
4000120f:	90                   	nop    

40001210 <__do_global_dtors_aux>:
40001210:	55                   	push   %ebp
40001211:	89 e5                	mov    %esp,%ebp
40001213:	53                   	push   %ebx
40001214:	83 ec 04             	sub    $0x4,%esp
40001217:	e8 00 00 00 00       	call   4000121c <__do_global_dtors_aux+0xc>
4000121c:	5b                   	pop    %ebx
4000121d:	81 c3 14 fe 00 00    	add    $0xfe14,%ebx
40001223:	80 bb b0 01 00 00 00 	cmpb   $0x0,0x1b0(%ebx)
4000122a:	74 0f                	je     4000123b <__do_global_dtors_aux+0x2b>
4000122c:	eb 3c                	jmp    4000126a <__do_global_dtors_aux+0x5a>
4000122e:	66 90                	xchg   %ax,%ax
40001230:	83 c0 04             	add    $0x4,%eax
40001233:	89 83 14 00 00 00    	mov    %eax,0x14(%ebx)
40001239:	ff d2                	call   *%edx
4000123b:	8b 83 14 00 00 00    	mov    0x14(%ebx),%eax
40001241:	8b 10                	mov    (%eax),%edx
40001243:	85 d2                	test   %edx,%edx
40001245:	75 e9                	jne    40001230 <__do_global_dtors_aux+0x20>
40001247:	8b 83 f4 ff ff ff    	mov    -0xc(%ebx),%eax
4000124d:	85 c0                	test   %eax,%eax
4000124f:	74 12                	je     40001263 <__do_global_dtors_aux+0x53>
40001251:	83 ec 0c             	sub    $0xc,%esp
40001254:	8d 83 6c ef ff ff    	lea    -0x1094(%ebx),%eax
4000125a:	50                   	push   %eax
4000125b:	e8 a0 ed ff bf       	call   0 <get_cmdline-0x400010a0>
40001260:	83 c4 10             	add    $0x10,%esp
40001263:	c6 83 b0 01 00 00 01 	movb   $0x1,0x1b0(%ebx)
4000126a:	8b 5d fc             	mov    -0x4(%ebp),%ebx
4000126d:	c9                   	leave  
4000126e:	c3                   	ret    
4000126f:	90                   	nop    

40001270 <frame_dummy>:
40001270:	55                   	push   %ebp
40001271:	89 e5                	mov    %esp,%ebp
40001273:	53                   	push   %ebx
40001274:	83 ec 04             	sub    $0x4,%esp
40001277:	e8 00 00 00 00       	call   4000127c <frame_dummy+0xc>
4000127c:	5b                   	pop    %ebx
4000127d:	81 c3 b4 fd 00 00    	add    $0xfdb4,%ebx
40001283:	8b 83 fc ff ff ff    	mov    -0x4(%ebx),%eax
40001289:	85 c0                	test   %eax,%eax
4000128b:	74 18                	je     400012a5 <frame_dummy+0x35>
4000128d:	8d 83 b4 01 00 00    	lea    0x1b4(%ebx),%eax
40001293:	51                   	push   %ecx
40001294:	51                   	push   %ecx
40001295:	50                   	push   %eax
40001296:	8d 83 6c ef ff ff    	lea    -0x1094(%ebx),%eax
4000129c:	50                   	push   %eax
4000129d:	e8 5e ed ff bf       	call   0 <get_cmdline-0x400010a0>
400012a2:	83 c4 10             	add    $0x10,%esp
400012a5:	8b 93 f0 ff ff ff    	mov    -0x10(%ebx),%edx
400012ab:	85 d2                	test   %edx,%edx
400012ad:	74 19                	je     400012c8 <frame_dummy+0x58>
400012af:	8b 93 f8 ff ff ff    	mov    -0x8(%ebx),%edx
400012b5:	85 d2                	test   %edx,%edx
400012b7:	74 0f                	je     400012c8 <frame_dummy+0x58>
400012b9:	83 ec 0c             	sub    $0xc,%esp
400012bc:	8d 83 f0 ff ff ff    	lea    -0x10(%ebx),%eax
400012c2:	50                   	push   %eax
400012c3:	ff d2                	call   *%edx
400012c5:	83 c4 10             	add    $0x10,%esp
400012c8:	8b 5d fc             	mov    -0x4(%ebp),%ebx
400012cb:	c9                   	leave  
400012cc:	c3                   	ret    
400012cd:	90                   	nop    
400012ce:	90                   	nop    
400012cf:	90                   	nop    

400012d0 <keyboard_layout_load>:
400012d0:	55                   	push   %ebp
400012d1:	89 e5                	mov    %esp,%ebp
400012d3:	83 ec 28             	sub    $0x28,%esp
400012d6:	83 ec 08             	sub    $0x8,%esp
400012d9:	6a 01                	push   $0x1
400012db:	ff 75 08             	pushl  0x8(%ebp)
400012de:	e8 3f 1c 00 00       	call   40002f22 <open>
400012e3:	83 c4 10             	add    $0x10,%esp
400012e6:	89 45 fc             	mov    %eax,-0x4(%ebp)
400012e9:	83 7d fc ff          	cmpl   $0xffffffff,-0x4(%ebp)
400012ed:	0f 84 2d 01 00 00    	je     40001420 <keyboard_layout_load+0x150>
400012f3:	83 ec 04             	sub    $0x4,%esp
400012f6:	6a 01                	push   $0x1
400012f8:	68 80 29 01 40       	push   $0x40012980
400012fd:	ff 75 fc             	pushl  -0x4(%ebp)
40001300:	e8 ff 21 00 00       	call   40003504 <read>
40001305:	83 c4 10             	add    $0x10,%esp
40001308:	83 ec 04             	sub    $0x4,%esp
4000130b:	6a 01                	push   $0x1
4000130d:	68 84 29 01 40       	push   $0x40012984
40001312:	ff 75 fc             	pushl  -0x4(%ebp)
40001315:	e8 ea 21 00 00       	call   40003504 <read>
4000131a:	83 c4 10             	add    $0x10,%esp
4000131d:	a1 80 29 01 40       	mov    0x40012980,%eax
40001322:	85 c0                	test   %eax,%eax
40001324:	74 09                	je     4000132f <keyboard_layout_load+0x5f>
40001326:	c7 45 e0 02 00 00 00 	movl   $0x2,-0x20(%ebp)
4000132d:	eb 07                	jmp    40001336 <keyboard_layout_load+0x66>
4000132f:	c7 45 e0 01 00 00 00 	movl   $0x1,-0x20(%ebp)
40001336:	a1 84 29 01 40       	mov    0x40012984,%eax
4000133b:	85 c0                	test   %eax,%eax
4000133d:	0f 95 c0             	setne  %al
40001340:	25 ff 00 00 00       	and    $0xff,%eax
40001345:	03 45 e0             	add    -0x20(%ebp),%eax
40001348:	a3 88 29 01 40       	mov    %eax,0x40012988
4000134d:	83 ec 04             	sub    $0x4,%esp
40001350:	6a 04                	push   $0x4
40001352:	68 8c 29 01 40       	push   $0x4001298c
40001357:	ff 75 fc             	pushl  -0x4(%ebp)
4000135a:	e8 a5 21 00 00       	call   40003504 <read>
4000135f:	83 c4 10             	add    $0x10,%esp
40001362:	8b 15 88 29 01 40    	mov    0x40012988,%edx
40001368:	a1 8c 29 01 40       	mov    0x4001298c,%eax
4000136d:	0f af c2             	imul   %edx,%eax
40001370:	83 ec 08             	sub    $0x8,%esp
40001373:	6a 04                	push   $0x4
40001375:	50                   	push   %eax
40001376:	e8 a7 7a 00 00       	call   40008e22 <calloc>
4000137b:	83 c4 10             	add    $0x10,%esp
4000137e:	a3 90 29 01 40       	mov    %eax,0x40012990
40001383:	8b 15 88 29 01 40    	mov    0x40012988,%edx
40001389:	a1 8c 29 01 40       	mov    0x4001298c,%eax
4000138e:	0f af c2             	imul   %edx,%eax
40001391:	c1 e0 02             	shl    $0x2,%eax
40001394:	8b 15 90 29 01 40    	mov    0x40012990,%edx
4000139a:	83 ec 04             	sub    $0x4,%esp
4000139d:	50                   	push   %eax
4000139e:	52                   	push   %edx
4000139f:	ff 75 fc             	pushl  -0x4(%ebp)
400013a2:	e8 5d 21 00 00       	call   40003504 <read>
400013a7:	83 c4 10             	add    $0x10,%esp
400013aa:	a1 84 29 01 40       	mov    0x40012984,%eax
400013af:	85 c0                	test   %eax,%eax
400013b1:	74 09                	je     400013bc <keyboard_layout_load+0xec>
400013b3:	c7 45 e4 b8 f0 00 40 	movl   $0x4000f0b8,-0x1c(%ebp)
400013ba:	eb 07                	jmp    400013c3 <keyboard_layout_load+0xf3>
400013bc:	c7 45 e4 bc f0 00 40 	movl   $0x4000f0bc,-0x1c(%ebp)
400013c3:	a1 80 29 01 40       	mov    0x40012980,%eax
400013c8:	85 c0                	test   %eax,%eax
400013ca:	74 09                	je     400013d5 <keyboard_layout_load+0x105>
400013cc:	c7 45 e8 b8 f0 00 40 	movl   $0x4000f0b8,-0x18(%ebp)
400013d3:	eb 07                	jmp    400013dc <keyboard_layout_load+0x10c>
400013d5:	c7 45 e8 bc f0 00 40 	movl   $0x4000f0bc,-0x18(%ebp)
400013dc:	a1 8c 29 01 40       	mov    0x4001298c,%eax
400013e1:	8b 15 88 29 01 40    	mov    0x40012988,%edx
400013e7:	8b 0d 98 29 01 40    	mov    0x40012998,%ecx
400013ed:	83 ec 04             	sub    $0x4,%esp
400013f0:	ff 75 e4             	pushl  -0x1c(%ebp)
400013f3:	ff 75 e8             	pushl  -0x18(%ebp)
400013f6:	50                   	push   %eax
400013f7:	52                   	push   %edx
400013f8:	ff 75 08             	pushl  0x8(%ebp)
400013fb:	68 c0 f0 00 40       	push   $0x4000f0c0
40001400:	51                   	push   %ecx
40001401:	e8 2e 37 00 00       	call   40004b34 <fprintf>
40001406:	83 c4 20             	add    $0x20,%esp
40001409:	83 ec 0c             	sub    $0xc,%esp
4000140c:	ff 75 fc             	pushl  -0x4(%ebp)
4000140f:	e8 b5 1d 00 00       	call   400031c9 <close>
40001414:	83 c4 10             	add    $0x10,%esp
40001417:	c7 45 ec 00 00 00 00 	movl   $0x0,-0x14(%ebp)
4000141e:	eb 30                	jmp    40001450 <keyboard_layout_load+0x180>
40001420:	a1 44 29 01 40       	mov    0x40012944,%eax
40001425:	83 ec 0c             	sub    $0xc,%esp
40001428:	50                   	push   %eax
40001429:	e8 a3 9f 00 00       	call   4000b3d1 <strerror>
4000142e:	83 c4 10             	add    $0x10,%esp
40001431:	8b 15 98 29 01 40    	mov    0x40012998,%edx
40001437:	ff 75 08             	pushl  0x8(%ebp)
4000143a:	50                   	push   %eax
4000143b:	68 11 f1 00 40       	push   $0x4000f111
40001440:	52                   	push   %edx
40001441:	e8 ee 36 00 00       	call   40004b34 <fprintf>
40001446:	83 c4 10             	add    $0x10,%esp
40001449:	c7 45 ec ff ff ff ff 	movl   $0xffffffff,-0x14(%ebp)
40001450:	8b 45 ec             	mov    -0x14(%ebp),%eax
40001453:	c9                   	leave  
40001454:	c3                   	ret    

40001455 <scancode2wchr>:
40001455:	55                   	push   %ebp
40001456:	89 e5                	mov    %esp,%ebp
40001458:	83 ec 14             	sub    $0x14,%esp
4000145b:	a1 90 29 01 40       	mov    0x40012990,%eax
40001460:	85 c0                	test   %eax,%eax
40001462:	75 09                	jne    4000146d <scancode2wchr+0x18>
40001464:	c7 45 ec 00 00 00 00 	movl   $0x0,-0x14(%ebp)
4000146b:	eb 79                	jmp    400014e6 <scancode2wchr+0x91>
4000146d:	c7 45 f8 00 00 00 00 	movl   $0x0,-0x8(%ebp)
40001474:	a1 68 29 01 40       	mov    0x40012968,%eax
40001479:	85 c0                	test   %eax,%eax
4000147b:	74 12                	je     4000148f <scancode2wchr+0x3a>
4000147d:	a1 80 29 01 40       	mov    0x40012980,%eax
40001482:	85 c0                	test   %eax,%eax
40001484:	74 09                	je     4000148f <scancode2wchr+0x3a>
40001486:	c7 45 f8 01 00 00 00 	movl   $0x1,-0x8(%ebp)
4000148d:	eb 19                	jmp    400014a8 <scancode2wchr+0x53>
4000148f:	a1 6c 29 01 40       	mov    0x4001296c,%eax
40001494:	85 c0                	test   %eax,%eax
40001496:	74 10                	je     400014a8 <scancode2wchr+0x53>
40001498:	a1 84 29 01 40       	mov    0x40012984,%eax
4000149d:	85 c0                	test   %eax,%eax
4000149f:	74 07                	je     400014a8 <scancode2wchr+0x53>
400014a1:	c7 45 f8 02 00 00 00 	movl   $0x2,-0x8(%ebp)
400014a8:	8b 45 08             	mov    0x8(%ebp),%eax
400014ab:	89 45 fc             	mov    %eax,-0x4(%ebp)
400014ae:	8b 55 fc             	mov    -0x4(%ebp),%edx
400014b1:	a1 8c 29 01 40       	mov    0x4001298c,%eax
400014b6:	39 c2                	cmp    %eax,%edx
400014b8:	72 09                	jb     400014c3 <scancode2wchr+0x6e>
400014ba:	a1 8c 29 01 40       	mov    0x4001298c,%eax
400014bf:	48                   	dec    %eax
400014c0:	89 45 fc             	mov    %eax,-0x4(%ebp)
400014c3:	8b 0d 90 29 01 40    	mov    0x40012990,%ecx
400014c9:	8b 15 88 29 01 40    	mov    0x40012988,%edx
400014cf:	8b 45 fc             	mov    -0x4(%ebp),%eax
400014d2:	0f af d0             	imul   %eax,%edx
400014d5:	8b 45 f8             	mov    -0x8(%ebp),%eax
400014d8:	8d 04 02             	lea    (%edx,%eax,1),%eax
400014db:	c1 e0 02             	shl    $0x2,%eax
400014de:	8d 04 01             	lea    (%ecx,%eax,1),%eax
400014e1:	8b 00                	mov    (%eax),%eax
400014e3:	89 45 ec             	mov    %eax,-0x14(%ebp)
400014e6:	8b 45 ec             	mov    -0x14(%ebp),%eax
400014e9:	c9                   	leave  
400014ea:	c3                   	ret    

400014eb <onread>:
400014eb:	55                   	push   %ebp
400014ec:	89 e5                	mov    %esp,%ebp
400014ee:	83 ec 08             	sub    $0x8,%esp
400014f1:	a1 74 29 01 40       	mov    0x40012974,%eax
400014f6:	8b 15 78 29 01 40    	mov    0x40012978,%edx
400014fc:	29 d0                	sub    %edx,%eax
400014fe:	8b 55 10             	mov    0x10(%ebp),%edx
40001501:	89 55 f8             	mov    %edx,-0x8(%ebp)
40001504:	89 45 fc             	mov    %eax,-0x4(%ebp)
40001507:	8b 45 f8             	mov    -0x8(%ebp),%eax
4000150a:	39 45 fc             	cmp    %eax,-0x4(%ebp)
4000150d:	76 06                	jbe    40001515 <onread+0x2a>
4000150f:	8b 55 f8             	mov    -0x8(%ebp),%edx
40001512:	89 55 fc             	mov    %edx,-0x4(%ebp)
40001515:	8b 45 fc             	mov    -0x4(%ebp),%eax
40001518:	89 45 10             	mov    %eax,0x10(%ebp)
4000151b:	83 7d 10 00          	cmpl   $0x0,0x10(%ebp)
4000151f:	74 2d                	je     4000154e <onread+0x63>
40001521:	8b 15 70 29 01 40    	mov    0x40012970,%edx
40001527:	a1 78 29 01 40       	mov    0x40012978,%eax
4000152c:	8d 04 02             	lea    (%edx,%eax,1),%eax
4000152f:	83 ec 04             	sub    $0x4,%esp
40001532:	ff 75 10             	pushl  0x10(%ebp)
40001535:	50                   	push   %eax
40001536:	ff 75 0c             	pushl  0xc(%ebp)
40001539:	e8 ea 9a 00 00       	call   4000b028 <memcpy>
4000153e:	83 c4 10             	add    $0x10,%esp
40001541:	a1 78 29 01 40       	mov    0x40012978,%eax
40001546:	03 45 10             	add    0x10(%ebp),%eax
40001549:	a3 78 29 01 40       	mov    %eax,0x40012978
4000154e:	8b 45 10             	mov    0x10(%ebp),%eax
40001551:	c9                   	leave  
40001552:	c3                   	ret    

40001553 <keyboard_irq>:
40001553:	55                   	push   %ebp
40001554:	89 e5                	mov    %esp,%ebp
40001556:	83 ec 18             	sub    $0x18,%esp
40001559:	e9 f6 00 00 00       	jmp    40001654 <keyboard_irq+0x101>
4000155e:	83 ec 0c             	sub    $0xc,%esp
40001561:	6a 60                	push   $0x60
40001563:	e8 0b 01 00 00       	call   40001673 <inb>
40001568:	83 c4 10             	add    $0x10,%esp
4000156b:	25 ff 00 00 00       	and    $0xff,%eax
40001570:	89 45 f8             	mov    %eax,-0x8(%ebp)
40001573:	81 7d f8 e0 00 00 00 	cmpl   $0xe0,-0x8(%ebp)
4000157a:	74 0f                	je     4000158b <keyboard_irq+0x38>
4000157c:	8b 45 f8             	mov    -0x8(%ebp),%eax
4000157f:	25 80 00 00 00       	and    $0x80,%eax
40001584:	89 45 f4             	mov    %eax,-0xc(%ebp)
40001587:	83 65 f8 7f          	andl   $0x7f,-0x8(%ebp)
4000158b:	a1 64 29 01 40       	mov    0x40012964,%eax
40001590:	85 c0                	test   %eax,%eax
40001592:	74 11                	je     400015a5 <keyboard_irq+0x52>
40001594:	81 4d f8 80 00 00 00 	orl    $0x80,-0x8(%ebp)
4000159b:	c7 05 64 29 01 40 00 	movl   $0x0,0x40012964
400015a2:	00 00 00 
400015a5:	81 7d f8 e0 00 00 00 	cmpl   $0xe0,-0x8(%ebp)
400015ac:	75 0f                	jne    400015bd <keyboard_irq+0x6a>
400015ae:	c7 05 64 29 01 40 01 	movl   $0x1,0x40012964
400015b5:	00 00 00 
400015b8:	e9 97 00 00 00       	jmp    40001654 <keyboard_irq+0x101>
400015bd:	83 7d f8 2a          	cmpl   $0x2a,-0x8(%ebp)
400015c1:	74 06                	je     400015c9 <keyboard_irq+0x76>
400015c3:	83 7d f8 36          	cmpl   $0x36,-0x8(%ebp)
400015c7:	75 13                	jne    400015dc <keyboard_irq+0x89>
400015c9:	83 7d f4 00          	cmpl   $0x0,-0xc(%ebp)
400015cd:	0f 94 c0             	sete   %al
400015d0:	25 ff 00 00 00       	and    $0xff,%eax
400015d5:	a3 68 29 01 40       	mov    %eax,0x40012968
400015da:	eb 78                	jmp    40001654 <keyboard_irq+0x101>
400015dc:	81 7d f8 b8 00 00 00 	cmpl   $0xb8,-0x8(%ebp)
400015e3:	75 13                	jne    400015f8 <keyboard_irq+0xa5>
400015e5:	83 7d f4 00          	cmpl   $0x0,-0xc(%ebp)
400015e9:	0f 94 c0             	sete   %al
400015ec:	25 ff 00 00 00       	and    $0xff,%eax
400015f1:	a3 6c 29 01 40       	mov    %eax,0x4001296c
400015f6:	eb 5c                	jmp    40001654 <keyboard_irq+0x101>
400015f8:	83 7d f4 00          	cmpl   $0x0,-0xc(%ebp)
400015fc:	75 56                	jne    40001654 <keyboard_irq+0x101>
400015fe:	ff 75 f8             	pushl  -0x8(%ebp)
40001601:	e8 4f fe ff ff       	call   40001455 <scancode2wchr>
40001606:	83 c4 04             	add    $0x4,%esp
40001609:	89 45 fc             	mov    %eax,-0x4(%ebp)
4000160c:	83 7d fc 7f          	cmpl   $0x7f,-0x4(%ebp)
40001610:	7e 1f                	jle    40001631 <keyboard_irq+0xde>
40001612:	a1 98 29 01 40       	mov    0x40012998,%eax
40001617:	68 96 00 00 00       	push   $0x96
4000161c:	68 2c f1 00 40       	push   $0x4000f12c
40001621:	68 38 f1 00 40       	push   $0x4000f138
40001626:	50                   	push   %eax
40001627:	e8 08 35 00 00       	call   40004b34 <fprintf>
4000162c:	83 c4 10             	add    $0x10,%esp
4000162f:	eb 23                	jmp    40001654 <keyboard_irq+0x101>
40001631:	83 7d fc 00          	cmpl   $0x0,-0x4(%ebp)
40001635:	74 1d                	je     40001654 <keyboard_irq+0x101>
40001637:	8b 15 70 29 01 40    	mov    0x40012970,%edx
4000163d:	8b 0d 74 29 01 40    	mov    0x40012974,%ecx
40001643:	89 c8                	mov    %ecx,%eax
40001645:	01 c2                	add    %eax,%edx
40001647:	8b 45 fc             	mov    -0x4(%ebp),%eax
4000164a:	88 02                	mov    %al,(%edx)
4000164c:	8d 41 01             	lea    0x1(%ecx),%eax
4000164f:	a3 74 29 01 40       	mov    %eax,0x40012974
40001654:	83 ec 0c             	sub    $0xc,%esp
40001657:	6a 64                	push   $0x64
40001659:	e8 15 00 00 00       	call   40001673 <inb>
4000165e:	83 c4 10             	add    $0x10,%esp
40001661:	25 ff 00 00 00       	and    $0xff,%eax
40001666:	83 e0 01             	and    $0x1,%eax
40001669:	84 c0                	test   %al,%al
4000166b:	0f 85 ed fe ff ff    	jne    4000155e <keyboard_irq+0xb>
40001671:	c9                   	leave  
40001672:	c3                   	ret    

40001673 <inb>:
40001673:	55                   	push   %ebp
40001674:	89 e5                	mov    %esp,%ebp
40001676:	83 ec 14             	sub    $0x14,%esp
40001679:	8b 45 08             	mov    0x8(%ebp),%eax
4000167c:	66 89 45 ec          	mov    %ax,-0x14(%ebp)
40001680:	8b 55 ec             	mov    -0x14(%ebp),%edx
40001683:	ec                   	in     (%dx),%al
40001684:	88 45 ff             	mov    %al,-0x1(%ebp)
40001687:	b8 00 00 00 00       	mov    $0x0,%eax
4000168c:	8a 45 ff             	mov    -0x1(%ebp),%al
4000168f:	c9                   	leave  
40001690:	c3                   	ret    

40001691 <init_keyboard>:
40001691:	55                   	push   %ebp
40001692:	89 e5                	mov    %esp,%ebp
40001694:	83 ec 08             	sub    $0x8,%esp
40001697:	83 ec 0c             	sub    $0xc,%esp
4000169a:	6a 60                	push   $0x60
4000169c:	e8 8f 00 00 00       	call   40001730 <ioport_reg>
400016a1:	83 c4 10             	add    $0x10,%esp
400016a4:	83 f8 ff             	cmp    $0xffffffff,%eax
400016a7:	75 09                	jne    400016b2 <init_keyboard+0x21>
400016a9:	c7 45 fc ff ff ff ff 	movl   $0xffffffff,-0x4(%ebp)
400016b0:	eb 79                	jmp    4000172b <init_keyboard+0x9a>
400016b2:	83 ec 0c             	sub    $0xc,%esp
400016b5:	6a 64                	push   $0x64
400016b7:	e8 74 00 00 00       	call   40001730 <ioport_reg>
400016bc:	83 c4 10             	add    $0x10,%esp
400016bf:	83 f8 ff             	cmp    $0xffffffff,%eax
400016c2:	75 09                	jne    400016cd <init_keyboard+0x3c>
400016c4:	c7 45 fc ff ff ff ff 	movl   $0xffffffff,-0x4(%ebp)
400016cb:	eb 5e                	jmp    4000172b <init_keyboard+0x9a>
400016cd:	6a 00                	push   $0x0
400016cf:	6a 00                	push   $0x0
400016d1:	68 53 15 00 40       	push   $0x40001553
400016d6:	6a 01                	push   $0x1
400016d8:	e8 c3 ab 00 00       	call   4000c2a0 <irq_reghandler>
400016dd:	83 c4 10             	add    $0x10,%esp
400016e0:	83 ec 04             	sub    $0x4,%esp
400016e3:	6a 34                	push   $0x34
400016e5:	6a 00                	push   $0x0
400016e7:	68 60 29 01 40       	push   $0x40012960
400016ec:	e8 14 9b 00 00       	call   4000b205 <memset>
400016f1:	83 c4 10             	add    $0x10,%esp
400016f4:	c7 05 7c 29 01 40 80 	movl   $0x80,0x4001297c
400016fb:	00 00 00 
400016fe:	a1 7c 29 01 40       	mov    0x4001297c,%eax
40001703:	83 ec 0c             	sub    $0xc,%esp
40001706:	50                   	push   %eax
40001707:	e8 44 65 00 00       	call   40007c50 <malloc>
4000170c:	83 c4 10             	add    $0x10,%esp
4000170f:	a3 70 29 01 40       	mov    %eax,0x40012970
40001714:	83 ec 0c             	sub    $0xc,%esp
40001717:	68 57 f1 00 40       	push   $0x4000f157
4000171c:	e8 af fb ff ff       	call   400012d0 <keyboard_layout_load>
40001721:	83 c4 10             	add    $0x10,%esp
40001724:	c7 45 fc 00 00 00 00 	movl   $0x0,-0x4(%ebp)
4000172b:	8b 45 fc             	mov    -0x4(%ebp),%eax
4000172e:	c9                   	leave  
4000172f:	c3                   	ret    

40001730 <ioport_reg>:
40001730:	55                   	push   %ebp
40001731:	89 e5                	mov    %esp,%ebp
40001733:	83 ec 28             	sub    $0x28,%esp
40001736:	8b 45 08             	mov    0x8(%ebp),%eax
40001739:	66 89 45 ec          	mov    %ax,-0x14(%ebp)
4000173d:	8b 45 ec             	mov    -0x14(%ebp),%eax
40001740:	25 ff ff 00 00       	and    $0xffff,%eax
40001745:	83 ec 04             	sub    $0x4,%esp
40001748:	50                   	push   %eax
40001749:	6a 01                	push   $0x1
4000174b:	6a 43                	push   $0x43
4000174d:	e8 2e c1 00 00       	call   4000d880 <syscall_call>
40001752:	83 c4 10             	add    $0x10,%esp
40001755:	89 45 fc             	mov    %eax,-0x4(%ebp)
40001758:	83 7d fc 00          	cmpl   $0x0,-0x4(%ebp)
4000175c:	79 0c                	jns    4000176a <ioport_reg+0x3a>
4000175e:	8b 45 fc             	mov    -0x4(%ebp),%eax
40001761:	89 c2                	mov    %eax,%edx
40001763:	f7 da                	neg    %edx
40001765:	89 55 e4             	mov    %edx,-0x1c(%ebp)
40001768:	eb 07                	jmp    40001771 <ioport_reg+0x41>
4000176a:	c7 45 e4 00 00 00 00 	movl   $0x0,-0x1c(%ebp)
40001771:	8b 45 e4             	mov    -0x1c(%ebp),%eax
40001774:	a3 44 29 01 40       	mov    %eax,0x40012944
40001779:	8b 55 fc             	mov    -0x4(%ebp),%edx
4000177c:	89 55 e8             	mov    %edx,-0x18(%ebp)
4000177f:	83 7d e8 00          	cmpl   $0x0,-0x18(%ebp)
40001783:	79 07                	jns    4000178c <ioport_reg+0x5c>
40001785:	c7 45 e8 ff ff ff ff 	movl   $0xffffffff,-0x18(%ebp)
4000178c:	8b 45 e8             	mov    -0x18(%ebp),%eax
4000178f:	c9                   	leave  
40001790:	c3                   	ret    
40001791:	90                   	nop    
40001792:	90                   	nop    
40001793:	90                   	nop    

40001794 <main>:
40001794:	8d 4c 24 04          	lea    0x4(%esp),%ecx
40001798:	83 e4 f0             	and    $0xfffffff0,%esp
4000179b:	ff 71 fc             	pushl  -0x4(%ecx)
4000179e:	55                   	push   %ebp
4000179f:	89 e5                	mov    %esp,%ebp
400017a1:	51                   	push   %ecx
400017a2:	83 ec 14             	sub    $0x14,%esp
400017a5:	e8 5e 09 00 00       	call   40002108 <init_screen>
400017aa:	e8 e2 fe ff ff       	call   40001691 <init_keyboard>
400017af:	e8 96 a8 00 00       	call   4000c04a <devfs_init>
400017b4:	83 ec 0c             	sub    $0xc,%esp
400017b7:	68 75 f1 00 40       	push   $0x4000f175
400017bc:	e8 08 a9 00 00       	call   4000c0c9 <devfs_createdev>
400017c1:	83 c4 10             	add    $0x10,%esp
400017c4:	89 45 f8             	mov    %eax,-0x8(%ebp)
400017c7:	83 ec 08             	sub    $0x8,%esp
400017ca:	68 eb 14 00 40       	push   $0x400014eb
400017cf:	ff 75 f8             	pushl  -0x8(%ebp)
400017d2:	e8 30 00 00 00       	call   40001807 <devfs_onread>
400017d7:	83 c4 10             	add    $0x10,%esp
400017da:	83 ec 08             	sub    $0x8,%esp
400017dd:	68 c5 20 00 40       	push   $0x400020c5
400017e2:	ff 75 f8             	pushl  -0x8(%ebp)
400017e5:	e8 2b 00 00 00       	call   40001815 <devfs_onwrite>
400017ea:	83 c4 10             	add    $0x10,%esp
400017ed:	83 ec 0c             	sub    $0xc,%esp
400017f0:	6a ff                	push   $0xffffffff
400017f2:	e8 8b bf 00 00       	call   4000d782 <rpc_mainloop>
400017f7:	83 c4 10             	add    $0x10,%esp
400017fa:	b8 00 00 00 00       	mov    $0x0,%eax
400017ff:	8b 4d fc             	mov    -0x4(%ebp),%ecx
40001802:	c9                   	leave  
40001803:	8d 61 fc             	lea    -0x4(%ecx),%esp
40001806:	c3                   	ret    

40001807 <devfs_onread>:
40001807:	55                   	push   %ebp
40001808:	89 e5                	mov    %esp,%ebp
4000180a:	8b 55 08             	mov    0x8(%ebp),%edx
4000180d:	8b 45 0c             	mov    0xc(%ebp),%eax
40001810:	89 42 10             	mov    %eax,0x10(%edx)
40001813:	5d                   	pop    %ebp
40001814:	c3                   	ret    

40001815 <devfs_onwrite>:
40001815:	55                   	push   %ebp
40001816:	89 e5                	mov    %esp,%ebp
40001818:	8b 55 08             	mov    0x8(%ebp),%edx
4000181b:	8b 45 0c             	mov    0xc(%ebp),%eax
4000181e:	89 42 14             	mov    %eax,0x14(%edx)
40001821:	5d                   	pop    %ebp
40001822:	c3                   	ret    
40001823:	90                   	nop    

40001824 <bell>:
40001824:	55                   	push   %ebp
40001825:	89 e5                	mov    %esp,%ebp
40001827:	83 ec 08             	sub    $0x8,%esp
4000182a:	ba dc 34 12 00       	mov    $0x1234dc,%edx
4000182f:	89 d0                	mov    %edx,%eax
40001831:	c1 fa 1f             	sar    $0x1f,%edx
40001834:	f7 7d 08             	idivl  0x8(%ebp)
40001837:	89 45 08             	mov    %eax,0x8(%ebp)
4000183a:	83 ec 08             	sub    $0x8,%esp
4000183d:	68 b6 00 00 00       	push   $0xb6
40001842:	6a 43                	push   $0x43
40001844:	e8 a9 00 00 00       	call   400018f2 <outb>
40001849:	83 c4 10             	add    $0x10,%esp
4000184c:	8b 45 08             	mov    0x8(%ebp),%eax
4000184f:	25 ff 00 00 00       	and    $0xff,%eax
40001854:	83 ec 08             	sub    $0x8,%esp
40001857:	50                   	push   %eax
40001858:	6a 42                	push   $0x42
4000185a:	e8 93 00 00 00       	call   400018f2 <outb>
4000185f:	83 c4 10             	add    $0x10,%esp
40001862:	8b 45 08             	mov    0x8(%ebp),%eax
40001865:	c1 f8 08             	sar    $0x8,%eax
40001868:	25 ff 00 00 00       	and    $0xff,%eax
4000186d:	83 ec 08             	sub    $0x8,%esp
40001870:	50                   	push   %eax
40001871:	6a 42                	push   $0x42
40001873:	e8 7a 00 00 00       	call   400018f2 <outb>
40001878:	83 c4 10             	add    $0x10,%esp
4000187b:	83 ec 0c             	sub    $0xc,%esp
4000187e:	6a 61                	push   $0x61
40001880:	e8 4f 00 00 00       	call   400018d4 <inb>
40001885:	83 c4 10             	add    $0x10,%esp
40001888:	83 c8 03             	or     $0x3,%eax
4000188b:	25 ff 00 00 00       	and    $0xff,%eax
40001890:	83 ec 08             	sub    $0x8,%esp
40001893:	50                   	push   %eax
40001894:	6a 61                	push   $0x61
40001896:	e8 57 00 00 00       	call   400018f2 <outb>
4000189b:	83 c4 10             	add    $0x10,%esp
4000189e:	8b 45 0c             	mov    0xc(%ebp),%eax
400018a1:	83 ec 0c             	sub    $0xc,%esp
400018a4:	50                   	push   %eax
400018a5:	e8 7c 81 00 00       	call   40009a26 <sleep>
400018aa:	83 c4 10             	add    $0x10,%esp
400018ad:	83 ec 0c             	sub    $0xc,%esp
400018b0:	6a 61                	push   $0x61
400018b2:	e8 1d 00 00 00       	call   400018d4 <inb>
400018b7:	83 c4 10             	add    $0x10,%esp
400018ba:	25 ff 00 00 00       	and    $0xff,%eax
400018bf:	25 fc 00 00 00       	and    $0xfc,%eax
400018c4:	83 ec 08             	sub    $0x8,%esp
400018c7:	50                   	push   %eax
400018c8:	6a 61                	push   $0x61
400018ca:	e8 23 00 00 00       	call   400018f2 <outb>
400018cf:	83 c4 10             	add    $0x10,%esp
400018d2:	c9                   	leave  
400018d3:	c3                   	ret    

400018d4 <inb>:
400018d4:	55                   	push   %ebp
400018d5:	89 e5                	mov    %esp,%ebp
400018d7:	83 ec 14             	sub    $0x14,%esp
400018da:	8b 45 08             	mov    0x8(%ebp),%eax
400018dd:	66 89 45 ec          	mov    %ax,-0x14(%ebp)
400018e1:	8b 55 ec             	mov    -0x14(%ebp),%edx
400018e4:	ec                   	in     (%dx),%al
400018e5:	88 45 ff             	mov    %al,-0x1(%ebp)
400018e8:	b8 00 00 00 00       	mov    $0x0,%eax
400018ed:	8a 45 ff             	mov    -0x1(%ebp),%al
400018f0:	c9                   	leave  
400018f1:	c3                   	ret    

400018f2 <outb>:
400018f2:	55                   	push   %ebp
400018f3:	89 e5                	mov    %esp,%ebp
400018f5:	83 ec 08             	sub    $0x8,%esp
400018f8:	8b 45 08             	mov    0x8(%ebp),%eax
400018fb:	8b 55 0c             	mov    0xc(%ebp),%edx
400018fe:	66 89 45 fc          	mov    %ax,-0x4(%ebp)
40001902:	88 55 f8             	mov    %dl,-0x8(%ebp)
40001905:	8a 45 f8             	mov    -0x8(%ebp),%al
40001908:	8b 55 fc             	mov    -0x4(%ebp),%edx
4000190b:	ee                   	out    %al,(%dx)
4000190c:	c9                   	leave  
4000190d:	c3                   	ret    

4000190e <update_hwcursor>:
4000190e:	55                   	push   %ebp
4000190f:	89 e5                	mov    %esp,%ebp
40001911:	83 ec 10             	sub    $0x10,%esp
40001914:	8b 15 28 12 01 40    	mov    0x40011228,%edx
4000191a:	89 d0                	mov    %edx,%eax
4000191c:	c1 e0 02             	shl    $0x2,%eax
4000191f:	01 d0                	add    %edx,%eax
40001921:	c1 e0 04             	shl    $0x4,%eax
40001924:	89 c2                	mov    %eax,%edx
40001926:	a1 24 12 01 40       	mov    0x40011224,%eax
4000192b:	8d 04 02             	lea    (%edx,%eax,1),%eax
4000192e:	89 45 fc             	mov    %eax,-0x4(%ebp)
40001931:	6a 0f                	push   $0xf
40001933:	68 d4 03 00 00       	push   $0x3d4
40001938:	e8 b5 ff ff ff       	call   400018f2 <outb>
4000193d:	83 c4 08             	add    $0x8,%esp
40001940:	8b 45 fc             	mov    -0x4(%ebp),%eax
40001943:	25 ff 00 00 00       	and    $0xff,%eax
40001948:	50                   	push   %eax
40001949:	68 d5 03 00 00       	push   $0x3d5
4000194e:	e8 9f ff ff ff       	call   400018f2 <outb>
40001953:	83 c4 08             	add    $0x8,%esp
40001956:	6a 0e                	push   $0xe
40001958:	68 d4 03 00 00       	push   $0x3d4
4000195d:	e8 90 ff ff ff       	call   400018f2 <outb>
40001962:	83 c4 08             	add    $0x8,%esp
40001965:	8b 45 fc             	mov    -0x4(%ebp),%eax
40001968:	c1 e8 08             	shr    $0x8,%eax
4000196b:	25 ff 00 00 00       	and    $0xff,%eax
40001970:	50                   	push   %eax
40001971:	68 d5 03 00 00       	push   $0x3d5
40001976:	e8 77 ff ff ff       	call   400018f2 <outb>
4000197b:	83 c4 08             	add    $0x8,%esp
4000197e:	c9                   	leave  
4000197f:	c3                   	ret    

40001980 <clearscreen>:
40001980:	55                   	push   %ebp
40001981:	89 e5                	mov    %esp,%ebp
40001983:	c7 05 24 12 01 40 00 	movl   $0x0,0x40011224
4000198a:	00 00 00 
4000198d:	c7 05 28 12 01 40 00 	movl   $0x0,0x40011228
40001994:	00 00 00 
40001997:	e8 72 ff ff ff       	call   4000190e <update_hwcursor>
4000199c:	5d                   	pop    %ebp
4000199d:	c3                   	ret    

4000199e <default_settings>:
4000199e:	55                   	push   %ebp
4000199f:	89 e5                	mov    %esp,%ebp
400019a1:	c7 05 34 12 01 40 01 	movl   $0x1,0x40011234
400019a8:	00 00 00 
400019ab:	c7 05 38 12 01 40 b8 	movl   $0x1b8,0x40011238
400019b2:	01 00 00 
400019b5:	c7 05 3c 12 01 40 64 	movl   $0x64,0x4001123c
400019bc:	00 00 00 
400019bf:	c7 05 40 12 01 40 07 	movl   $0x7,0x40011240
400019c6:	00 00 00 
400019c9:	5d                   	pop    %ebp
400019ca:	c3                   	ret    

400019cb <printchar>:
400019cb:	55                   	push   %ebp
400019cc:	89 e5                	mov    %esp,%ebp
400019ce:	83 ec 38             	sub    $0x38,%esp
400019d1:	8b 45 08             	mov    0x8(%ebp),%eax
400019d4:	88 45 dc             	mov    %al,-0x24(%ebp)
400019d7:	8b 15 28 12 01 40    	mov    0x40011228,%edx
400019dd:	89 d0                	mov    %edx,%eax
400019df:	c1 e0 02             	shl    $0x2,%eax
400019e2:	01 d0                	add    %edx,%eax
400019e4:	c1 e0 04             	shl    $0x4,%eax
400019e7:	89 c2                	mov    %eax,%edx
400019e9:	a1 24 12 01 40       	mov    0x40011224,%eax
400019ee:	8d 04 02             	lea    (%edx,%eax,1),%eax
400019f1:	89 45 fc             	mov    %eax,-0x4(%ebp)
400019f4:	a1 20 12 01 40       	mov    0x40011220,%eax
400019f9:	85 c0                	test   %eax,%eax
400019fb:	0f 84 55 05 00 00    	je     40001f56 <printchar+0x58b>
40001a01:	8b 0d 20 12 01 40    	mov    0x40011220,%ecx
40001a07:	8d 51 ff             	lea    -0x1(%ecx),%edx
40001a0a:	8a 45 dc             	mov    -0x24(%ebp),%al
40001a0d:	88 82 00 12 01 40    	mov    %al,0x40011200(%edx)
40001a13:	8d 41 01             	lea    0x1(%ecx),%eax
40001a16:	a3 20 12 01 40       	mov    %eax,0x40011220
40001a1b:	80 7d dc 40          	cmpb   $0x40,-0x24(%ebp)
40001a1f:	7e 06                	jle    40001a27 <printchar+0x5c>
40001a21:	80 7d dc 5a          	cmpb   $0x5a,-0x24(%ebp)
40001a25:	7e 14                	jle    40001a3b <printchar+0x70>
40001a27:	80 7d dc 60          	cmpb   $0x60,-0x24(%ebp)
40001a2b:	0f 8e 10 06 00 00    	jle    40002041 <printchar+0x676>
40001a31:	80 7d dc 7a          	cmpb   $0x7a,-0x24(%ebp)
40001a35:	0f 8f 06 06 00 00    	jg     40002041 <printchar+0x676>
40001a3b:	c7 05 20 12 01 40 00 	movl   $0x0,0x40011220
40001a42:	00 00 00 
40001a45:	a1 20 12 01 40       	mov    0x40011220,%eax
40001a4a:	83 f8 01             	cmp    $0x1,%eax
40001a4d:	75 13                	jne    40001a62 <printchar+0x97>
40001a4f:	a0 00 12 01 40       	mov    0x40011200,%al
40001a54:	3c 63                	cmp    $0x63,%al
40001a56:	75 0a                	jne    40001a62 <printchar+0x97>
40001a58:	e8 41 ff ff ff       	call   4000199e <default_settings>
40001a5d:	e9 df 05 00 00       	jmp    40002041 <printchar+0x676>
40001a62:	a1 20 12 01 40       	mov    0x40011220,%eax
40001a67:	83 f8 03             	cmp    $0x3,%eax
40001a6a:	75 2a                	jne    40001a96 <printchar+0xcb>
40001a6c:	83 ec 04             	sub    $0x4,%esp
40001a6f:	6a 03                	push   $0x3
40001a71:	68 7d f1 00 40       	push   $0x4000f17d
40001a76:	68 00 12 01 40       	push   $0x40011200
40001a7b:	e8 a4 94 00 00       	call   4000af24 <memcmp>
40001a80:	83 c4 10             	add    $0x10,%esp
40001a83:	85 c0                	test   %eax,%eax
40001a85:	75 0f                	jne    40001a96 <printchar+0xcb>
40001a87:	c7 05 34 12 01 40 01 	movl   $0x1,0x40011234
40001a8e:	00 00 00 
40001a91:	e9 ab 05 00 00       	jmp    40002041 <printchar+0x676>
40001a96:	a1 20 12 01 40       	mov    0x40011220,%eax
40001a9b:	83 f8 03             	cmp    $0x3,%eax
40001a9e:	75 2a                	jne    40001aca <printchar+0xff>
40001aa0:	83 ec 04             	sub    $0x4,%esp
40001aa3:	6a 03                	push   $0x3
40001aa5:	68 81 f1 00 40       	push   $0x4000f181
40001aaa:	68 00 12 01 40       	push   $0x40011200
40001aaf:	e8 70 94 00 00       	call   4000af24 <memcmp>
40001ab4:	83 c4 10             	add    $0x10,%esp
40001ab7:	85 c0                	test   %eax,%eax
40001ab9:	75 0f                	jne    40001aca <printchar+0xff>
40001abb:	c7 05 34 12 01 40 00 	movl   $0x0,0x40011234
40001ac2:	00 00 00 
40001ac5:	e9 77 05 00 00       	jmp    40002041 <printchar+0x676>
40001aca:	a0 00 12 01 40       	mov    0x40011200,%al
40001acf:	3c 5b                	cmp    $0x5b,%al
40001ad1:	0f 85 b8 00 00 00    	jne    40001b8f <printchar+0x1c4>
40001ad7:	a1 20 12 01 40       	mov    0x40011220,%eax
40001adc:	83 e8 02             	sub    $0x2,%eax
40001adf:	8a 80 00 12 01 40    	mov    0x40011200(%eax),%al
40001ae5:	3c 48                	cmp    $0x48,%al
40001ae7:	74 16                	je     40001aff <printchar+0x134>
40001ae9:	a1 20 12 01 40       	mov    0x40011220,%eax
40001aee:	83 e8 02             	sub    $0x2,%eax
40001af1:	8a 80 00 12 01 40    	mov    0x40011200(%eax),%al
40001af7:	3c 66                	cmp    $0x66,%al
40001af9:	0f 85 90 00 00 00    	jne    40001b8f <printchar+0x1c4>
40001aff:	c7 45 f8 ff ff ff ff 	movl   $0xffffffff,-0x8(%ebp)
40001b06:	c7 45 f4 ff ff ff ff 	movl   $0xffffffff,-0xc(%ebp)
40001b0d:	a1 20 12 01 40       	mov    0x40011220,%eax
40001b12:	83 f8 03             	cmp    $0x3,%eax
40001b15:	7e 3a                	jle    40001b51 <printchar+0x186>
40001b17:	a1 20 12 01 40       	mov    0x40011220,%eax
40001b1c:	83 e8 02             	sub    $0x2,%eax
40001b1f:	8a 80 00 12 01 40    	mov    0x40011200(%eax),%al
40001b25:	3c 48                	cmp    $0x48,%al
40001b27:	75 09                	jne    40001b32 <printchar+0x167>
40001b29:	c7 45 d4 85 f1 00 40 	movl   $0x4000f185,-0x2c(%ebp)
40001b30:	eb 07                	jmp    40001b39 <printchar+0x16e>
40001b32:	c7 45 d4 8d f1 00 40 	movl   $0x4000f18d,-0x2c(%ebp)
40001b39:	8d 45 f4             	lea    -0xc(%ebp),%eax
40001b3c:	50                   	push   %eax
40001b3d:	8d 45 f8             	lea    -0x8(%ebp),%eax
40001b40:	50                   	push   %eax
40001b41:	ff 75 d4             	pushl  -0x2c(%ebp)
40001b44:	68 00 12 01 40       	push   $0x40011200
40001b49:	e8 96 78 00 00       	call   400093e4 <sscanf>
40001b4e:	83 c4 10             	add    $0x10,%esp
40001b51:	8b 45 f8             	mov    -0x8(%ebp),%eax
40001b54:	83 f8 ff             	cmp    $0xffffffff,%eax
40001b57:	74 1d                	je     40001b76 <printchar+0x1ab>
40001b59:	8b 45 f4             	mov    -0xc(%ebp),%eax
40001b5c:	83 f8 ff             	cmp    $0xffffffff,%eax
40001b5f:	74 15                	je     40001b76 <printchar+0x1ab>
40001b61:	8b 45 f4             	mov    -0xc(%ebp),%eax
40001b64:	a3 24 12 01 40       	mov    %eax,0x40011224
40001b69:	8b 45 f8             	mov    -0x8(%ebp),%eax
40001b6c:	a3 28 12 01 40       	mov    %eax,0x40011228
40001b71:	e9 cb 04 00 00       	jmp    40002041 <printchar+0x676>
40001b76:	c7 05 24 12 01 40 00 	movl   $0x0,0x40011224
40001b7d:	00 00 00 
40001b80:	c7 05 28 12 01 40 00 	movl   $0x0,0x40011228
40001b87:	00 00 00 
40001b8a:	e9 b2 04 00 00       	jmp    40002041 <printchar+0x676>
40001b8f:	a0 00 12 01 40       	mov    0x40011200,%al
40001b94:	3c 5b                	cmp    $0x5b,%al
40001b96:	75 5d                	jne    40001bf5 <printchar+0x22a>
40001b98:	a1 20 12 01 40       	mov    0x40011220,%eax
40001b9d:	83 e8 02             	sub    $0x2,%eax
40001ba0:	8a 80 00 12 01 40    	mov    0x40011200(%eax),%al
40001ba6:	3c 41                	cmp    $0x41,%al
40001ba8:	75 4b                	jne    40001bf5 <printchar+0x22a>
40001baa:	c7 45 f0 01 00 00 00 	movl   $0x1,-0x10(%ebp)
40001bb1:	a1 20 12 01 40       	mov    0x40011220,%eax
40001bb6:	83 f8 03             	cmp    $0x3,%eax
40001bb9:	7e 19                	jle    40001bd4 <printchar+0x209>
40001bbb:	83 ec 04             	sub    $0x4,%esp
40001bbe:	8d 45 f0             	lea    -0x10(%ebp),%eax
40001bc1:	50                   	push   %eax
40001bc2:	68 95 f1 00 40       	push   $0x4000f195
40001bc7:	68 00 12 01 40       	push   $0x40011200
40001bcc:	e8 13 78 00 00       	call   400093e4 <sscanf>
40001bd1:	83 c4 10             	add    $0x10,%esp
40001bd4:	a1 28 12 01 40       	mov    0x40011228,%eax
40001bd9:	85 c0                	test   %eax,%eax
40001bdb:	0f 8e 60 04 00 00    	jle    40002041 <printchar+0x676>
40001be1:	a1 28 12 01 40       	mov    0x40011228,%eax
40001be6:	8b 55 f0             	mov    -0x10(%ebp),%edx
40001be9:	29 d0                	sub    %edx,%eax
40001beb:	a3 28 12 01 40       	mov    %eax,0x40011228
40001bf0:	e9 4c 04 00 00       	jmp    40002041 <printchar+0x676>
40001bf5:	a0 00 12 01 40       	mov    0x40011200,%al
40001bfa:	3c 5b                	cmp    $0x5b,%al
40001bfc:	75 5e                	jne    40001c5c <printchar+0x291>
40001bfe:	a1 20 12 01 40       	mov    0x40011220,%eax
40001c03:	83 e8 02             	sub    $0x2,%eax
40001c06:	8a 80 00 12 01 40    	mov    0x40011200(%eax),%al
40001c0c:	3c 42                	cmp    $0x42,%al
40001c0e:	75 4c                	jne    40001c5c <printchar+0x291>
40001c10:	c7 45 ec 01 00 00 00 	movl   $0x1,-0x14(%ebp)
40001c17:	a1 20 12 01 40       	mov    0x40011220,%eax
40001c1c:	83 f8 03             	cmp    $0x3,%eax
40001c1f:	7e 19                	jle    40001c3a <printchar+0x26f>
40001c21:	83 ec 04             	sub    $0x4,%esp
40001c24:	8d 45 ec             	lea    -0x14(%ebp),%eax
40001c27:	50                   	push   %eax
40001c28:	68 9a f1 00 40       	push   $0x4000f19a
40001c2d:	68 00 12 01 40       	push   $0x40011200
40001c32:	e8 ad 77 00 00       	call   400093e4 <sscanf>
40001c37:	83 c4 10             	add    $0x10,%esp
40001c3a:	a1 28 12 01 40       	mov    0x40011228,%eax
40001c3f:	83 f8 18             	cmp    $0x18,%eax
40001c42:	0f 8f f9 03 00 00    	jg     40002041 <printchar+0x676>
40001c48:	a1 28 12 01 40       	mov    0x40011228,%eax
40001c4d:	8b 55 ec             	mov    -0x14(%ebp),%edx
40001c50:	01 d0                	add    %edx,%eax
40001c52:	a3 28 12 01 40       	mov    %eax,0x40011228
40001c57:	e9 e5 03 00 00       	jmp    40002041 <printchar+0x676>
40001c5c:	a0 00 12 01 40       	mov    0x40011200,%al
40001c61:	3c 5b                	cmp    $0x5b,%al
40001c63:	75 5d                	jne    40001cc2 <printchar+0x2f7>
40001c65:	a1 20 12 01 40       	mov    0x40011220,%eax
40001c6a:	83 e8 02             	sub    $0x2,%eax
40001c6d:	8a 80 00 12 01 40    	mov    0x40011200(%eax),%al
40001c73:	3c 43                	cmp    $0x43,%al
40001c75:	75 4b                	jne    40001cc2 <printchar+0x2f7>
40001c77:	c7 45 e8 01 00 00 00 	movl   $0x1,-0x18(%ebp)
40001c7e:	a1 20 12 01 40       	mov    0x40011220,%eax
40001c83:	83 f8 03             	cmp    $0x3,%eax
40001c86:	7e 19                	jle    40001ca1 <printchar+0x2d6>
40001c88:	83 ec 04             	sub    $0x4,%esp
40001c8b:	8d 45 e8             	lea    -0x18(%ebp),%eax
40001c8e:	50                   	push   %eax
40001c8f:	68 9f f1 00 40       	push   $0x4000f19f
40001c94:	68 00 12 01 40       	push   $0x40011200
40001c99:	e8 46 77 00 00       	call   400093e4 <sscanf>
40001c9e:	83 c4 10             	add    $0x10,%esp
40001ca1:	a1 24 12 01 40       	mov    0x40011224,%eax
40001ca6:	85 c0                	test   %eax,%eax
40001ca8:	0f 8e 93 03 00 00    	jle    40002041 <printchar+0x676>
40001cae:	a1 24 12 01 40       	mov    0x40011224,%eax
40001cb3:	8b 55 e8             	mov    -0x18(%ebp),%edx
40001cb6:	29 d0                	sub    %edx,%eax
40001cb8:	a3 24 12 01 40       	mov    %eax,0x40011224
40001cbd:	e9 7f 03 00 00       	jmp    40002041 <printchar+0x676>
40001cc2:	a0 00 12 01 40       	mov    0x40011200,%al
40001cc7:	3c 5b                	cmp    $0x5b,%al
40001cc9:	75 5e                	jne    40001d29 <printchar+0x35e>
40001ccb:	a1 20 12 01 40       	mov    0x40011220,%eax
40001cd0:	83 e8 02             	sub    $0x2,%eax
40001cd3:	8a 80 00 12 01 40    	mov    0x40011200(%eax),%al
40001cd9:	3c 44                	cmp    $0x44,%al
40001cdb:	75 4c                	jne    40001d29 <printchar+0x35e>
40001cdd:	c7 45 e4 01 00 00 00 	movl   $0x1,-0x1c(%ebp)
40001ce4:	a1 20 12 01 40       	mov    0x40011220,%eax
40001ce9:	83 f8 03             	cmp    $0x3,%eax
40001cec:	7e 19                	jle    40001d07 <printchar+0x33c>
40001cee:	83 ec 04             	sub    $0x4,%esp
40001cf1:	8d 45 e4             	lea    -0x1c(%ebp),%eax
40001cf4:	50                   	push   %eax
40001cf5:	68 a4 f1 00 40       	push   $0x4000f1a4
40001cfa:	68 00 12 01 40       	push   $0x40011200
40001cff:	e8 e0 76 00 00       	call   400093e4 <sscanf>
40001d04:	83 c4 10             	add    $0x10,%esp
40001d07:	a1 24 12 01 40       	mov    0x40011224,%eax
40001d0c:	83 f8 4f             	cmp    $0x4f,%eax
40001d0f:	0f 8f 2c 03 00 00    	jg     40002041 <printchar+0x676>
40001d15:	a1 24 12 01 40       	mov    0x40011224,%eax
40001d1a:	8b 55 e4             	mov    -0x1c(%ebp),%edx
40001d1d:	01 d0                	add    %edx,%eax
40001d1f:	a3 24 12 01 40       	mov    %eax,0x40011224
40001d24:	e9 18 03 00 00       	jmp    40002041 <printchar+0x676>
40001d29:	a0 00 12 01 40       	mov    0x40011200,%al
40001d2e:	3c 5b                	cmp    $0x5b,%al
40001d30:	75 2e                	jne    40001d60 <printchar+0x395>
40001d32:	a0 01 12 01 40       	mov    0x40011201,%al
40001d37:	3c 73                	cmp    $0x73,%al
40001d39:	74 09                	je     40001d44 <printchar+0x379>
40001d3b:	a0 01 12 01 40       	mov    0x40011201,%al
40001d40:	3c 37                	cmp    $0x37,%al
40001d42:	75 1c                	jne    40001d60 <printchar+0x395>
40001d44:	83 ec 04             	sub    $0x4,%esp
40001d47:	6a 08                	push   $0x8
40001d49:	68 24 12 01 40       	push   $0x40011224
40001d4e:	68 2c 12 01 40       	push   $0x4001122c
40001d53:	e8 d0 92 00 00       	call   4000b028 <memcpy>
40001d58:	83 c4 10             	add    $0x10,%esp
40001d5b:	e9 e1 02 00 00       	jmp    40002041 <printchar+0x676>
40001d60:	a0 00 12 01 40       	mov    0x40011200,%al
40001d65:	3c 5b                	cmp    $0x5b,%al
40001d67:	75 2e                	jne    40001d97 <printchar+0x3cc>
40001d69:	a0 01 12 01 40       	mov    0x40011201,%al
40001d6e:	3c 75                	cmp    $0x75,%al
40001d70:	74 09                	je     40001d7b <printchar+0x3b0>
40001d72:	a0 01 12 01 40       	mov    0x40011201,%al
40001d77:	3c 38                	cmp    $0x38,%al
40001d79:	75 1c                	jne    40001d97 <printchar+0x3cc>
40001d7b:	83 ec 04             	sub    $0x4,%esp
40001d7e:	6a 08                	push   $0x8
40001d80:	68 2c 12 01 40       	push   $0x4001122c
40001d85:	68 24 12 01 40       	push   $0x40011224
40001d8a:	e8 99 92 00 00       	call   4000b028 <memcpy>
40001d8f:	83 c4 10             	add    $0x10,%esp
40001d92:	e9 aa 02 00 00       	jmp    40002041 <printchar+0x676>
40001d97:	83 ec 04             	sub    $0x4,%esp
40001d9a:	6a 02                	push   $0x2
40001d9c:	68 a9 f1 00 40       	push   $0x4000f1a9
40001da1:	68 00 12 01 40       	push   $0x40011200
40001da6:	e8 79 91 00 00       	call   4000af24 <memcmp>
40001dab:	83 c4 10             	add    $0x10,%esp
40001dae:	85 c0                	test   %eax,%eax
40001db0:	75 34                	jne    40001de6 <printchar+0x41b>
40001db2:	8b 15 24 12 01 40    	mov    0x40011224,%edx
40001db8:	b8 51 00 00 00       	mov    $0x51,%eax
40001dbd:	29 d0                	sub    %edx,%eax
40001dbf:	01 c0                	add    %eax,%eax
40001dc1:	89 c1                	mov    %eax,%ecx
40001dc3:	8b 45 fc             	mov    -0x4(%ebp),%eax
40001dc6:	01 c0                	add    %eax,%eax
40001dc8:	89 c2                	mov    %eax,%edx
40001dca:	a1 44 12 01 40       	mov    0x40011244,%eax
40001dcf:	8d 04 02             	lea    (%edx,%eax,1),%eax
40001dd2:	83 ec 04             	sub    $0x4,%esp
40001dd5:	51                   	push   %ecx
40001dd6:	6a 00                	push   $0x0
40001dd8:	50                   	push   %eax
40001dd9:	e8 27 94 00 00       	call   4000b205 <memset>
40001dde:	83 c4 10             	add    $0x10,%esp
40001de1:	e9 5b 02 00 00       	jmp    40002041 <printchar+0x676>
40001de6:	83 ec 04             	sub    $0x4,%esp
40001de9:	6a 03                	push   $0x3
40001deb:	68 ac f1 00 40       	push   $0x4000f1ac
40001df0:	68 00 12 01 40       	push   $0x40011200
40001df5:	e8 2a 91 00 00       	call   4000af24 <memcmp>
40001dfa:	83 c4 10             	add    $0x10,%esp
40001dfd:	85 c0                	test   %eax,%eax
40001dff:	75 37                	jne    40001e38 <printchar+0x46d>
40001e01:	a1 28 12 01 40       	mov    0x40011228,%eax
40001e06:	01 c0                	add    %eax,%eax
40001e08:	89 c1                	mov    %eax,%ecx
40001e0a:	8b 15 24 12 01 40    	mov    0x40011224,%edx
40001e10:	89 d0                	mov    %edx,%eax
40001e12:	c1 e0 02             	shl    $0x2,%eax
40001e15:	01 d0                	add    %edx,%eax
40001e17:	c1 e0 05             	shl    $0x5,%eax
40001e1a:	89 c2                	mov    %eax,%edx
40001e1c:	a1 44 12 01 40       	mov    0x40011244,%eax
40001e21:	8d 04 02             	lea    (%edx,%eax,1),%eax
40001e24:	83 ec 04             	sub    $0x4,%esp
40001e27:	51                   	push   %ecx
40001e28:	6a 00                	push   $0x0
40001e2a:	50                   	push   %eax
40001e2b:	e8 d5 93 00 00       	call   4000b205 <memset>
40001e30:	83 c4 10             	add    $0x10,%esp
40001e33:	e9 09 02 00 00       	jmp    40002041 <printchar+0x676>
40001e38:	83 ec 04             	sub    $0x4,%esp
40001e3b:	6a 03                	push   $0x3
40001e3d:	68 b0 f1 00 40       	push   $0x4000f1b0
40001e42:	68 00 12 01 40       	push   $0x40011200
40001e47:	e8 d8 90 00 00       	call   4000af24 <memcmp>
40001e4c:	83 c4 10             	add    $0x10,%esp
40001e4f:	85 c0                	test   %eax,%eax
40001e51:	75 2f                	jne    40001e82 <printchar+0x4b7>
40001e53:	8b 15 24 12 01 40    	mov    0x40011224,%edx
40001e59:	89 d0                	mov    %edx,%eax
40001e5b:	c1 e0 02             	shl    $0x2,%eax
40001e5e:	01 d0                	add    %edx,%eax
40001e60:	c1 e0 05             	shl    $0x5,%eax
40001e63:	89 c2                	mov    %eax,%edx
40001e65:	a1 44 12 01 40       	mov    0x40011244,%eax
40001e6a:	8d 04 02             	lea    (%edx,%eax,1),%eax
40001e6d:	83 ec 04             	sub    $0x4,%esp
40001e70:	6a 50                	push   $0x50
40001e72:	6a 00                	push   $0x0
40001e74:	50                   	push   %eax
40001e75:	e8 8b 93 00 00       	call   4000b205 <memset>
40001e7a:	83 c4 10             	add    $0x10,%esp
40001e7d:	e9 bf 01 00 00       	jmp    40002041 <printchar+0x676>
40001e82:	83 ec 04             	sub    $0x4,%esp
40001e85:	6a 02                	push   $0x2
40001e87:	68 b4 f1 00 40       	push   $0x4000f1b4
40001e8c:	68 00 12 01 40       	push   $0x40011200
40001e91:	e8 8e 90 00 00       	call   4000af24 <memcmp>
40001e96:	83 c4 10             	add    $0x10,%esp
40001e99:	85 c0                	test   %eax,%eax
40001e9b:	75 4b                	jne    40001ee8 <printchar+0x51d>
40001e9d:	8b 15 28 12 01 40    	mov    0x40011228,%edx
40001ea3:	b8 19 00 00 00       	mov    $0x19,%eax
40001ea8:	89 c1                	mov    %eax,%ecx
40001eaa:	29 d1                	sub    %edx,%ecx
40001eac:	89 ca                	mov    %ecx,%edx
40001eae:	89 d0                	mov    %edx,%eax
40001eb0:	c1 e0 02             	shl    $0x2,%eax
40001eb3:	01 d0                	add    %edx,%eax
40001eb5:	c1 e0 05             	shl    $0x5,%eax
40001eb8:	89 c1                	mov    %eax,%ecx
40001eba:	8b 15 24 12 01 40    	mov    0x40011224,%edx
40001ec0:	89 d0                	mov    %edx,%eax
40001ec2:	c1 e0 02             	shl    $0x2,%eax
40001ec5:	01 d0                	add    %edx,%eax
40001ec7:	c1 e0 05             	shl    $0x5,%eax
40001eca:	89 c2                	mov    %eax,%edx
40001ecc:	a1 44 12 01 40       	mov    0x40011244,%eax
40001ed1:	8d 04 02             	lea    (%edx,%eax,1),%eax
40001ed4:	83 ec 04             	sub    $0x4,%esp
40001ed7:	51                   	push   %ecx
40001ed8:	6a 00                	push   $0x0
40001eda:	50                   	push   %eax
40001edb:	e8 25 93 00 00       	call   4000b205 <memset>
40001ee0:	83 c4 10             	add    $0x10,%esp
40001ee3:	e9 59 01 00 00       	jmp    40002041 <printchar+0x676>
40001ee8:	83 ec 04             	sub    $0x4,%esp
40001eeb:	6a 03                	push   $0x3
40001eed:	68 b7 f1 00 40       	push   $0x4000f1b7
40001ef2:	68 00 12 01 40       	push   $0x40011200
40001ef7:	e8 28 90 00 00       	call   4000af24 <memcmp>
40001efc:	83 c4 10             	add    $0x10,%esp
40001eff:	85 c0                	test   %eax,%eax
40001f01:	75 2a                	jne    40001f2d <printchar+0x562>
40001f03:	8b 15 28 12 01 40    	mov    0x40011228,%edx
40001f09:	89 d0                	mov    %edx,%eax
40001f0b:	c1 e0 02             	shl    $0x2,%eax
40001f0e:	01 d0                	add    %edx,%eax
40001f10:	c1 e0 05             	shl    $0x5,%eax
40001f13:	8b 15 44 12 01 40    	mov    0x40011244,%edx
40001f19:	83 ec 04             	sub    $0x4,%esp
40001f1c:	50                   	push   %eax
40001f1d:	6a 00                	push   $0x0
40001f1f:	52                   	push   %edx
40001f20:	e8 e0 92 00 00       	call   4000b205 <memset>
40001f25:	83 c4 10             	add    $0x10,%esp
40001f28:	e9 14 01 00 00       	jmp    40002041 <printchar+0x676>
40001f2d:	83 ec 04             	sub    $0x4,%esp
40001f30:	6a 03                	push   $0x3
40001f32:	68 bb f1 00 40       	push   $0x4000f1bb
40001f37:	68 00 12 01 40       	push   $0x40011200
40001f3c:	e8 e3 8f 00 00       	call   4000af24 <memcmp>
40001f41:	83 c4 10             	add    $0x10,%esp
40001f44:	85 c0                	test   %eax,%eax
40001f46:	0f 85 f5 00 00 00    	jne    40002041 <printchar+0x676>
40001f4c:	e8 2f fa ff ff       	call   40001980 <clearscreen>
40001f51:	e9 eb 00 00 00       	jmp    40002041 <printchar+0x676>
40001f56:	80 7d dc 07          	cmpb   $0x7,-0x24(%ebp)
40001f5a:	75 1d                	jne    40001f79 <printchar+0x5ae>
40001f5c:	a1 3c 12 01 40       	mov    0x4001123c,%eax
40001f61:	8b 15 38 12 01 40    	mov    0x40011238,%edx
40001f67:	83 ec 08             	sub    $0x8,%esp
40001f6a:	50                   	push   %eax
40001f6b:	52                   	push   %edx
40001f6c:	e8 b3 f8 ff ff       	call   40001824 <bell>
40001f71:	83 c4 10             	add    $0x10,%esp
40001f74:	e9 c8 00 00 00       	jmp    40002041 <printchar+0x676>
40001f79:	80 7d dc 08          	cmpb   $0x8,-0x24(%ebp)
40001f7d:	75 23                	jne    40001fa2 <printchar+0x5d7>
40001f7f:	a1 24 12 01 40       	mov    0x40011224,%eax
40001f84:	48                   	dec    %eax
40001f85:	89 45 d8             	mov    %eax,-0x28(%ebp)
40001f88:	83 7d d8 00          	cmpl   $0x0,-0x28(%ebp)
40001f8c:	79 07                	jns    40001f95 <printchar+0x5ca>
40001f8e:	c7 45 d8 00 00 00 00 	movl   $0x0,-0x28(%ebp)
40001f95:	8b 45 d8             	mov    -0x28(%ebp),%eax
40001f98:	a3 24 12 01 40       	mov    %eax,0x40011224
40001f9d:	e9 9f 00 00 00       	jmp    40002041 <printchar+0x676>
40001fa2:	80 7d dc 09          	cmpb   $0x9,-0x24(%ebp)
40001fa6:	75 12                	jne    40001fba <printchar+0x5ef>
40001fa8:	a1 24 12 01 40       	mov    0x40011224,%eax
40001fad:	83 c0 05             	add    $0x5,%eax
40001fb0:	a3 24 12 01 40       	mov    %eax,0x40011224
40001fb5:	e9 87 00 00 00       	jmp    40002041 <printchar+0x676>
40001fba:	80 7d dc 0a          	cmpb   $0xa,-0x24(%ebp)
40001fbe:	75 17                	jne    40001fd7 <printchar+0x60c>
40001fc0:	a1 28 12 01 40       	mov    0x40011228,%eax
40001fc5:	40                   	inc    %eax
40001fc6:	a3 28 12 01 40       	mov    %eax,0x40011228
40001fcb:	c7 05 24 12 01 40 00 	movl   $0x0,0x40011224
40001fd2:	00 00 00 
40001fd5:	eb 6a                	jmp    40002041 <printchar+0x676>
40001fd7:	80 7d dc 0c          	cmpb   $0xc,-0x24(%ebp)
40001fdb:	75 07                	jne    40001fe4 <printchar+0x619>
40001fdd:	e8 9e f9 ff ff       	call   40001980 <clearscreen>
40001fe2:	eb 5d                	jmp    40002041 <printchar+0x676>
40001fe4:	80 7d dc 0d          	cmpb   $0xd,-0x24(%ebp)
40001fe8:	75 0c                	jne    40001ff6 <printchar+0x62b>
40001fea:	c7 05 24 12 01 40 00 	movl   $0x0,0x40011224
40001ff1:	00 00 00 
40001ff4:	eb 4b                	jmp    40002041 <printchar+0x676>
40001ff6:	80 7d dc 1b          	cmpb   $0x1b,-0x24(%ebp)
40001ffa:	75 0c                	jne    40002008 <printchar+0x63d>
40001ffc:	c7 05 20 12 01 40 01 	movl   $0x1,0x40011220
40002003:	00 00 00 
40002006:	eb 39                	jmp    40002041 <printchar+0x676>
40002008:	80 7d dc 1f          	cmpb   $0x1f,-0x24(%ebp)
4000200c:	7e 33                	jle    40002041 <printchar+0x676>
4000200e:	8b 45 fc             	mov    -0x4(%ebp),%eax
40002011:	01 c0                	add    %eax,%eax
40002013:	89 c2                	mov    %eax,%edx
40002015:	a1 44 12 01 40       	mov    0x40011244,%eax
4000201a:	8d 0c 02             	lea    (%edx,%eax,1),%ecx
4000201d:	a1 40 12 01 40       	mov    0x40011240,%eax
40002022:	25 ff ff 00 00       	and    $0xffff,%eax
40002027:	c1 e0 08             	shl    $0x8,%eax
4000202a:	89 c2                	mov    %eax,%edx
4000202c:	66 0f be 45 dc       	movsbw -0x24(%ebp),%ax
40002031:	09 d0                	or     %edx,%eax
40002033:	66 89 01             	mov    %ax,(%ecx)
40002036:	a1 24 12 01 40       	mov    0x40011224,%eax
4000203b:	40                   	inc    %eax
4000203c:	a3 24 12 01 40       	mov    %eax,0x40011224
40002041:	a1 24 12 01 40       	mov    0x40011224,%eax
40002046:	83 f8 4f             	cmp    $0x4f,%eax
40002049:	7e 64                	jle    400020af <printchar+0x6e4>
4000204b:	a1 24 12 01 40       	mov    0x40011224,%eax
40002050:	83 e8 50             	sub    $0x50,%eax
40002053:	a3 24 12 01 40       	mov    %eax,0x40011224
40002058:	a1 28 12 01 40       	mov    0x40011228,%eax
4000205d:	40                   	inc    %eax
4000205e:	a3 28 12 01 40       	mov    %eax,0x40011228
40002063:	eb 4a                	jmp    400020af <printchar+0x6e4>
40002065:	a1 44 12 01 40       	mov    0x40011244,%eax
4000206a:	05 a0 00 00 00       	add    $0xa0,%eax
4000206f:	8b 15 44 12 01 40    	mov    0x40011244,%edx
40002075:	83 ec 04             	sub    $0x4,%esp
40002078:	68 00 0f 00 00       	push   $0xf00
4000207d:	50                   	push   %eax
4000207e:	52                   	push   %edx
4000207f:	e8 a4 8f 00 00       	call   4000b028 <memcpy>
40002084:	83 c4 10             	add    $0x10,%esp
40002087:	a1 44 12 01 40       	mov    0x40011244,%eax
4000208c:	05 00 0f 00 00       	add    $0xf00,%eax
40002091:	83 ec 04             	sub    $0x4,%esp
40002094:	68 a0 00 00 00       	push   $0xa0
40002099:	6a 00                	push   $0x0
4000209b:	50                   	push   %eax
4000209c:	e8 64 91 00 00       	call   4000b205 <memset>
400020a1:	83 c4 10             	add    $0x10,%esp
400020a4:	a1 28 12 01 40       	mov    0x40011228,%eax
400020a9:	48                   	dec    %eax
400020aa:	a3 28 12 01 40       	mov    %eax,0x40011228
400020af:	a1 28 12 01 40       	mov    0x40011228,%eax
400020b4:	83 f8 18             	cmp    $0x18,%eax
400020b7:	7f ac                	jg     40002065 <printchar+0x69a>
400020b9:	e8 50 f8 ff ff       	call   4000190e <update_hwcursor>
400020be:	b8 01 00 00 00       	mov    $0x1,%eax
400020c3:	c9                   	leave  
400020c4:	c3                   	ret    

400020c5 <onwrite>:
400020c5:	55                   	push   %ebp
400020c6:	89 e5                	mov    %esp,%ebp
400020c8:	83 ec 18             	sub    $0x18,%esp
400020cb:	c7 45 fc 00 00 00 00 	movl   $0x0,-0x4(%ebp)
400020d2:	c7 45 f8 00 00 00 00 	movl   $0x0,-0x8(%ebp)
400020d9:	eb 20                	jmp    400020fb <onwrite+0x36>
400020db:	8b 55 0c             	mov    0xc(%ebp),%edx
400020de:	8b 45 f8             	mov    -0x8(%ebp),%eax
400020e1:	8d 04 02             	lea    (%edx,%eax,1),%eax
400020e4:	8a 00                	mov    (%eax),%al
400020e6:	0f be c0             	movsbl %al,%eax
400020e9:	83 ec 0c             	sub    $0xc,%esp
400020ec:	50                   	push   %eax
400020ed:	e8 d9 f8 ff ff       	call   400019cb <printchar>
400020f2:	83 c4 10             	add    $0x10,%esp
400020f5:	01 45 fc             	add    %eax,-0x4(%ebp)
400020f8:	ff 45 f8             	incl   -0x8(%ebp)
400020fb:	8b 45 f8             	mov    -0x8(%ebp),%eax
400020fe:	3b 45 10             	cmp    0x10(%ebp),%eax
40002101:	72 d8                	jb     400020db <onwrite+0x16>
40002103:	8b 45 fc             	mov    -0x4(%ebp),%eax
40002106:	c9                   	leave  
40002107:	c3                   	ret    

40002108 <init_screen>:
40002108:	55                   	push   %ebp
40002109:	89 e5                	mov    %esp,%ebp
4000210b:	83 ec 08             	sub    $0x8,%esp
4000210e:	83 ec 08             	sub    $0x8,%esp
40002111:	6a 00                	push   $0x0
40002113:	6a 06                	push   $0x6
40002115:	e8 66 b7 00 00       	call   4000d880 <syscall_call>
4000211a:	83 c4 10             	add    $0x10,%esp
4000211d:	a3 44 12 01 40       	mov    %eax,0x40011244
40002122:	a1 44 12 01 40       	mov    0x40011244,%eax
40002127:	85 c0                	test   %eax,%eax
40002129:	75 09                	jne    40002134 <init_screen+0x2c>
4000212b:	c7 45 fc ff ff ff ff 	movl   $0xffffffff,-0x4(%ebp)
40002132:	eb 25                	jmp    40002159 <init_screen+0x51>
40002134:	83 ec 04             	sub    $0x4,%esp
40002137:	6a 08                	push   $0x8
40002139:	6a 00                	push   $0x0
4000213b:	68 2c 12 01 40       	push   $0x4001122c
40002140:	e8 c0 90 00 00       	call   4000b205 <memset>
40002145:	83 c4 10             	add    $0x10,%esp
40002148:	e8 51 f8 ff ff       	call   4000199e <default_settings>
4000214d:	e8 2e f8 ff ff       	call   40001980 <clearscreen>
40002152:	c7 45 fc 00 00 00 00 	movl   $0x0,-0x4(%ebp)
40002159:	8b 45 fc             	mov    -0x4(%ebp),%eax
4000215c:	c9                   	leave  
4000215d:	c3                   	ret    
4000215e:	90                   	nop    
4000215f:	90                   	nop    

40002160 <_fs_init>:
40002160:	55                   	push   %ebp
40002161:	89 e5                	mov    %esp,%ebp
40002163:	83 ec 28             	sub    $0x28,%esp
40002166:	e8 b5 98 00 00       	call   4000ba20 <llist_create>
4000216b:	a3 48 12 01 40       	mov    %eax,0x40011248
40002170:	e8 ab 98 00 00       	call   4000ba20 <llist_create>
40002175:	a3 4c 12 01 40       	mov    %eax,0x4001124c
4000217a:	c7 05 50 12 01 40 03 	movl   $0x3,0x40011250
40002181:	00 00 00 
40002184:	c7 05 60 12 01 40 ff 	movl   $0x1ff,0x40011260
4000218b:	01 00 00 
4000218e:	c7 04 24 bf f1 00 40 	movl   $0x4000f1bf,(%esp)
40002195:	e8 bf b9 00 00       	call   4000db59 <getenv>
4000219a:	89 45 fc             	mov    %eax,-0x4(%ebp)
4000219d:	83 7d fc 00          	cmpl   $0x0,-0x4(%ebp)
400021a1:	75 07                	jne    400021aa <_fs_init+0x4a>
400021a3:	c7 45 fc c4 f1 00 40 	movl   $0x4000f1c4,-0x4(%ebp)
400021aa:	c7 44 24 08 0c 00 00 	movl   $0xc,0x8(%esp)
400021b1:	00 
400021b2:	c7 44 24 04 00 00 00 	movl   $0x0,0x4(%esp)
400021b9:	00 
400021ba:	c7 04 24 54 12 01 40 	movl   $0x40011254,(%esp)
400021c1:	e8 3f 90 00 00       	call   4000b205 <memset>
400021c6:	8b 45 fc             	mov    -0x4(%ebp),%eax
400021c9:	89 04 24             	mov    %eax,(%esp)
400021cc:	e8 67 0a 00 00       	call   40002c38 <chdir>
400021d1:	a1 28 29 01 40       	mov    0x40012928,%eax
400021d6:	8b 00                	mov    (%eax),%eax
400021d8:	89 44 24 04          	mov    %eax,0x4(%esp)
400021dc:	c7 04 24 00 00 00 00 	movl   $0x0,(%esp)
400021e3:	e8 38 05 00 00       	call   40002720 <_open_unnamed_pipe>
400021e8:	a1 28 29 01 40       	mov    0x40012928,%eax
400021ed:	8b 40 04             	mov    0x4(%eax),%eax
400021f0:	89 44 24 04          	mov    %eax,0x4(%esp)
400021f4:	c7 04 24 01 00 00 00 	movl   $0x1,(%esp)
400021fb:	e8 20 05 00 00       	call   40002720 <_open_unnamed_pipe>
40002200:	a1 28 29 01 40       	mov    0x40012928,%eax
40002205:	8b 40 08             	mov    0x8(%eax),%eax
40002208:	89 44 24 04          	mov    %eax,0x4(%esp)
4000220c:	c7 04 24 02 00 00 00 	movl   $0x2,(%esp)
40002213:	e8 08 05 00 00       	call   40002720 <_open_unnamed_pipe>
40002218:	c9                   	leave  
40002219:	c3                   	ret    

4000221a <mp_match>:
4000221a:	55                   	push   %ebp
4000221b:	89 e5                	mov    %esp,%ebp
4000221d:	53                   	push   %ebx
4000221e:	83 ec 34             	sub    $0x34,%esp
40002221:	c7 45 ec 00 00 00 00 	movl   $0x0,-0x14(%ebp)
40002228:	c7 45 f4 00 00 00 00 	movl   $0x0,-0xc(%ebp)
4000222f:	8b 45 08             	mov    0x8(%ebp),%eax
40002232:	89 04 24             	mov    %eax,(%esp)
40002235:	e8 c2 a2 00 00       	call   4000c4fc <path_parse>
4000223a:	89 45 f8             	mov    %eax,-0x8(%ebp)
4000223d:	83 7d 0c 00          	cmpl   $0x0,0xc(%ebp)
40002241:	74 0b                	je     4000224e <mp_match+0x34>
40002243:	8b 45 f8             	mov    -0x8(%ebp),%eax
40002246:	89 04 24             	mov    %eax,(%esp)
40002249:	e8 8c aa 00 00       	call   4000ccda <path_parent>
4000224e:	c7 45 e4 00 00 00 00 	movl   $0x0,-0x1c(%ebp)
40002255:	eb 30                	jmp    40002287 <mp_match+0x6d>
40002257:	8b 45 f0             	mov    -0x10(%ebp),%eax
4000225a:	8b 40 08             	mov    0x8(%eax),%eax
4000225d:	89 44 24 04          	mov    %eax,0x4(%esp)
40002261:	8b 45 f8             	mov    -0x8(%ebp),%eax
40002264:	89 04 24             	mov    %eax,(%esp)
40002267:	e8 36 a7 00 00       	call   4000c9a2 <path_compare>
4000226c:	89 45 e8             	mov    %eax,-0x18(%ebp)
4000226f:	8b 45 e8             	mov    -0x18(%ebp),%eax
40002272:	3b 45 ec             	cmp    -0x14(%ebp),%eax
40002275:	76 0c                	jbe    40002283 <mp_match+0x69>
40002277:	8b 45 e8             	mov    -0x18(%ebp),%eax
4000227a:	89 45 ec             	mov    %eax,-0x14(%ebp)
4000227d:	8b 45 f0             	mov    -0x10(%ebp),%eax
40002280:	89 45 f4             	mov    %eax,-0xc(%ebp)
40002283:	83 45 e4 01          	addl   $0x1,-0x1c(%ebp)
40002287:	a1 4c 12 01 40       	mov    0x4001124c,%eax
4000228c:	8b 55 e4             	mov    -0x1c(%ebp),%edx
4000228f:	89 54 24 04          	mov    %edx,0x4(%esp)
40002293:	89 04 24             	mov    %eax,(%esp)
40002296:	e8 38 99 00 00       	call   4000bbd3 <llist_get>
4000229b:	89 45 f0             	mov    %eax,-0x10(%ebp)
4000229e:	83 7d f0 00          	cmpl   $0x0,-0x10(%ebp)
400022a2:	75 b3                	jne    40002257 <mp_match+0x3d>
400022a4:	83 7d f4 00          	cmpl   $0x0,-0xc(%ebp)
400022a8:	74 48                	je     400022f2 <mp_match+0xd8>
400022aa:	8b 45 08             	mov    0x8(%ebp),%eax
400022ad:	89 04 24             	mov    %eax,(%esp)
400022b0:	e8 2b 91 00 00       	call   4000b3e0 <strlen>
400022b5:	89 c3                	mov    %eax,%ebx
400022b7:	8b 45 f4             	mov    -0xc(%ebp),%eax
400022ba:	8b 40 0c             	mov    0xc(%eax),%eax
400022bd:	89 04 24             	mov    %eax,(%esp)
400022c0:	e8 1b 91 00 00       	call   4000b3e0 <strlen>
400022c5:	89 da                	mov    %ebx,%edx
400022c7:	29 c2                	sub    %eax,%edx
400022c9:	89 d0                	mov    %edx,%eax
400022cb:	8d 58 01             	lea    0x1(%eax),%ebx
400022ce:	8b 45 f4             	mov    -0xc(%ebp),%eax
400022d1:	8b 40 0c             	mov    0xc(%eax),%eax
400022d4:	89 04 24             	mov    %eax,(%esp)
400022d7:	e8 04 91 00 00       	call   4000b3e0 <strlen>
400022dc:	03 45 08             	add    0x8(%ebp),%eax
400022df:	89 5c 24 08          	mov    %ebx,0x8(%esp)
400022e3:	89 44 24 04          	mov    %eax,0x4(%esp)
400022e7:	8b 45 08             	mov    0x8(%ebp),%eax
400022ea:	89 04 24             	mov    %eax,(%esp)
400022ed:	e8 ee 8d 00 00       	call   4000b0e0 <memmove>
400022f2:	8b 45 08             	mov    0x8(%ebp),%eax
400022f5:	0f b6 00             	movzbl (%eax),%eax
400022f8:	84 c0                	test   %al,%al
400022fa:	75 13                	jne    4000230f <mp_match+0xf5>
400022fc:	c7 44 24 04 c4 f1 00 	movl   $0x4000f1c4,0x4(%esp)
40002303:	40 
40002304:	8b 45 08             	mov    0x8(%ebp),%eax
40002307:	89 04 24             	mov    %eax,(%esp)
4000230a:	e8 3e 90 00 00       	call   4000b34d <strcpy>
4000230f:	8b 45 f4             	mov    -0xc(%ebp),%eax
40002312:	83 c4 34             	add    $0x34,%esp
40002315:	5b                   	pop    %ebx
40002316:	5d                   	pop    %ebp
40002317:	c3                   	ret    

40002318 <fsbypath>:
40002318:	55                   	push   %ebp
40002319:	89 e5                	mov    %esp,%ebp
4000231b:	53                   	push   %ebx
4000231c:	83 ec 24             	sub    $0x24,%esp
4000231f:	8b 45 0c             	mov    0xc(%ebp),%eax
40002322:	89 44 24 04          	mov    %eax,0x4(%esp)
40002326:	8b 45 08             	mov    0x8(%ebp),%eax
40002329:	89 04 24             	mov    %eax,(%esp)
4000232c:	e8 e9 fe ff ff       	call   4000221a <mp_match>
40002331:	89 45 f4             	mov    %eax,-0xc(%ebp)
40002334:	83 7d f4 00          	cmpl   $0x0,-0xc(%ebp)
40002338:	0f 85 2d 01 00 00    	jne    4000246b <fsbypath+0x153>
4000233e:	c7 04 24 10 00 00 00 	movl   $0x10,(%esp)
40002345:	e8 06 59 00 00       	call   40007c50 <malloc>
4000234a:	89 45 f4             	mov    %eax,-0xc(%ebp)
4000234d:	8b 45 08             	mov    0x8(%ebp),%eax
40002350:	89 04 24             	mov    %eax,(%esp)
40002353:	e8 3d 90 00 00       	call   4000b395 <strdup>
40002358:	89 45 f8             	mov    %eax,-0x8(%ebp)
4000235b:	8b 45 0c             	mov    0xc(%ebp),%eax
4000235e:	89 44 24 0c          	mov    %eax,0xc(%esp)
40002362:	8b 45 08             	mov    0x8(%ebp),%eax
40002365:	89 44 24 08          	mov    %eax,0x8(%esp)
40002369:	c7 44 24 04 02 00 00 	movl   $0x2,0x4(%esp)
40002370:	00 
40002371:	c7 04 24 c6 f1 00 40 	movl   $0x4000f1c6,(%esp)
40002378:	e8 52 af 00 00       	call   4000d2cf <rpc_call>
4000237d:	89 c2                	mov    %eax,%edx
4000237f:	8b 45 f4             	mov    -0xc(%ebp),%eax
40002382:	89 50 04             	mov    %edx,0x4(%eax)
40002385:	8b 45 f4             	mov    -0xc(%ebp),%eax
40002388:	8b 40 04             	mov    0x4(%eax),%eax
4000238b:	85 c0                	test   %eax,%eax
4000238d:	79 24                	jns    400023b3 <fsbypath+0x9b>
4000238f:	8b 45 f8             	mov    -0x8(%ebp),%eax
40002392:	89 04 24             	mov    %eax,(%esp)
40002395:	e8 6d 5d 00 00       	call   40008107 <free>
4000239a:	8b 45 f4             	mov    -0xc(%ebp),%eax
4000239d:	8b 40 04             	mov    0x4(%eax),%eax
400023a0:	f7 d8                	neg    %eax
400023a2:	a3 44 29 01 40       	mov    %eax,0x40012944
400023a7:	c7 45 e8 00 00 00 00 	movl   $0x0,-0x18(%ebp)
400023ae:	e9 be 00 00 00       	jmp    40002471 <fsbypath+0x159>
400023b3:	8b 45 f8             	mov    -0x8(%ebp),%eax
400023b6:	89 04 24             	mov    %eax,(%esp)
400023b9:	e8 22 90 00 00       	call   4000b3e0 <strlen>
400023be:	89 c3                	mov    %eax,%ebx
400023c0:	8b 45 08             	mov    0x8(%ebp),%eax
400023c3:	89 04 24             	mov    %eax,(%esp)
400023c6:	e8 15 90 00 00       	call   4000b3e0 <strlen>
400023cb:	89 da                	mov    %ebx,%edx
400023cd:	29 c2                	sub    %eax,%edx
400023cf:	89 d0                	mov    %edx,%eax
400023d1:	03 45 f8             	add    -0x8(%ebp),%eax
400023d4:	c6 00 00             	movb   $0x0,(%eax)
400023d7:	8b 45 f8             	mov    -0x8(%ebp),%eax
400023da:	89 04 24             	mov    %eax,(%esp)
400023dd:	e8 1a a1 00 00       	call   4000c4fc <path_parse>
400023e2:	89 c2                	mov    %eax,%edx
400023e4:	8b 45 f4             	mov    -0xc(%ebp),%eax
400023e7:	89 50 08             	mov    %edx,0x8(%eax)
400023ea:	8b 45 f4             	mov    -0xc(%ebp),%eax
400023ed:	8b 40 08             	mov    0x8(%eax),%eax
400023f0:	c7 44 24 04 00 00 00 	movl   $0x0,0x4(%esp)
400023f7:	00 
400023f8:	89 04 24             	mov    %eax,(%esp)
400023fb:	e8 c8 a3 00 00       	call   4000c7c8 <path_output>
40002400:	89 c2                	mov    %eax,%edx
40002402:	8b 45 f4             	mov    -0xc(%ebp),%eax
40002405:	89 50 0c             	mov    %edx,0xc(%eax)
40002408:	8b 45 f8             	mov    -0x8(%ebp),%eax
4000240b:	89 04 24             	mov    %eax,(%esp)
4000240e:	e8 f4 5c 00 00       	call   40008107 <free>
40002413:	8b 45 f4             	mov    -0xc(%ebp),%eax
40002416:	8b 40 04             	mov    0x4(%eax),%eax
40002419:	89 44 24 08          	mov    %eax,0x8(%esp)
4000241d:	c7 44 24 04 00 00 00 	movl   $0x0,0x4(%esp)
40002424:	00 
40002425:	c7 04 24 d2 f1 00 40 	movl   $0x4000f1d2,(%esp)
4000242c:	e8 9e ae 00 00       	call   4000d2cf <rpc_call>
40002431:	89 c2                	mov    %eax,%edx
40002433:	8b 45 f4             	mov    -0xc(%ebp),%eax
40002436:	89 10                	mov    %edx,(%eax)
40002438:	8b 45 f4             	mov    -0xc(%ebp),%eax
4000243b:	8b 00                	mov    (%eax),%eax
4000243d:	85 c0                	test   %eax,%eax
4000243f:	79 15                	jns    40002456 <fsbypath+0x13e>
40002441:	8b 45 f4             	mov    -0xc(%ebp),%eax
40002444:	8b 00                	mov    (%eax),%eax
40002446:	f7 d8                	neg    %eax
40002448:	a3 44 29 01 40       	mov    %eax,0x40012944
4000244d:	c7 45 e8 00 00 00 00 	movl   $0x0,-0x18(%ebp)
40002454:	eb 1b                	jmp    40002471 <fsbypath+0x159>
40002456:	8b 15 4c 12 01 40    	mov    0x4001124c,%edx
4000245c:	8b 45 f4             	mov    -0xc(%ebp),%eax
4000245f:	89 44 24 04          	mov    %eax,0x4(%esp)
40002463:	89 14 24             	mov    %edx,(%esp)
40002466:	e8 30 96 00 00       	call   4000ba9b <llist_push>
4000246b:	8b 45 f4             	mov    -0xc(%ebp),%eax
4000246e:	89 45 e8             	mov    %eax,-0x18(%ebp)
40002471:	8b 45 e8             	mov    -0x18(%ebp),%eax
40002474:	83 c4 24             	add    $0x24,%esp
40002477:	5b                   	pop    %ebx
40002478:	5d                   	pop    %ebp
40002479:	c3                   	ret    

4000247a <lidxbyfh>:
4000247a:	55                   	push   %ebp
4000247b:	89 e5                	mov    %esp,%ebp
4000247d:	83 ec 28             	sub    $0x28,%esp
40002480:	c7 45 fc 00 00 00 00 	movl   $0x0,-0x4(%ebp)
40002487:	eb 17                	jmp    400024a0 <lidxbyfh+0x26>
40002489:	8b 45 f8             	mov    -0x8(%ebp),%eax
4000248c:	8b 40 14             	mov    0x14(%eax),%eax
4000248f:	3b 45 08             	cmp    0x8(%ebp),%eax
40002492:	75 08                	jne    4000249c <lidxbyfh+0x22>
40002494:	8b 45 fc             	mov    -0x4(%ebp),%eax
40002497:	89 45 ec             	mov    %eax,-0x14(%ebp)
4000249a:	eb 29                	jmp    400024c5 <lidxbyfh+0x4b>
4000249c:	83 45 fc 01          	addl   $0x1,-0x4(%ebp)
400024a0:	8b 45 fc             	mov    -0x4(%ebp),%eax
400024a3:	8b 15 48 12 01 40    	mov    0x40011248,%edx
400024a9:	89 44 24 04          	mov    %eax,0x4(%esp)
400024ad:	89 14 24             	mov    %edx,(%esp)
400024b0:	e8 1e 97 00 00       	call   4000bbd3 <llist_get>
400024b5:	89 45 f8             	mov    %eax,-0x8(%ebp)
400024b8:	83 7d f8 00          	cmpl   $0x0,-0x8(%ebp)
400024bc:	75 cb                	jne    40002489 <lidxbyfh+0xf>
400024be:	c7 45 ec ff ff ff ff 	movl   $0xffffffff,-0x14(%ebp)
400024c5:	8b 45 ec             	mov    -0x14(%ebp),%eax
400024c8:	c9                   	leave  
400024c9:	c3                   	ret    

400024ca <getabsolutepath>:
400024ca:	55                   	push   %ebp
400024cb:	89 e5                	mov    %esp,%ebp
400024cd:	83 ec 18             	sub    $0x18,%esp
400024d0:	8b 45 08             	mov    0x8(%ebp),%eax
400024d3:	89 04 24             	mov    %eax,(%esp)
400024d6:	e8 21 a0 00 00       	call   4000c4fc <path_parse>
400024db:	89 45 f8             	mov    %eax,-0x8(%ebp)
400024de:	8b 45 f8             	mov    -0x8(%ebp),%eax
400024e1:	8b 40 0c             	mov    0xc(%eax),%eax
400024e4:	85 c0                	test   %eax,%eax
400024e6:	75 29                	jne    40002511 <getabsolutepath+0x47>
400024e8:	8b 15 5c 12 01 40    	mov    0x4001125c,%edx
400024ee:	8b 45 f8             	mov    -0x8(%ebp),%eax
400024f1:	89 44 24 04          	mov    %eax,0x4(%esp)
400024f5:	89 14 24             	mov    %edx,(%esp)
400024f8:	e8 c8 a5 00 00       	call   4000cac5 <path_cat>
400024fd:	89 45 fc             	mov    %eax,-0x4(%ebp)
40002500:	8b 45 f8             	mov    -0x8(%ebp),%eax
40002503:	89 04 24             	mov    %eax,(%esp)
40002506:	e8 16 a1 00 00       	call   4000c621 <path_destroy>
4000250b:	8b 45 fc             	mov    -0x4(%ebp),%eax
4000250e:	89 45 f8             	mov    %eax,-0x8(%ebp)
40002511:	8b 45 f8             	mov    -0x8(%ebp),%eax
40002514:	89 04 24             	mov    %eax,(%esp)
40002517:	e8 3a a1 00 00       	call   4000c656 <path_reject_dots>
4000251c:	c7 44 24 04 00 00 00 	movl   $0x0,0x4(%esp)
40002523:	00 
40002524:	8b 45 f8             	mov    -0x8(%ebp),%eax
40002527:	89 04 24             	mov    %eax,(%esp)
4000252a:	e8 99 a2 00 00       	call   4000c7c8 <path_output>
4000252f:	c9                   	leave  
40002530:	c3                   	ret    

40002531 <_create_unnamed_pipe>:
40002531:	55                   	push   %ebp
40002532:	89 e5                	mov    %esp,%ebp
40002534:	83 ec 28             	sub    $0x28,%esp
40002537:	c7 44 24 08 00 00 00 	movl   $0x0,0x8(%esp)
4000253e:	00 
4000253f:	c7 44 24 04 00 20 00 	movl   $0x2000,0x4(%esp)
40002546:	00 
40002547:	c7 04 24 00 00 00 00 	movl   $0x0,(%esp)
4000254e:	e8 41 6b 00 00       	call   40009094 <shmget>
40002553:	89 45 f4             	mov    %eax,-0xc(%ebp)
40002556:	83 7d f4 ff          	cmpl   $0xffffffff,-0xc(%ebp)
4000255a:	0f 84 0c 01 00 00    	je     4000266c <_create_unnamed_pipe+0x13b>
40002560:	c7 44 24 08 00 00 00 	movl   $0x0,0x8(%esp)
40002567:	00 
40002568:	c7 44 24 04 00 00 00 	movl   $0x0,0x4(%esp)
4000256f:	00 
40002570:	8b 45 f4             	mov    -0xc(%ebp),%eax
40002573:	89 04 24             	mov    %eax,(%esp)
40002576:	e8 d5 6b 00 00       	call   40009150 <shmat>
4000257b:	89 45 f8             	mov    %eax,-0x8(%ebp)
4000257e:	83 7d f8 00          	cmpl   $0x0,-0x8(%ebp)
40002582:	0f 84 c9 00 00 00    	je     40002651 <_create_unnamed_pipe+0x120>
40002588:	c7 04 24 28 00 00 00 	movl   $0x28,(%esp)
4000258f:	e8 bc 56 00 00       	call   40007c50 <malloc>
40002594:	89 45 fc             	mov    %eax,-0x4(%ebp)
40002597:	c7 44 24 08 28 00 00 	movl   $0x28,0x8(%esp)
4000259e:	00 
4000259f:	c7 44 24 04 00 00 00 	movl   $0x0,0x4(%esp)
400025a6:	00 
400025a7:	8b 45 fc             	mov    -0x4(%ebp),%eax
400025aa:	89 04 24             	mov    %eax,(%esp)
400025ad:	e8 53 8c 00 00       	call   4000b205 <memset>
400025b2:	8b 15 50 12 01 40    	mov    0x40011250,%edx
400025b8:	8b 45 fc             	mov    -0x4(%ebp),%eax
400025bb:	89 50 14             	mov    %edx,0x14(%eax)
400025be:	8d 42 01             	lea    0x1(%edx),%eax
400025c1:	a3 50 12 01 40       	mov    %eax,0x40011250
400025c6:	83 7d 08 00          	cmpl   $0x0,0x8(%ebp)
400025ca:	74 09                	je     400025d5 <_create_unnamed_pipe+0xa4>
400025cc:	c7 45 e8 01 00 00 00 	movl   $0x1,-0x18(%ebp)
400025d3:	eb 07                	jmp    400025dc <_create_unnamed_pipe+0xab>
400025d5:	c7 45 e8 02 00 00 00 	movl   $0x2,-0x18(%ebp)
400025dc:	8b 45 fc             	mov    -0x4(%ebp),%eax
400025df:	8b 55 e8             	mov    -0x18(%ebp),%edx
400025e2:	89 50 10             	mov    %edx,0x10(%eax)
400025e5:	8b 55 fc             	mov    -0x4(%ebp),%edx
400025e8:	8b 45 f4             	mov    -0xc(%ebp),%eax
400025eb:	89 42 1c             	mov    %eax,0x1c(%edx)
400025ee:	8b 55 fc             	mov    -0x4(%ebp),%edx
400025f1:	8b 45 f8             	mov    -0x8(%ebp),%eax
400025f4:	89 42 20             	mov    %eax,0x20(%edx)
400025f7:	8b 55 08             	mov    0x8(%ebp),%edx
400025fa:	8b 45 f8             	mov    -0x8(%ebp),%eax
400025fd:	89 10                	mov    %edx,(%eax)
400025ff:	8b 45 f8             	mov    -0x8(%ebp),%eax
40002602:	83 c0 04             	add    $0x4,%eax
40002605:	c7 00 00 00 00 00    	movl   $0x0,(%eax)
4000260b:	8b 45 f8             	mov    -0x8(%ebp),%eax
4000260e:	83 c0 08             	add    $0x8,%eax
40002611:	c7 00 00 00 00 00    	movl   $0x0,(%eax)
40002617:	8b 45 f8             	mov    -0x8(%ebp),%eax
4000261a:	83 c0 0c             	add    $0xc,%eax
4000261d:	c7 00 00 00 00 00    	movl   $0x0,(%eax)
40002623:	8b 15 48 12 01 40    	mov    0x40011248,%edx
40002629:	8b 45 fc             	mov    -0x4(%ebp),%eax
4000262c:	89 44 24 04          	mov    %eax,0x4(%esp)
40002630:	89 14 24             	mov    %edx,(%esp)
40002633:	e8 63 94 00 00       	call   4000ba9b <llist_push>
40002638:	83 7d 0c 00          	cmpl   $0x0,0xc(%ebp)
4000263c:	74 08                	je     40002646 <_create_unnamed_pipe+0x115>
4000263e:	8b 55 0c             	mov    0xc(%ebp),%edx
40002641:	8b 45 f4             	mov    -0xc(%ebp),%eax
40002644:	89 02                	mov    %eax,(%edx)
40002646:	8b 45 fc             	mov    -0x4(%ebp),%eax
40002649:	8b 40 14             	mov    0x14(%eax),%eax
4000264c:	89 45 ec             	mov    %eax,-0x14(%ebp)
4000264f:	eb 22                	jmp    40002673 <_create_unnamed_pipe+0x142>
40002651:	c7 44 24 08 00 00 00 	movl   $0x0,0x8(%esp)
40002658:	00 
40002659:	c7 44 24 04 01 00 00 	movl   $0x1,0x4(%esp)
40002660:	00 
40002661:	8b 45 f4             	mov    -0xc(%ebp),%eax
40002664:	89 04 24             	mov    %eax,(%esp)
40002667:	e8 d7 6b 00 00       	call   40009243 <shmctl>
4000266c:	c7 45 ec ff ff ff ff 	movl   $0xffffffff,-0x14(%ebp)
40002673:	8b 45 ec             	mov    -0x14(%ebp),%eax
40002676:	c9                   	leave  
40002677:	c3                   	ret    

40002678 <_destroy_unnamed_pipe>:
40002678:	55                   	push   %ebp
40002679:	89 e5                	mov    %esp,%ebp
4000267b:	83 ec 28             	sub    $0x28,%esp
4000267e:	8b 45 08             	mov    0x8(%ebp),%eax
40002681:	89 04 24             	mov    %eax,(%esp)
40002684:	e8 f1 fd ff ff       	call   4000247a <lidxbyfh>
40002689:	8b 15 48 12 01 40    	mov    0x40011248,%edx
4000268f:	89 44 24 04          	mov    %eax,0x4(%esp)
40002693:	89 14 24             	mov    %edx,(%esp)
40002696:	e8 38 95 00 00       	call   4000bbd3 <llist_get>
4000269b:	89 45 fc             	mov    %eax,-0x4(%ebp)
4000269e:	83 7d fc 00          	cmpl   $0x0,-0x4(%ebp)
400026a2:	74 66                	je     4000270a <_destroy_unnamed_pipe+0x92>
400026a4:	8b 45 fc             	mov    -0x4(%ebp),%eax
400026a7:	8b 00                	mov    (%eax),%eax
400026a9:	85 c0                	test   %eax,%eax
400026ab:	75 5d                	jne    4000270a <_destroy_unnamed_pipe+0x92>
400026ad:	8b 45 fc             	mov    -0x4(%ebp),%eax
400026b0:	8b 40 20             	mov    0x20(%eax),%eax
400026b3:	89 04 24             	mov    %eax,(%esp)
400026b6:	e8 18 6b 00 00       	call   400091d3 <shmdt>
400026bb:	8b 45 fc             	mov    -0x4(%ebp),%eax
400026be:	8b 40 1c             	mov    0x1c(%eax),%eax
400026c1:	c7 44 24 08 00 00 00 	movl   $0x0,0x8(%esp)
400026c8:	00 
400026c9:	c7 44 24 04 01 00 00 	movl   $0x1,0x4(%esp)
400026d0:	00 
400026d1:	89 04 24             	mov    %eax,(%esp)
400026d4:	e8 6a 6b 00 00       	call   40009243 <shmctl>
400026d9:	8b 45 08             	mov    0x8(%ebp),%eax
400026dc:	89 04 24             	mov    %eax,(%esp)
400026df:	e8 96 fd ff ff       	call   4000247a <lidxbyfh>
400026e4:	8b 15 48 12 01 40    	mov    0x40011248,%edx
400026ea:	89 44 24 04          	mov    %eax,0x4(%esp)
400026ee:	89 14 24             	mov    %edx,(%esp)
400026f1:	e8 af 95 00 00       	call   4000bca5 <llist_remove>
400026f6:	8b 45 fc             	mov    -0x4(%ebp),%eax
400026f9:	89 04 24             	mov    %eax,(%esp)
400026fc:	e8 06 5a 00 00       	call   40008107 <free>
40002701:	c7 45 ec 00 00 00 00 	movl   $0x0,-0x14(%ebp)
40002708:	eb 11                	jmp    4000271b <_destroy_unnamed_pipe+0xa3>
4000270a:	c7 05 44 29 01 40 08 	movl   $0x8,0x40012944
40002711:	00 00 00 
40002714:	c7 45 ec ff ff ff ff 	movl   $0xffffffff,-0x14(%ebp)
4000271b:	8b 45 ec             	mov    -0x14(%ebp),%eax
4000271e:	c9                   	leave  
4000271f:	c3                   	ret    

40002720 <_open_unnamed_pipe>:
40002720:	55                   	push   %ebp
40002721:	89 e5                	mov    %esp,%ebp
40002723:	83 ec 28             	sub    $0x28,%esp
40002726:	c7 44 24 08 00 00 00 	movl   $0x0,0x8(%esp)
4000272d:	00 
4000272e:	c7 44 24 04 00 00 00 	movl   $0x0,0x4(%esp)
40002735:	00 
40002736:	8b 45 0c             	mov    0xc(%ebp),%eax
40002739:	89 04 24             	mov    %eax,(%esp)
4000273c:	e8 0f 6a 00 00       	call   40009150 <shmat>
40002741:	89 45 f8             	mov    %eax,-0x8(%ebp)
40002744:	83 7d f8 00          	cmpl   $0x0,-0x8(%ebp)
40002748:	0f 84 9a 00 00 00    	je     400027e8 <_open_unnamed_pipe+0xc8>
4000274e:	83 7d 08 ff          	cmpl   $0xffffffff,0x8(%ebp)
40002752:	75 10                	jne    40002764 <_open_unnamed_pipe+0x44>
40002754:	a1 50 12 01 40       	mov    0x40011250,%eax
40002759:	89 45 08             	mov    %eax,0x8(%ebp)
4000275c:	83 c0 01             	add    $0x1,%eax
4000275f:	a3 50 12 01 40       	mov    %eax,0x40011250
40002764:	c7 04 24 28 00 00 00 	movl   $0x28,(%esp)
4000276b:	e8 e0 54 00 00       	call   40007c50 <malloc>
40002770:	89 45 fc             	mov    %eax,-0x4(%ebp)
40002773:	c7 44 24 08 28 00 00 	movl   $0x28,0x8(%esp)
4000277a:	00 
4000277b:	c7 44 24 04 00 00 00 	movl   $0x0,0x4(%esp)
40002782:	00 
40002783:	8b 45 fc             	mov    -0x4(%ebp),%eax
40002786:	89 04 24             	mov    %eax,(%esp)
40002789:	e8 77 8a 00 00       	call   4000b205 <memset>
4000278e:	8b 55 fc             	mov    -0x4(%ebp),%edx
40002791:	8b 45 08             	mov    0x8(%ebp),%eax
40002794:	89 42 14             	mov    %eax,0x14(%edx)
40002797:	8b 45 f8             	mov    -0x8(%ebp),%eax
4000279a:	8b 00                	mov    (%eax),%eax
4000279c:	85 c0                	test   %eax,%eax
4000279e:	74 09                	je     400027a9 <_open_unnamed_pipe+0x89>
400027a0:	c7 45 e8 02 00 00 00 	movl   $0x2,-0x18(%ebp)
400027a7:	eb 07                	jmp    400027b0 <_open_unnamed_pipe+0x90>
400027a9:	c7 45 e8 01 00 00 00 	movl   $0x1,-0x18(%ebp)
400027b0:	8b 45 fc             	mov    -0x4(%ebp),%eax
400027b3:	8b 55 e8             	mov    -0x18(%ebp),%edx
400027b6:	89 50 10             	mov    %edx,0x10(%eax)
400027b9:	8b 55 fc             	mov    -0x4(%ebp),%edx
400027bc:	8b 45 0c             	mov    0xc(%ebp),%eax
400027bf:	89 42 1c             	mov    %eax,0x1c(%edx)
400027c2:	8b 55 fc             	mov    -0x4(%ebp),%edx
400027c5:	8b 45 f8             	mov    -0x8(%ebp),%eax
400027c8:	89 42 20             	mov    %eax,0x20(%edx)
400027cb:	8b 15 48 12 01 40    	mov    0x40011248,%edx
400027d1:	8b 45 fc             	mov    -0x4(%ebp),%eax
400027d4:	89 44 24 04          	mov    %eax,0x4(%esp)
400027d8:	89 14 24             	mov    %edx,(%esp)
400027db:	e8 bb 92 00 00       	call   4000ba9b <llist_push>
400027e0:	8b 45 08             	mov    0x8(%ebp),%eax
400027e3:	89 45 ec             	mov    %eax,-0x14(%ebp)
400027e6:	eb 07                	jmp    400027ef <_open_unnamed_pipe+0xcf>
400027e8:	c7 45 ec ff ff ff ff 	movl   $0xffffffff,-0x14(%ebp)
400027ef:	8b 45 ec             	mov    -0x14(%ebp),%eax
400027f2:	c9                   	leave  
400027f3:	c3                   	ret    

400027f4 <_close_unnamed_pipe>:
400027f4:	55                   	push   %ebp
400027f5:	89 e5                	mov    %esp,%ebp
400027f7:	83 ec 28             	sub    $0x28,%esp
400027fa:	8b 45 08             	mov    0x8(%ebp),%eax
400027fd:	89 04 24             	mov    %eax,(%esp)
40002800:	e8 75 fc ff ff       	call   4000247a <lidxbyfh>
40002805:	8b 15 48 12 01 40    	mov    0x40011248,%edx
4000280b:	89 44 24 04          	mov    %eax,0x4(%esp)
4000280f:	89 14 24             	mov    %edx,(%esp)
40002812:	e8 bc 93 00 00       	call   4000bbd3 <llist_get>
40002817:	89 45 fc             	mov    %eax,-0x4(%ebp)
4000281a:	83 7d fc 00          	cmpl   $0x0,-0x4(%ebp)
4000281e:	74 48                	je     40002868 <_close_unnamed_pipe+0x74>
40002820:	8b 45 fc             	mov    -0x4(%ebp),%eax
40002823:	8b 00                	mov    (%eax),%eax
40002825:	85 c0                	test   %eax,%eax
40002827:	75 3f                	jne    40002868 <_close_unnamed_pipe+0x74>
40002829:	8b 45 fc             	mov    -0x4(%ebp),%eax
4000282c:	8b 40 20             	mov    0x20(%eax),%eax
4000282f:	89 04 24             	mov    %eax,(%esp)
40002832:	e8 9c 69 00 00       	call   400091d3 <shmdt>
40002837:	8b 45 08             	mov    0x8(%ebp),%eax
4000283a:	89 04 24             	mov    %eax,(%esp)
4000283d:	e8 38 fc ff ff       	call   4000247a <lidxbyfh>
40002842:	8b 15 48 12 01 40    	mov    0x40011248,%edx
40002848:	89 44 24 04          	mov    %eax,0x4(%esp)
4000284c:	89 14 24             	mov    %edx,(%esp)
4000284f:	e8 51 94 00 00       	call   4000bca5 <llist_remove>
40002854:	8b 45 fc             	mov    -0x4(%ebp),%eax
40002857:	89 04 24             	mov    %eax,(%esp)
4000285a:	e8 a8 58 00 00       	call   40008107 <free>
4000285f:	c7 45 ec 00 00 00 00 	movl   $0x0,-0x14(%ebp)
40002866:	eb 11                	jmp    40002879 <_close_unnamed_pipe+0x85>
40002868:	c7 05 44 29 01 40 08 	movl   $0x8,0x40012944
4000286f:	00 00 00 
40002872:	c7 45 ec ff ff ff ff 	movl   $0xffffffff,-0x14(%ebp)
40002879:	8b 45 ec             	mov    -0x14(%ebp),%eax
4000287c:	c9                   	leave  
4000287d:	c3                   	ret    

4000287e <_read_unnamed_pipe>:
4000287e:	55                   	push   %ebp
4000287f:	89 e5                	mov    %esp,%ebp
40002881:	83 ec 38             	sub    $0x38,%esp
40002884:	8b 45 08             	mov    0x8(%ebp),%eax
40002887:	89 04 24             	mov    %eax,(%esp)
4000288a:	e8 eb fb ff ff       	call   4000247a <lidxbyfh>
4000288f:	8b 15 48 12 01 40    	mov    0x40011248,%edx
40002895:	89 44 24 04          	mov    %eax,0x4(%esp)
40002899:	89 14 24             	mov    %edx,(%esp)
4000289c:	e8 32 93 00 00       	call   4000bbd3 <llist_get>
400028a1:	89 45 e0             	mov    %eax,-0x20(%ebp)
400028a4:	c7 45 e4 ff ff ff ff 	movl   $0xffffffff,-0x1c(%ebp)
400028ab:	83 7d e0 00          	cmpl   $0x0,-0x20(%ebp)
400028af:	0f 84 55 01 00 00    	je     40002a0a <_read_unnamed_pipe+0x18c>
400028b5:	8b 45 e0             	mov    -0x20(%ebp),%eax
400028b8:	8b 00                	mov    (%eax),%eax
400028ba:	85 c0                	test   %eax,%eax
400028bc:	0f 85 48 01 00 00    	jne    40002a0a <_read_unnamed_pipe+0x18c>
400028c2:	8b 45 e0             	mov    -0x20(%ebp),%eax
400028c5:	8b 40 10             	mov    0x10(%eax),%eax
400028c8:	83 f8 01             	cmp    $0x1,%eax
400028cb:	0f 85 39 01 00 00    	jne    40002a0a <_read_unnamed_pipe+0x18c>
400028d1:	8b 45 e0             	mov    -0x20(%ebp),%eax
400028d4:	8b 40 20             	mov    0x20(%eax),%eax
400028d7:	83 c0 08             	add    $0x8,%eax
400028da:	89 45 e8             	mov    %eax,-0x18(%ebp)
400028dd:	8b 45 e0             	mov    -0x20(%ebp),%eax
400028e0:	8b 40 20             	mov    0x20(%eax),%eax
400028e3:	83 c0 0c             	add    $0xc,%eax
400028e6:	89 45 ec             	mov    %eax,-0x14(%ebp)
400028e9:	8b 45 e0             	mov    -0x20(%ebp),%eax
400028ec:	8b 40 20             	mov    0x20(%eax),%eax
400028ef:	83 c0 10             	add    $0x10,%eax
400028f2:	89 45 f0             	mov    %eax,-0x10(%ebp)
400028f5:	8b 45 ec             	mov    -0x14(%ebp),%eax
400028f8:	8b 10                	mov    (%eax),%edx
400028fa:	8b 45 e8             	mov    -0x18(%ebp),%eax
400028fd:	8b 00                	mov    (%eax),%eax
400028ff:	39 c2                	cmp    %eax,%edx
40002901:	72 13                	jb     40002916 <_read_unnamed_pipe+0x98>
40002903:	8b 45 ec             	mov    -0x14(%ebp),%eax
40002906:	8b 10                	mov    (%eax),%edx
40002908:	8b 45 e8             	mov    -0x18(%ebp),%eax
4000290b:	8b 00                	mov    (%eax),%eax
4000290d:	89 d1                	mov    %edx,%ecx
4000290f:	29 c1                	sub    %eax,%ecx
40002911:	89 4d d8             	mov    %ecx,-0x28(%ebp)
40002914:	eb 18                	jmp    4000292e <_read_unnamed_pipe+0xb0>
40002916:	8b 45 ec             	mov    -0x14(%ebp),%eax
40002919:	8b 10                	mov    (%eax),%edx
4000291b:	8b 45 e8             	mov    -0x18(%ebp),%eax
4000291e:	8b 00                	mov    (%eax),%eax
40002920:	89 d1                	mov    %edx,%ecx
40002922:	29 c1                	sub    %eax,%ecx
40002924:	89 c8                	mov    %ecx,%eax
40002926:	05 f0 1f 00 00       	add    $0x1ff0,%eax
4000292b:	89 45 d8             	mov    %eax,-0x28(%ebp)
4000292e:	8b 45 d8             	mov    -0x28(%ebp),%eax
40002931:	89 45 f4             	mov    %eax,-0xc(%ebp)
40002934:	8b 45 10             	mov    0x10(%ebp),%eax
40002937:	3b 45 f4             	cmp    -0xc(%ebp),%eax
4000293a:	76 06                	jbe    40002942 <_read_unnamed_pipe+0xc4>
4000293c:	8b 45 f4             	mov    -0xc(%ebp),%eax
4000293f:	89 45 10             	mov    %eax,0x10(%ebp)
40002942:	8b 45 ec             	mov    -0x14(%ebp),%eax
40002945:	8b 10                	mov    (%eax),%edx
40002947:	8b 45 e8             	mov    -0x18(%ebp),%eax
4000294a:	8b 00                	mov    (%eax),%eax
4000294c:	39 c2                	cmp    %eax,%edx
4000294e:	72 1b                	jb     4000296b <_read_unnamed_pipe+0xed>
40002950:	8b 45 10             	mov    0x10(%ebp),%eax
40002953:	89 44 24 08          	mov    %eax,0x8(%esp)
40002957:	8b 45 f0             	mov    -0x10(%ebp),%eax
4000295a:	89 44 24 04          	mov    %eax,0x4(%esp)
4000295e:	8b 45 0c             	mov    0xc(%ebp),%eax
40002961:	89 04 24             	mov    %eax,(%esp)
40002964:	e8 bf 86 00 00       	call   4000b028 <memcpy>
40002969:	eb 56                	jmp    400029c1 <_read_unnamed_pipe+0x143>
4000296b:	8b 45 e8             	mov    -0x18(%ebp),%eax
4000296e:	8b 10                	mov    (%eax),%edx
40002970:	b8 f0 1f 00 00       	mov    $0x1ff0,%eax
40002975:	29 d0                	sub    %edx,%eax
40002977:	89 45 f8             	mov    %eax,-0x8(%ebp)
4000297a:	8b 45 ec             	mov    -0x14(%ebp),%eax
4000297d:	8b 00                	mov    (%eax),%eax
4000297f:	89 45 fc             	mov    %eax,-0x4(%ebp)
40002982:	8b 45 e8             	mov    -0x18(%ebp),%eax
40002985:	8b 00                	mov    (%eax),%eax
40002987:	89 c2                	mov    %eax,%edx
40002989:	03 55 f0             	add    -0x10(%ebp),%edx
4000298c:	8b 45 f8             	mov    -0x8(%ebp),%eax
4000298f:	89 44 24 08          	mov    %eax,0x8(%esp)
40002993:	89 54 24 04          	mov    %edx,0x4(%esp)
40002997:	8b 45 0c             	mov    0xc(%ebp),%eax
4000299a:	89 04 24             	mov    %eax,(%esp)
4000299d:	e8 86 86 00 00       	call   4000b028 <memcpy>
400029a2:	8b 55 f8             	mov    -0x8(%ebp),%edx
400029a5:	8b 45 0c             	mov    0xc(%ebp),%eax
400029a8:	8d 14 10             	lea    (%eax,%edx,1),%edx
400029ab:	8b 45 fc             	mov    -0x4(%ebp),%eax
400029ae:	89 44 24 08          	mov    %eax,0x8(%esp)
400029b2:	8b 45 f0             	mov    -0x10(%ebp),%eax
400029b5:	89 44 24 04          	mov    %eax,0x4(%esp)
400029b9:	89 14 24             	mov    %edx,(%esp)
400029bc:	e8 67 86 00 00       	call   4000b028 <memcpy>
400029c1:	8b 45 e8             	mov    -0x18(%ebp),%eax
400029c4:	8b 00                	mov    (%eax),%eax
400029c6:	89 c1                	mov    %eax,%ecx
400029c8:	03 4d 10             	add    0x10(%ebp),%ecx
400029cb:	89 ca                	mov    %ecx,%edx
400029cd:	c1 ea 04             	shr    $0x4,%edx
400029d0:	c7 45 d4 03 04 08 10 	movl   $0x10080403,-0x2c(%ebp)
400029d7:	8b 45 d4             	mov    -0x2c(%ebp),%eax
400029da:	f7 e2                	mul    %edx
400029dc:	89 d0                	mov    %edx,%eax
400029de:	c1 e8 05             	shr    $0x5,%eax
400029e1:	89 45 dc             	mov    %eax,-0x24(%ebp)
400029e4:	8b 45 dc             	mov    -0x24(%ebp),%eax
400029e7:	89 c2                	mov    %eax,%edx
400029e9:	c1 e2 04             	shl    $0x4,%edx
400029ec:	89 d0                	mov    %edx,%eax
400029ee:	c1 e0 09             	shl    $0x9,%eax
400029f1:	29 d0                	sub    %edx,%eax
400029f3:	89 ca                	mov    %ecx,%edx
400029f5:	29 c2                	sub    %eax,%edx
400029f7:	89 55 dc             	mov    %edx,-0x24(%ebp)
400029fa:	8b 45 e8             	mov    -0x18(%ebp),%eax
400029fd:	8b 4d dc             	mov    -0x24(%ebp),%ecx
40002a00:	89 08                	mov    %ecx,(%eax)
40002a02:	8b 45 10             	mov    0x10(%ebp),%eax
40002a05:	89 45 e4             	mov    %eax,-0x1c(%ebp)
40002a08:	eb 0a                	jmp    40002a14 <_read_unnamed_pipe+0x196>
40002a0a:	c7 05 44 29 01 40 08 	movl   $0x8,0x40012944
40002a11:	00 00 00 
40002a14:	8b 45 e4             	mov    -0x1c(%ebp),%eax
40002a17:	c9                   	leave  
40002a18:	c3                   	ret    

40002a19 <_write_unnamed_pipe>:
40002a19:	55                   	push   %ebp
40002a1a:	89 e5                	mov    %esp,%ebp
40002a1c:	83 ec 38             	sub    $0x38,%esp
40002a1f:	8b 45 08             	mov    0x8(%ebp),%eax
40002a22:	89 04 24             	mov    %eax,(%esp)
40002a25:	e8 50 fa ff ff       	call   4000247a <lidxbyfh>
40002a2a:	8b 15 48 12 01 40    	mov    0x40011248,%edx
40002a30:	89 44 24 04          	mov    %eax,0x4(%esp)
40002a34:	89 14 24             	mov    %edx,(%esp)
40002a37:	e8 97 91 00 00       	call   4000bbd3 <llist_get>
40002a3c:	89 45 e0             	mov    %eax,-0x20(%ebp)
40002a3f:	c7 45 e4 ff ff ff ff 	movl   $0xffffffff,-0x1c(%ebp)
40002a46:	83 7d e0 00          	cmpl   $0x0,-0x20(%ebp)
40002a4a:	0f 84 55 01 00 00    	je     40002ba5 <_write_unnamed_pipe+0x18c>
40002a50:	8b 45 e0             	mov    -0x20(%ebp),%eax
40002a53:	8b 00                	mov    (%eax),%eax
40002a55:	85 c0                	test   %eax,%eax
40002a57:	0f 85 48 01 00 00    	jne    40002ba5 <_write_unnamed_pipe+0x18c>
40002a5d:	8b 45 e0             	mov    -0x20(%ebp),%eax
40002a60:	8b 40 10             	mov    0x10(%eax),%eax
40002a63:	83 f8 02             	cmp    $0x2,%eax
40002a66:	0f 85 39 01 00 00    	jne    40002ba5 <_write_unnamed_pipe+0x18c>
40002a6c:	8b 45 e0             	mov    -0x20(%ebp),%eax
40002a6f:	8b 40 20             	mov    0x20(%eax),%eax
40002a72:	83 c0 08             	add    $0x8,%eax
40002a75:	89 45 e8             	mov    %eax,-0x18(%ebp)
40002a78:	8b 45 e0             	mov    -0x20(%ebp),%eax
40002a7b:	8b 40 20             	mov    0x20(%eax),%eax
40002a7e:	83 c0 0c             	add    $0xc,%eax
40002a81:	89 45 ec             	mov    %eax,-0x14(%ebp)
40002a84:	8b 45 e0             	mov    -0x20(%ebp),%eax
40002a87:	8b 40 20             	mov    0x20(%eax),%eax
40002a8a:	83 c0 10             	add    $0x10,%eax
40002a8d:	89 45 f0             	mov    %eax,-0x10(%ebp)
40002a90:	8b 45 e8             	mov    -0x18(%ebp),%eax
40002a93:	8b 10                	mov    (%eax),%edx
40002a95:	8b 45 ec             	mov    -0x14(%ebp),%eax
40002a98:	8b 00                	mov    (%eax),%eax
40002a9a:	39 c2                	cmp    %eax,%edx
40002a9c:	76 13                	jbe    40002ab1 <_write_unnamed_pipe+0x98>
40002a9e:	8b 45 e8             	mov    -0x18(%ebp),%eax
40002aa1:	8b 10                	mov    (%eax),%edx
40002aa3:	8b 45 ec             	mov    -0x14(%ebp),%eax
40002aa6:	8b 00                	mov    (%eax),%eax
40002aa8:	89 d1                	mov    %edx,%ecx
40002aaa:	29 c1                	sub    %eax,%ecx
40002aac:	89 4d d8             	mov    %ecx,-0x28(%ebp)
40002aaf:	eb 18                	jmp    40002ac9 <_write_unnamed_pipe+0xb0>
40002ab1:	8b 45 e8             	mov    -0x18(%ebp),%eax
40002ab4:	8b 10                	mov    (%eax),%edx
40002ab6:	8b 45 ec             	mov    -0x14(%ebp),%eax
40002ab9:	8b 00                	mov    (%eax),%eax
40002abb:	89 d1                	mov    %edx,%ecx
40002abd:	29 c1                	sub    %eax,%ecx
40002abf:	89 c8                	mov    %ecx,%eax
40002ac1:	05 f0 1f 00 00       	add    $0x1ff0,%eax
40002ac6:	89 45 d8             	mov    %eax,-0x28(%ebp)
40002ac9:	8b 45 d8             	mov    -0x28(%ebp),%eax
40002acc:	89 45 f4             	mov    %eax,-0xc(%ebp)
40002acf:	8b 45 10             	mov    0x10(%ebp),%eax
40002ad2:	3b 45 f4             	cmp    -0xc(%ebp),%eax
40002ad5:	76 06                	jbe    40002add <_write_unnamed_pipe+0xc4>
40002ad7:	8b 45 f4             	mov    -0xc(%ebp),%eax
40002ada:	89 45 10             	mov    %eax,0x10(%ebp)
40002add:	8b 45 e8             	mov    -0x18(%ebp),%eax
40002ae0:	8b 10                	mov    (%eax),%edx
40002ae2:	8b 45 ec             	mov    -0x14(%ebp),%eax
40002ae5:	8b 00                	mov    (%eax),%eax
40002ae7:	39 c2                	cmp    %eax,%edx
40002ae9:	72 1b                	jb     40002b06 <_write_unnamed_pipe+0xed>
40002aeb:	8b 45 10             	mov    0x10(%ebp),%eax
40002aee:	89 44 24 08          	mov    %eax,0x8(%esp)
40002af2:	8b 45 0c             	mov    0xc(%ebp),%eax
40002af5:	89 44 24 04          	mov    %eax,0x4(%esp)
40002af9:	8b 45 f0             	mov    -0x10(%ebp),%eax
40002afc:	89 04 24             	mov    %eax,(%esp)
40002aff:	e8 24 85 00 00       	call   4000b028 <memcpy>
40002b04:	eb 56                	jmp    40002b5c <_write_unnamed_pipe+0x143>
40002b06:	8b 45 ec             	mov    -0x14(%ebp),%eax
40002b09:	8b 10                	mov    (%eax),%edx
40002b0b:	b8 f0 1f 00 00       	mov    $0x1ff0,%eax
40002b10:	29 d0                	sub    %edx,%eax
40002b12:	89 45 f8             	mov    %eax,-0x8(%ebp)
40002b15:	8b 45 e8             	mov    -0x18(%ebp),%eax
40002b18:	8b 00                	mov    (%eax),%eax
40002b1a:	89 45 fc             	mov    %eax,-0x4(%ebp)
40002b1d:	8b 45 ec             	mov    -0x14(%ebp),%eax
40002b20:	8b 00                	mov    (%eax),%eax
40002b22:	89 c2                	mov    %eax,%edx
40002b24:	03 55 f0             	add    -0x10(%ebp),%edx
40002b27:	8b 45 f8             	mov    -0x8(%ebp),%eax
40002b2a:	89 44 24 08          	mov    %eax,0x8(%esp)
40002b2e:	8b 45 0c             	mov    0xc(%ebp),%eax
40002b31:	89 44 24 04          	mov    %eax,0x4(%esp)
40002b35:	89 14 24             	mov    %edx,(%esp)
40002b38:	e8 eb 84 00 00       	call   4000b028 <memcpy>
40002b3d:	8b 55 f8             	mov    -0x8(%ebp),%edx
40002b40:	8b 45 0c             	mov    0xc(%ebp),%eax
40002b43:	8d 14 10             	lea    (%eax,%edx,1),%edx
40002b46:	8b 45 fc             	mov    -0x4(%ebp),%eax
40002b49:	89 44 24 08          	mov    %eax,0x8(%esp)
40002b4d:	89 54 24 04          	mov    %edx,0x4(%esp)
40002b51:	8b 45 f0             	mov    -0x10(%ebp),%eax
40002b54:	89 04 24             	mov    %eax,(%esp)
40002b57:	e8 cc 84 00 00       	call   4000b028 <memcpy>
40002b5c:	8b 45 ec             	mov    -0x14(%ebp),%eax
40002b5f:	8b 00                	mov    (%eax),%eax
40002b61:	89 c1                	mov    %eax,%ecx
40002b63:	03 4d 10             	add    0x10(%ebp),%ecx
40002b66:	89 ca                	mov    %ecx,%edx
40002b68:	c1 ea 04             	shr    $0x4,%edx
40002b6b:	c7 45 d4 03 04 08 10 	movl   $0x10080403,-0x2c(%ebp)
40002b72:	8b 45 d4             	mov    -0x2c(%ebp),%eax
40002b75:	f7 e2                	mul    %edx
40002b77:	89 d0                	mov    %edx,%eax
40002b79:	c1 e8 05             	shr    $0x5,%eax
40002b7c:	89 45 dc             	mov    %eax,-0x24(%ebp)
40002b7f:	8b 45 dc             	mov    -0x24(%ebp),%eax
40002b82:	89 c2                	mov    %eax,%edx
40002b84:	c1 e2 04             	shl    $0x4,%edx
40002b87:	89 d0                	mov    %edx,%eax
40002b89:	c1 e0 09             	shl    $0x9,%eax
40002b8c:	29 d0                	sub    %edx,%eax
40002b8e:	89 ca                	mov    %ecx,%edx
40002b90:	29 c2                	sub    %eax,%edx
40002b92:	89 55 dc             	mov    %edx,-0x24(%ebp)
40002b95:	8b 45 ec             	mov    -0x14(%ebp),%eax
40002b98:	8b 4d dc             	mov    -0x24(%ebp),%ecx
40002b9b:	89 08                	mov    %ecx,(%eax)
40002b9d:	8b 45 10             	mov    0x10(%ebp),%eax
40002ba0:	89 45 e4             	mov    %eax,-0x1c(%ebp)
40002ba3:	eb 0a                	jmp    40002baf <_write_unnamed_pipe+0x196>
40002ba5:	c7 05 44 29 01 40 08 	movl   $0x8,0x40012944
40002bac:	00 00 00 
40002baf:	8b 45 e4             	mov    -0x1c(%ebp),%eax
40002bb2:	c9                   	leave  
40002bb3:	c3                   	ret    

40002bb4 <getcwd>:
40002bb4:	55                   	push   %ebp
40002bb5:	89 e5                	mov    %esp,%ebp
40002bb7:	83 ec 18             	sub    $0x18,%esp
40002bba:	83 7d 08 00          	cmpl   $0x0,0x8(%ebp)
40002bbe:	75 1b                	jne    40002bdb <getcwd+0x27>
40002bc0:	a1 58 12 01 40       	mov    0x40011258,%eax
40002bc5:	83 c0 01             	add    $0x1,%eax
40002bc8:	89 45 0c             	mov    %eax,0xc(%ebp)
40002bcb:	8b 45 0c             	mov    0xc(%ebp),%eax
40002bce:	89 04 24             	mov    %eax,(%esp)
40002bd1:	e8 7a 50 00 00       	call   40007c50 <malloc>
40002bd6:	89 45 08             	mov    %eax,0x8(%ebp)
40002bd9:	eb 39                	jmp    40002c14 <getcwd+0x60>
40002bdb:	83 7d 0c 00          	cmpl   $0x0,0xc(%ebp)
40002bdf:	75 13                	jne    40002bf4 <getcwd+0x40>
40002be1:	c7 05 44 29 01 40 1c 	movl   $0x1c,0x40012944
40002be8:	00 00 00 
40002beb:	c7 45 fc 00 00 00 00 	movl   $0x0,-0x4(%ebp)
40002bf2:	eb 3f                	jmp    40002c33 <getcwd+0x7f>
40002bf4:	a1 58 12 01 40       	mov    0x40011258,%eax
40002bf9:	83 c0 01             	add    $0x1,%eax
40002bfc:	3b 45 0c             	cmp    0xc(%ebp),%eax
40002bff:	76 13                	jbe    40002c14 <getcwd+0x60>
40002c01:	c7 05 44 29 01 40 46 	movl   $0x46,0x40012944
40002c08:	00 00 00 
40002c0b:	c7 45 fc 00 00 00 00 	movl   $0x0,-0x4(%ebp)
40002c12:	eb 1f                	jmp    40002c33 <getcwd+0x7f>
40002c14:	8b 15 54 12 01 40    	mov    0x40011254,%edx
40002c1a:	8b 45 0c             	mov    0xc(%ebp),%eax
40002c1d:	89 44 24 08          	mov    %eax,0x8(%esp)
40002c21:	89 54 24 04          	mov    %edx,0x4(%esp)
40002c25:	8b 45 08             	mov    0x8(%ebp),%eax
40002c28:	89 04 24             	mov    %eax,(%esp)
40002c2b:	e8 f0 88 00 00       	call   4000b520 <strncpy>
40002c30:	89 45 fc             	mov    %eax,-0x4(%ebp)
40002c33:	8b 45 fc             	mov    -0x4(%ebp),%eax
40002c36:	c9                   	leave  
40002c37:	c3                   	ret    

40002c38 <chdir>:
40002c38:	55                   	push   %ebp
40002c39:	89 e5                	mov    %esp,%ebp
40002c3b:	83 ec 28             	sub    $0x28,%esp
40002c3e:	8b 45 08             	mov    0x8(%ebp),%eax
40002c41:	89 04 24             	mov    %eax,(%esp)
40002c44:	e8 81 f8 ff ff       	call   400024ca <getabsolutepath>
40002c49:	89 45 08             	mov    %eax,0x8(%ebp)
40002c4c:	83 7d 08 00          	cmpl   $0x0,0x8(%ebp)
40002c50:	75 07                	jne    40002c59 <chdir+0x21>
40002c52:	c7 45 08 c4 f1 00 40 	movl   $0x4000f1c4,0x8(%ebp)
40002c59:	8b 45 08             	mov    0x8(%ebp),%eax
40002c5c:	89 04 24             	mov    %eax,(%esp)
40002c5f:	e8 50 0f 00 00       	call   40003bb4 <opendir>
40002c64:	89 45 fc             	mov    %eax,-0x4(%ebp)
40002c67:	83 7d fc 00          	cmpl   $0x0,-0x4(%ebp)
40002c6b:	0f 84 94 00 00 00    	je     40002d05 <chdir+0xcd>
40002c71:	8b 45 fc             	mov    -0x4(%ebp),%eax
40002c74:	89 04 24             	mov    %eax,(%esp)
40002c77:	e8 11 11 00 00       	call   40003d8d <closedir>
40002c7c:	a1 54 12 01 40       	mov    0x40011254,%eax
40002c81:	89 04 24             	mov    %eax,(%esp)
40002c84:	e8 7e 54 00 00       	call   40008107 <free>
40002c89:	a1 5c 12 01 40       	mov    0x4001125c,%eax
40002c8e:	89 04 24             	mov    %eax,(%esp)
40002c91:	e8 8b 99 00 00       	call   4000c621 <path_destroy>
40002c96:	8b 45 08             	mov    0x8(%ebp),%eax
40002c99:	89 04 24             	mov    %eax,(%esp)
40002c9c:	e8 5b 98 00 00       	call   4000c4fc <path_parse>
40002ca1:	a3 5c 12 01 40       	mov    %eax,0x4001125c
40002ca6:	a1 5c 12 01 40       	mov    0x4001125c,%eax
40002cab:	89 04 24             	mov    %eax,(%esp)
40002cae:	e8 a3 99 00 00       	call   4000c656 <path_reject_dots>
40002cb3:	a1 5c 12 01 40       	mov    0x4001125c,%eax
40002cb8:	c7 44 24 04 00 00 00 	movl   $0x0,0x4(%esp)
40002cbf:	00 
40002cc0:	89 04 24             	mov    %eax,(%esp)
40002cc3:	e8 00 9b 00 00       	call   4000c7c8 <path_output>
40002cc8:	a3 54 12 01 40       	mov    %eax,0x40011254
40002ccd:	a1 54 12 01 40       	mov    0x40011254,%eax
40002cd2:	89 04 24             	mov    %eax,(%esp)
40002cd5:	e8 06 87 00 00       	call   4000b3e0 <strlen>
40002cda:	a3 58 12 01 40       	mov    %eax,0x40011258
40002cdf:	a1 54 12 01 40       	mov    0x40011254,%eax
40002ce4:	c7 44 24 08 01 00 00 	movl   $0x1,0x8(%esp)
40002ceb:	00 
40002cec:	89 44 24 04          	mov    %eax,0x4(%esp)
40002cf0:	c7 04 24 bf f1 00 40 	movl   $0x4000f1bf,(%esp)
40002cf7:	e8 a0 ae 00 00       	call   4000db9c <setenv>
40002cfc:	c7 45 ec 00 00 00 00 	movl   $0x0,-0x14(%ebp)
40002d03:	eb 07                	jmp    40002d0c <chdir+0xd4>
40002d05:	c7 45 ec ff ff ff ff 	movl   $0xffffffff,-0x14(%ebp)
40002d0c:	8b 45 ec             	mov    -0x14(%ebp),%eax
40002d0f:	c9                   	leave  
40002d10:	c3                   	ret    

40002d11 <fchdir>:
40002d11:	55                   	push   %ebp
40002d12:	89 e5                	mov    %esp,%ebp
40002d14:	83 ec 28             	sub    $0x28,%esp
40002d17:	8b 45 08             	mov    0x8(%ebp),%eax
40002d1a:	89 04 24             	mov    %eax,(%esp)
40002d1d:	e8 58 f7 ff ff       	call   4000247a <lidxbyfh>
40002d22:	8b 15 48 12 01 40    	mov    0x40011248,%edx
40002d28:	89 44 24 04          	mov    %eax,0x4(%esp)
40002d2c:	89 14 24             	mov    %edx,(%esp)
40002d2f:	e8 9f 8e 00 00       	call   4000bbd3 <llist_get>
40002d34:	89 45 fc             	mov    %eax,-0x4(%ebp)
40002d37:	83 7d fc 00          	cmpl   $0x0,-0x4(%ebp)
40002d3b:	74 13                	je     40002d50 <fchdir+0x3f>
40002d3d:	8b 45 fc             	mov    -0x4(%ebp),%eax
40002d40:	8b 40 18             	mov    0x18(%eax),%eax
40002d43:	89 04 24             	mov    %eax,(%esp)
40002d46:	e8 ed fe ff ff       	call   40002c38 <chdir>
40002d4b:	89 45 f8             	mov    %eax,-0x8(%ebp)
40002d4e:	eb 07                	jmp    40002d57 <fchdir+0x46>
40002d50:	c7 45 f8 f8 ff ff ff 	movl   $0xfffffff8,-0x8(%ebp)
40002d57:	83 7d f8 00          	cmpl   $0x0,-0x8(%ebp)
40002d5b:	79 0c                	jns    40002d69 <fchdir+0x58>
40002d5d:	8b 45 f8             	mov    -0x8(%ebp),%eax
40002d60:	89 c2                	mov    %eax,%edx
40002d62:	f7 da                	neg    %edx
40002d64:	89 55 ec             	mov    %edx,-0x14(%ebp)
40002d67:	eb 07                	jmp    40002d70 <fchdir+0x5f>
40002d69:	c7 45 ec 00 00 00 00 	movl   $0x0,-0x14(%ebp)
40002d70:	8b 45 ec             	mov    -0x14(%ebp),%eax
40002d73:	a3 44 29 01 40       	mov    %eax,0x40012944
40002d78:	8b 45 f8             	mov    -0x8(%ebp),%eax
40002d7b:	c1 f8 1f             	sar    $0x1f,%eax
40002d7e:	0b 45 f8             	or     -0x8(%ebp),%eax
40002d81:	c9                   	leave  
40002d82:	c3                   	ret    

40002d83 <mknod>:
40002d83:	55                   	push   %ebp
40002d84:	89 e5                	mov    %esp,%ebp
40002d86:	53                   	push   %ebx
40002d87:	83 ec 34             	sub    $0x34,%esp
40002d8a:	8b 45 08             	mov    0x8(%ebp),%eax
40002d8d:	89 04 24             	mov    %eax,(%esp)
40002d90:	e8 35 f7 ff ff       	call   400024ca <getabsolutepath>
40002d95:	89 45 f4             	mov    %eax,-0xc(%ebp)
40002d98:	c7 44 24 04 01 00 00 	movl   $0x1,0x4(%esp)
40002d9f:	00 
40002da0:	8b 45 f4             	mov    -0xc(%ebp),%eax
40002da3:	89 04 24             	mov    %eax,(%esp)
40002da6:	e8 6d f5 ff ff       	call   40002318 <fsbypath>
40002dab:	89 45 f8             	mov    %eax,-0x8(%ebp)
40002dae:	83 7d f8 00          	cmpl   $0x0,-0x8(%ebp)
40002db2:	74 67                	je     40002e1b <mknod+0x98>
40002db4:	8b 45 f8             	mov    -0x8(%ebp),%eax
40002db7:	8b 00                	mov    (%eax),%eax
40002db9:	89 44 24 08          	mov    %eax,0x8(%esp)
40002dbd:	c7 44 24 04 dd f1 00 	movl   $0x4000f1dd,0x4(%esp)
40002dc4:	40 
40002dc5:	8d 45 ec             	lea    -0x14(%ebp),%eax
40002dc8:	89 04 24             	mov    %eax,(%esp)
40002dcb:	e8 54 ac 00 00       	call   4000da24 <asprintf>
40002dd0:	a1 60 12 01 40       	mov    0x40011260,%eax
40002dd5:	f7 d0                	not    %eax
40002dd7:	89 c2                	mov    %eax,%edx
40002dd9:	23 55 0c             	and    0xc(%ebp),%edx
40002ddc:	8b 45 f8             	mov    -0x8(%ebp),%eax
40002ddf:	8b 48 04             	mov    0x4(%eax),%ecx
40002de2:	8b 5d ec             	mov    -0x14(%ebp),%ebx
40002de5:	8b 45 10             	mov    0x10(%ebp),%eax
40002de8:	89 44 24 14          	mov    %eax,0x14(%esp)
40002dec:	89 54 24 10          	mov    %edx,0x10(%esp)
40002df0:	8b 45 f4             	mov    -0xc(%ebp),%eax
40002df3:	89 44 24 0c          	mov    %eax,0xc(%esp)
40002df7:	89 4c 24 08          	mov    %ecx,0x8(%esp)
40002dfb:	c7 44 24 04 00 00 00 	movl   $0x0,0x4(%esp)
40002e02:	00 
40002e03:	89 1c 24             	mov    %ebx,(%esp)
40002e06:	e8 c4 a4 00 00       	call   4000d2cf <rpc_call>
40002e0b:	89 45 f0             	mov    %eax,-0x10(%ebp)
40002e0e:	8b 45 ec             	mov    -0x14(%ebp),%eax
40002e11:	89 04 24             	mov    %eax,(%esp)
40002e14:	e8 ee 52 00 00       	call   40008107 <free>
40002e19:	eb 07                	jmp    40002e22 <mknod+0x9f>
40002e1b:	c7 45 f0 e4 ff ff ff 	movl   $0xffffffe4,-0x10(%ebp)
40002e22:	8b 45 f4             	mov    -0xc(%ebp),%eax
40002e25:	89 04 24             	mov    %eax,(%esp)
40002e28:	e8 da 52 00 00       	call   40008107 <free>
40002e2d:	83 7d f0 00          	cmpl   $0x0,-0x10(%ebp)
40002e31:	79 0c                	jns    40002e3f <mknod+0xbc>
40002e33:	8b 45 f0             	mov    -0x10(%ebp),%eax
40002e36:	89 c2                	mov    %eax,%edx
40002e38:	f7 da                	neg    %edx
40002e3a:	89 55 e8             	mov    %edx,-0x18(%ebp)
40002e3d:	eb 07                	jmp    40002e46 <mknod+0xc3>
40002e3f:	c7 45 e8 00 00 00 00 	movl   $0x0,-0x18(%ebp)
40002e46:	8b 45 e8             	mov    -0x18(%ebp),%eax
40002e49:	a3 44 29 01 40       	mov    %eax,0x40012944
40002e4e:	8b 45 f0             	mov    -0x10(%ebp),%eax
40002e51:	c1 f8 1f             	sar    $0x1f,%eax
40002e54:	0b 45 f0             	or     -0x10(%ebp),%eax
40002e57:	83 c4 34             	add    $0x34,%esp
40002e5a:	5b                   	pop    %ebx
40002e5b:	5d                   	pop    %ebp
40002e5c:	c3                   	ret    

40002e5d <access>:
40002e5d:	55                   	push   %ebp
40002e5e:	89 e5                	mov    %esp,%ebp
40002e60:	83 ec 28             	sub    $0x28,%esp
40002e63:	8b 45 08             	mov    0x8(%ebp),%eax
40002e66:	89 04 24             	mov    %eax,(%esp)
40002e69:	e8 5c f6 ff ff       	call   400024ca <getabsolutepath>
40002e6e:	89 45 f8             	mov    %eax,-0x8(%ebp)
40002e71:	c7 44 24 04 00 00 00 	movl   $0x0,0x4(%esp)
40002e78:	00 
40002e79:	8b 45 f8             	mov    -0x8(%ebp),%eax
40002e7c:	89 04 24             	mov    %eax,(%esp)
40002e7f:	e8 94 f4 ff ff       	call   40002318 <fsbypath>
40002e84:	89 45 fc             	mov    %eax,-0x4(%ebp)
40002e87:	83 7d fc 00          	cmpl   $0x0,-0x4(%ebp)
40002e8b:	74 57                	je     40002ee4 <access+0x87>
40002e8d:	8b 45 fc             	mov    -0x4(%ebp),%eax
40002e90:	8b 00                	mov    (%eax),%eax
40002e92:	89 44 24 08          	mov    %eax,0x8(%esp)
40002e96:	c7 44 24 04 e9 f1 00 	movl   $0x4000f1e9,0x4(%esp)
40002e9d:	40 
40002e9e:	8d 45 f0             	lea    -0x10(%ebp),%eax
40002ea1:	89 04 24             	mov    %eax,(%esp)
40002ea4:	e8 7b ab 00 00       	call   4000da24 <asprintf>
40002ea9:	8b 45 fc             	mov    -0x4(%ebp),%eax
40002eac:	8b 50 04             	mov    0x4(%eax),%edx
40002eaf:	8b 4d f0             	mov    -0x10(%ebp),%ecx
40002eb2:	8b 45 0c             	mov    0xc(%ebp),%eax
40002eb5:	89 44 24 10          	mov    %eax,0x10(%esp)
40002eb9:	8b 45 f8             	mov    -0x8(%ebp),%eax
40002ebc:	89 44 24 0c          	mov    %eax,0xc(%esp)
40002ec0:	89 54 24 08          	mov    %edx,0x8(%esp)
40002ec4:	c7 44 24 04 00 00 00 	movl   $0x0,0x4(%esp)
40002ecb:	00 
40002ecc:	89 0c 24             	mov    %ecx,(%esp)
40002ecf:	e8 fb a3 00 00       	call   4000d2cf <rpc_call>
40002ed4:	89 45 f4             	mov    %eax,-0xc(%ebp)
40002ed7:	8b 45 f0             	mov    -0x10(%ebp),%eax
40002eda:	89 04 24             	mov    %eax,(%esp)
40002edd:	e8 25 52 00 00       	call   40008107 <free>
40002ee2:	eb 07                	jmp    40002eeb <access+0x8e>
40002ee4:	c7 45 f4 e4 ff ff ff 	movl   $0xffffffe4,-0xc(%ebp)
40002eeb:	8b 45 f8             	mov    -0x8(%ebp),%eax
40002eee:	89 04 24             	mov    %eax,(%esp)
40002ef1:	e8 11 52 00 00       	call   40008107 <free>
40002ef6:	83 7d f4 00          	cmpl   $0x0,-0xc(%ebp)
40002efa:	79 0c                	jns    40002f08 <access+0xab>
40002efc:	8b 45 f4             	mov    -0xc(%ebp),%eax
40002eff:	89 c2                	mov    %eax,%edx
40002f01:	f7 da                	neg    %edx
40002f03:	89 55 ec             	mov    %edx,-0x14(%ebp)
40002f06:	eb 07                	jmp    40002f0f <access+0xb2>
40002f08:	c7 45 ec 00 00 00 00 	movl   $0x0,-0x14(%ebp)
40002f0f:	8b 45 ec             	mov    -0x14(%ebp),%eax
40002f12:	a3 44 29 01 40       	mov    %eax,0x40012944
40002f17:	8b 45 f4             	mov    -0xc(%ebp),%eax
40002f1a:	c1 f8 1f             	sar    $0x1f,%eax
40002f1d:	0b 45 f4             	or     -0xc(%ebp),%eax
40002f20:	c9                   	leave  
40002f21:	c3                   	ret    

40002f22 <open>:
40002f22:	55                   	push   %ebp
40002f23:	89 e5                	mov    %esp,%ebp
40002f25:	83 ec 48             	sub    $0x48,%esp
40002f28:	c7 45 e4 00 00 00 00 	movl   $0x0,-0x1c(%ebp)
40002f2f:	8b 45 08             	mov    0x8(%ebp),%eax
40002f32:	89 04 24             	mov    %eax,(%esp)
40002f35:	e8 90 f5 ff ff       	call   400024ca <getabsolutepath>
40002f3a:	89 45 ec             	mov    %eax,-0x14(%ebp)
40002f3d:	c7 44 24 04 00 00 00 	movl   $0x0,0x4(%esp)
40002f44:	00 
40002f45:	8b 45 ec             	mov    -0x14(%ebp),%eax
40002f48:	89 04 24             	mov    %eax,(%esp)
40002f4b:	e8 c8 f3 ff ff       	call   40002318 <fsbypath>
40002f50:	89 45 f0             	mov    %eax,-0x10(%ebp)
40002f53:	83 7d f0 00          	cmpl   $0x0,-0x10(%ebp)
40002f57:	75 0a                	jne    40002f63 <open+0x41>
40002f59:	a1 44 29 01 40       	mov    0x40012944,%eax
40002f5e:	f7 d8                	neg    %eax
40002f60:	89 45 e4             	mov    %eax,-0x1c(%ebp)
40002f63:	8d 45 10             	lea    0x10(%ebp),%eax
40002f66:	89 45 e0             	mov    %eax,-0x20(%ebp)
40002f69:	83 7d e4 00          	cmpl   $0x0,-0x1c(%ebp)
40002f6d:	0f 85 9c 01 00 00    	jne    4000310f <open+0x1ed>
40002f73:	8b 45 0c             	mov    0xc(%ebp),%eax
40002f76:	83 e0 04             	and    $0x4,%eax
40002f79:	85 c0                	test   %eax,%eax
40002f7b:	74 48                	je     40002fc5 <open+0xa3>
40002f7d:	83 65 0c fb          	andl   $0xfffffffb,0xc(%ebp)
40002f81:	8b 55 e0             	mov    -0x20(%ebp),%edx
40002f84:	8d 42 04             	lea    0x4(%edx),%eax
40002f87:	89 45 e0             	mov    %eax,-0x20(%ebp)
40002f8a:	89 d0                	mov    %edx,%eax
40002f8c:	8b 00                	mov    (%eax),%eax
40002f8e:	80 cc 80             	or     $0x80,%ah
40002f91:	c7 44 24 08 00 00 00 	movl   $0x0,0x8(%esp)
40002f98:	00 
40002f99:	89 44 24 04          	mov    %eax,0x4(%esp)
40002f9d:	8b 45 08             	mov    0x8(%ebp),%eax
40002fa0:	89 04 24             	mov    %eax,(%esp)
40002fa3:	e8 db fd ff ff       	call   40002d83 <mknod>
40002fa8:	89 45 f8             	mov    %eax,-0x8(%ebp)
40002fab:	83 7d f8 ff          	cmpl   $0xffffffff,-0x8(%ebp)
40002faf:	75 14                	jne    40002fc5 <open+0xa3>
40002fb1:	a1 44 29 01 40       	mov    0x40012944,%eax
40002fb6:	83 f8 14             	cmp    $0x14,%eax
40002fb9:	74 0a                	je     40002fc5 <open+0xa3>
40002fbb:	a1 44 29 01 40       	mov    0x40012944,%eax
40002fc0:	f7 d8                	neg    %eax
40002fc2:	89 45 e4             	mov    %eax,-0x1c(%ebp)
40002fc5:	c7 44 24 08 00 00 00 	movl   $0x0,0x8(%esp)
40002fcc:	00 
40002fcd:	c7 44 24 04 00 20 00 	movl   $0x2000,0x4(%esp)
40002fd4:	00 
40002fd5:	c7 04 24 00 00 00 00 	movl   $0x0,(%esp)
40002fdc:	e8 b3 60 00 00       	call   40009094 <shmget>
40002fe1:	89 45 f4             	mov    %eax,-0xc(%ebp)
40002fe4:	c7 44 24 08 00 00 00 	movl   $0x0,0x8(%esp)
40002feb:	00 
40002fec:	c7 44 24 04 00 00 00 	movl   $0x0,0x4(%esp)
40002ff3:	00 
40002ff4:	8b 45 f4             	mov    -0xc(%ebp),%eax
40002ff7:	89 04 24             	mov    %eax,(%esp)
40002ffa:	e8 51 61 00 00       	call   40009150 <shmat>
40002fff:	89 45 e8             	mov    %eax,-0x18(%ebp)
40003002:	83 7d e8 00          	cmpl   $0x0,-0x18(%ebp)
40003006:	0f 84 03 01 00 00    	je     4000310f <open+0x1ed>
4000300c:	8b 55 e8             	mov    -0x18(%ebp),%edx
4000300f:	c7 44 24 08 00 20 00 	movl   $0x2000,0x8(%esp)
40003016:	00 
40003017:	8b 45 ec             	mov    -0x14(%ebp),%eax
4000301a:	89 44 24 04          	mov    %eax,0x4(%esp)
4000301e:	89 14 24             	mov    %edx,(%esp)
40003021:	e8 fa 84 00 00       	call   4000b520 <strncpy>
40003026:	8b 45 f0             	mov    -0x10(%ebp),%eax
40003029:	8b 00                	mov    (%eax),%eax
4000302b:	89 44 24 08          	mov    %eax,0x8(%esp)
4000302f:	c7 44 24 04 f6 f1 00 	movl   $0x4000f1f6,0x4(%esp)
40003036:	40 
40003037:	8d 45 dc             	lea    -0x24(%ebp),%eax
4000303a:	89 04 24             	mov    %eax,(%esp)
4000303d:	e8 e2 a9 00 00       	call   4000da24 <asprintf>
40003042:	8b 45 f0             	mov    -0x10(%ebp),%eax
40003045:	8b 50 04             	mov    0x4(%eax),%edx
40003048:	8b 4d dc             	mov    -0x24(%ebp),%ecx
4000304b:	8b 45 f4             	mov    -0xc(%ebp),%eax
4000304e:	89 44 24 10          	mov    %eax,0x10(%esp)
40003052:	8b 45 0c             	mov    0xc(%ebp),%eax
40003055:	89 44 24 0c          	mov    %eax,0xc(%esp)
40003059:	89 54 24 08          	mov    %edx,0x8(%esp)
4000305d:	c7 44 24 04 00 00 00 	movl   $0x0,0x4(%esp)
40003064:	00 
40003065:	89 0c 24             	mov    %ecx,(%esp)
40003068:	e8 62 a2 00 00       	call   4000d2cf <rpc_call>
4000306d:	89 45 e4             	mov    %eax,-0x1c(%ebp)
40003070:	8b 45 dc             	mov    -0x24(%ebp),%eax
40003073:	89 04 24             	mov    %eax,(%esp)
40003076:	e8 8c 50 00 00       	call   40008107 <free>
4000307b:	83 7d e4 00          	cmpl   $0x0,-0x1c(%ebp)
4000307f:	0f 88 8a 00 00 00    	js     4000310f <open+0x1ed>
40003085:	c7 04 24 28 00 00 00 	movl   $0x28,(%esp)
4000308c:	e8 bf 4b 00 00       	call   40007c50 <malloc>
40003091:	89 45 fc             	mov    %eax,-0x4(%ebp)
40003094:	8b 55 fc             	mov    -0x4(%ebp),%edx
40003097:	8b 45 e4             	mov    -0x1c(%ebp),%eax
4000309a:	89 42 04             	mov    %eax,0x4(%edx)
4000309d:	8b 55 fc             	mov    -0x4(%ebp),%edx
400030a0:	8b 45 f0             	mov    -0x10(%ebp),%eax
400030a3:	89 02                	mov    %eax,(%edx)
400030a5:	8b 55 fc             	mov    -0x4(%ebp),%edx
400030a8:	8b 45 0c             	mov    0xc(%ebp),%eax
400030ab:	89 42 10             	mov    %eax,0x10(%edx)
400030ae:	8b 45 fc             	mov    -0x4(%ebp),%eax
400030b1:	c7 40 0c 00 80 00 00 	movl   $0x8000,0xc(%eax)
400030b8:	8b 15 50 12 01 40    	mov    0x40011250,%edx
400030be:	8b 45 fc             	mov    -0x4(%ebp),%eax
400030c1:	89 50 14             	mov    %edx,0x14(%eax)
400030c4:	8d 42 01             	lea    0x1(%edx),%eax
400030c7:	a3 50 12 01 40       	mov    %eax,0x40011250
400030cc:	8b 45 ec             	mov    -0x14(%ebp),%eax
400030cf:	89 04 24             	mov    %eax,(%esp)
400030d2:	e8 be 82 00 00       	call   4000b395 <strdup>
400030d7:	89 c2                	mov    %eax,%edx
400030d9:	8b 45 fc             	mov    -0x4(%ebp),%eax
400030dc:	89 50 18             	mov    %edx,0x18(%eax)
400030df:	8b 55 fc             	mov    -0x4(%ebp),%edx
400030e2:	8b 45 f4             	mov    -0xc(%ebp),%eax
400030e5:	89 42 1c             	mov    %eax,0x1c(%edx)
400030e8:	8b 55 fc             	mov    -0x4(%ebp),%edx
400030eb:	8b 45 e8             	mov    -0x18(%ebp),%eax
400030ee:	89 42 20             	mov    %eax,0x20(%edx)
400030f1:	8b 45 fc             	mov    -0x4(%ebp),%eax
400030f4:	8b 40 14             	mov    0x14(%eax),%eax
400030f7:	89 45 e4             	mov    %eax,-0x1c(%ebp)
400030fa:	8b 15 48 12 01 40    	mov    0x40011248,%edx
40003100:	8b 45 fc             	mov    -0x4(%ebp),%eax
40003103:	89 44 24 04          	mov    %eax,0x4(%esp)
40003107:	89 14 24             	mov    %edx,(%esp)
4000310a:	e8 8c 89 00 00       	call   4000ba9b <llist_push>
4000310f:	8b 45 ec             	mov    -0x14(%ebp),%eax
40003112:	89 04 24             	mov    %eax,(%esp)
40003115:	e8 ed 4f 00 00       	call   40008107 <free>
4000311a:	83 7d e4 00          	cmpl   $0x0,-0x1c(%ebp)
4000311e:	79 0c                	jns    4000312c <open+0x20a>
40003120:	8b 45 e4             	mov    -0x1c(%ebp),%eax
40003123:	89 c2                	mov    %eax,%edx
40003125:	f7 da                	neg    %edx
40003127:	89 55 cc             	mov    %edx,-0x34(%ebp)
4000312a:	eb 07                	jmp    40003133 <open+0x211>
4000312c:	c7 45 cc 00 00 00 00 	movl   $0x0,-0x34(%ebp)
40003133:	8b 45 cc             	mov    -0x34(%ebp),%eax
40003136:	a3 44 29 01 40       	mov    %eax,0x40012944
4000313b:	8b 45 e4             	mov    -0x1c(%ebp),%eax
4000313e:	c1 f8 1f             	sar    $0x1f,%eax
40003141:	0b 45 e4             	or     -0x1c(%ebp),%eax
40003144:	c9                   	leave  
40003145:	c3                   	ret    

40003146 <_close_all_filehandles>:
40003146:	55                   	push   %ebp
40003147:	89 e5                	mov    %esp,%ebp
40003149:	83 ec 18             	sub    $0x18,%esp
4000314c:	eb 3f                	jmp    4000318d <_close_all_filehandles+0x47>
4000314e:	8b 45 fc             	mov    -0x4(%ebp),%eax
40003151:	8b 40 0c             	mov    0xc(%eax),%eax
40003154:	25 00 f0 00 00       	and    $0xf000,%eax
40003159:	3d 00 80 00 00       	cmp    $0x8000,%eax
4000315e:	75 10                	jne    40003170 <_close_all_filehandles+0x2a>
40003160:	8b 45 fc             	mov    -0x4(%ebp),%eax
40003163:	8b 40 14             	mov    0x14(%eax),%eax
40003166:	89 04 24             	mov    %eax,(%esp)
40003169:	e8 5b 00 00 00       	call   400031c9 <close>
4000316e:	eb 1d                	jmp    4000318d <_close_all_filehandles+0x47>
40003170:	8b 45 fc             	mov    -0x4(%ebp),%eax
40003173:	8b 40 0c             	mov    0xc(%eax),%eax
40003176:	25 00 f0 00 00       	and    $0xf000,%eax
4000317b:	3d 00 40 00 00       	cmp    $0x4000,%eax
40003180:	75 0b                	jne    4000318d <_close_all_filehandles+0x47>
40003182:	8b 45 fc             	mov    -0x4(%ebp),%eax
40003185:	89 04 24             	mov    %eax,(%esp)
40003188:	e8 00 0c 00 00       	call   40003d8d <closedir>
4000318d:	a1 48 12 01 40       	mov    0x40011248,%eax
40003192:	89 04 24             	mov    %eax,(%esp)
40003195:	e8 5a 89 00 00       	call   4000baf4 <llist_pop>
4000319a:	89 45 fc             	mov    %eax,-0x4(%ebp)
4000319d:	83 7d fc 00          	cmpl   $0x0,-0x4(%ebp)
400031a1:	75 ab                	jne    4000314e <_close_all_filehandles+0x8>
400031a3:	c7 04 24 00 00 00 00 	movl   $0x0,(%esp)
400031aa:	e8 c9 f4 ff ff       	call   40002678 <_destroy_unnamed_pipe>
400031af:	c7 04 24 01 00 00 00 	movl   $0x1,(%esp)
400031b6:	e8 bd f4 ff ff       	call   40002678 <_destroy_unnamed_pipe>
400031bb:	c7 04 24 02 00 00 00 	movl   $0x2,(%esp)
400031c2:	e8 b1 f4 ff ff       	call   40002678 <_destroy_unnamed_pipe>
400031c7:	c9                   	leave  
400031c8:	c3                   	ret    

400031c9 <close>:
400031c9:	55                   	push   %ebp
400031ca:	89 e5                	mov    %esp,%ebp
400031cc:	83 ec 28             	sub    $0x28,%esp
400031cf:	8b 45 08             	mov    0x8(%ebp),%eax
400031d2:	89 04 24             	mov    %eax,(%esp)
400031d5:	e8 a0 f2 ff ff       	call   4000247a <lidxbyfh>
400031da:	8b 15 48 12 01 40    	mov    0x40011248,%edx
400031e0:	89 44 24 04          	mov    %eax,0x4(%esp)
400031e4:	89 14 24             	mov    %edx,(%esp)
400031e7:	e8 e7 89 00 00       	call   4000bbd3 <llist_get>
400031ec:	89 45 fc             	mov    %eax,-0x4(%ebp)
400031ef:	8b 45 fc             	mov    -0x4(%ebp),%eax
400031f2:	8b 00                	mov    (%eax),%eax
400031f4:	85 c0                	test   %eax,%eax
400031f6:	75 13                	jne    4000320b <close+0x42>
400031f8:	8b 45 08             	mov    0x8(%ebp),%eax
400031fb:	89 04 24             	mov    %eax,(%esp)
400031fe:	e8 f1 f5 ff ff       	call   400027f4 <_close_unnamed_pipe>
40003203:	89 45 e8             	mov    %eax,-0x18(%ebp)
40003206:	e9 ff 00 00 00       	jmp    4000330a <close+0x141>
4000320b:	83 7d fc 00          	cmpl   $0x0,-0x4(%ebp)
4000320f:	0f 84 bf 00 00 00    	je     400032d4 <close+0x10b>
40003215:	8b 45 fc             	mov    -0x4(%ebp),%eax
40003218:	8b 00                	mov    (%eax),%eax
4000321a:	8b 00                	mov    (%eax),%eax
4000321c:	89 44 24 08          	mov    %eax,0x8(%esp)
40003220:	c7 44 24 04 01 f2 00 	movl   $0x4000f201,0x4(%esp)
40003227:	40 
40003228:	8d 45 f4             	lea    -0xc(%ebp),%eax
4000322b:	89 04 24             	mov    %eax,(%esp)
4000322e:	e8 f1 a7 00 00       	call   4000da24 <asprintf>
40003233:	8b 45 fc             	mov    -0x4(%ebp),%eax
40003236:	8b 50 04             	mov    0x4(%eax),%edx
40003239:	8b 45 fc             	mov    -0x4(%ebp),%eax
4000323c:	8b 00                	mov    (%eax),%eax
4000323e:	8b 40 04             	mov    0x4(%eax),%eax
40003241:	8b 4d f4             	mov    -0xc(%ebp),%ecx
40003244:	89 54 24 0c          	mov    %edx,0xc(%esp)
40003248:	89 44 24 08          	mov    %eax,0x8(%esp)
4000324c:	c7 44 24 04 00 00 00 	movl   $0x0,0x4(%esp)
40003253:	00 
40003254:	89 0c 24             	mov    %ecx,(%esp)
40003257:	e8 73 a0 00 00       	call   4000d2cf <rpc_call>
4000325c:	89 45 f8             	mov    %eax,-0x8(%ebp)
4000325f:	8b 45 f4             	mov    -0xc(%ebp),%eax
40003262:	89 04 24             	mov    %eax,(%esp)
40003265:	e8 9d 4e 00 00       	call   40008107 <free>
4000326a:	83 7d f8 00          	cmpl   $0x0,-0x8(%ebp)
4000326e:	75 6b                	jne    400032db <close+0x112>
40003270:	8b 45 fc             	mov    -0x4(%ebp),%eax
40003273:	8b 40 20             	mov    0x20(%eax),%eax
40003276:	89 04 24             	mov    %eax,(%esp)
40003279:	e8 55 5f 00 00       	call   400091d3 <shmdt>
4000327e:	8b 45 fc             	mov    -0x4(%ebp),%eax
40003281:	8b 40 1c             	mov    0x1c(%eax),%eax
40003284:	c7 44 24 08 00 00 00 	movl   $0x0,0x8(%esp)
4000328b:	00 
4000328c:	c7 44 24 04 01 00 00 	movl   $0x1,0x4(%esp)
40003293:	00 
40003294:	89 04 24             	mov    %eax,(%esp)
40003297:	e8 a7 5f 00 00       	call   40009243 <shmctl>
4000329c:	8b 45 08             	mov    0x8(%ebp),%eax
4000329f:	89 04 24             	mov    %eax,(%esp)
400032a2:	e8 d3 f1 ff ff       	call   4000247a <lidxbyfh>
400032a7:	8b 15 48 12 01 40    	mov    0x40011248,%edx
400032ad:	89 44 24 04          	mov    %eax,0x4(%esp)
400032b1:	89 14 24             	mov    %edx,(%esp)
400032b4:	e8 ec 89 00 00       	call   4000bca5 <llist_remove>
400032b9:	8b 45 fc             	mov    -0x4(%ebp),%eax
400032bc:	8b 40 18             	mov    0x18(%eax),%eax
400032bf:	89 04 24             	mov    %eax,(%esp)
400032c2:	e8 40 4e 00 00       	call   40008107 <free>
400032c7:	8b 45 fc             	mov    -0x4(%ebp),%eax
400032ca:	89 04 24             	mov    %eax,(%esp)
400032cd:	e8 35 4e 00 00       	call   40008107 <free>
400032d2:	eb 07                	jmp    400032db <close+0x112>
400032d4:	c7 45 f8 f8 ff ff ff 	movl   $0xfffffff8,-0x8(%ebp)
400032db:	83 7d f8 00          	cmpl   $0x0,-0x8(%ebp)
400032df:	79 0c                	jns    400032ed <close+0x124>
400032e1:	8b 45 f8             	mov    -0x8(%ebp),%eax
400032e4:	89 c2                	mov    %eax,%edx
400032e6:	f7 da                	neg    %edx
400032e8:	89 55 ec             	mov    %edx,-0x14(%ebp)
400032eb:	eb 07                	jmp    400032f4 <close+0x12b>
400032ed:	c7 45 ec 00 00 00 00 	movl   $0x0,-0x14(%ebp)
400032f4:	8b 45 ec             	mov    -0x14(%ebp),%eax
400032f7:	a3 44 29 01 40       	mov    %eax,0x40012944
400032fc:	8b 45 f8             	mov    -0x8(%ebp),%eax
400032ff:	c1 f8 1f             	sar    $0x1f,%eax
40003302:	8b 55 f8             	mov    -0x8(%ebp),%edx
40003305:	09 c2                	or     %eax,%edx
40003307:	89 55 e8             	mov    %edx,-0x18(%ebp)
4000330a:	8b 45 e8             	mov    -0x18(%ebp),%eax
4000330d:	c9                   	leave  
4000330e:	c3                   	ret    

4000330f <dup2>:
4000330f:	55                   	push   %ebp
40003310:	89 e5                	mov    %esp,%ebp
40003312:	83 ec 28             	sub    $0x28,%esp
40003315:	c7 45 f4 ff ff ff ff 	movl   $0xffffffff,-0xc(%ebp)
4000331c:	8b 45 08             	mov    0x8(%ebp),%eax
4000331f:	89 04 24             	mov    %eax,(%esp)
40003322:	e8 53 f1 ff ff       	call   4000247a <lidxbyfh>
40003327:	8b 15 48 12 01 40    	mov    0x40011248,%edx
4000332d:	89 44 24 04          	mov    %eax,0x4(%esp)
40003331:	89 14 24             	mov    %edx,(%esp)
40003334:	e8 9a 88 00 00       	call   4000bbd3 <llist_get>
40003339:	89 45 f8             	mov    %eax,-0x8(%ebp)
4000333c:	83 7d f8 00          	cmpl   $0x0,-0x8(%ebp)
40003340:	0f 84 21 01 00 00    	je     40003467 <dup2+0x158>
40003346:	8b 45 f8             	mov    -0x8(%ebp),%eax
40003349:	8b 00                	mov    (%eax),%eax
4000334b:	8b 00                	mov    (%eax),%eax
4000334d:	89 44 24 08          	mov    %eax,0x8(%esp)
40003351:	c7 44 24 04 01 f2 00 	movl   $0x4000f201,0x4(%esp)
40003358:	40 
40003359:	8d 45 f0             	lea    -0x10(%ebp),%eax
4000335c:	89 04 24             	mov    %eax,(%esp)
4000335f:	e8 c0 a6 00 00       	call   4000da24 <asprintf>
40003364:	8b 45 f8             	mov    -0x8(%ebp),%eax
40003367:	8b 50 04             	mov    0x4(%eax),%edx
4000336a:	8b 45 f8             	mov    -0x8(%ebp),%eax
4000336d:	8b 00                	mov    (%eax),%eax
4000336f:	8b 40 04             	mov    0x4(%eax),%eax
40003372:	8b 4d f0             	mov    -0x10(%ebp),%ecx
40003375:	89 54 24 0c          	mov    %edx,0xc(%esp)
40003379:	89 44 24 08          	mov    %eax,0x8(%esp)
4000337d:	c7 44 24 04 00 00 00 	movl   $0x0,0x4(%esp)
40003384:	00 
40003385:	89 0c 24             	mov    %ecx,(%esp)
40003388:	e8 42 9f 00 00       	call   4000d2cf <rpc_call>
4000338d:	89 45 f4             	mov    %eax,-0xc(%ebp)
40003390:	8b 45 f0             	mov    -0x10(%ebp),%eax
40003393:	89 04 24             	mov    %eax,(%esp)
40003396:	e8 6c 4d 00 00       	call   40008107 <free>
4000339b:	83 7d f4 00          	cmpl   $0x0,-0xc(%ebp)
4000339f:	0f 88 cc 00 00 00    	js     40003471 <dup2+0x162>
400033a5:	c7 04 24 28 00 00 00 	movl   $0x28,(%esp)
400033ac:	e8 9f 48 00 00       	call   40007c50 <malloc>
400033b1:	89 45 fc             	mov    %eax,-0x4(%ebp)
400033b4:	c7 44 24 08 28 00 00 	movl   $0x28,0x8(%esp)
400033bb:	00 
400033bc:	8b 45 f8             	mov    -0x8(%ebp),%eax
400033bf:	89 44 24 04          	mov    %eax,0x4(%esp)
400033c3:	8b 45 fc             	mov    -0x4(%ebp),%eax
400033c6:	89 04 24             	mov    %eax,(%esp)
400033c9:	e8 5a 7c 00 00       	call   4000b028 <memcpy>
400033ce:	83 7d 0c 00          	cmpl   $0x0,0xc(%ebp)
400033d2:	75 15                	jne    400033e9 <dup2+0xda>
400033d4:	a1 50 12 01 40       	mov    0x40011250,%eax
400033d9:	8b 55 fc             	mov    -0x4(%ebp),%edx
400033dc:	89 42 14             	mov    %eax,0x14(%edx)
400033df:	83 c0 01             	add    $0x1,%eax
400033e2:	a3 50 12 01 40       	mov    %eax,0x40011250
400033e7:	eb 14                	jmp    400033fd <dup2+0xee>
400033e9:	8b 45 0c             	mov    0xc(%ebp),%eax
400033ec:	89 04 24             	mov    %eax,(%esp)
400033ef:	e8 d5 fd ff ff       	call   400031c9 <close>
400033f4:	8b 55 fc             	mov    -0x4(%ebp),%edx
400033f7:	8b 45 0c             	mov    0xc(%ebp),%eax
400033fa:	89 42 14             	mov    %eax,0x14(%edx)
400033fd:	8b 55 fc             	mov    -0x4(%ebp),%edx
40003400:	8b 45 f4             	mov    -0xc(%ebp),%eax
40003403:	89 42 04             	mov    %eax,0x4(%edx)
40003406:	c7 44 24 08 00 00 00 	movl   $0x0,0x8(%esp)
4000340d:	00 
4000340e:	c7 44 24 04 00 20 00 	movl   $0x2000,0x4(%esp)
40003415:	00 
40003416:	c7 04 24 00 00 00 00 	movl   $0x0,(%esp)
4000341d:	e8 72 5c 00 00       	call   40009094 <shmget>
40003422:	89 c2                	mov    %eax,%edx
40003424:	8b 45 fc             	mov    -0x4(%ebp),%eax
40003427:	89 50 1c             	mov    %edx,0x1c(%eax)
4000342a:	8b 45 fc             	mov    -0x4(%ebp),%eax
4000342d:	8b 40 1c             	mov    0x1c(%eax),%eax
40003430:	c7 44 24 08 00 00 00 	movl   $0x0,0x8(%esp)
40003437:	00 
40003438:	c7 44 24 04 00 00 00 	movl   $0x0,0x4(%esp)
4000343f:	00 
40003440:	89 04 24             	mov    %eax,(%esp)
40003443:	e8 08 5d 00 00       	call   40009150 <shmat>
40003448:	89 c2                	mov    %eax,%edx
4000344a:	8b 45 fc             	mov    -0x4(%ebp),%eax
4000344d:	89 50 20             	mov    %edx,0x20(%eax)
40003450:	8b 15 48 12 01 40    	mov    0x40011248,%edx
40003456:	8b 45 fc             	mov    -0x4(%ebp),%eax
40003459:	89 44 24 04          	mov    %eax,0x4(%esp)
4000345d:	89 14 24             	mov    %edx,(%esp)
40003460:	e8 36 86 00 00       	call   4000ba9b <llist_push>
40003465:	eb 0a                	jmp    40003471 <dup2+0x162>
40003467:	c7 05 44 29 01 40 08 	movl   $0x8,0x40012944
4000346e:	00 00 00 
40003471:	8b 45 f4             	mov    -0xc(%ebp),%eax
40003474:	c9                   	leave  
40003475:	c3                   	ret    

40003476 <_read>:
40003476:	55                   	push   %ebp
40003477:	89 e5                	mov    %esp,%ebp
40003479:	53                   	push   %ebx
4000347a:	83 ec 24             	sub    $0x24,%esp
4000347d:	8b 45 08             	mov    0x8(%ebp),%eax
40003480:	8b 00                	mov    (%eax),%eax
40003482:	8b 00                	mov    (%eax),%eax
40003484:	89 44 24 08          	mov    %eax,0x8(%esp)
40003488:	c7 44 24 04 0d f2 00 	movl   $0x4000f20d,0x4(%esp)
4000348f:	40 
40003490:	8d 45 f4             	lea    -0xc(%ebp),%eax
40003493:	89 04 24             	mov    %eax,(%esp)
40003496:	e8 89 a5 00 00       	call   4000da24 <asprintf>
4000349b:	8b 45 08             	mov    0x8(%ebp),%eax
4000349e:	8b 48 04             	mov    0x4(%eax),%ecx
400034a1:	8b 45 08             	mov    0x8(%ebp),%eax
400034a4:	8b 00                	mov    (%eax),%eax
400034a6:	8b 50 04             	mov    0x4(%eax),%edx
400034a9:	8b 5d f4             	mov    -0xc(%ebp),%ebx
400034ac:	8b 45 10             	mov    0x10(%ebp),%eax
400034af:	89 44 24 10          	mov    %eax,0x10(%esp)
400034b3:	89 4c 24 0c          	mov    %ecx,0xc(%esp)
400034b7:	89 54 24 08          	mov    %edx,0x8(%esp)
400034bb:	c7 44 24 04 00 00 00 	movl   $0x0,0x4(%esp)
400034c2:	00 
400034c3:	89 1c 24             	mov    %ebx,(%esp)
400034c6:	e8 04 9e 00 00       	call   4000d2cf <rpc_call>
400034cb:	89 45 f8             	mov    %eax,-0x8(%ebp)
400034ce:	8b 45 f4             	mov    -0xc(%ebp),%eax
400034d1:	89 04 24             	mov    %eax,(%esp)
400034d4:	e8 2e 4c 00 00       	call   40008107 <free>
400034d9:	83 7d f8 00          	cmpl   $0x0,-0x8(%ebp)
400034dd:	7e 1c                	jle    400034fb <_read+0x85>
400034df:	8b 55 f8             	mov    -0x8(%ebp),%edx
400034e2:	8b 45 08             	mov    0x8(%ebp),%eax
400034e5:	8b 40 20             	mov    0x20(%eax),%eax
400034e8:	89 54 24 08          	mov    %edx,0x8(%esp)
400034ec:	89 44 24 04          	mov    %eax,0x4(%esp)
400034f0:	8b 45 0c             	mov    0xc(%ebp),%eax
400034f3:	89 04 24             	mov    %eax,(%esp)
400034f6:	e8 2d 7b 00 00       	call   4000b028 <memcpy>
400034fb:	8b 45 f8             	mov    -0x8(%ebp),%eax
400034fe:	83 c4 24             	add    $0x24,%esp
40003501:	5b                   	pop    %ebx
40003502:	5d                   	pop    %ebp
40003503:	c3                   	ret    

40003504 <read>:
40003504:	55                   	push   %ebp
40003505:	89 e5                	mov    %esp,%ebp
40003507:	83 ec 28             	sub    $0x28,%esp
4000350a:	8b 45 08             	mov    0x8(%ebp),%eax
4000350d:	89 04 24             	mov    %eax,(%esp)
40003510:	e8 65 ef ff ff       	call   4000247a <lidxbyfh>
40003515:	8b 15 48 12 01 40    	mov    0x40011248,%edx
4000351b:	89 44 24 04          	mov    %eax,0x4(%esp)
4000351f:	89 14 24             	mov    %edx,(%esp)
40003522:	e8 ac 86 00 00       	call   4000bbd3 <llist_get>
40003527:	89 45 f0             	mov    %eax,-0x10(%ebp)
4000352a:	8b 45 f0             	mov    -0x10(%ebp),%eax
4000352d:	8b 00                	mov    (%eax),%eax
4000352f:	85 c0                	test   %eax,%eax
40003531:	75 21                	jne    40003554 <read+0x50>
40003533:	8b 45 10             	mov    0x10(%ebp),%eax
40003536:	89 44 24 08          	mov    %eax,0x8(%esp)
4000353a:	8b 45 0c             	mov    0xc(%ebp),%eax
4000353d:	89 44 24 04          	mov    %eax,0x4(%esp)
40003541:	8b 45 08             	mov    0x8(%ebp),%eax
40003544:	89 04 24             	mov    %eax,(%esp)
40003547:	e8 32 f3 ff ff       	call   4000287e <_read_unnamed_pipe>
4000354c:	89 45 ec             	mov    %eax,-0x14(%ebp)
4000354f:	e9 9d 00 00 00       	jmp    400035f1 <read+0xed>
40003554:	83 7d f0 00          	cmpl   $0x0,-0x10(%ebp)
40003558:	0f 84 82 00 00 00    	je     400035e0 <read+0xdc>
4000355e:	8b 45 10             	mov    0x10(%ebp),%eax
40003561:	89 45 f4             	mov    %eax,-0xc(%ebp)
40003564:	c7 45 f8 00 00 00 00 	movl   $0x0,-0x8(%ebp)
4000356b:	eb 5c                	jmp    400035c9 <read+0xc5>
4000356d:	8b 45 f4             	mov    -0xc(%ebp),%eax
40003570:	89 45 fc             	mov    %eax,-0x4(%ebp)
40003573:	81 7d fc 00 20 00 00 	cmpl   $0x2000,-0x4(%ebp)
4000357a:	76 07                	jbe    40003583 <read+0x7f>
4000357c:	c7 45 fc 00 20 00 00 	movl   $0x2000,-0x4(%ebp)
40003583:	8b 55 f8             	mov    -0x8(%ebp),%edx
40003586:	8b 45 0c             	mov    0xc(%ebp),%eax
40003589:	8d 14 10             	lea    (%eax,%edx,1),%edx
4000358c:	8b 45 fc             	mov    -0x4(%ebp),%eax
4000358f:	89 44 24 08          	mov    %eax,0x8(%esp)
40003593:	89 54 24 04          	mov    %edx,0x4(%esp)
40003597:	8b 45 f0             	mov    -0x10(%ebp),%eax
4000359a:	89 04 24             	mov    %eax,(%esp)
4000359d:	e8 d4 fe ff ff       	call   40003476 <_read>
400035a2:	89 45 fc             	mov    %eax,-0x4(%ebp)
400035a5:	83 7d fc ff          	cmpl   $0xffffffff,-0x4(%ebp)
400035a9:	75 09                	jne    400035b4 <read+0xb0>
400035ab:	c7 45 ec ff ff ff ff 	movl   $0xffffffff,-0x14(%ebp)
400035b2:	eb 3d                	jmp    400035f1 <read+0xed>
400035b4:	8b 45 f4             	mov    -0xc(%ebp),%eax
400035b7:	2b 45 fc             	sub    -0x4(%ebp),%eax
400035ba:	89 45 f4             	mov    %eax,-0xc(%ebp)
400035bd:	83 7d fc 00          	cmpl   $0x0,-0x4(%ebp)
400035c1:	74 0c                	je     400035cf <read+0xcb>
400035c3:	8b 45 fc             	mov    -0x4(%ebp),%eax
400035c6:	01 45 f8             	add    %eax,-0x8(%ebp)
400035c9:	83 7d f4 00          	cmpl   $0x0,-0xc(%ebp)
400035cd:	7f 9e                	jg     4000356d <read+0x69>
400035cf:	8b 45 f4             	mov    -0xc(%ebp),%eax
400035d2:	8b 55 10             	mov    0x10(%ebp),%edx
400035d5:	89 d1                	mov    %edx,%ecx
400035d7:	29 c1                	sub    %eax,%ecx
400035d9:	89 c8                	mov    %ecx,%eax
400035db:	89 45 ec             	mov    %eax,-0x14(%ebp)
400035de:	eb 11                	jmp    400035f1 <read+0xed>
400035e0:	c7 05 44 29 01 40 08 	movl   $0x8,0x40012944
400035e7:	00 00 00 
400035ea:	c7 45 ec ff ff ff ff 	movl   $0xffffffff,-0x14(%ebp)
400035f1:	8b 45 ec             	mov    -0x14(%ebp),%eax
400035f4:	c9                   	leave  
400035f5:	c3                   	ret    

400035f6 <_write>:
400035f6:	55                   	push   %ebp
400035f7:	89 e5                	mov    %esp,%ebp
400035f9:	53                   	push   %ebx
400035fa:	83 ec 24             	sub    $0x24,%esp
400035fd:	8b 45 08             	mov    0x8(%ebp),%eax
40003600:	8b 50 20             	mov    0x20(%eax),%edx
40003603:	8b 45 10             	mov    0x10(%ebp),%eax
40003606:	89 44 24 08          	mov    %eax,0x8(%esp)
4000360a:	8b 45 0c             	mov    0xc(%ebp),%eax
4000360d:	89 44 24 04          	mov    %eax,0x4(%esp)
40003611:	89 14 24             	mov    %edx,(%esp)
40003614:	e8 0f 7a 00 00       	call   4000b028 <memcpy>
40003619:	8b 45 08             	mov    0x8(%ebp),%eax
4000361c:	8b 00                	mov    (%eax),%eax
4000361e:	8b 00                	mov    (%eax),%eax
40003620:	89 44 24 08          	mov    %eax,0x8(%esp)
40003624:	c7 44 24 04 18 f2 00 	movl   $0x4000f218,0x4(%esp)
4000362b:	40 
4000362c:	8d 45 f4             	lea    -0xc(%ebp),%eax
4000362f:	89 04 24             	mov    %eax,(%esp)
40003632:	e8 ed a3 00 00       	call   4000da24 <asprintf>
40003637:	8b 45 08             	mov    0x8(%ebp),%eax
4000363a:	8b 48 04             	mov    0x4(%eax),%ecx
4000363d:	8b 45 08             	mov    0x8(%ebp),%eax
40003640:	8b 00                	mov    (%eax),%eax
40003642:	8b 50 04             	mov    0x4(%eax),%edx
40003645:	8b 5d f4             	mov    -0xc(%ebp),%ebx
40003648:	8b 45 10             	mov    0x10(%ebp),%eax
4000364b:	89 44 24 10          	mov    %eax,0x10(%esp)
4000364f:	89 4c 24 0c          	mov    %ecx,0xc(%esp)
40003653:	89 54 24 08          	mov    %edx,0x8(%esp)
40003657:	c7 44 24 04 00 00 00 	movl   $0x0,0x4(%esp)
4000365e:	00 
4000365f:	89 1c 24             	mov    %ebx,(%esp)
40003662:	e8 68 9c 00 00       	call   4000d2cf <rpc_call>
40003667:	89 45 f8             	mov    %eax,-0x8(%ebp)
4000366a:	8b 45 f4             	mov    -0xc(%ebp),%eax
4000366d:	89 04 24             	mov    %eax,(%esp)
40003670:	e8 92 4a 00 00       	call   40008107 <free>
40003675:	8b 45 f8             	mov    -0x8(%ebp),%eax
40003678:	83 c4 24             	add    $0x24,%esp
4000367b:	5b                   	pop    %ebx
4000367c:	5d                   	pop    %ebp
4000367d:	c3                   	ret    

4000367e <write>:
4000367e:	55                   	push   %ebp
4000367f:	89 e5                	mov    %esp,%ebp
40003681:	83 ec 28             	sub    $0x28,%esp
40003684:	8b 45 08             	mov    0x8(%ebp),%eax
40003687:	89 04 24             	mov    %eax,(%esp)
4000368a:	e8 eb ed ff ff       	call   4000247a <lidxbyfh>
4000368f:	8b 15 48 12 01 40    	mov    0x40011248,%edx
40003695:	89 44 24 04          	mov    %eax,0x4(%esp)
40003699:	89 14 24             	mov    %edx,(%esp)
4000369c:	e8 32 85 00 00       	call   4000bbd3 <llist_get>
400036a1:	89 45 f0             	mov    %eax,-0x10(%ebp)
400036a4:	8b 45 f0             	mov    -0x10(%ebp),%eax
400036a7:	8b 00                	mov    (%eax),%eax
400036a9:	85 c0                	test   %eax,%eax
400036ab:	75 21                	jne    400036ce <write+0x50>
400036ad:	8b 45 10             	mov    0x10(%ebp),%eax
400036b0:	89 44 24 08          	mov    %eax,0x8(%esp)
400036b4:	8b 45 0c             	mov    0xc(%ebp),%eax
400036b7:	89 44 24 04          	mov    %eax,0x4(%esp)
400036bb:	8b 45 08             	mov    0x8(%ebp),%eax
400036be:	89 04 24             	mov    %eax,(%esp)
400036c1:	e8 53 f3 ff ff       	call   40002a19 <_write_unnamed_pipe>
400036c6:	89 45 ec             	mov    %eax,-0x14(%ebp)
400036c9:	e9 9d 00 00 00       	jmp    4000376b <write+0xed>
400036ce:	83 7d f0 00          	cmpl   $0x0,-0x10(%ebp)
400036d2:	0f 84 82 00 00 00    	je     4000375a <write+0xdc>
400036d8:	8b 45 10             	mov    0x10(%ebp),%eax
400036db:	89 45 f4             	mov    %eax,-0xc(%ebp)
400036de:	c7 45 f8 00 00 00 00 	movl   $0x0,-0x8(%ebp)
400036e5:	eb 5c                	jmp    40003743 <write+0xc5>
400036e7:	8b 45 f4             	mov    -0xc(%ebp),%eax
400036ea:	89 45 fc             	mov    %eax,-0x4(%ebp)
400036ed:	81 7d fc 00 20 00 00 	cmpl   $0x2000,-0x4(%ebp)
400036f4:	76 07                	jbe    400036fd <write+0x7f>
400036f6:	c7 45 fc 00 20 00 00 	movl   $0x2000,-0x4(%ebp)
400036fd:	8b 55 f8             	mov    -0x8(%ebp),%edx
40003700:	8b 45 0c             	mov    0xc(%ebp),%eax
40003703:	8d 14 10             	lea    (%eax,%edx,1),%edx
40003706:	8b 45 fc             	mov    -0x4(%ebp),%eax
40003709:	89 44 24 08          	mov    %eax,0x8(%esp)
4000370d:	89 54 24 04          	mov    %edx,0x4(%esp)
40003711:	8b 45 f0             	mov    -0x10(%ebp),%eax
40003714:	89 04 24             	mov    %eax,(%esp)
40003717:	e8 da fe ff ff       	call   400035f6 <_write>
4000371c:	89 45 fc             	mov    %eax,-0x4(%ebp)
4000371f:	83 7d fc ff          	cmpl   $0xffffffff,-0x4(%ebp)
40003723:	75 09                	jne    4000372e <write+0xb0>
40003725:	c7 45 ec ff ff ff ff 	movl   $0xffffffff,-0x14(%ebp)
4000372c:	eb 3d                	jmp    4000376b <write+0xed>
4000372e:	8b 45 f4             	mov    -0xc(%ebp),%eax
40003731:	2b 45 fc             	sub    -0x4(%ebp),%eax
40003734:	89 45 f4             	mov    %eax,-0xc(%ebp)
40003737:	83 7d fc 00          	cmpl   $0x0,-0x4(%ebp)
4000373b:	74 0c                	je     40003749 <write+0xcb>
4000373d:	8b 45 fc             	mov    -0x4(%ebp),%eax
40003740:	01 45 f8             	add    %eax,-0x8(%ebp)
40003743:	83 7d f4 00          	cmpl   $0x0,-0xc(%ebp)
40003747:	7f 9e                	jg     400036e7 <write+0x69>
40003749:	8b 45 f4             	mov    -0xc(%ebp),%eax
4000374c:	8b 55 10             	mov    0x10(%ebp),%edx
4000374f:	89 d1                	mov    %edx,%ecx
40003751:	29 c1                	sub    %eax,%ecx
40003753:	89 c8                	mov    %ecx,%eax
40003755:	89 45 ec             	mov    %eax,-0x14(%ebp)
40003758:	eb 11                	jmp    4000376b <write+0xed>
4000375a:	c7 05 44 29 01 40 08 	movl   $0x8,0x40012944
40003761:	00 00 00 
40003764:	c7 45 ec ff ff ff ff 	movl   $0xffffffff,-0x14(%ebp)
4000376b:	8b 45 ec             	mov    -0x14(%ebp),%eax
4000376e:	c9                   	leave  
4000376f:	c3                   	ret    

40003770 <lseek>:
40003770:	55                   	push   %ebp
40003771:	89 e5                	mov    %esp,%ebp
40003773:	53                   	push   %ebx
40003774:	83 ec 34             	sub    $0x34,%esp
40003777:	8b 45 08             	mov    0x8(%ebp),%eax
4000377a:	89 04 24             	mov    %eax,(%esp)
4000377d:	e8 f8 ec ff ff       	call   4000247a <lidxbyfh>
40003782:	8b 15 48 12 01 40    	mov    0x40011248,%edx
40003788:	89 44 24 04          	mov    %eax,0x4(%esp)
4000378c:	89 14 24             	mov    %edx,(%esp)
4000378f:	e8 3f 84 00 00       	call   4000bbd3 <llist_get>
40003794:	89 45 f8             	mov    %eax,-0x8(%ebp)
40003797:	83 7d f8 00          	cmpl   $0x0,-0x8(%ebp)
4000379b:	74 65                	je     40003802 <lseek+0x92>
4000379d:	8b 45 f8             	mov    -0x8(%ebp),%eax
400037a0:	8b 00                	mov    (%eax),%eax
400037a2:	8b 00                	mov    (%eax),%eax
400037a4:	89 44 24 08          	mov    %eax,0x8(%esp)
400037a8:	c7 44 24 04 24 f2 00 	movl   $0x4000f224,0x4(%esp)
400037af:	40 
400037b0:	8d 45 f0             	lea    -0x10(%ebp),%eax
400037b3:	89 04 24             	mov    %eax,(%esp)
400037b6:	e8 69 a2 00 00       	call   4000da24 <asprintf>
400037bb:	8b 45 f8             	mov    -0x8(%ebp),%eax
400037be:	8b 50 04             	mov    0x4(%eax),%edx
400037c1:	8b 45 f8             	mov    -0x8(%ebp),%eax
400037c4:	8b 00                	mov    (%eax),%eax
400037c6:	8b 48 04             	mov    0x4(%eax),%ecx
400037c9:	8b 5d f0             	mov    -0x10(%ebp),%ebx
400037cc:	8b 45 10             	mov    0x10(%ebp),%eax
400037cf:	89 44 24 14          	mov    %eax,0x14(%esp)
400037d3:	8b 45 0c             	mov    0xc(%ebp),%eax
400037d6:	89 44 24 10          	mov    %eax,0x10(%esp)
400037da:	89 54 24 0c          	mov    %edx,0xc(%esp)
400037de:	89 4c 24 08          	mov    %ecx,0x8(%esp)
400037e2:	c7 44 24 04 00 00 00 	movl   $0x0,0x4(%esp)
400037e9:	00 
400037ea:	89 1c 24             	mov    %ebx,(%esp)
400037ed:	e8 dd 9a 00 00       	call   4000d2cf <rpc_call>
400037f2:	89 45 f4             	mov    %eax,-0xc(%ebp)
400037f5:	8b 45 f0             	mov    -0x10(%ebp),%eax
400037f8:	89 04 24             	mov    %eax,(%esp)
400037fb:	e8 07 49 00 00       	call   40008107 <free>
40003800:	eb 07                	jmp    40003809 <lseek+0x99>
40003802:	c7 45 f4 f8 ff ff ff 	movl   $0xfffffff8,-0xc(%ebp)
40003809:	83 7d f4 00          	cmpl   $0x0,-0xc(%ebp)
4000380d:	79 0c                	jns    4000381b <lseek+0xab>
4000380f:	8b 45 f4             	mov    -0xc(%ebp),%eax
40003812:	89 c2                	mov    %eax,%edx
40003814:	f7 da                	neg    %edx
40003816:	89 55 e8             	mov    %edx,-0x18(%ebp)
40003819:	eb 07                	jmp    40003822 <lseek+0xb2>
4000381b:	c7 45 e8 00 00 00 00 	movl   $0x0,-0x18(%ebp)
40003822:	8b 45 e8             	mov    -0x18(%ebp),%eax
40003825:	a3 44 29 01 40       	mov    %eax,0x40012944
4000382a:	8b 45 f4             	mov    -0xc(%ebp),%eax
4000382d:	c1 f8 1f             	sar    $0x1f,%eax
40003830:	0b 45 f4             	or     -0xc(%ebp),%eax
40003833:	83 c4 34             	add    $0x34,%esp
40003836:	5b                   	pop    %ebx
40003837:	5d                   	pop    %ebp
40003838:	c3                   	ret    

40003839 <unlink>:
40003839:	55                   	push   %ebp
4000383a:	89 e5                	mov    %esp,%ebp
4000383c:	83 ec 28             	sub    $0x28,%esp
4000383f:	8b 45 08             	mov    0x8(%ebp),%eax
40003842:	89 04 24             	mov    %eax,(%esp)
40003845:	e8 80 ec ff ff       	call   400024ca <getabsolutepath>
4000384a:	89 45 f8             	mov    %eax,-0x8(%ebp)
4000384d:	c7 44 24 04 01 00 00 	movl   $0x1,0x4(%esp)
40003854:	00 
40003855:	8b 45 f8             	mov    -0x8(%ebp),%eax
40003858:	89 04 24             	mov    %eax,(%esp)
4000385b:	e8 b8 ea ff ff       	call   40002318 <fsbypath>
40003860:	89 45 fc             	mov    %eax,-0x4(%ebp)
40003863:	83 7d fc 00          	cmpl   $0x0,-0x4(%ebp)
40003867:	74 50                	je     400038b9 <unlink+0x80>
40003869:	8b 45 fc             	mov    -0x4(%ebp),%eax
4000386c:	8b 00                	mov    (%eax),%eax
4000386e:	89 44 24 08          	mov    %eax,0x8(%esp)
40003872:	c7 44 24 04 2f f2 00 	movl   $0x4000f22f,0x4(%esp)
40003879:	40 
4000387a:	8d 45 f0             	lea    -0x10(%ebp),%eax
4000387d:	89 04 24             	mov    %eax,(%esp)
40003880:	e8 9f a1 00 00       	call   4000da24 <asprintf>
40003885:	8b 45 fc             	mov    -0x4(%ebp),%eax
40003888:	8b 50 04             	mov    0x4(%eax),%edx
4000388b:	8b 4d f0             	mov    -0x10(%ebp),%ecx
4000388e:	8b 45 f8             	mov    -0x8(%ebp),%eax
40003891:	89 44 24 0c          	mov    %eax,0xc(%esp)
40003895:	89 54 24 08          	mov    %edx,0x8(%esp)
40003899:	c7 44 24 04 00 00 00 	movl   $0x0,0x4(%esp)
400038a0:	00 
400038a1:	89 0c 24             	mov    %ecx,(%esp)
400038a4:	e8 26 9a 00 00       	call   4000d2cf <rpc_call>
400038a9:	89 45 f4             	mov    %eax,-0xc(%ebp)
400038ac:	8b 45 f0             	mov    -0x10(%ebp),%eax
400038af:	89 04 24             	mov    %eax,(%esp)
400038b2:	e8 50 48 00 00       	call   40008107 <free>
400038b7:	eb 07                	jmp    400038c0 <unlink+0x87>
400038b9:	c7 45 f4 e4 ff ff ff 	movl   $0xffffffe4,-0xc(%ebp)
400038c0:	8b 45 f8             	mov    -0x8(%ebp),%eax
400038c3:	89 04 24             	mov    %eax,(%esp)
400038c6:	e8 3c 48 00 00       	call   40008107 <free>
400038cb:	83 7d f4 00          	cmpl   $0x0,-0xc(%ebp)
400038cf:	79 0c                	jns    400038dd <unlink+0xa4>
400038d1:	8b 45 f4             	mov    -0xc(%ebp),%eax
400038d4:	89 c2                	mov    %eax,%edx
400038d6:	f7 da                	neg    %edx
400038d8:	89 55 ec             	mov    %edx,-0x14(%ebp)
400038db:	eb 07                	jmp    400038e4 <unlink+0xab>
400038dd:	c7 45 ec 00 00 00 00 	movl   $0x0,-0x14(%ebp)
400038e4:	8b 45 ec             	mov    -0x14(%ebp),%eax
400038e7:	a3 44 29 01 40       	mov    %eax,0x40012944
400038ec:	8b 45 f4             	mov    -0xc(%ebp),%eax
400038ef:	c1 f8 1f             	sar    $0x1f,%eax
400038f2:	0b 45 f4             	or     -0xc(%ebp),%eax
400038f5:	c9                   	leave  
400038f6:	c3                   	ret    

400038f7 <rmdir>:
400038f7:	55                   	push   %ebp
400038f8:	89 e5                	mov    %esp,%ebp
400038fa:	83 ec 28             	sub    $0x28,%esp
400038fd:	8b 45 08             	mov    0x8(%ebp),%eax
40003900:	89 04 24             	mov    %eax,(%esp)
40003903:	e8 c2 eb ff ff       	call   400024ca <getabsolutepath>
40003908:	89 45 f8             	mov    %eax,-0x8(%ebp)
4000390b:	c7 44 24 04 01 00 00 	movl   $0x1,0x4(%esp)
40003912:	00 
40003913:	8b 45 f8             	mov    -0x8(%ebp),%eax
40003916:	89 04 24             	mov    %eax,(%esp)
40003919:	e8 fa e9 ff ff       	call   40002318 <fsbypath>
4000391e:	89 45 fc             	mov    %eax,-0x4(%ebp)
40003921:	83 7d fc 00          	cmpl   $0x0,-0x4(%ebp)
40003925:	74 50                	je     40003977 <rmdir+0x80>
40003927:	8b 45 fc             	mov    -0x4(%ebp),%eax
4000392a:	8b 00                	mov    (%eax),%eax
4000392c:	89 44 24 08          	mov    %eax,0x8(%esp)
40003930:	c7 44 24 04 3c f2 00 	movl   $0x4000f23c,0x4(%esp)
40003937:	40 
40003938:	8d 45 f0             	lea    -0x10(%ebp),%eax
4000393b:	89 04 24             	mov    %eax,(%esp)
4000393e:	e8 e1 a0 00 00       	call   4000da24 <asprintf>
40003943:	8b 45 fc             	mov    -0x4(%ebp),%eax
40003946:	8b 50 04             	mov    0x4(%eax),%edx
40003949:	8b 4d f0             	mov    -0x10(%ebp),%ecx
4000394c:	8b 45 f8             	mov    -0x8(%ebp),%eax
4000394f:	89 44 24 0c          	mov    %eax,0xc(%esp)
40003953:	89 54 24 08          	mov    %edx,0x8(%esp)
40003957:	c7 44 24 04 00 00 00 	movl   $0x0,0x4(%esp)
4000395e:	00 
4000395f:	89 0c 24             	mov    %ecx,(%esp)
40003962:	e8 68 99 00 00       	call   4000d2cf <rpc_call>
40003967:	89 45 f4             	mov    %eax,-0xc(%ebp)
4000396a:	8b 45 f0             	mov    -0x10(%ebp),%eax
4000396d:	89 04 24             	mov    %eax,(%esp)
40003970:	e8 92 47 00 00       	call   40008107 <free>
40003975:	eb 07                	jmp    4000397e <rmdir+0x87>
40003977:	c7 45 f4 e4 ff ff ff 	movl   $0xffffffe4,-0xc(%ebp)
4000397e:	8b 45 f8             	mov    -0x8(%ebp),%eax
40003981:	89 04 24             	mov    %eax,(%esp)
40003984:	e8 7e 47 00 00       	call   40008107 <free>
40003989:	83 7d f4 00          	cmpl   $0x0,-0xc(%ebp)
4000398d:	79 0c                	jns    4000399b <rmdir+0xa4>
4000398f:	8b 45 f4             	mov    -0xc(%ebp),%eax
40003992:	89 c2                	mov    %eax,%edx
40003994:	f7 da                	neg    %edx
40003996:	89 55 ec             	mov    %edx,-0x14(%ebp)
40003999:	eb 07                	jmp    400039a2 <rmdir+0xab>
4000399b:	c7 45 ec 00 00 00 00 	movl   $0x0,-0x14(%ebp)
400039a2:	8b 45 ec             	mov    -0x14(%ebp),%eax
400039a5:	a3 44 29 01 40       	mov    %eax,0x40012944
400039aa:	8b 45 f4             	mov    -0xc(%ebp),%eax
400039ad:	c1 f8 1f             	sar    $0x1f,%eax
400039b0:	0b 45 f4             	or     -0xc(%ebp),%eax
400039b3:	c9                   	leave  
400039b4:	c3                   	ret    

400039b5 <rename>:
400039b5:	55                   	push   %ebp
400039b6:	89 e5                	mov    %esp,%ebp
400039b8:	83 ec 38             	sub    $0x38,%esp
400039bb:	8b 45 08             	mov    0x8(%ebp),%eax
400039be:	89 04 24             	mov    %eax,(%esp)
400039c1:	e8 04 eb ff ff       	call   400024ca <getabsolutepath>
400039c6:	89 45 f0             	mov    %eax,-0x10(%ebp)
400039c9:	8b 45 0c             	mov    0xc(%ebp),%eax
400039cc:	89 04 24             	mov    %eax,(%esp)
400039cf:	e8 f6 ea ff ff       	call   400024ca <getabsolutepath>
400039d4:	89 45 f4             	mov    %eax,-0xc(%ebp)
400039d7:	c7 44 24 04 01 00 00 	movl   $0x1,0x4(%esp)
400039de:	00 
400039df:	8b 45 f0             	mov    -0x10(%ebp),%eax
400039e2:	89 04 24             	mov    %eax,(%esp)
400039e5:	e8 2e e9 ff ff       	call   40002318 <fsbypath>
400039ea:	89 45 f8             	mov    %eax,-0x8(%ebp)
400039ed:	c7 44 24 04 01 00 00 	movl   $0x1,0x4(%esp)
400039f4:	00 
400039f5:	8b 45 f4             	mov    -0xc(%ebp),%eax
400039f8:	89 04 24             	mov    %eax,(%esp)
400039fb:	e8 18 e9 ff ff       	call   40002318 <fsbypath>
40003a00:	89 45 fc             	mov    %eax,-0x4(%ebp)
40003a03:	83 7d f8 00          	cmpl   $0x0,-0x8(%ebp)
40003a07:	74 5f                	je     40003a68 <rename+0xb3>
40003a09:	8b 45 f8             	mov    -0x8(%ebp),%eax
40003a0c:	3b 45 fc             	cmp    -0x4(%ebp),%eax
40003a0f:	75 57                	jne    40003a68 <rename+0xb3>
40003a11:	8b 45 f8             	mov    -0x8(%ebp),%eax
40003a14:	8b 00                	mov    (%eax),%eax
40003a16:	89 44 24 08          	mov    %eax,0x8(%esp)
40003a1a:	c7 44 24 04 48 f2 00 	movl   $0x4000f248,0x4(%esp)
40003a21:	40 
40003a22:	8d 45 e8             	lea    -0x18(%ebp),%eax
40003a25:	89 04 24             	mov    %eax,(%esp)
40003a28:	e8 f7 9f 00 00       	call   4000da24 <asprintf>
40003a2d:	8b 45 f8             	mov    -0x8(%ebp),%eax
40003a30:	8b 50 04             	mov    0x4(%eax),%edx
40003a33:	8b 4d e8             	mov    -0x18(%ebp),%ecx
40003a36:	8b 45 0c             	mov    0xc(%ebp),%eax
40003a39:	89 44 24 10          	mov    %eax,0x10(%esp)
40003a3d:	8b 45 08             	mov    0x8(%ebp),%eax
40003a40:	89 44 24 0c          	mov    %eax,0xc(%esp)
40003a44:	89 54 24 08          	mov    %edx,0x8(%esp)
40003a48:	c7 44 24 04 00 00 00 	movl   $0x0,0x4(%esp)
40003a4f:	00 
40003a50:	89 0c 24             	mov    %ecx,(%esp)
40003a53:	e8 77 98 00 00       	call   4000d2cf <rpc_call>
40003a58:	89 45 ec             	mov    %eax,-0x14(%ebp)
40003a5b:	8b 45 e8             	mov    -0x18(%ebp),%eax
40003a5e:	89 04 24             	mov    %eax,(%esp)
40003a61:	e8 a1 46 00 00       	call   40008107 <free>
40003a66:	eb 07                	jmp    40003a6f <rename+0xba>
40003a68:	c7 45 ec e4 ff ff ff 	movl   $0xffffffe4,-0x14(%ebp)
40003a6f:	83 7d ec 00          	cmpl   $0x0,-0x14(%ebp)
40003a73:	79 0c                	jns    40003a81 <rename+0xcc>
40003a75:	8b 45 ec             	mov    -0x14(%ebp),%eax
40003a78:	89 c2                	mov    %eax,%edx
40003a7a:	f7 da                	neg    %edx
40003a7c:	89 55 dc             	mov    %edx,-0x24(%ebp)
40003a7f:	eb 07                	jmp    40003a88 <rename+0xd3>
40003a81:	c7 45 dc 00 00 00 00 	movl   $0x0,-0x24(%ebp)
40003a88:	8b 45 dc             	mov    -0x24(%ebp),%eax
40003a8b:	a3 44 29 01 40       	mov    %eax,0x40012944
40003a90:	8b 45 ec             	mov    -0x14(%ebp),%eax
40003a93:	c1 f8 1f             	sar    $0x1f,%eax
40003a96:	0b 45 ec             	or     -0x14(%ebp),%eax
40003a99:	c9                   	leave  
40003a9a:	c3                   	ret    

40003a9b <truncate>:
40003a9b:	55                   	push   %ebp
40003a9c:	89 e5                	mov    %esp,%ebp
40003a9e:	83 ec 18             	sub    $0x18,%esp
40003aa1:	c7 45 fc ff ff ff ff 	movl   $0xffffffff,-0x4(%ebp)
40003aa8:	c7 44 24 04 02 00 00 	movl   $0x2,0x4(%esp)
40003aaf:	00 
40003ab0:	8b 45 08             	mov    0x8(%ebp),%eax
40003ab3:	89 04 24             	mov    %eax,(%esp)
40003ab6:	e8 67 f4 ff ff       	call   40002f22 <open>
40003abb:	89 45 f8             	mov    %eax,-0x8(%ebp)
40003abe:	83 7d f8 ff          	cmpl   $0xffffffff,-0x8(%ebp)
40003ac2:	74 29                	je     40003aed <truncate+0x52>
40003ac4:	8b 45 0c             	mov    0xc(%ebp),%eax
40003ac7:	89 44 24 04          	mov    %eax,0x4(%esp)
40003acb:	8b 45 f8             	mov    -0x8(%ebp),%eax
40003ace:	89 04 24             	mov    %eax,(%esp)
40003ad1:	e8 1c 00 00 00       	call   40003af2 <ftruncate>
40003ad6:	83 f8 ff             	cmp    $0xffffffff,%eax
40003ad9:	74 07                	je     40003ae2 <truncate+0x47>
40003adb:	c7 45 fc 00 00 00 00 	movl   $0x0,-0x4(%ebp)
40003ae2:	8b 45 f8             	mov    -0x8(%ebp),%eax
40003ae5:	89 04 24             	mov    %eax,(%esp)
40003ae8:	e8 dc f6 ff ff       	call   400031c9 <close>
40003aed:	8b 45 fc             	mov    -0x4(%ebp),%eax
40003af0:	c9                   	leave  
40003af1:	c3                   	ret    

40003af2 <ftruncate>:
40003af2:	55                   	push   %ebp
40003af3:	89 e5                	mov    %esp,%ebp
40003af5:	53                   	push   %ebx
40003af6:	83 ec 34             	sub    $0x34,%esp
40003af9:	8b 45 08             	mov    0x8(%ebp),%eax
40003afc:	89 04 24             	mov    %eax,(%esp)
40003aff:	e8 76 e9 ff ff       	call   4000247a <lidxbyfh>
40003b04:	8b 15 48 12 01 40    	mov    0x40011248,%edx
40003b0a:	89 44 24 04          	mov    %eax,0x4(%esp)
40003b0e:	89 14 24             	mov    %edx,(%esp)
40003b11:	e8 bd 80 00 00       	call   4000bbd3 <llist_get>
40003b16:	89 45 f8             	mov    %eax,-0x8(%ebp)
40003b19:	83 7d f8 00          	cmpl   $0x0,-0x8(%ebp)
40003b1d:	74 5e                	je     40003b7d <ftruncate+0x8b>
40003b1f:	8b 45 f8             	mov    -0x8(%ebp),%eax
40003b22:	8b 00                	mov    (%eax),%eax
40003b24:	8b 00                	mov    (%eax),%eax
40003b26:	89 44 24 08          	mov    %eax,0x8(%esp)
40003b2a:	c7 44 24 04 55 f2 00 	movl   $0x4000f255,0x4(%esp)
40003b31:	40 
40003b32:	8d 45 f0             	lea    -0x10(%ebp),%eax
40003b35:	89 04 24             	mov    %eax,(%esp)
40003b38:	e8 e7 9e 00 00       	call   4000da24 <asprintf>
40003b3d:	8b 45 f8             	mov    -0x8(%ebp),%eax
40003b40:	8b 48 04             	mov    0x4(%eax),%ecx
40003b43:	8b 45 f8             	mov    -0x8(%ebp),%eax
40003b46:	8b 00                	mov    (%eax),%eax
40003b48:	8b 50 04             	mov    0x4(%eax),%edx
40003b4b:	8b 5d f0             	mov    -0x10(%ebp),%ebx
40003b4e:	8b 45 0c             	mov    0xc(%ebp),%eax
40003b51:	89 44 24 10          	mov    %eax,0x10(%esp)
40003b55:	89 4c 24 0c          	mov    %ecx,0xc(%esp)
40003b59:	89 54 24 08          	mov    %edx,0x8(%esp)
40003b5d:	c7 44 24 04 00 00 00 	movl   $0x0,0x4(%esp)
40003b64:	00 
40003b65:	89 1c 24             	mov    %ebx,(%esp)
40003b68:	e8 62 97 00 00       	call   4000d2cf <rpc_call>
40003b6d:	89 45 f4             	mov    %eax,-0xc(%ebp)
40003b70:	8b 45 f0             	mov    -0x10(%ebp),%eax
40003b73:	89 04 24             	mov    %eax,(%esp)
40003b76:	e8 8c 45 00 00       	call   40008107 <free>
40003b7b:	eb 07                	jmp    40003b84 <ftruncate+0x92>
40003b7d:	c7 45 f4 f8 ff ff ff 	movl   $0xfffffff8,-0xc(%ebp)
40003b84:	83 7d f4 00          	cmpl   $0x0,-0xc(%ebp)
40003b88:	79 0c                	jns    40003b96 <ftruncate+0xa4>
40003b8a:	8b 45 f4             	mov    -0xc(%ebp),%eax
40003b8d:	89 c2                	mov    %eax,%edx
40003b8f:	f7 da                	neg    %edx
40003b91:	89 55 e8             	mov    %edx,-0x18(%ebp)
40003b94:	eb 07                	jmp    40003b9d <ftruncate+0xab>
40003b96:	c7 45 e8 00 00 00 00 	movl   $0x0,-0x18(%ebp)
40003b9d:	8b 45 e8             	mov    -0x18(%ebp),%eax
40003ba0:	a3 44 29 01 40       	mov    %eax,0x40012944
40003ba5:	8b 45 f4             	mov    -0xc(%ebp),%eax
40003ba8:	c1 f8 1f             	sar    $0x1f,%eax
40003bab:	0b 45 f4             	or     -0xc(%ebp),%eax
40003bae:	83 c4 34             	add    $0x34,%esp
40003bb1:	5b                   	pop    %ebx
40003bb2:	5d                   	pop    %ebp
40003bb3:	c3                   	ret    

40003bb4 <opendir>:
40003bb4:	55                   	push   %ebp
40003bb5:	89 e5                	mov    %esp,%ebp
40003bb7:	83 ec 38             	sub    $0x38,%esp
40003bba:	8b 45 08             	mov    0x8(%ebp),%eax
40003bbd:	89 04 24             	mov    %eax,(%esp)
40003bc0:	e8 05 e9 ff ff       	call   400024ca <getabsolutepath>
40003bc5:	89 45 f0             	mov    %eax,-0x10(%ebp)
40003bc8:	c7 44 24 04 00 00 00 	movl   $0x0,0x4(%esp)
40003bcf:	00 
40003bd0:	8b 45 f0             	mov    -0x10(%ebp),%eax
40003bd3:	89 04 24             	mov    %eax,(%esp)
40003bd6:	e8 3d e7 ff ff       	call   40002318 <fsbypath>
40003bdb:	89 45 f4             	mov    %eax,-0xc(%ebp)
40003bde:	83 7d f4 00          	cmpl   $0x0,-0xc(%ebp)
40003be2:	0f 84 58 01 00 00    	je     40003d40 <opendir+0x18c>
40003be8:	c7 44 24 08 00 00 00 	movl   $0x0,0x8(%esp)
40003bef:	00 
40003bf0:	c7 44 24 04 00 20 00 	movl   $0x2000,0x4(%esp)
40003bf7:	00 
40003bf8:	c7 04 24 00 00 00 00 	movl   $0x0,(%esp)
40003bff:	e8 90 54 00 00       	call   40009094 <shmget>
40003c04:	89 45 fc             	mov    %eax,-0x4(%ebp)
40003c07:	c7 44 24 08 00 00 00 	movl   $0x0,0x8(%esp)
40003c0e:	00 
40003c0f:	c7 44 24 04 00 00 00 	movl   $0x0,0x4(%esp)
40003c16:	00 
40003c17:	8b 45 fc             	mov    -0x4(%ebp),%eax
40003c1a:	89 04 24             	mov    %eax,(%esp)
40003c1d:	e8 2e 55 00 00       	call   40009150 <shmat>
40003c22:	89 45 ec             	mov    %eax,-0x14(%ebp)
40003c25:	83 7d ec 00          	cmpl   $0x0,-0x14(%ebp)
40003c29:	0f 84 05 01 00 00    	je     40003d34 <opendir+0x180>
40003c2f:	8b 55 ec             	mov    -0x14(%ebp),%edx
40003c32:	c7 44 24 08 00 20 00 	movl   $0x2000,0x8(%esp)
40003c39:	00 
40003c3a:	8b 45 f0             	mov    -0x10(%ebp),%eax
40003c3d:	89 44 24 04          	mov    %eax,0x4(%esp)
40003c41:	89 14 24             	mov    %edx,(%esp)
40003c44:	e8 d7 78 00 00       	call   4000b520 <strncpy>
40003c49:	8b 45 f4             	mov    -0xc(%ebp),%eax
40003c4c:	8b 00                	mov    (%eax),%eax
40003c4e:	89 44 24 08          	mov    %eax,0x8(%esp)
40003c52:	c7 44 24 04 65 f2 00 	movl   $0x4000f265,0x4(%esp)
40003c59:	40 
40003c5a:	8d 45 e0             	lea    -0x20(%ebp),%eax
40003c5d:	89 04 24             	mov    %eax,(%esp)
40003c60:	e8 bf 9d 00 00       	call   4000da24 <asprintf>
40003c65:	8b 45 f4             	mov    -0xc(%ebp),%eax
40003c68:	8b 50 04             	mov    0x4(%eax),%edx
40003c6b:	8b 4d e0             	mov    -0x20(%ebp),%ecx
40003c6e:	8b 45 fc             	mov    -0x4(%ebp),%eax
40003c71:	89 44 24 0c          	mov    %eax,0xc(%esp)
40003c75:	89 54 24 08          	mov    %edx,0x8(%esp)
40003c79:	c7 44 24 04 00 00 00 	movl   $0x0,0x4(%esp)
40003c80:	00 
40003c81:	89 0c 24             	mov    %ecx,(%esp)
40003c84:	e8 46 96 00 00       	call   4000d2cf <rpc_call>
40003c89:	89 45 e4             	mov    %eax,-0x1c(%ebp)
40003c8c:	8b 45 e0             	mov    -0x20(%ebp),%eax
40003c8f:	89 04 24             	mov    %eax,(%esp)
40003c92:	e8 70 44 00 00       	call   40008107 <free>
40003c97:	83 7d e4 00          	cmpl   $0x0,-0x1c(%ebp)
40003c9b:	0f 88 8b 00 00 00    	js     40003d2c <opendir+0x178>
40003ca1:	c7 04 24 28 00 00 00 	movl   $0x28,(%esp)
40003ca8:	e8 a3 3f 00 00       	call   40007c50 <malloc>
40003cad:	89 45 f8             	mov    %eax,-0x8(%ebp)
40003cb0:	8b 55 f8             	mov    -0x8(%ebp),%edx
40003cb3:	8b 45 e4             	mov    -0x1c(%ebp),%eax
40003cb6:	89 42 04             	mov    %eax,0x4(%edx)
40003cb9:	8b 55 f8             	mov    -0x8(%ebp),%edx
40003cbc:	8b 45 f4             	mov    -0xc(%ebp),%eax
40003cbf:	89 02                	mov    %eax,(%edx)
40003cc1:	8b 45 f8             	mov    -0x8(%ebp),%eax
40003cc4:	c7 40 10 00 00 00 00 	movl   $0x0,0x10(%eax)
40003ccb:	8b 45 f8             	mov    -0x8(%ebp),%eax
40003cce:	c7 40 0c 00 40 00 00 	movl   $0x4000,0xc(%eax)
40003cd5:	8b 45 f8             	mov    -0x8(%ebp),%eax
40003cd8:	c7 40 14 00 00 00 00 	movl   $0x0,0x14(%eax)
40003cdf:	8b 45 f0             	mov    -0x10(%ebp),%eax
40003ce2:	89 04 24             	mov    %eax,(%esp)
40003ce5:	e8 ab 76 00 00       	call   4000b395 <strdup>
40003cea:	89 c2                	mov    %eax,%edx
40003cec:	8b 45 f8             	mov    -0x8(%ebp),%eax
40003cef:	89 50 18             	mov    %edx,0x18(%eax)
40003cf2:	8b 55 f8             	mov    -0x8(%ebp),%edx
40003cf5:	8b 45 fc             	mov    -0x4(%ebp),%eax
40003cf8:	89 42 1c             	mov    %eax,0x1c(%edx)
40003cfb:	8b 55 f8             	mov    -0x8(%ebp),%edx
40003cfe:	8b 45 ec             	mov    -0x14(%ebp),%eax
40003d01:	89 42 20             	mov    %eax,0x20(%edx)
40003d04:	8b 45 f8             	mov    -0x8(%ebp),%eax
40003d07:	c7 40 08 00 00 00 00 	movl   $0x0,0x8(%eax)
40003d0e:	8b 15 48 12 01 40    	mov    0x40011248,%edx
40003d14:	8b 45 f8             	mov    -0x8(%ebp),%eax
40003d17:	89 44 24 04          	mov    %eax,0x4(%esp)
40003d1b:	89 14 24             	mov    %edx,(%esp)
40003d1e:	e8 78 7d 00 00       	call   4000ba9b <llist_push>
40003d23:	c7 45 e8 00 00 00 00 	movl   $0x0,-0x18(%ebp)
40003d2a:	eb 1b                	jmp    40003d47 <opendir+0x193>
40003d2c:	8b 45 e4             	mov    -0x1c(%ebp),%eax
40003d2f:	89 45 e8             	mov    %eax,-0x18(%ebp)
40003d32:	eb 13                	jmp    40003d47 <opendir+0x193>
40003d34:	a1 44 29 01 40       	mov    0x40012944,%eax
40003d39:	f7 d8                	neg    %eax
40003d3b:	89 45 e8             	mov    %eax,-0x18(%ebp)
40003d3e:	eb 07                	jmp    40003d47 <opendir+0x193>
40003d40:	c7 45 e8 d3 ff ff ff 	movl   $0xffffffd3,-0x18(%ebp)
40003d47:	8b 45 f0             	mov    -0x10(%ebp),%eax
40003d4a:	89 04 24             	mov    %eax,(%esp)
40003d4d:	e8 b5 43 00 00       	call   40008107 <free>
40003d52:	83 7d e8 00          	cmpl   $0x0,-0x18(%ebp)
40003d56:	79 0c                	jns    40003d64 <opendir+0x1b0>
40003d58:	8b 45 e8             	mov    -0x18(%ebp),%eax
40003d5b:	89 c2                	mov    %eax,%edx
40003d5d:	f7 da                	neg    %edx
40003d5f:	89 55 d8             	mov    %edx,-0x28(%ebp)
40003d62:	eb 07                	jmp    40003d6b <opendir+0x1b7>
40003d64:	c7 45 d8 00 00 00 00 	movl   $0x0,-0x28(%ebp)
40003d6b:	8b 45 d8             	mov    -0x28(%ebp),%eax
40003d6e:	a3 44 29 01 40       	mov    %eax,0x40012944
40003d73:	83 7d e8 00          	cmpl   $0x0,-0x18(%ebp)
40003d77:	78 08                	js     40003d81 <opendir+0x1cd>
40003d79:	8b 55 f8             	mov    -0x8(%ebp),%edx
40003d7c:	89 55 dc             	mov    %edx,-0x24(%ebp)
40003d7f:	eb 07                	jmp    40003d88 <opendir+0x1d4>
40003d81:	c7 45 dc 00 00 00 00 	movl   $0x0,-0x24(%ebp)
40003d88:	8b 45 dc             	mov    -0x24(%ebp),%eax
40003d8b:	c9                   	leave  
40003d8c:	c3                   	ret    

40003d8d <closedir>:
40003d8d:	55                   	push   %ebp
40003d8e:	89 e5                	mov    %esp,%ebp
40003d90:	83 ec 28             	sub    $0x28,%esp
40003d93:	83 7d 08 00          	cmpl   $0x0,0x8(%ebp)
40003d97:	0f 84 c9 00 00 00    	je     40003e66 <closedir+0xd9>
40003d9d:	8b 45 08             	mov    0x8(%ebp),%eax
40003da0:	8b 00                	mov    (%eax),%eax
40003da2:	8b 00                	mov    (%eax),%eax
40003da4:	89 44 24 08          	mov    %eax,0x8(%esp)
40003da8:	c7 44 24 04 73 f2 00 	movl   $0x4000f273,0x4(%esp)
40003daf:	40 
40003db0:	8d 45 f8             	lea    -0x8(%ebp),%eax
40003db3:	89 04 24             	mov    %eax,(%esp)
40003db6:	e8 69 9c 00 00       	call   4000da24 <asprintf>
40003dbb:	8b 45 08             	mov    0x8(%ebp),%eax
40003dbe:	8b 50 04             	mov    0x4(%eax),%edx
40003dc1:	8b 45 08             	mov    0x8(%ebp),%eax
40003dc4:	8b 00                	mov    (%eax),%eax
40003dc6:	8b 40 04             	mov    0x4(%eax),%eax
40003dc9:	8b 4d f8             	mov    -0x8(%ebp),%ecx
40003dcc:	89 54 24 0c          	mov    %edx,0xc(%esp)
40003dd0:	89 44 24 08          	mov    %eax,0x8(%esp)
40003dd4:	c7 44 24 04 00 00 00 	movl   $0x0,0x4(%esp)
40003ddb:	00 
40003ddc:	89 0c 24             	mov    %ecx,(%esp)
40003ddf:	e8 eb 94 00 00       	call   4000d2cf <rpc_call>
40003de4:	89 45 fc             	mov    %eax,-0x4(%ebp)
40003de7:	8b 45 f8             	mov    -0x8(%ebp),%eax
40003dea:	89 04 24             	mov    %eax,(%esp)
40003ded:	e8 15 43 00 00       	call   40008107 <free>
40003df2:	83 7d fc 00          	cmpl   $0x0,-0x4(%ebp)
40003df6:	75 75                	jne    40003e6d <closedir+0xe0>
40003df8:	8b 45 08             	mov    0x8(%ebp),%eax
40003dfb:	8b 40 20             	mov    0x20(%eax),%eax
40003dfe:	89 04 24             	mov    %eax,(%esp)
40003e01:	e8 cd 53 00 00       	call   400091d3 <shmdt>
40003e06:	8b 45 08             	mov    0x8(%ebp),%eax
40003e09:	8b 40 1c             	mov    0x1c(%eax),%eax
40003e0c:	c7 44 24 08 00 00 00 	movl   $0x0,0x8(%esp)
40003e13:	00 
40003e14:	c7 44 24 04 01 00 00 	movl   $0x1,0x4(%esp)
40003e1b:	00 
40003e1c:	89 04 24             	mov    %eax,(%esp)
40003e1f:	e8 1f 54 00 00       	call   40009243 <shmctl>
40003e24:	8b 45 08             	mov    0x8(%ebp),%eax
40003e27:	8b 40 18             	mov    0x18(%eax),%eax
40003e2a:	89 04 24             	mov    %eax,(%esp)
40003e2d:	e8 d5 42 00 00       	call   40008107 <free>
40003e32:	8b 45 08             	mov    0x8(%ebp),%eax
40003e35:	89 04 24             	mov    %eax,(%esp)
40003e38:	e8 ca 42 00 00       	call   40008107 <free>
40003e3d:	8b 15 48 12 01 40    	mov    0x40011248,%edx
40003e43:	8b 45 08             	mov    0x8(%ebp),%eax
40003e46:	89 44 24 04          	mov    %eax,0x4(%esp)
40003e4a:	89 14 24             	mov    %edx,(%esp)
40003e4d:	e8 1b 7f 00 00       	call   4000bd6d <llist_find>
40003e52:	8b 15 48 12 01 40    	mov    0x40011248,%edx
40003e58:	89 44 24 04          	mov    %eax,0x4(%esp)
40003e5c:	89 14 24             	mov    %edx,(%esp)
40003e5f:	e8 41 7e 00 00       	call   4000bca5 <llist_remove>
40003e64:	eb 07                	jmp    40003e6d <closedir+0xe0>
40003e66:	c7 45 fc f8 ff ff ff 	movl   $0xfffffff8,-0x4(%ebp)
40003e6d:	83 7d fc 00          	cmpl   $0x0,-0x4(%ebp)
40003e71:	79 0c                	jns    40003e7f <closedir+0xf2>
40003e73:	8b 45 fc             	mov    -0x4(%ebp),%eax
40003e76:	89 c2                	mov    %eax,%edx
40003e78:	f7 da                	neg    %edx
40003e7a:	89 55 ec             	mov    %edx,-0x14(%ebp)
40003e7d:	eb 07                	jmp    40003e86 <closedir+0xf9>
40003e7f:	c7 45 ec 00 00 00 00 	movl   $0x0,-0x14(%ebp)
40003e86:	8b 45 ec             	mov    -0x14(%ebp),%eax
40003e89:	a3 44 29 01 40       	mov    %eax,0x40012944
40003e8e:	8b 45 fc             	mov    -0x4(%ebp),%eax
40003e91:	c1 f8 1f             	sar    $0x1f,%eax
40003e94:	0b 45 fc             	or     -0x4(%ebp),%eax
40003e97:	c9                   	leave  
40003e98:	c3                   	ret    

40003e99 <readdir>:
40003e99:	55                   	push   %ebp
40003e9a:	89 e5                	mov    %esp,%ebp
40003e9c:	83 ec 28             	sub    $0x28,%esp
40003e9f:	83 7d 08 00          	cmpl   $0x0,0x8(%ebp)
40003ea3:	0f 84 8b 00 00 00    	je     40003f34 <readdir+0x9b>
40003ea9:	8b 45 08             	mov    0x8(%ebp),%eax
40003eac:	8b 00                	mov    (%eax),%eax
40003eae:	8b 00                	mov    (%eax),%eax
40003eb0:	89 44 24 08          	mov    %eax,0x8(%esp)
40003eb4:	c7 44 24 04 82 f2 00 	movl   $0x4000f282,0x4(%esp)
40003ebb:	40 
40003ebc:	8d 45 f8             	lea    -0x8(%ebp),%eax
40003ebf:	89 04 24             	mov    %eax,(%esp)
40003ec2:	e8 5d 9b 00 00       	call   4000da24 <asprintf>
40003ec7:	8b 45 08             	mov    0x8(%ebp),%eax
40003eca:	8b 50 04             	mov    0x4(%eax),%edx
40003ecd:	8b 45 08             	mov    0x8(%ebp),%eax
40003ed0:	8b 00                	mov    (%eax),%eax
40003ed2:	8b 40 04             	mov    0x4(%eax),%eax
40003ed5:	8b 4d f8             	mov    -0x8(%ebp),%ecx
40003ed8:	89 54 24 0c          	mov    %edx,0xc(%esp)
40003edc:	89 44 24 08          	mov    %eax,0x8(%esp)
40003ee0:	c7 44 24 04 00 00 00 	movl   $0x0,0x4(%esp)
40003ee7:	00 
40003ee8:	89 0c 24             	mov    %ecx,(%esp)
40003eeb:	e8 df 93 00 00       	call   4000d2cf <rpc_call>
40003ef0:	89 45 fc             	mov    %eax,-0x4(%ebp)
40003ef3:	8b 45 f8             	mov    -0x8(%ebp),%eax
40003ef6:	89 04 24             	mov    %eax,(%esp)
40003ef9:	e8 09 42 00 00       	call   40008107 <free>
40003efe:	83 7d fc 00          	cmpl   $0x0,-0x4(%ebp)
40003f02:	78 37                	js     40003f3b <readdir+0xa2>
40003f04:	8b 45 08             	mov    0x8(%ebp),%eax
40003f07:	8b 40 08             	mov    0x8(%eax),%eax
40003f0a:	85 c0                	test   %eax,%eax
40003f0c:	74 0e                	je     40003f1c <readdir+0x83>
40003f0e:	8b 45 08             	mov    0x8(%ebp),%eax
40003f11:	8b 40 08             	mov    0x8(%eax),%eax
40003f14:	89 04 24             	mov    %eax,(%esp)
40003f17:	e8 eb 41 00 00       	call   40008107 <free>
40003f1c:	8b 45 08             	mov    0x8(%ebp),%eax
40003f1f:	8b 40 20             	mov    0x20(%eax),%eax
40003f22:	89 04 24             	mov    %eax,(%esp)
40003f25:	e8 6b 74 00 00       	call   4000b395 <strdup>
40003f2a:	89 c2                	mov    %eax,%edx
40003f2c:	8b 45 08             	mov    0x8(%ebp),%eax
40003f2f:	89 50 08             	mov    %edx,0x8(%eax)
40003f32:	eb 07                	jmp    40003f3b <readdir+0xa2>
40003f34:	c7 45 fc f8 ff ff ff 	movl   $0xfffffff8,-0x4(%ebp)
40003f3b:	83 7d fc 00          	cmpl   $0x0,-0x4(%ebp)
40003f3f:	79 12                	jns    40003f53 <readdir+0xba>
40003f41:	83 7d fc d3          	cmpl   $0xffffffd3,-0x4(%ebp)
40003f45:	74 0c                	je     40003f53 <readdir+0xba>
40003f47:	8b 45 fc             	mov    -0x4(%ebp),%eax
40003f4a:	89 c2                	mov    %eax,%edx
40003f4c:	f7 da                	neg    %edx
40003f4e:	89 55 e8             	mov    %edx,-0x18(%ebp)
40003f51:	eb 07                	jmp    40003f5a <readdir+0xc1>
40003f53:	c7 45 e8 00 00 00 00 	movl   $0x0,-0x18(%ebp)
40003f5a:	8b 45 e8             	mov    -0x18(%ebp),%eax
40003f5d:	a3 44 29 01 40       	mov    %eax,0x40012944
40003f62:	83 7d fc 00          	cmpl   $0x0,-0x4(%ebp)
40003f66:	78 0b                	js     40003f73 <readdir+0xda>
40003f68:	8b 45 08             	mov    0x8(%ebp),%eax
40003f6b:	83 c0 08             	add    $0x8,%eax
40003f6e:	89 45 ec             	mov    %eax,-0x14(%ebp)
40003f71:	eb 07                	jmp    40003f7a <readdir+0xe1>
40003f73:	c7 45 ec 00 00 00 00 	movl   $0x0,-0x14(%ebp)
40003f7a:	8b 45 ec             	mov    -0x14(%ebp),%eax
40003f7d:	c9                   	leave  
40003f7e:	c3                   	ret    

40003f7f <seekdir>:
40003f7f:	55                   	push   %ebp
40003f80:	89 e5                	mov    %esp,%ebp
40003f82:	53                   	push   %ebx
40003f83:	83 ec 34             	sub    $0x34,%esp
40003f86:	83 7d 08 00          	cmpl   $0x0,0x8(%ebp)
40003f8a:	74 5e                	je     40003fea <seekdir+0x6b>
40003f8c:	8b 45 08             	mov    0x8(%ebp),%eax
40003f8f:	8b 00                	mov    (%eax),%eax
40003f91:	8b 00                	mov    (%eax),%eax
40003f93:	89 44 24 08          	mov    %eax,0x8(%esp)
40003f97:	c7 44 24 04 90 f2 00 	movl   $0x4000f290,0x4(%esp)
40003f9e:	40 
40003f9f:	8d 45 f4             	lea    -0xc(%ebp),%eax
40003fa2:	89 04 24             	mov    %eax,(%esp)
40003fa5:	e8 7a 9a 00 00       	call   4000da24 <asprintf>
40003faa:	8b 45 08             	mov    0x8(%ebp),%eax
40003fad:	8b 48 04             	mov    0x4(%eax),%ecx
40003fb0:	8b 45 08             	mov    0x8(%ebp),%eax
40003fb3:	8b 00                	mov    (%eax),%eax
40003fb5:	8b 50 04             	mov    0x4(%eax),%edx
40003fb8:	8b 5d f4             	mov    -0xc(%ebp),%ebx
40003fbb:	8b 45 0c             	mov    0xc(%ebp),%eax
40003fbe:	89 44 24 10          	mov    %eax,0x10(%esp)
40003fc2:	89 4c 24 0c          	mov    %ecx,0xc(%esp)
40003fc6:	89 54 24 08          	mov    %edx,0x8(%esp)
40003fca:	c7 44 24 04 00 00 00 	movl   $0x0,0x4(%esp)
40003fd1:	00 
40003fd2:	89 1c 24             	mov    %ebx,(%esp)
40003fd5:	e8 f5 92 00 00       	call   4000d2cf <rpc_call>
40003fda:	89 45 f8             	mov    %eax,-0x8(%ebp)
40003fdd:	8b 45 f4             	mov    -0xc(%ebp),%eax
40003fe0:	89 04 24             	mov    %eax,(%esp)
40003fe3:	e8 1f 41 00 00       	call   40008107 <free>
40003fe8:	eb 07                	jmp    40003ff1 <seekdir+0x72>
40003fea:	c7 45 f8 f8 ff ff ff 	movl   $0xfffffff8,-0x8(%ebp)
40003ff1:	83 7d f8 00          	cmpl   $0x0,-0x8(%ebp)
40003ff5:	79 0c                	jns    40004003 <seekdir+0x84>
40003ff7:	8b 45 f8             	mov    -0x8(%ebp),%eax
40003ffa:	89 c2                	mov    %eax,%edx
40003ffc:	f7 da                	neg    %edx
40003ffe:	89 55 e8             	mov    %edx,-0x18(%ebp)
40004001:	eb 07                	jmp    4000400a <seekdir+0x8b>
40004003:	c7 45 e8 00 00 00 00 	movl   $0x0,-0x18(%ebp)
4000400a:	8b 45 e8             	mov    -0x18(%ebp),%eax
4000400d:	a3 44 29 01 40       	mov    %eax,0x40012944
40004012:	83 c4 34             	add    $0x34,%esp
40004015:	5b                   	pop    %ebx
40004016:	5d                   	pop    %ebp
40004017:	c3                   	ret    

40004018 <telldir>:
40004018:	55                   	push   %ebp
40004019:	89 e5                	mov    %esp,%ebp
4000401b:	83 ec 28             	sub    $0x28,%esp
4000401e:	83 7d 08 00          	cmpl   $0x0,0x8(%ebp)
40004022:	74 5f                	je     40004083 <telldir+0x6b>
40004024:	8b 45 08             	mov    0x8(%ebp),%eax
40004027:	8b 00                	mov    (%eax),%eax
40004029:	8b 00                	mov    (%eax),%eax
4000402b:	89 44 24 08          	mov    %eax,0x8(%esp)
4000402f:	c7 44 24 04 90 f2 00 	movl   $0x4000f290,0x4(%esp)
40004036:	40 
40004037:	8d 45 f8             	lea    -0x8(%ebp),%eax
4000403a:	89 04 24             	mov    %eax,(%esp)
4000403d:	e8 e2 99 00 00       	call   4000da24 <asprintf>
40004042:	8b 45 08             	mov    0x8(%ebp),%eax
40004045:	8b 48 04             	mov    0x4(%eax),%ecx
40004048:	8b 45 08             	mov    0x8(%ebp),%eax
4000404b:	8b 00                	mov    (%eax),%eax
4000404d:	8b 40 04             	mov    0x4(%eax),%eax
40004050:	8b 55 f8             	mov    -0x8(%ebp),%edx
40004053:	c7 44 24 10 ff ff ff 	movl   $0xffffffff,0x10(%esp)
4000405a:	ff 
4000405b:	89 4c 24 0c          	mov    %ecx,0xc(%esp)
4000405f:	89 44 24 08          	mov    %eax,0x8(%esp)
40004063:	c7 44 24 04 00 00 00 	movl   $0x0,0x4(%esp)
4000406a:	00 
4000406b:	89 14 24             	mov    %edx,(%esp)
4000406e:	e8 5c 92 00 00       	call   4000d2cf <rpc_call>
40004073:	89 45 fc             	mov    %eax,-0x4(%ebp)
40004076:	8b 45 f8             	mov    -0x8(%ebp),%eax
40004079:	89 04 24             	mov    %eax,(%esp)
4000407c:	e8 86 40 00 00       	call   40008107 <free>
40004081:	eb 07                	jmp    4000408a <telldir+0x72>
40004083:	c7 45 fc f8 ff ff ff 	movl   $0xfffffff8,-0x4(%ebp)
4000408a:	83 7d fc 00          	cmpl   $0x0,-0x4(%ebp)
4000408e:	79 0c                	jns    4000409c <telldir+0x84>
40004090:	8b 45 fc             	mov    -0x4(%ebp),%eax
40004093:	89 c2                	mov    %eax,%edx
40004095:	f7 da                	neg    %edx
40004097:	89 55 ec             	mov    %edx,-0x14(%ebp)
4000409a:	eb 07                	jmp    400040a3 <telldir+0x8b>
4000409c:	c7 45 ec 00 00 00 00 	movl   $0x0,-0x14(%ebp)
400040a3:	8b 45 ec             	mov    -0x14(%ebp),%eax
400040a6:	a3 44 29 01 40       	mov    %eax,0x40012944
400040ab:	8b 45 fc             	mov    -0x4(%ebp),%eax
400040ae:	c1 f8 1f             	sar    $0x1f,%eax
400040b1:	0b 45 fc             	or     -0x4(%ebp),%eax
400040b4:	c9                   	leave  
400040b5:	c3                   	ret    

400040b6 <stat>:
400040b6:	55                   	push   %ebp
400040b7:	89 e5                	mov    %esp,%ebp
400040b9:	83 ec 18             	sub    $0x18,%esp
400040bc:	c7 45 f8 ff ff ff ff 	movl   $0xffffffff,-0x8(%ebp)
400040c3:	c7 44 24 04 01 00 00 	movl   $0x1,0x4(%esp)
400040ca:	00 
400040cb:	8b 45 08             	mov    0x8(%ebp),%eax
400040ce:	89 04 24             	mov    %eax,(%esp)
400040d1:	e8 4c ee ff ff       	call   40002f22 <open>
400040d6:	89 45 f4             	mov    %eax,-0xc(%ebp)
400040d9:	83 7d f4 ff          	cmpl   $0xffffffff,-0xc(%ebp)
400040dd:	74 22                	je     40004101 <stat+0x4b>
400040df:	8b 45 0c             	mov    0xc(%ebp),%eax
400040e2:	89 44 24 04          	mov    %eax,0x4(%esp)
400040e6:	8b 45 f4             	mov    -0xc(%ebp),%eax
400040e9:	89 04 24             	mov    %eax,(%esp)
400040ec:	e8 4c 00 00 00       	call   4000413d <fstat>
400040f1:	89 45 f8             	mov    %eax,-0x8(%ebp)
400040f4:	8b 45 f4             	mov    -0xc(%ebp),%eax
400040f7:	89 04 24             	mov    %eax,(%esp)
400040fa:	e8 ca f0 ff ff       	call   400031c9 <close>
400040ff:	eb 37                	jmp    40004138 <stat+0x82>
40004101:	8b 45 08             	mov    0x8(%ebp),%eax
40004104:	89 04 24             	mov    %eax,(%esp)
40004107:	e8 a8 fa ff ff       	call   40003bb4 <opendir>
4000410c:	89 45 fc             	mov    %eax,-0x4(%ebp)
4000410f:	83 7d fc 00          	cmpl   $0x0,-0x4(%ebp)
40004113:	74 23                	je     40004138 <stat+0x82>
40004115:	8b 45 fc             	mov    -0x4(%ebp),%eax
40004118:	8b 50 14             	mov    0x14(%eax),%edx
4000411b:	8b 45 0c             	mov    0xc(%ebp),%eax
4000411e:	89 44 24 04          	mov    %eax,0x4(%esp)
40004122:	89 14 24             	mov    %edx,(%esp)
40004125:	e8 13 00 00 00       	call   4000413d <fstat>
4000412a:	89 45 f8             	mov    %eax,-0x8(%ebp)
4000412d:	8b 45 fc             	mov    -0x4(%ebp),%eax
40004130:	89 04 24             	mov    %eax,(%esp)
40004133:	e8 55 fc ff ff       	call   40003d8d <closedir>
40004138:	8b 45 f8             	mov    -0x8(%ebp),%eax
4000413b:	c9                   	leave  
4000413c:	c3                   	ret    

4000413d <fstat>:
4000413d:	55                   	push   %ebp
4000413e:	89 e5                	mov    %esp,%ebp
40004140:	83 ec 28             	sub    $0x28,%esp
40004143:	8b 45 08             	mov    0x8(%ebp),%eax
40004146:	89 04 24             	mov    %eax,(%esp)
40004149:	e8 2c e3 ff ff       	call   4000247a <lidxbyfh>
4000414e:	8b 15 48 12 01 40    	mov    0x40011248,%edx
40004154:	89 44 24 04          	mov    %eax,0x4(%esp)
40004158:	89 14 24             	mov    %edx,(%esp)
4000415b:	e8 73 7a 00 00       	call   4000bbd3 <llist_get>
40004160:	89 45 fc             	mov    %eax,-0x4(%ebp)
40004163:	83 7d fc 00          	cmpl   $0x0,-0x4(%ebp)
40004167:	0f 84 8f 00 00 00    	je     400041fc <fstat+0xbf>
4000416d:	8b 45 fc             	mov    -0x4(%ebp),%eax
40004170:	8b 00                	mov    (%eax),%eax
40004172:	8b 00                	mov    (%eax),%eax
40004174:	89 44 24 08          	mov    %eax,0x8(%esp)
40004178:	c7 44 24 04 9e f2 00 	movl   $0x4000f29e,0x4(%esp)
4000417f:	40 
40004180:	8d 45 f4             	lea    -0xc(%ebp),%eax
40004183:	89 04 24             	mov    %eax,(%esp)
40004186:	e8 99 98 00 00       	call   4000da24 <asprintf>
4000418b:	c7 44 24 08 34 00 00 	movl   $0x34,0x8(%esp)
40004192:	00 
40004193:	c7 44 24 04 00 00 00 	movl   $0x0,0x4(%esp)
4000419a:	00 
4000419b:	8b 45 0c             	mov    0xc(%ebp),%eax
4000419e:	89 04 24             	mov    %eax,(%esp)
400041a1:	e8 5f 70 00 00       	call   4000b205 <memset>
400041a6:	8b 45 fc             	mov    -0x4(%ebp),%eax
400041a9:	8b 50 04             	mov    0x4(%eax),%edx
400041ac:	8b 45 fc             	mov    -0x4(%ebp),%eax
400041af:	8b 00                	mov    (%eax),%eax
400041b1:	8b 40 04             	mov    0x4(%eax),%eax
400041b4:	8b 4d f4             	mov    -0xc(%ebp),%ecx
400041b7:	89 54 24 0c          	mov    %edx,0xc(%esp)
400041bb:	89 44 24 08          	mov    %eax,0x8(%esp)
400041bf:	c7 44 24 04 00 00 00 	movl   $0x0,0x4(%esp)
400041c6:	00 
400041c7:	89 0c 24             	mov    %ecx,(%esp)
400041ca:	e8 00 91 00 00       	call   4000d2cf <rpc_call>
400041cf:	89 45 f8             	mov    %eax,-0x8(%ebp)
400041d2:	8b 45 fc             	mov    -0x4(%ebp),%eax
400041d5:	8b 40 20             	mov    0x20(%eax),%eax
400041d8:	c7 44 24 08 34 00 00 	movl   $0x34,0x8(%esp)
400041df:	00 
400041e0:	89 44 24 04          	mov    %eax,0x4(%esp)
400041e4:	8b 45 0c             	mov    0xc(%ebp),%eax
400041e7:	89 04 24             	mov    %eax,(%esp)
400041ea:	e8 39 6e 00 00       	call   4000b028 <memcpy>
400041ef:	8b 45 f4             	mov    -0xc(%ebp),%eax
400041f2:	89 04 24             	mov    %eax,(%esp)
400041f5:	e8 0d 3f 00 00       	call   40008107 <free>
400041fa:	eb 07                	jmp    40004203 <fstat+0xc6>
400041fc:	c7 45 f8 f8 ff ff ff 	movl   $0xfffffff8,-0x8(%ebp)
40004203:	83 7d f8 00          	cmpl   $0x0,-0x8(%ebp)
40004207:	79 0c                	jns    40004215 <fstat+0xd8>
40004209:	8b 45 f8             	mov    -0x8(%ebp),%eax
4000420c:	89 c2                	mov    %eax,%edx
4000420e:	f7 da                	neg    %edx
40004210:	89 55 ec             	mov    %edx,-0x14(%ebp)
40004213:	eb 07                	jmp    4000421c <fstat+0xdf>
40004215:	c7 45 ec 00 00 00 00 	movl   $0x0,-0x14(%ebp)
4000421c:	8b 45 ec             	mov    -0x14(%ebp),%eax
4000421f:	a3 44 29 01 40       	mov    %eax,0x40012944
40004224:	8b 45 f8             	mov    -0x8(%ebp),%eax
40004227:	c1 f8 1f             	sar    $0x1f,%eax
4000422a:	0b 45 f8             	or     -0x8(%ebp),%eax
4000422d:	c9                   	leave  
4000422e:	c3                   	ret    

4000422f <statvfs>:
4000422f:	55                   	push   %ebp
40004230:	89 e5                	mov    %esp,%ebp
40004232:	83 ec 38             	sub    $0x38,%esp
40004235:	c7 45 ec 00 00 00 00 	movl   $0x0,-0x14(%ebp)
4000423c:	8b 45 08             	mov    0x8(%ebp),%eax
4000423f:	89 04 24             	mov    %eax,(%esp)
40004242:	e8 83 e2 ff ff       	call   400024ca <getabsolutepath>
40004247:	89 45 f4             	mov    %eax,-0xc(%ebp)
4000424a:	c7 44 24 04 00 00 00 	movl   $0x0,0x4(%esp)
40004251:	00 
40004252:	8b 45 f4             	mov    -0xc(%ebp),%eax
40004255:	89 04 24             	mov    %eax,(%esp)
40004258:	e8 bb e0 ff ff       	call   40002318 <fsbypath>
4000425d:	89 45 f8             	mov    %eax,-0x8(%ebp)
40004260:	83 7d f8 00          	cmpl   $0x0,-0x8(%ebp)
40004264:	0f 84 18 01 00 00    	je     40004382 <statvfs+0x153>
4000426a:	c7 44 24 08 00 00 00 	movl   $0x0,0x8(%esp)
40004271:	00 
40004272:	c7 44 24 04 00 20 00 	movl   $0x2000,0x4(%esp)
40004279:	00 
4000427a:	c7 04 24 00 00 00 00 	movl   $0x0,(%esp)
40004281:	e8 0e 4e 00 00       	call   40009094 <shmget>
40004286:	89 45 fc             	mov    %eax,-0x4(%ebp)
40004289:	c7 44 24 08 00 00 00 	movl   $0x0,0x8(%esp)
40004290:	00 
40004291:	c7 44 24 04 00 00 00 	movl   $0x0,0x4(%esp)
40004298:	00 
40004299:	8b 45 fc             	mov    -0x4(%ebp),%eax
4000429c:	89 04 24             	mov    %eax,(%esp)
4000429f:	e8 ac 4e 00 00       	call   40009150 <shmat>
400042a4:	89 45 f0             	mov    %eax,-0x10(%ebp)
400042a7:	83 7d f0 00          	cmpl   $0x0,-0x10(%ebp)
400042ab:	0f 84 c5 00 00 00    	je     40004376 <statvfs+0x147>
400042b1:	8b 45 f8             	mov    -0x8(%ebp),%eax
400042b4:	8b 00                	mov    (%eax),%eax
400042b6:	89 44 24 08          	mov    %eax,0x8(%esp)
400042ba:	c7 44 24 04 aa f2 00 	movl   $0x4000f2aa,0x4(%esp)
400042c1:	40 
400042c2:	8d 45 e8             	lea    -0x18(%ebp),%eax
400042c5:	89 04 24             	mov    %eax,(%esp)
400042c8:	e8 57 97 00 00       	call   4000da24 <asprintf>
400042cd:	c7 44 24 08 2c 00 00 	movl   $0x2c,0x8(%esp)
400042d4:	00 
400042d5:	c7 44 24 04 00 00 00 	movl   $0x0,0x4(%esp)
400042dc:	00 
400042dd:	8b 45 0c             	mov    0xc(%ebp),%eax
400042e0:	89 04 24             	mov    %eax,(%esp)
400042e3:	e8 1d 6f 00 00       	call   4000b205 <memset>
400042e8:	8b 55 f0             	mov    -0x10(%ebp),%edx
400042eb:	c7 44 24 08 00 20 00 	movl   $0x2000,0x8(%esp)
400042f2:	00 
400042f3:	8b 45 f4             	mov    -0xc(%ebp),%eax
400042f6:	89 44 24 04          	mov    %eax,0x4(%esp)
400042fa:	89 14 24             	mov    %edx,(%esp)
400042fd:	e8 1e 72 00 00       	call   4000b520 <strncpy>
40004302:	8b 45 f8             	mov    -0x8(%ebp),%eax
40004305:	8b 50 04             	mov    0x4(%eax),%edx
40004308:	8b 4d e8             	mov    -0x18(%ebp),%ecx
4000430b:	8b 45 fc             	mov    -0x4(%ebp),%eax
4000430e:	89 44 24 0c          	mov    %eax,0xc(%esp)
40004312:	89 54 24 08          	mov    %edx,0x8(%esp)
40004316:	c7 44 24 04 00 00 00 	movl   $0x0,0x4(%esp)
4000431d:	00 
4000431e:	89 0c 24             	mov    %ecx,(%esp)
40004321:	e8 a9 8f 00 00       	call   4000d2cf <rpc_call>
40004326:	89 45 ec             	mov    %eax,-0x14(%ebp)
40004329:	c7 44 24 08 2c 00 00 	movl   $0x2c,0x8(%esp)
40004330:	00 
40004331:	8b 45 f0             	mov    -0x10(%ebp),%eax
40004334:	89 44 24 04          	mov    %eax,0x4(%esp)
40004338:	8b 45 0c             	mov    0xc(%ebp),%eax
4000433b:	89 04 24             	mov    %eax,(%esp)
4000433e:	e8 e5 6c 00 00       	call   4000b028 <memcpy>
40004343:	8b 45 e8             	mov    -0x18(%ebp),%eax
40004346:	89 04 24             	mov    %eax,(%esp)
40004349:	e8 b9 3d 00 00       	call   40008107 <free>
4000434e:	8b 45 f0             	mov    -0x10(%ebp),%eax
40004351:	89 04 24             	mov    %eax,(%esp)
40004354:	e8 7a 4e 00 00       	call   400091d3 <shmdt>
40004359:	c7 44 24 08 00 00 00 	movl   $0x0,0x8(%esp)
40004360:	00 
40004361:	c7 44 24 04 01 00 00 	movl   $0x1,0x4(%esp)
40004368:	00 
40004369:	8b 45 fc             	mov    -0x4(%ebp),%eax
4000436c:	89 04 24             	mov    %eax,(%esp)
4000436f:	e8 cf 4e 00 00       	call   40009243 <shmctl>
40004374:	eb 13                	jmp    40004389 <statvfs+0x15a>
40004376:	a1 44 29 01 40       	mov    0x40012944,%eax
4000437b:	f7 d8                	neg    %eax
4000437d:	89 45 ec             	mov    %eax,-0x14(%ebp)
40004380:	eb 07                	jmp    40004389 <statvfs+0x15a>
40004382:	c7 45 ec f8 ff ff ff 	movl   $0xfffffff8,-0x14(%ebp)
40004389:	8b 45 f4             	mov    -0xc(%ebp),%eax
4000438c:	89 04 24             	mov    %eax,(%esp)
4000438f:	e8 73 3d 00 00       	call   40008107 <free>
40004394:	83 7d ec 00          	cmpl   $0x0,-0x14(%ebp)
40004398:	79 0c                	jns    400043a6 <statvfs+0x177>
4000439a:	8b 45 ec             	mov    -0x14(%ebp),%eax
4000439d:	89 c2                	mov    %eax,%edx
4000439f:	f7 da                	neg    %edx
400043a1:	89 55 dc             	mov    %edx,-0x24(%ebp)
400043a4:	eb 07                	jmp    400043ad <statvfs+0x17e>
400043a6:	c7 45 dc 00 00 00 00 	movl   $0x0,-0x24(%ebp)
400043ad:	8b 45 dc             	mov    -0x24(%ebp),%eax
400043b0:	a3 44 29 01 40       	mov    %eax,0x40012944
400043b5:	8b 45 ec             	mov    -0x14(%ebp),%eax
400043b8:	c1 f8 1f             	sar    $0x1f,%eax
400043bb:	0b 45 ec             	or     -0x14(%ebp),%eax
400043be:	c9                   	leave  
400043bf:	c3                   	ret    

400043c0 <readlink>:
400043c0:	55                   	push   %ebp
400043c1:	89 e5                	mov    %esp,%ebp
400043c3:	83 ec 38             	sub    $0x38,%esp
400043c6:	c7 45 ec 00 00 00 00 	movl   $0x0,-0x14(%ebp)
400043cd:	8b 45 08             	mov    0x8(%ebp),%eax
400043d0:	89 04 24             	mov    %eax,(%esp)
400043d3:	e8 f2 e0 ff ff       	call   400024ca <getabsolutepath>
400043d8:	89 45 f4             	mov    %eax,-0xc(%ebp)
400043db:	c7 44 24 04 00 00 00 	movl   $0x0,0x4(%esp)
400043e2:	00 
400043e3:	8b 45 f4             	mov    -0xc(%ebp),%eax
400043e6:	89 04 24             	mov    %eax,(%esp)
400043e9:	e8 2a df ff ff       	call   40002318 <fsbypath>
400043ee:	89 45 f8             	mov    %eax,-0x8(%ebp)
400043f1:	83 7d f8 00          	cmpl   $0x0,-0x8(%ebp)
400043f5:	0f 84 03 01 00 00    	je     400044fe <readlink+0x13e>
400043fb:	c7 44 24 08 00 00 00 	movl   $0x0,0x8(%esp)
40004402:	00 
40004403:	c7 44 24 04 00 20 00 	movl   $0x2000,0x4(%esp)
4000440a:	00 
4000440b:	c7 04 24 00 00 00 00 	movl   $0x0,(%esp)
40004412:	e8 7d 4c 00 00       	call   40009094 <shmget>
40004417:	89 45 fc             	mov    %eax,-0x4(%ebp)
4000441a:	c7 44 24 08 00 00 00 	movl   $0x0,0x8(%esp)
40004421:	00 
40004422:	c7 44 24 04 00 00 00 	movl   $0x0,0x4(%esp)
40004429:	00 
4000442a:	8b 45 fc             	mov    -0x4(%ebp),%eax
4000442d:	89 04 24             	mov    %eax,(%esp)
40004430:	e8 1b 4d 00 00       	call   40009150 <shmat>
40004435:	89 45 f0             	mov    %eax,-0x10(%ebp)
40004438:	83 7d f0 00          	cmpl   $0x0,-0x10(%ebp)
4000443c:	0f 84 b0 00 00 00    	je     400044f2 <readlink+0x132>
40004442:	8b 45 f8             	mov    -0x8(%ebp),%eax
40004445:	8b 00                	mov    (%eax),%eax
40004447:	89 44 24 08          	mov    %eax,0x8(%esp)
4000444b:	c7 44 24 04 b8 f2 00 	movl   $0x4000f2b8,0x4(%esp)
40004452:	40 
40004453:	8d 45 e8             	lea    -0x18(%ebp),%eax
40004456:	89 04 24             	mov    %eax,(%esp)
40004459:	e8 c6 95 00 00       	call   4000da24 <asprintf>
4000445e:	8b 55 f0             	mov    -0x10(%ebp),%edx
40004461:	c7 44 24 08 00 20 00 	movl   $0x2000,0x8(%esp)
40004468:	00 
40004469:	8b 45 f4             	mov    -0xc(%ebp),%eax
4000446c:	89 44 24 04          	mov    %eax,0x4(%esp)
40004470:	89 14 24             	mov    %edx,(%esp)
40004473:	e8 a8 70 00 00       	call   4000b520 <strncpy>
40004478:	8b 45 f8             	mov    -0x8(%ebp),%eax
4000447b:	8b 50 04             	mov    0x4(%eax),%edx
4000447e:	8b 4d e8             	mov    -0x18(%ebp),%ecx
40004481:	8b 45 10             	mov    0x10(%ebp),%eax
40004484:	89 44 24 10          	mov    %eax,0x10(%esp)
40004488:	8b 45 fc             	mov    -0x4(%ebp),%eax
4000448b:	89 44 24 0c          	mov    %eax,0xc(%esp)
4000448f:	89 54 24 08          	mov    %edx,0x8(%esp)
40004493:	c7 44 24 04 00 00 00 	movl   $0x0,0x4(%esp)
4000449a:	00 
4000449b:	89 0c 24             	mov    %ecx,(%esp)
4000449e:	e8 2c 8e 00 00       	call   4000d2cf <rpc_call>
400044a3:	89 45 ec             	mov    %eax,-0x14(%ebp)
400044a6:	8b 55 f0             	mov    -0x10(%ebp),%edx
400044a9:	8b 45 10             	mov    0x10(%ebp),%eax
400044ac:	89 44 24 08          	mov    %eax,0x8(%esp)
400044b0:	89 54 24 04          	mov    %edx,0x4(%esp)
400044b4:	8b 45 0c             	mov    0xc(%ebp),%eax
400044b7:	89 04 24             	mov    %eax,(%esp)
400044ba:	e8 61 70 00 00       	call   4000b520 <strncpy>
400044bf:	8b 45 e8             	mov    -0x18(%ebp),%eax
400044c2:	89 04 24             	mov    %eax,(%esp)
400044c5:	e8 3d 3c 00 00       	call   40008107 <free>
400044ca:	8b 45 f0             	mov    -0x10(%ebp),%eax
400044cd:	89 04 24             	mov    %eax,(%esp)
400044d0:	e8 fe 4c 00 00       	call   400091d3 <shmdt>
400044d5:	c7 44 24 08 00 00 00 	movl   $0x0,0x8(%esp)
400044dc:	00 
400044dd:	c7 44 24 04 01 00 00 	movl   $0x1,0x4(%esp)
400044e4:	00 
400044e5:	8b 45 fc             	mov    -0x4(%ebp),%eax
400044e8:	89 04 24             	mov    %eax,(%esp)
400044eb:	e8 53 4d 00 00       	call   40009243 <shmctl>
400044f0:	eb 13                	jmp    40004505 <readlink+0x145>
400044f2:	a1 44 29 01 40       	mov    0x40012944,%eax
400044f7:	f7 d8                	neg    %eax
400044f9:	89 45 ec             	mov    %eax,-0x14(%ebp)
400044fc:	eb 07                	jmp    40004505 <readlink+0x145>
400044fe:	c7 45 ec f8 ff ff ff 	movl   $0xfffffff8,-0x14(%ebp)
40004505:	8b 45 f4             	mov    -0xc(%ebp),%eax
40004508:	89 04 24             	mov    %eax,(%esp)
4000450b:	e8 f7 3b 00 00       	call   40008107 <free>
40004510:	83 7d ec 00          	cmpl   $0x0,-0x14(%ebp)
40004514:	79 0c                	jns    40004522 <readlink+0x162>
40004516:	8b 45 ec             	mov    -0x14(%ebp),%eax
40004519:	89 c2                	mov    %eax,%edx
4000451b:	f7 da                	neg    %edx
4000451d:	89 55 dc             	mov    %edx,-0x24(%ebp)
40004520:	eb 07                	jmp    40004529 <readlink+0x169>
40004522:	c7 45 dc 00 00 00 00 	movl   $0x0,-0x24(%ebp)
40004529:	8b 45 dc             	mov    -0x24(%ebp),%eax
4000452c:	a3 44 29 01 40       	mov    %eax,0x40012944
40004531:	8b 45 ec             	mov    -0x14(%ebp),%eax
40004534:	c1 f8 1f             	sar    $0x1f,%eax
40004537:	0b 45 ec             	or     -0x14(%ebp),%eax
4000453a:	c9                   	leave  
4000453b:	c3                   	ret    

4000453c <symlink>:
4000453c:	55                   	push   %ebp
4000453d:	89 e5                	mov    %esp,%ebp
4000453f:	83 ec 38             	sub    $0x38,%esp
40004542:	8b 45 0c             	mov    0xc(%ebp),%eax
40004545:	89 04 24             	mov    %eax,(%esp)
40004548:	e8 7d df ff ff       	call   400024ca <getabsolutepath>
4000454d:	89 45 f4             	mov    %eax,-0xc(%ebp)
40004550:	8b 45 08             	mov    0x8(%ebp),%eax
40004553:	89 04 24             	mov    %eax,(%esp)
40004556:	e8 6f df ff ff       	call   400024ca <getabsolutepath>
4000455b:	89 45 f8             	mov    %eax,-0x8(%ebp)
4000455e:	c7 44 24 04 01 00 00 	movl   $0x1,0x4(%esp)
40004565:	00 
40004566:	8b 45 f4             	mov    -0xc(%ebp),%eax
40004569:	89 04 24             	mov    %eax,(%esp)
4000456c:	e8 a7 dd ff ff       	call   40002318 <fsbypath>
40004571:	89 45 fc             	mov    %eax,-0x4(%ebp)
40004574:	83 7d fc 00          	cmpl   $0x0,-0x4(%ebp)
40004578:	74 57                	je     400045d1 <symlink+0x95>
4000457a:	8b 45 fc             	mov    -0x4(%ebp),%eax
4000457d:	8b 00                	mov    (%eax),%eax
4000457f:	89 44 24 08          	mov    %eax,0x8(%esp)
40004583:	c7 44 24 04 c7 f2 00 	movl   $0x4000f2c7,0x4(%esp)
4000458a:	40 
4000458b:	8d 45 ec             	lea    -0x14(%ebp),%eax
4000458e:	89 04 24             	mov    %eax,(%esp)
40004591:	e8 8e 94 00 00       	call   4000da24 <asprintf>
40004596:	8b 45 fc             	mov    -0x4(%ebp),%eax
40004599:	8b 50 04             	mov    0x4(%eax),%edx
4000459c:	8b 4d ec             	mov    -0x14(%ebp),%ecx
4000459f:	8b 45 f8             	mov    -0x8(%ebp),%eax
400045a2:	89 44 24 10          	mov    %eax,0x10(%esp)
400045a6:	8b 45 f4             	mov    -0xc(%ebp),%eax
400045a9:	89 44 24 0c          	mov    %eax,0xc(%esp)
400045ad:	89 54 24 08          	mov    %edx,0x8(%esp)
400045b1:	c7 44 24 04 00 00 00 	movl   $0x0,0x4(%esp)
400045b8:	00 
400045b9:	89 0c 24             	mov    %ecx,(%esp)
400045bc:	e8 0e 8d 00 00       	call   4000d2cf <rpc_call>
400045c1:	89 45 f0             	mov    %eax,-0x10(%ebp)
400045c4:	8b 45 ec             	mov    -0x14(%ebp),%eax
400045c7:	89 04 24             	mov    %eax,(%esp)
400045ca:	e8 38 3b 00 00       	call   40008107 <free>
400045cf:	eb 07                	jmp    400045d8 <symlink+0x9c>
400045d1:	c7 45 f0 e4 ff ff ff 	movl   $0xffffffe4,-0x10(%ebp)
400045d8:	83 7d f0 00          	cmpl   $0x0,-0x10(%ebp)
400045dc:	79 0c                	jns    400045ea <symlink+0xae>
400045de:	8b 45 f0             	mov    -0x10(%ebp),%eax
400045e1:	89 c2                	mov    %eax,%edx
400045e3:	f7 da                	neg    %edx
400045e5:	89 55 dc             	mov    %edx,-0x24(%ebp)
400045e8:	eb 07                	jmp    400045f1 <symlink+0xb5>
400045ea:	c7 45 dc 00 00 00 00 	movl   $0x0,-0x24(%ebp)
400045f1:	8b 45 dc             	mov    -0x24(%ebp),%eax
400045f4:	a3 44 29 01 40       	mov    %eax,0x40012944
400045f9:	8b 45 f0             	mov    -0x10(%ebp),%eax
400045fc:	c1 f8 1f             	sar    $0x1f,%eax
400045ff:	0b 45 f0             	or     -0x10(%ebp),%eax
40004602:	c9                   	leave  
40004603:	c3                   	ret    

40004604 <link>:
40004604:	55                   	push   %ebp
40004605:	89 e5                	mov    %esp,%ebp
40004607:	83 ec 38             	sub    $0x38,%esp
4000460a:	8b 45 08             	mov    0x8(%ebp),%eax
4000460d:	89 04 24             	mov    %eax,(%esp)
40004610:	e8 b5 de ff ff       	call   400024ca <getabsolutepath>
40004615:	89 45 f0             	mov    %eax,-0x10(%ebp)
40004618:	8b 45 0c             	mov    0xc(%ebp),%eax
4000461b:	89 04 24             	mov    %eax,(%esp)
4000461e:	e8 a7 de ff ff       	call   400024ca <getabsolutepath>
40004623:	89 45 f4             	mov    %eax,-0xc(%ebp)
40004626:	c7 44 24 04 01 00 00 	movl   $0x1,0x4(%esp)
4000462d:	00 
4000462e:	8b 45 f0             	mov    -0x10(%ebp),%eax
40004631:	89 04 24             	mov    %eax,(%esp)
40004634:	e8 df dc ff ff       	call   40002318 <fsbypath>
40004639:	89 45 f8             	mov    %eax,-0x8(%ebp)
4000463c:	c7 44 24 04 00 00 00 	movl   $0x0,0x4(%esp)
40004643:	00 
40004644:	8b 45 f4             	mov    -0xc(%ebp),%eax
40004647:	89 04 24             	mov    %eax,(%esp)
4000464a:	e8 c9 dc ff ff       	call   40002318 <fsbypath>
4000464f:	89 45 fc             	mov    %eax,-0x4(%ebp)
40004652:	83 7d f8 00          	cmpl   $0x0,-0x8(%ebp)
40004656:	74 5f                	je     400046b7 <link+0xb3>
40004658:	8b 45 f8             	mov    -0x8(%ebp),%eax
4000465b:	3b 45 fc             	cmp    -0x4(%ebp),%eax
4000465e:	75 57                	jne    400046b7 <link+0xb3>
40004660:	8b 45 f8             	mov    -0x8(%ebp),%eax
40004663:	8b 00                	mov    (%eax),%eax
40004665:	89 44 24 08          	mov    %eax,0x8(%esp)
40004669:	c7 44 24 04 d5 f2 00 	movl   $0x4000f2d5,0x4(%esp)
40004670:	40 
40004671:	8d 45 e8             	lea    -0x18(%ebp),%eax
40004674:	89 04 24             	mov    %eax,(%esp)
40004677:	e8 a8 93 00 00       	call   4000da24 <asprintf>
4000467c:	8b 45 f8             	mov    -0x8(%ebp),%eax
4000467f:	8b 50 04             	mov    0x4(%eax),%edx
40004682:	8b 4d e8             	mov    -0x18(%ebp),%ecx
40004685:	8b 45 0c             	mov    0xc(%ebp),%eax
40004688:	89 44 24 10          	mov    %eax,0x10(%esp)
4000468c:	8b 45 08             	mov    0x8(%ebp),%eax
4000468f:	89 44 24 0c          	mov    %eax,0xc(%esp)
40004693:	89 54 24 08          	mov    %edx,0x8(%esp)
40004697:	c7 44 24 04 00 00 00 	movl   $0x0,0x4(%esp)
4000469e:	00 
4000469f:	89 0c 24             	mov    %ecx,(%esp)
400046a2:	e8 28 8c 00 00       	call   4000d2cf <rpc_call>
400046a7:	89 45 ec             	mov    %eax,-0x14(%ebp)
400046aa:	8b 45 e8             	mov    -0x18(%ebp),%eax
400046ad:	89 04 24             	mov    %eax,(%esp)
400046b0:	e8 52 3a 00 00       	call   40008107 <free>
400046b5:	eb 07                	jmp    400046be <link+0xba>
400046b7:	c7 45 ec e4 ff ff ff 	movl   $0xffffffe4,-0x14(%ebp)
400046be:	83 7d ec 00          	cmpl   $0x0,-0x14(%ebp)
400046c2:	79 0c                	jns    400046d0 <link+0xcc>
400046c4:	8b 45 ec             	mov    -0x14(%ebp),%eax
400046c7:	89 c2                	mov    %eax,%edx
400046c9:	f7 da                	neg    %edx
400046cb:	89 55 dc             	mov    %edx,-0x24(%ebp)
400046ce:	eb 07                	jmp    400046d7 <link+0xd3>
400046d0:	c7 45 dc 00 00 00 00 	movl   $0x0,-0x24(%ebp)
400046d7:	8b 45 dc             	mov    -0x24(%ebp),%eax
400046da:	a3 44 29 01 40       	mov    %eax,0x40012944
400046df:	8b 45 ec             	mov    -0x14(%ebp),%eax
400046e2:	c1 f8 1f             	sar    $0x1f,%eax
400046e5:	0b 45 ec             	or     -0x14(%ebp),%eax
400046e8:	c9                   	leave  
400046e9:	c3                   	ret    

400046ea <chown>:
400046ea:	55                   	push   %ebp
400046eb:	89 e5                	mov    %esp,%ebp
400046ed:	83 ec 38             	sub    $0x38,%esp
400046f0:	8b 45 08             	mov    0x8(%ebp),%eax
400046f3:	89 04 24             	mov    %eax,(%esp)
400046f6:	e8 cf dd ff ff       	call   400024ca <getabsolutepath>
400046fb:	89 45 f8             	mov    %eax,-0x8(%ebp)
400046fe:	c7 44 24 04 00 00 00 	movl   $0x0,0x4(%esp)
40004705:	00 
40004706:	8b 45 f8             	mov    -0x8(%ebp),%eax
40004709:	89 04 24             	mov    %eax,(%esp)
4000470c:	e8 07 dc ff ff       	call   40002318 <fsbypath>
40004711:	89 45 fc             	mov    %eax,-0x4(%ebp)
40004714:	83 7d fc 00          	cmpl   $0x0,-0x4(%ebp)
40004718:	74 5e                	je     40004778 <chown+0x8e>
4000471a:	8b 45 fc             	mov    -0x4(%ebp),%eax
4000471d:	8b 00                	mov    (%eax),%eax
4000471f:	89 44 24 08          	mov    %eax,0x8(%esp)
40004723:	c7 44 24 04 e0 f2 00 	movl   $0x4000f2e0,0x4(%esp)
4000472a:	40 
4000472b:	8d 45 f0             	lea    -0x10(%ebp),%eax
4000472e:	89 04 24             	mov    %eax,(%esp)
40004731:	e8 ee 92 00 00       	call   4000da24 <asprintf>
40004736:	8b 45 fc             	mov    -0x4(%ebp),%eax
40004739:	8b 50 04             	mov    0x4(%eax),%edx
4000473c:	8b 4d f0             	mov    -0x10(%ebp),%ecx
4000473f:	8b 45 10             	mov    0x10(%ebp),%eax
40004742:	89 44 24 14          	mov    %eax,0x14(%esp)
40004746:	8b 45 0c             	mov    0xc(%ebp),%eax
40004749:	89 44 24 10          	mov    %eax,0x10(%esp)
4000474d:	8b 45 f8             	mov    -0x8(%ebp),%eax
40004750:	89 44 24 0c          	mov    %eax,0xc(%esp)
40004754:	89 54 24 08          	mov    %edx,0x8(%esp)
40004758:	c7 44 24 04 00 00 00 	movl   $0x0,0x4(%esp)
4000475f:	00 
40004760:	89 0c 24             	mov    %ecx,(%esp)
40004763:	e8 67 8b 00 00       	call   4000d2cf <rpc_call>
40004768:	89 45 f4             	mov    %eax,-0xc(%ebp)
4000476b:	8b 45 f0             	mov    -0x10(%ebp),%eax
4000476e:	89 04 24             	mov    %eax,(%esp)
40004771:	e8 91 39 00 00       	call   40008107 <free>
40004776:	eb 07                	jmp    4000477f <chown+0x95>
40004778:	c7 45 f4 e4 ff ff ff 	movl   $0xffffffe4,-0xc(%ebp)
4000477f:	8b 45 f8             	mov    -0x8(%ebp),%eax
40004782:	89 04 24             	mov    %eax,(%esp)
40004785:	e8 7d 39 00 00       	call   40008107 <free>
4000478a:	83 7d f4 00          	cmpl   $0x0,-0xc(%ebp)
4000478e:	79 0c                	jns    4000479c <chown+0xb2>
40004790:	8b 45 f4             	mov    -0xc(%ebp),%eax
40004793:	89 c2                	mov    %eax,%edx
40004795:	f7 da                	neg    %edx
40004797:	89 55 ec             	mov    %edx,-0x14(%ebp)
4000479a:	eb 07                	jmp    400047a3 <chown+0xb9>
4000479c:	c7 45 ec 00 00 00 00 	movl   $0x0,-0x14(%ebp)
400047a3:	8b 45 ec             	mov    -0x14(%ebp),%eax
400047a6:	a3 44 29 01 40       	mov    %eax,0x40012944
400047ab:	8b 45 f4             	mov    -0xc(%ebp),%eax
400047ae:	c1 f8 1f             	sar    $0x1f,%eax
400047b1:	0b 45 f4             	or     -0xc(%ebp),%eax
400047b4:	c9                   	leave  
400047b5:	c3                   	ret    

400047b6 <fchown>:
400047b6:	55                   	push   %ebp
400047b7:	89 e5                	mov    %esp,%ebp
400047b9:	83 ec 28             	sub    $0x28,%esp
400047bc:	8b 45 08             	mov    0x8(%ebp),%eax
400047bf:	89 04 24             	mov    %eax,(%esp)
400047c2:	e8 b3 dc ff ff       	call   4000247a <lidxbyfh>
400047c7:	8b 15 48 12 01 40    	mov    0x40011248,%edx
400047cd:	89 44 24 04          	mov    %eax,0x4(%esp)
400047d1:	89 14 24             	mov    %edx,(%esp)
400047d4:	e8 fa 73 00 00       	call   4000bbd3 <llist_get>
400047d9:	89 45 fc             	mov    %eax,-0x4(%ebp)
400047dc:	83 7d fc 00          	cmpl   $0x0,-0x4(%ebp)
400047e0:	74 21                	je     40004803 <fchown+0x4d>
400047e2:	8b 45 fc             	mov    -0x4(%ebp),%eax
400047e5:	8b 50 18             	mov    0x18(%eax),%edx
400047e8:	8b 45 10             	mov    0x10(%ebp),%eax
400047eb:	89 44 24 08          	mov    %eax,0x8(%esp)
400047ef:	8b 45 0c             	mov    0xc(%ebp),%eax
400047f2:	89 44 24 04          	mov    %eax,0x4(%esp)
400047f6:	89 14 24             	mov    %edx,(%esp)
400047f9:	e8 ec fe ff ff       	call   400046ea <chown>
400047fe:	89 45 f8             	mov    %eax,-0x8(%ebp)
40004801:	eb 07                	jmp    4000480a <fchown+0x54>
40004803:	c7 45 f8 f8 ff ff ff 	movl   $0xfffffff8,-0x8(%ebp)
4000480a:	83 7d f8 00          	cmpl   $0x0,-0x8(%ebp)
4000480e:	79 0c                	jns    4000481c <fchown+0x66>
40004810:	8b 45 f8             	mov    -0x8(%ebp),%eax
40004813:	89 c2                	mov    %eax,%edx
40004815:	f7 da                	neg    %edx
40004817:	89 55 ec             	mov    %edx,-0x14(%ebp)
4000481a:	eb 07                	jmp    40004823 <fchown+0x6d>
4000481c:	c7 45 ec 00 00 00 00 	movl   $0x0,-0x14(%ebp)
40004823:	8b 45 ec             	mov    -0x14(%ebp),%eax
40004826:	a3 44 29 01 40       	mov    %eax,0x40012944
4000482b:	8b 45 f8             	mov    -0x8(%ebp),%eax
4000482e:	c1 f8 1f             	sar    $0x1f,%eax
40004831:	0b 45 f8             	or     -0x8(%ebp),%eax
40004834:	c9                   	leave  
40004835:	c3                   	ret    

40004836 <chmod>:
40004836:	55                   	push   %ebp
40004837:	89 e5                	mov    %esp,%ebp
40004839:	83 ec 28             	sub    $0x28,%esp
4000483c:	8b 45 08             	mov    0x8(%ebp),%eax
4000483f:	89 04 24             	mov    %eax,(%esp)
40004842:	e8 83 dc ff ff       	call   400024ca <getabsolutepath>
40004847:	89 45 f8             	mov    %eax,-0x8(%ebp)
4000484a:	c7 44 24 04 00 00 00 	movl   $0x0,0x4(%esp)
40004851:	00 
40004852:	8b 45 f8             	mov    -0x8(%ebp),%eax
40004855:	89 04 24             	mov    %eax,(%esp)
40004858:	e8 bb da ff ff       	call   40002318 <fsbypath>
4000485d:	89 45 fc             	mov    %eax,-0x4(%ebp)
40004860:	83 7d fc 00          	cmpl   $0x0,-0x4(%ebp)
40004864:	74 57                	je     400048bd <chmod+0x87>
40004866:	8b 45 fc             	mov    -0x4(%ebp),%eax
40004869:	8b 00                	mov    (%eax),%eax
4000486b:	89 44 24 08          	mov    %eax,0x8(%esp)
4000486f:	c7 44 24 04 ec f2 00 	movl   $0x4000f2ec,0x4(%esp)
40004876:	40 
40004877:	8d 45 f0             	lea    -0x10(%ebp),%eax
4000487a:	89 04 24             	mov    %eax,(%esp)
4000487d:	e8 a2 91 00 00       	call   4000da24 <asprintf>
40004882:	8b 45 fc             	mov    -0x4(%ebp),%eax
40004885:	8b 50 04             	mov    0x4(%eax),%edx
40004888:	8b 4d f0             	mov    -0x10(%ebp),%ecx
4000488b:	8b 45 0c             	mov    0xc(%ebp),%eax
4000488e:	89 44 24 10          	mov    %eax,0x10(%esp)
40004892:	8b 45 f8             	mov    -0x8(%ebp),%eax
40004895:	89 44 24 0c          	mov    %eax,0xc(%esp)
40004899:	89 54 24 08          	mov    %edx,0x8(%esp)
4000489d:	c7 44 24 04 00 00 00 	movl   $0x0,0x4(%esp)
400048a4:	00 
400048a5:	89 0c 24             	mov    %ecx,(%esp)
400048a8:	e8 22 8a 00 00       	call   4000d2cf <rpc_call>
400048ad:	89 45 f4             	mov    %eax,-0xc(%ebp)
400048b0:	8b 45 f0             	mov    -0x10(%ebp),%eax
400048b3:	89 04 24             	mov    %eax,(%esp)
400048b6:	e8 4c 38 00 00       	call   40008107 <free>
400048bb:	eb 07                	jmp    400048c4 <chmod+0x8e>
400048bd:	c7 45 f4 e4 ff ff ff 	movl   $0xffffffe4,-0xc(%ebp)
400048c4:	8b 45 f8             	mov    -0x8(%ebp),%eax
400048c7:	89 04 24             	mov    %eax,(%esp)
400048ca:	e8 38 38 00 00       	call   40008107 <free>
400048cf:	83 7d f4 00          	cmpl   $0x0,-0xc(%ebp)
400048d3:	79 0c                	jns    400048e1 <chmod+0xab>
400048d5:	8b 45 f4             	mov    -0xc(%ebp),%eax
400048d8:	89 c2                	mov    %eax,%edx
400048da:	f7 da                	neg    %edx
400048dc:	89 55 ec             	mov    %edx,-0x14(%ebp)
400048df:	eb 07                	jmp    400048e8 <chmod+0xb2>
400048e1:	c7 45 ec 00 00 00 00 	movl   $0x0,-0x14(%ebp)
400048e8:	8b 45 ec             	mov    -0x14(%ebp),%eax
400048eb:	a3 44 29 01 40       	mov    %eax,0x40012944
400048f0:	8b 45 f4             	mov    -0xc(%ebp),%eax
400048f3:	c1 f8 1f             	sar    $0x1f,%eax
400048f6:	0b 45 f4             	or     -0xc(%ebp),%eax
400048f9:	c9                   	leave  
400048fa:	c3                   	ret    

400048fb <fchmod>:
400048fb:	55                   	push   %ebp
400048fc:	89 e5                	mov    %esp,%ebp
400048fe:	83 ec 28             	sub    $0x28,%esp
40004901:	8b 45 08             	mov    0x8(%ebp),%eax
40004904:	89 04 24             	mov    %eax,(%esp)
40004907:	e8 6e db ff ff       	call   4000247a <lidxbyfh>
4000490c:	8b 15 48 12 01 40    	mov    0x40011248,%edx
40004912:	89 44 24 04          	mov    %eax,0x4(%esp)
40004916:	89 14 24             	mov    %edx,(%esp)
40004919:	e8 b5 72 00 00       	call   4000bbd3 <llist_get>
4000491e:	89 45 fc             	mov    %eax,-0x4(%ebp)
40004921:	83 7d fc 00          	cmpl   $0x0,-0x4(%ebp)
40004925:	74 29                	je     40004950 <fchmod+0x55>
40004927:	8b 45 fc             	mov    -0x4(%ebp),%eax
4000492a:	8b 50 18             	mov    0x18(%eax),%edx
4000492d:	8b 45 0c             	mov    0xc(%ebp),%eax
40004930:	89 44 24 04          	mov    %eax,0x4(%esp)
40004934:	89 14 24             	mov    %edx,(%esp)
40004937:	e8 fa fe ff ff       	call   40004836 <chmod>
4000493c:	89 45 f8             	mov    %eax,-0x8(%ebp)
4000493f:	83 7d f8 00          	cmpl   $0x0,-0x8(%ebp)
40004943:	75 12                	jne    40004957 <fchmod+0x5c>
40004945:	8b 55 fc             	mov    -0x4(%ebp),%edx
40004948:	8b 45 0c             	mov    0xc(%ebp),%eax
4000494b:	89 42 0c             	mov    %eax,0xc(%edx)
4000494e:	eb 07                	jmp    40004957 <fchmod+0x5c>
40004950:	c7 45 f8 f8 ff ff ff 	movl   $0xfffffff8,-0x8(%ebp)
40004957:	83 7d f8 00          	cmpl   $0x0,-0x8(%ebp)
4000495b:	79 0c                	jns    40004969 <fchmod+0x6e>
4000495d:	8b 45 f8             	mov    -0x8(%ebp),%eax
40004960:	89 c2                	mov    %eax,%edx
40004962:	f7 da                	neg    %edx
40004964:	89 55 ec             	mov    %edx,-0x14(%ebp)
40004967:	eb 07                	jmp    40004970 <fchmod+0x75>
40004969:	c7 45 ec 00 00 00 00 	movl   $0x0,-0x14(%ebp)
40004970:	8b 45 ec             	mov    -0x14(%ebp),%eax
40004973:	a3 44 29 01 40       	mov    %eax,0x40012944
40004978:	8b 45 f8             	mov    -0x8(%ebp),%eax
4000497b:	c1 f8 1f             	sar    $0x1f,%eax
4000497e:	0b 45 f8             	or     -0x8(%ebp),%eax
40004981:	c9                   	leave  
40004982:	c3                   	ret    

40004983 <utime>:
40004983:	55                   	push   %ebp
40004984:	89 e5                	mov    %esp,%ebp
40004986:	83 ec 38             	sub    $0x38,%esp
40004989:	c7 45 ec 00 00 00 00 	movl   $0x0,-0x14(%ebp)
40004990:	8b 45 08             	mov    0x8(%ebp),%eax
40004993:	89 04 24             	mov    %eax,(%esp)
40004996:	e8 2f db ff ff       	call   400024ca <getabsolutepath>
4000499b:	89 45 f4             	mov    %eax,-0xc(%ebp)
4000499e:	c7 44 24 04 00 00 00 	movl   $0x0,0x4(%esp)
400049a5:	00 
400049a6:	8b 45 f4             	mov    -0xc(%ebp),%eax
400049a9:	89 04 24             	mov    %eax,(%esp)
400049ac:	e8 67 d9 ff ff       	call   40002318 <fsbypath>
400049b1:	89 45 f8             	mov    %eax,-0x8(%ebp)
400049b4:	83 7d f8 00          	cmpl   $0x0,-0x8(%ebp)
400049b8:	0f 84 0d 01 00 00    	je     40004acb <utime+0x148>
400049be:	c7 44 24 08 00 00 00 	movl   $0x0,0x8(%esp)
400049c5:	00 
400049c6:	c7 44 24 04 00 20 00 	movl   $0x2000,0x4(%esp)
400049cd:	00 
400049ce:	c7 04 24 00 00 00 00 	movl   $0x0,(%esp)
400049d5:	e8 ba 46 00 00       	call   40009094 <shmget>
400049da:	89 45 fc             	mov    %eax,-0x4(%ebp)
400049dd:	c7 44 24 08 00 00 00 	movl   $0x0,0x8(%esp)
400049e4:	00 
400049e5:	c7 44 24 04 00 00 00 	movl   $0x0,0x4(%esp)
400049ec:	00 
400049ed:	8b 45 fc             	mov    -0x4(%ebp),%eax
400049f0:	89 04 24             	mov    %eax,(%esp)
400049f3:	e8 58 47 00 00       	call   40009150 <shmat>
400049f8:	89 45 f0             	mov    %eax,-0x10(%ebp)
400049fb:	83 7d f0 00          	cmpl   $0x0,-0x10(%ebp)
400049ff:	0f 84 ba 00 00 00    	je     40004abf <utime+0x13c>
40004a05:	8b 45 f8             	mov    -0x8(%ebp),%eax
40004a08:	8b 00                	mov    (%eax),%eax
40004a0a:	89 44 24 08          	mov    %eax,0x8(%esp)
40004a0e:	c7 44 24 04 f8 f2 00 	movl   $0x4000f2f8,0x4(%esp)
40004a15:	40 
40004a16:	8d 45 e8             	lea    -0x18(%ebp),%eax
40004a19:	89 04 24             	mov    %eax,(%esp)
40004a1c:	e8 03 90 00 00       	call   4000da24 <asprintf>
40004a21:	8b 55 f0             	mov    -0x10(%ebp),%edx
40004a24:	c7 44 24 08 00 20 00 	movl   $0x2000,0x8(%esp)
40004a2b:	00 
40004a2c:	8b 45 08             	mov    0x8(%ebp),%eax
40004a2f:	89 44 24 04          	mov    %eax,0x4(%esp)
40004a33:	89 14 24             	mov    %edx,(%esp)
40004a36:	e8 e5 6a 00 00       	call   4000b520 <strncpy>
40004a3b:	8b 45 f0             	mov    -0x10(%ebp),%eax
40004a3e:	89 04 24             	mov    %eax,(%esp)
40004a41:	e8 9a 69 00 00       	call   4000b3e0 <strlen>
40004a46:	83 c0 01             	add    $0x1,%eax
40004a49:	89 c2                	mov    %eax,%edx
40004a4b:	03 55 f0             	add    -0x10(%ebp),%edx
40004a4e:	c7 44 24 08 08 00 00 	movl   $0x8,0x8(%esp)
40004a55:	00 
40004a56:	8b 45 0c             	mov    0xc(%ebp),%eax
40004a59:	89 44 24 04          	mov    %eax,0x4(%esp)
40004a5d:	89 14 24             	mov    %edx,(%esp)
40004a60:	e8 c3 65 00 00       	call   4000b028 <memcpy>
40004a65:	8b 45 f8             	mov    -0x8(%ebp),%eax
40004a68:	8b 50 04             	mov    0x4(%eax),%edx
40004a6b:	8b 4d e8             	mov    -0x18(%ebp),%ecx
40004a6e:	8b 45 fc             	mov    -0x4(%ebp),%eax
40004a71:	89 44 24 0c          	mov    %eax,0xc(%esp)
40004a75:	89 54 24 08          	mov    %edx,0x8(%esp)
40004a79:	c7 44 24 04 00 00 00 	movl   $0x0,0x4(%esp)
40004a80:	00 
40004a81:	89 0c 24             	mov    %ecx,(%esp)
40004a84:	e8 46 88 00 00       	call   4000d2cf <rpc_call>
40004a89:	89 45 ec             	mov    %eax,-0x14(%ebp)
40004a8c:	8b 45 e8             	mov    -0x18(%ebp),%eax
40004a8f:	89 04 24             	mov    %eax,(%esp)
40004a92:	e8 70 36 00 00       	call   40008107 <free>
40004a97:	8b 45 f0             	mov    -0x10(%ebp),%eax
40004a9a:	89 04 24             	mov    %eax,(%esp)
40004a9d:	e8 31 47 00 00       	call   400091d3 <shmdt>
40004aa2:	c7 44 24 08 00 00 00 	movl   $0x0,0x8(%esp)
40004aa9:	00 
40004aaa:	c7 44 24 04 01 00 00 	movl   $0x1,0x4(%esp)
40004ab1:	00 
40004ab2:	8b 45 fc             	mov    -0x4(%ebp),%eax
40004ab5:	89 04 24             	mov    %eax,(%esp)
40004ab8:	e8 86 47 00 00       	call   40009243 <shmctl>
40004abd:	eb 13                	jmp    40004ad2 <utime+0x14f>
40004abf:	a1 44 29 01 40       	mov    0x40012944,%eax
40004ac4:	f7 d8                	neg    %eax
40004ac6:	89 45 ec             	mov    %eax,-0x14(%ebp)
40004ac9:	eb 07                	jmp    40004ad2 <utime+0x14f>
40004acb:	c7 45 ec f8 ff ff ff 	movl   $0xfffffff8,-0x14(%ebp)
40004ad2:	8b 45 f4             	mov    -0xc(%ebp),%eax
40004ad5:	89 04 24             	mov    %eax,(%esp)
40004ad8:	e8 2a 36 00 00       	call   40008107 <free>
40004add:	83 7d ec 00          	cmpl   $0x0,-0x14(%ebp)
40004ae1:	79 0c                	jns    40004aef <utime+0x16c>
40004ae3:	8b 45 ec             	mov    -0x14(%ebp),%eax
40004ae6:	89 c2                	mov    %eax,%edx
40004ae8:	f7 da                	neg    %edx
40004aea:	89 55 dc             	mov    %edx,-0x24(%ebp)
40004aed:	eb 07                	jmp    40004af6 <utime+0x173>
40004aef:	c7 45 dc 00 00 00 00 	movl   $0x0,-0x24(%ebp)
40004af6:	8b 45 dc             	mov    -0x24(%ebp),%eax
40004af9:	a3 44 29 01 40       	mov    %eax,0x40012944
40004afe:	8b 45 ec             	mov    -0x14(%ebp),%eax
40004b01:	c1 f8 1f             	sar    $0x1f,%eax
40004b04:	0b 45 ec             	or     -0x14(%ebp),%eax
40004b07:	c9                   	leave  
40004b08:	c3                   	ret    

40004b09 <umask>:
40004b09:	55                   	push   %ebp
40004b0a:	89 e5                	mov    %esp,%ebp
40004b0c:	83 ec 10             	sub    $0x10,%esp
40004b0f:	a1 60 12 01 40       	mov    0x40011260,%eax
40004b14:	89 45 fc             	mov    %eax,-0x4(%ebp)
40004b17:	8b 45 08             	mov    0x8(%ebp),%eax
40004b1a:	25 ff 01 00 00       	and    $0x1ff,%eax
40004b1f:	a3 60 12 01 40       	mov    %eax,0x40011260
40004b24:	8b 45 fc             	mov    -0x4(%ebp),%eax
40004b27:	c9                   	leave  
40004b28:	c3                   	ret    

40004b29 <socket>:
40004b29:	55                   	push   %ebp
40004b2a:	89 e5                	mov    %esp,%ebp
40004b2c:	b8 ff ff ff ff       	mov    $0xffffffff,%eax
40004b31:	5d                   	pop    %ebp
40004b32:	c3                   	ret    
40004b33:	90                   	nop    

40004b34 <fprintf>:
40004b34:	55                   	push   %ebp
40004b35:	89 e5                	mov    %esp,%ebp
40004b37:	83 ec 28             	sub    $0x28,%esp
40004b3a:	8d 45 10             	lea    0x10(%ebp),%eax
40004b3d:	89 45 f8             	mov    %eax,-0x8(%ebp)
40004b40:	8b 45 f8             	mov    -0x8(%ebp),%eax
40004b43:	89 44 24 08          	mov    %eax,0x8(%esp)
40004b47:	8b 45 0c             	mov    0xc(%ebp),%eax
40004b4a:	89 44 24 04          	mov    %eax,0x4(%esp)
40004b4e:	8b 45 08             	mov    0x8(%ebp),%eax
40004b51:	89 04 24             	mov    %eax,(%esp)
40004b54:	e8 93 4f 00 00       	call   40009aec <vfprintf>
40004b59:	89 45 fc             	mov    %eax,-0x4(%ebp)
40004b5c:	8b 45 fc             	mov    -0x4(%ebp),%eax
40004b5f:	c9                   	leave  
40004b60:	c3                   	ret    
40004b61:	90                   	nop    
40004b62:	90                   	nop    
40004b63:	90                   	nop    

40004b64 <segment_holding>:
40004b64:	55                   	push   %ebp
40004b65:	89 e5                	mov    %esp,%ebp
40004b67:	83 ec 14             	sub    $0x14,%esp
40004b6a:	8b 45 08             	mov    0x8(%ebp),%eax
40004b6d:	05 b8 01 00 00       	add    $0x1b8,%eax
40004b72:	89 45 fc             	mov    %eax,-0x4(%ebp)
40004b75:	8b 45 fc             	mov    -0x4(%ebp),%eax
40004b78:	8b 00                	mov    (%eax),%eax
40004b7a:	3b 45 0c             	cmp    0xc(%ebp),%eax
40004b7d:	77 1b                	ja     40004b9a <segment_holding+0x36>
40004b7f:	8b 45 fc             	mov    -0x4(%ebp),%eax
40004b82:	8b 10                	mov    (%eax),%edx
40004b84:	8b 45 fc             	mov    -0x4(%ebp),%eax
40004b87:	8b 40 04             	mov    0x4(%eax),%eax
40004b8a:	8d 04 02             	lea    (%edx,%eax,1),%eax
40004b8d:	3b 45 0c             	cmp    0xc(%ebp),%eax
40004b90:	76 08                	jbe    40004b9a <segment_holding+0x36>
40004b92:	8b 45 fc             	mov    -0x4(%ebp),%eax
40004b95:	89 45 ec             	mov    %eax,-0x14(%ebp)
40004b98:	eb 16                	jmp    40004bb0 <segment_holding+0x4c>
40004b9a:	8b 45 fc             	mov    -0x4(%ebp),%eax
40004b9d:	8b 40 08             	mov    0x8(%eax),%eax
40004ba0:	89 45 fc             	mov    %eax,-0x4(%ebp)
40004ba3:	83 7d fc 00          	cmpl   $0x0,-0x4(%ebp)
40004ba7:	75 cc                	jne    40004b75 <segment_holding+0x11>
40004ba9:	c7 45 ec 00 00 00 00 	movl   $0x0,-0x14(%ebp)
40004bb0:	8b 45 ec             	mov    -0x14(%ebp),%eax
40004bb3:	c9                   	leave  
40004bb4:	c3                   	ret    

40004bb5 <has_segment_link>:
40004bb5:	55                   	push   %ebp
40004bb6:	89 e5                	mov    %esp,%ebp
40004bb8:	83 ec 14             	sub    $0x14,%esp
40004bbb:	8b 45 08             	mov    0x8(%ebp),%eax
40004bbe:	05 b8 01 00 00       	add    $0x1b8,%eax
40004bc3:	89 45 fc             	mov    %eax,-0x4(%ebp)
40004bc6:	8b 45 0c             	mov    0xc(%ebp),%eax
40004bc9:	8b 10                	mov    (%eax),%edx
40004bcb:	8b 45 fc             	mov    -0x4(%ebp),%eax
40004bce:	39 c2                	cmp    %eax,%edx
40004bd0:	77 1d                	ja     40004bef <has_segment_link+0x3a>
40004bd2:	8b 45 0c             	mov    0xc(%ebp),%eax
40004bd5:	8b 10                	mov    (%eax),%edx
40004bd7:	8b 45 0c             	mov    0xc(%ebp),%eax
40004bda:	8b 40 04             	mov    0x4(%eax),%eax
40004bdd:	01 c2                	add    %eax,%edx
40004bdf:	8b 45 fc             	mov    -0x4(%ebp),%eax
40004be2:	39 c2                	cmp    %eax,%edx
40004be4:	76 09                	jbe    40004bef <has_segment_link+0x3a>
40004be6:	c7 45 ec 01 00 00 00 	movl   $0x1,-0x14(%ebp)
40004bed:	eb 16                	jmp    40004c05 <has_segment_link+0x50>
40004bef:	8b 45 fc             	mov    -0x4(%ebp),%eax
40004bf2:	8b 40 08             	mov    0x8(%eax),%eax
40004bf5:	89 45 fc             	mov    %eax,-0x4(%ebp)
40004bf8:	83 7d fc 00          	cmpl   $0x0,-0x4(%ebp)
40004bfc:	75 c8                	jne    40004bc6 <has_segment_link+0x11>
40004bfe:	c7 45 ec 00 00 00 00 	movl   $0x0,-0x14(%ebp)
40004c05:	8b 45 ec             	mov    -0x14(%ebp),%eax
40004c08:	c9                   	leave  
40004c09:	c3                   	ret    

40004c0a <init_mparams>:
40004c0a:	55                   	push   %ebp
40004c0b:	89 e5                	mov    %esp,%ebp
40004c0d:	83 ec 18             	sub    $0x18,%esp
40004c10:	a1 84 12 01 40       	mov    0x40011284,%eax
40004c15:	85 c0                	test   %eax,%eax
40004c17:	0f 85 81 00 00 00    	jne    40004c9e <init_mparams+0x94>
40004c1d:	c7 05 8c 12 01 40 ff 	movl   $0xffffffff,0x4001128c
40004c24:	ff ff ff 
40004c27:	c7 05 90 12 01 40 ff 	movl   $0xffffffff,0x40011290
40004c2e:	ff ff ff 
40004c31:	c7 05 94 12 01 40 00 	movl   $0x0,0x40011294
40004c38:	00 00 00 
40004c3b:	c7 45 fc 58 58 58 58 	movl   $0x58585858,-0x4(%ebp)
40004c42:	a1 80 12 01 40       	mov    0x40011280,%eax
40004c47:	85 c0                	test   %eax,%eax
40004c49:	75 12                	jne    40004c5d <init_mparams+0x53>
40004c4b:	8b 45 fc             	mov    -0x4(%ebp),%eax
40004c4e:	a3 80 12 01 40       	mov    %eax,0x40011280
40004c53:	a1 94 12 01 40       	mov    0x40011294,%eax
40004c58:	a3 54 14 01 40       	mov    %eax,0x40011454
40004c5d:	c7 05 84 12 01 40 00 	movl   $0x1000,0x40011284
40004c64:	10 00 00 
40004c67:	a1 84 12 01 40       	mov    0x40011284,%eax
40004c6c:	a3 88 12 01 40       	mov    %eax,0x40011288
40004c71:	8b 15 88 12 01 40    	mov    0x40011288,%edx
40004c77:	a1 88 12 01 40       	mov    0x40011288,%eax
40004c7c:	83 e8 01             	sub    $0x1,%eax
40004c7f:	21 d0                	and    %edx,%eax
40004c81:	85 c0                	test   %eax,%eax
40004c83:	75 14                	jne    40004c99 <init_mparams+0x8f>
40004c85:	8b 15 84 12 01 40    	mov    0x40011284,%edx
40004c8b:	a1 84 12 01 40       	mov    0x40011284,%eax
40004c90:	83 e8 01             	sub    $0x1,%eax
40004c93:	21 d0                	and    %edx,%eax
40004c95:	85 c0                	test   %eax,%eax
40004c97:	74 05                	je     40004c9e <init_mparams+0x94>
40004c99:	e8 e2 8c 00 00       	call   4000d980 <abort>
40004c9e:	b8 00 00 00 00       	mov    $0x0,%eax
40004ca3:	c9                   	leave  
40004ca4:	c3                   	ret    

40004ca5 <change_mparam>:
40004ca5:	55                   	push   %ebp
40004ca6:	89 e5                	mov    %esp,%ebp
40004ca8:	83 ec 18             	sub    $0x18,%esp
40004cab:	8b 45 0c             	mov    0xc(%ebp),%eax
40004cae:	89 45 fc             	mov    %eax,-0x4(%ebp)
40004cb1:	e8 54 ff ff ff       	call   40004c0a <init_mparams>
40004cb6:	8b 45 08             	mov    0x8(%ebp),%eax
40004cb9:	89 45 e8             	mov    %eax,-0x18(%ebp)
40004cbc:	83 7d e8 fe          	cmpl   $0xfffffffe,-0x18(%ebp)
40004cc0:	74 1f                	je     40004ce1 <change_mparam+0x3c>
40004cc2:	83 7d e8 ff          	cmpl   $0xffffffff,-0x18(%ebp)
40004cc6:	74 08                	je     40004cd0 <change_mparam+0x2b>
40004cc8:	83 7d e8 fd          	cmpl   $0xfffffffd,-0x18(%ebp)
40004ccc:	74 44                	je     40004d12 <change_mparam+0x6d>
40004cce:	eb 53                	jmp    40004d23 <change_mparam+0x7e>
40004cd0:	8b 45 fc             	mov    -0x4(%ebp),%eax
40004cd3:	a3 90 12 01 40       	mov    %eax,0x40011290
40004cd8:	c7 45 ec 01 00 00 00 	movl   $0x1,-0x14(%ebp)
40004cdf:	eb 49                	jmp    40004d2a <change_mparam+0x85>
40004ce1:	a1 84 12 01 40       	mov    0x40011284,%eax
40004ce6:	3b 45 fc             	cmp    -0x4(%ebp),%eax
40004ce9:	77 1e                	ja     40004d09 <change_mparam+0x64>
40004ceb:	8b 45 fc             	mov    -0x4(%ebp),%eax
40004cee:	83 e8 01             	sub    $0x1,%eax
40004cf1:	23 45 fc             	and    -0x4(%ebp),%eax
40004cf4:	85 c0                	test   %eax,%eax
40004cf6:	75 11                	jne    40004d09 <change_mparam+0x64>
40004cf8:	8b 45 fc             	mov    -0x4(%ebp),%eax
40004cfb:	a3 88 12 01 40       	mov    %eax,0x40011288
40004d00:	c7 45 ec 01 00 00 00 	movl   $0x1,-0x14(%ebp)
40004d07:	eb 21                	jmp    40004d2a <change_mparam+0x85>
40004d09:	c7 45 ec 00 00 00 00 	movl   $0x0,-0x14(%ebp)
40004d10:	eb 18                	jmp    40004d2a <change_mparam+0x85>
40004d12:	8b 45 fc             	mov    -0x4(%ebp),%eax
40004d15:	a3 8c 12 01 40       	mov    %eax,0x4001128c
40004d1a:	c7 45 ec 01 00 00 00 	movl   $0x1,-0x14(%ebp)
40004d21:	eb 07                	jmp    40004d2a <change_mparam+0x85>
40004d23:	c7 45 ec 00 00 00 00 	movl   $0x0,-0x14(%ebp)
40004d2a:	8b 45 ec             	mov    -0x14(%ebp),%eax
40004d2d:	c9                   	leave  
40004d2e:	c3                   	ret    

40004d2f <internal_mallinfo>:
40004d2f:	55                   	push   %ebp
40004d30:	89 e5                	mov    %esp,%ebp
40004d32:	57                   	push   %edi
40004d33:	83 ec 54             	sub    $0x54,%esp
40004d36:	8d 45 bc             	lea    -0x44(%ebp),%eax
40004d39:	89 45 b0             	mov    %eax,-0x50(%ebp)
40004d3c:	c7 45 ac 00 00 00 00 	movl   $0x0,-0x54(%ebp)
40004d43:	b8 28 00 00 00       	mov    $0x28,%eax
40004d48:	83 f8 04             	cmp    $0x4,%eax
40004d4b:	72 12                	jb     40004d5f <internal_mallinfo+0x30>
40004d4d:	c7 45 a8 0a 00 00 00 	movl   $0xa,-0x58(%ebp)
40004d54:	8b 7d b0             	mov    -0x50(%ebp),%edi
40004d57:	8b 4d a8             	mov    -0x58(%ebp),%ecx
40004d5a:	8b 45 ac             	mov    -0x54(%ebp),%eax
40004d5d:	f3 ab                	rep stos %eax,%es:(%edi)
40004d5f:	8b 45 0c             	mov    0xc(%ebp),%eax
40004d62:	8b 40 18             	mov    0x18(%eax),%eax
40004d65:	85 c0                	test   %eax,%eax
40004d67:	0f 84 33 01 00 00    	je     40004ea0 <internal_mallinfo+0x171>
40004d6d:	c7 45 e4 01 00 00 00 	movl   $0x1,-0x1c(%ebp)
40004d74:	8b 45 0c             	mov    0xc(%ebp),%eax
40004d77:	8b 40 0c             	mov    0xc(%eax),%eax
40004d7a:	83 c0 28             	add    $0x28,%eax
40004d7d:	89 45 e8             	mov    %eax,-0x18(%ebp)
40004d80:	8b 45 e8             	mov    -0x18(%ebp),%eax
40004d83:	89 45 ec             	mov    %eax,-0x14(%ebp)
40004d86:	8b 45 0c             	mov    0xc(%ebp),%eax
40004d89:	05 b8 01 00 00       	add    $0x1b8,%eax
40004d8e:	89 45 f0             	mov    %eax,-0x10(%ebp)
40004d91:	e9 bb 00 00 00       	jmp    40004e51 <internal_mallinfo+0x122>
40004d96:	8b 45 f0             	mov    -0x10(%ebp),%eax
40004d99:	8b 00                	mov    (%eax),%eax
40004d9b:	89 45 b4             	mov    %eax,-0x4c(%ebp)
40004d9e:	8b 45 f0             	mov    -0x10(%ebp),%eax
40004da1:	8b 00                	mov    (%eax),%eax
40004da3:	83 c0 08             	add    $0x8,%eax
40004da6:	83 e0 07             	and    $0x7,%eax
40004da9:	85 c0                	test   %eax,%eax
40004dab:	74 1e                	je     40004dcb <internal_mallinfo+0x9c>
40004dad:	8b 45 f0             	mov    -0x10(%ebp),%eax
40004db0:	8b 00                	mov    (%eax),%eax
40004db2:	83 c0 08             	add    $0x8,%eax
40004db5:	89 c2                	mov    %eax,%edx
40004db7:	83 e2 07             	and    $0x7,%edx
40004dba:	b8 08 00 00 00       	mov    $0x8,%eax
40004dbf:	29 d0                	sub    %edx,%eax
40004dc1:	89 c2                	mov    %eax,%edx
40004dc3:	83 e2 07             	and    $0x7,%edx
40004dc6:	89 55 b8             	mov    %edx,-0x48(%ebp)
40004dc9:	eb 07                	jmp    40004dd2 <internal_mallinfo+0xa3>
40004dcb:	c7 45 b8 00 00 00 00 	movl   $0x0,-0x48(%ebp)
40004dd2:	8b 45 b4             	mov    -0x4c(%ebp),%eax
40004dd5:	03 45 b8             	add    -0x48(%ebp),%eax
40004dd8:	89 45 f4             	mov    %eax,-0xc(%ebp)
40004ddb:	eb 35                	jmp    40004e12 <internal_mallinfo+0xe3>
40004ddd:	8b 45 f4             	mov    -0xc(%ebp),%eax
40004de0:	8b 40 04             	mov    0x4(%eax),%eax
40004de3:	83 e0 fc             	and    $0xfffffffc,%eax
40004de6:	89 45 f8             	mov    %eax,-0x8(%ebp)
40004de9:	8b 45 f8             	mov    -0x8(%ebp),%eax
40004dec:	01 45 ec             	add    %eax,-0x14(%ebp)
40004def:	8b 45 f4             	mov    -0xc(%ebp),%eax
40004df2:	8b 40 04             	mov    0x4(%eax),%eax
40004df5:	83 e0 02             	and    $0x2,%eax
40004df8:	85 c0                	test   %eax,%eax
40004dfa:	75 0a                	jne    40004e06 <internal_mallinfo+0xd7>
40004dfc:	8b 45 f8             	mov    -0x8(%ebp),%eax
40004dff:	01 45 e8             	add    %eax,-0x18(%ebp)
40004e02:	83 45 e4 01          	addl   $0x1,-0x1c(%ebp)
40004e06:	8b 45 f4             	mov    -0xc(%ebp),%eax
40004e09:	8b 40 04             	mov    0x4(%eax),%eax
40004e0c:	83 e0 fc             	and    $0xfffffffc,%eax
40004e0f:	01 45 f4             	add    %eax,-0xc(%ebp)
40004e12:	8b 45 f0             	mov    -0x10(%ebp),%eax
40004e15:	8b 10                	mov    (%eax),%edx
40004e17:	8b 45 f4             	mov    -0xc(%ebp),%eax
40004e1a:	39 c2                	cmp    %eax,%edx
40004e1c:	77 2a                	ja     40004e48 <internal_mallinfo+0x119>
40004e1e:	8b 45 f0             	mov    -0x10(%ebp),%eax
40004e21:	8b 10                	mov    (%eax),%edx
40004e23:	8b 45 f0             	mov    -0x10(%ebp),%eax
40004e26:	8b 40 04             	mov    0x4(%eax),%eax
40004e29:	01 c2                	add    %eax,%edx
40004e2b:	8b 45 f4             	mov    -0xc(%ebp),%eax
40004e2e:	39 c2                	cmp    %eax,%edx
40004e30:	76 16                	jbe    40004e48 <internal_mallinfo+0x119>
40004e32:	8b 45 0c             	mov    0xc(%ebp),%eax
40004e35:	8b 40 18             	mov    0x18(%eax),%eax
40004e38:	3b 45 f4             	cmp    -0xc(%ebp),%eax
40004e3b:	74 0b                	je     40004e48 <internal_mallinfo+0x119>
40004e3d:	8b 45 f4             	mov    -0xc(%ebp),%eax
40004e40:	8b 40 04             	mov    0x4(%eax),%eax
40004e43:	83 f8 07             	cmp    $0x7,%eax
40004e46:	75 95                	jne    40004ddd <internal_mallinfo+0xae>
40004e48:	8b 45 f0             	mov    -0x10(%ebp),%eax
40004e4b:	8b 40 08             	mov    0x8(%eax),%eax
40004e4e:	89 45 f0             	mov    %eax,-0x10(%ebp)
40004e51:	83 7d f0 00          	cmpl   $0x0,-0x10(%ebp)
40004e55:	0f 85 3b ff ff ff    	jne    40004d96 <internal_mallinfo+0x67>
40004e5b:	8b 45 ec             	mov    -0x14(%ebp),%eax
40004e5e:	89 45 bc             	mov    %eax,-0x44(%ebp)
40004e61:	8b 45 e4             	mov    -0x1c(%ebp),%eax
40004e64:	89 45 c0             	mov    %eax,-0x40(%ebp)
40004e67:	8b 45 0c             	mov    0xc(%ebp),%eax
40004e6a:	8b 80 ac 01 00 00    	mov    0x1ac(%eax),%eax
40004e70:	2b 45 ec             	sub    -0x14(%ebp),%eax
40004e73:	89 45 cc             	mov    %eax,-0x34(%ebp)
40004e76:	8b 45 0c             	mov    0xc(%ebp),%eax
40004e79:	8b 80 b0 01 00 00    	mov    0x1b0(%eax),%eax
40004e7f:	89 45 d0             	mov    %eax,-0x30(%ebp)
40004e82:	8b 45 0c             	mov    0xc(%ebp),%eax
40004e85:	8b 80 ac 01 00 00    	mov    0x1ac(%eax),%eax
40004e8b:	2b 45 e8             	sub    -0x18(%ebp),%eax
40004e8e:	89 45 d8             	mov    %eax,-0x28(%ebp)
40004e91:	8b 45 e8             	mov    -0x18(%ebp),%eax
40004e94:	89 45 dc             	mov    %eax,-0x24(%ebp)
40004e97:	8b 45 0c             	mov    0xc(%ebp),%eax
40004e9a:	8b 40 0c             	mov    0xc(%eax),%eax
40004e9d:	89 45 e0             	mov    %eax,-0x20(%ebp)
40004ea0:	8b 45 bc             	mov    -0x44(%ebp),%eax
40004ea3:	8b 4d 08             	mov    0x8(%ebp),%ecx
40004ea6:	89 01                	mov    %eax,(%ecx)
40004ea8:	8b 45 c0             	mov    -0x40(%ebp),%eax
40004eab:	8b 7d 08             	mov    0x8(%ebp),%edi
40004eae:	89 47 04             	mov    %eax,0x4(%edi)
40004eb1:	8b 45 c4             	mov    -0x3c(%ebp),%eax
40004eb4:	8b 55 08             	mov    0x8(%ebp),%edx
40004eb7:	89 42 08             	mov    %eax,0x8(%edx)
40004eba:	8b 45 c8             	mov    -0x38(%ebp),%eax
40004ebd:	8b 4d 08             	mov    0x8(%ebp),%ecx
40004ec0:	89 41 0c             	mov    %eax,0xc(%ecx)
40004ec3:	8b 45 cc             	mov    -0x34(%ebp),%eax
40004ec6:	8b 7d 08             	mov    0x8(%ebp),%edi
40004ec9:	89 47 10             	mov    %eax,0x10(%edi)
40004ecc:	8b 45 d0             	mov    -0x30(%ebp),%eax
40004ecf:	8b 55 08             	mov    0x8(%ebp),%edx
40004ed2:	89 42 14             	mov    %eax,0x14(%edx)
40004ed5:	8b 45 d4             	mov    -0x2c(%ebp),%eax
40004ed8:	8b 4d 08             	mov    0x8(%ebp),%ecx
40004edb:	89 41 18             	mov    %eax,0x18(%ecx)
40004ede:	8b 45 d8             	mov    -0x28(%ebp),%eax
40004ee1:	8b 7d 08             	mov    0x8(%ebp),%edi
40004ee4:	89 47 1c             	mov    %eax,0x1c(%edi)
40004ee7:	8b 45 dc             	mov    -0x24(%ebp),%eax
40004eea:	8b 55 08             	mov    0x8(%ebp),%edx
40004eed:	89 42 20             	mov    %eax,0x20(%edx)
40004ef0:	8b 45 e0             	mov    -0x20(%ebp),%eax
40004ef3:	8b 4d 08             	mov    0x8(%ebp),%ecx
40004ef6:	89 41 24             	mov    %eax,0x24(%ecx)
40004ef9:	8b 45 08             	mov    0x8(%ebp),%eax
40004efc:	83 c4 54             	add    $0x54,%esp
40004eff:	5f                   	pop    %edi
40004f00:	5d                   	pop    %ebp
40004f01:	c2 04 00             	ret    $0x4

40004f04 <internal_malloc_stats>:
40004f04:	55                   	push   %ebp
40004f05:	89 e5                	mov    %esp,%ebp
40004f07:	83 ec 38             	sub    $0x38,%esp
40004f0a:	c7 45 ec 00 00 00 00 	movl   $0x0,-0x14(%ebp)
40004f11:	c7 45 f0 00 00 00 00 	movl   $0x0,-0x10(%ebp)
40004f18:	c7 45 f4 00 00 00 00 	movl   $0x0,-0xc(%ebp)
40004f1f:	8b 45 08             	mov    0x8(%ebp),%eax
40004f22:	8b 40 18             	mov    0x18(%eax),%eax
40004f25:	85 c0                	test   %eax,%eax
40004f27:	0f 84 ee 00 00 00    	je     4000501b <internal_malloc_stats+0x117>
40004f2d:	8b 45 08             	mov    0x8(%ebp),%eax
40004f30:	05 b8 01 00 00       	add    $0x1b8,%eax
40004f35:	89 45 f8             	mov    %eax,-0x8(%ebp)
40004f38:	8b 45 08             	mov    0x8(%ebp),%eax
40004f3b:	8b 80 b0 01 00 00    	mov    0x1b0(%eax),%eax
40004f41:	89 45 ec             	mov    %eax,-0x14(%ebp)
40004f44:	8b 45 08             	mov    0x8(%ebp),%eax
40004f47:	8b 80 ac 01 00 00    	mov    0x1ac(%eax),%eax
40004f4d:	89 45 f0             	mov    %eax,-0x10(%ebp)
40004f50:	8b 45 08             	mov    0x8(%ebp),%eax
40004f53:	8b 50 0c             	mov    0xc(%eax),%edx
40004f56:	8b 45 f0             	mov    -0x10(%ebp),%eax
40004f59:	29 d0                	sub    %edx,%eax
40004f5b:	83 e8 28             	sub    $0x28,%eax
40004f5e:	89 45 f4             	mov    %eax,-0xc(%ebp)
40004f61:	e9 ab 00 00 00       	jmp    40005011 <internal_malloc_stats+0x10d>
40004f66:	8b 45 f8             	mov    -0x8(%ebp),%eax
40004f69:	8b 00                	mov    (%eax),%eax
40004f6b:	89 45 d8             	mov    %eax,-0x28(%ebp)
40004f6e:	8b 45 f8             	mov    -0x8(%ebp),%eax
40004f71:	8b 00                	mov    (%eax),%eax
40004f73:	83 c0 08             	add    $0x8,%eax
40004f76:	83 e0 07             	and    $0x7,%eax
40004f79:	85 c0                	test   %eax,%eax
40004f7b:	74 1e                	je     40004f9b <internal_malloc_stats+0x97>
40004f7d:	8b 45 f8             	mov    -0x8(%ebp),%eax
40004f80:	8b 00                	mov    (%eax),%eax
40004f82:	83 c0 08             	add    $0x8,%eax
40004f85:	89 c2                	mov    %eax,%edx
40004f87:	83 e2 07             	and    $0x7,%edx
40004f8a:	b8 08 00 00 00       	mov    $0x8,%eax
40004f8f:	29 d0                	sub    %edx,%eax
40004f91:	89 c2                	mov    %eax,%edx
40004f93:	83 e2 07             	and    $0x7,%edx
40004f96:	89 55 dc             	mov    %edx,-0x24(%ebp)
40004f99:	eb 07                	jmp    40004fa2 <internal_malloc_stats+0x9e>
40004f9b:	c7 45 dc 00 00 00 00 	movl   $0x0,-0x24(%ebp)
40004fa2:	8b 45 d8             	mov    -0x28(%ebp),%eax
40004fa5:	03 45 dc             	add    -0x24(%ebp),%eax
40004fa8:	89 45 fc             	mov    %eax,-0x4(%ebp)
40004fab:	eb 25                	jmp    40004fd2 <internal_malloc_stats+0xce>
40004fad:	8b 45 fc             	mov    -0x4(%ebp),%eax
40004fb0:	8b 40 04             	mov    0x4(%eax),%eax
40004fb3:	83 e0 02             	and    $0x2,%eax
40004fb6:	85 c0                	test   %eax,%eax
40004fb8:	75 0c                	jne    40004fc6 <internal_malloc_stats+0xc2>
40004fba:	8b 45 fc             	mov    -0x4(%ebp),%eax
40004fbd:	8b 40 04             	mov    0x4(%eax),%eax
40004fc0:	83 e0 fc             	and    $0xfffffffc,%eax
40004fc3:	29 45 f4             	sub    %eax,-0xc(%ebp)
40004fc6:	8b 45 fc             	mov    -0x4(%ebp),%eax
40004fc9:	8b 40 04             	mov    0x4(%eax),%eax
40004fcc:	83 e0 fc             	and    $0xfffffffc,%eax
40004fcf:	01 45 fc             	add    %eax,-0x4(%ebp)
40004fd2:	8b 45 f8             	mov    -0x8(%ebp),%eax
40004fd5:	8b 10                	mov    (%eax),%edx
40004fd7:	8b 45 fc             	mov    -0x4(%ebp),%eax
40004fda:	39 c2                	cmp    %eax,%edx
40004fdc:	77 2a                	ja     40005008 <internal_malloc_stats+0x104>
40004fde:	8b 45 f8             	mov    -0x8(%ebp),%eax
40004fe1:	8b 10                	mov    (%eax),%edx
40004fe3:	8b 45 f8             	mov    -0x8(%ebp),%eax
40004fe6:	8b 40 04             	mov    0x4(%eax),%eax
40004fe9:	01 c2                	add    %eax,%edx
40004feb:	8b 45 fc             	mov    -0x4(%ebp),%eax
40004fee:	39 c2                	cmp    %eax,%edx
40004ff0:	76 16                	jbe    40005008 <internal_malloc_stats+0x104>
40004ff2:	8b 45 08             	mov    0x8(%ebp),%eax
40004ff5:	8b 40 18             	mov    0x18(%eax),%eax
40004ff8:	3b 45 fc             	cmp    -0x4(%ebp),%eax
40004ffb:	74 0b                	je     40005008 <internal_malloc_stats+0x104>
40004ffd:	8b 45 fc             	mov    -0x4(%ebp),%eax
40005000:	8b 40 04             	mov    0x4(%eax),%eax
40005003:	83 f8 07             	cmp    $0x7,%eax
40005006:	75 a5                	jne    40004fad <internal_malloc_stats+0xa9>
40005008:	8b 45 f8             	mov    -0x8(%ebp),%eax
4000500b:	8b 40 08             	mov    0x8(%eax),%eax
4000500e:	89 45 f8             	mov    %eax,-0x8(%ebp)
40005011:	83 7d f8 00          	cmpl   $0x0,-0x8(%ebp)
40005015:	0f 85 4b ff ff ff    	jne    40004f66 <internal_malloc_stats+0x62>
4000501b:	8b 15 98 29 01 40    	mov    0x40012998,%edx
40005021:	8b 45 ec             	mov    -0x14(%ebp),%eax
40005024:	89 44 24 08          	mov    %eax,0x8(%esp)
40005028:	c7 44 24 04 04 f3 00 	movl   $0x4000f304,0x4(%esp)
4000502f:	40 
40005030:	89 14 24             	mov    %edx,(%esp)
40005033:	e8 fc fa ff ff       	call   40004b34 <fprintf>
40005038:	8b 15 98 29 01 40    	mov    0x40012998,%edx
4000503e:	8b 45 f0             	mov    -0x10(%ebp),%eax
40005041:	89 44 24 08          	mov    %eax,0x8(%esp)
40005045:	c7 44 24 04 1e f3 00 	movl   $0x4000f31e,0x4(%esp)
4000504c:	40 
4000504d:	89 14 24             	mov    %edx,(%esp)
40005050:	e8 df fa ff ff       	call   40004b34 <fprintf>
40005055:	8b 15 98 29 01 40    	mov    0x40012998,%edx
4000505b:	8b 45 f4             	mov    -0xc(%ebp),%eax
4000505e:	89 44 24 08          	mov    %eax,0x8(%esp)
40005062:	c7 44 24 04 38 f3 00 	movl   $0x4000f338,0x4(%esp)
40005069:	40 
4000506a:	89 14 24             	mov    %edx,(%esp)
4000506d:	e8 c2 fa ff ff       	call   40004b34 <fprintf>
40005072:	c9                   	leave  
40005073:	c3                   	ret    

40005074 <mmap_alloc>:
40005074:	55                   	push   %ebp
40005075:	89 e5                	mov    %esp,%ebp
40005077:	83 ec 28             	sub    $0x28,%esp
4000507a:	a1 88 12 01 40       	mov    0x40011288,%eax
4000507f:	03 45 0c             	add    0xc(%ebp),%eax
40005082:	8d 50 1f             	lea    0x1f(%eax),%edx
40005085:	a1 88 12 01 40       	mov    0x40011288,%eax
4000508a:	f7 d8                	neg    %eax
4000508c:	21 d0                	and    %edx,%eax
4000508e:	89 45 ec             	mov    %eax,-0x14(%ebp)
40005091:	8b 45 ec             	mov    -0x14(%ebp),%eax
40005094:	3b 45 0c             	cmp    0xc(%ebp),%eax
40005097:	0f 86 f1 00 00 00    	jbe    4000518e <mmap_alloc+0x11a>
4000509d:	c7 45 f0 ff ff ff ff 	movl   $0xffffffff,-0x10(%ebp)
400050a4:	83 7d f0 ff          	cmpl   $0xffffffff,-0x10(%ebp)
400050a8:	0f 84 e0 00 00 00    	je     4000518e <mmap_alloc+0x11a>
400050ae:	8b 45 f0             	mov    -0x10(%ebp),%eax
400050b1:	83 c0 08             	add    $0x8,%eax
400050b4:	83 e0 07             	and    $0x7,%eax
400050b7:	85 c0                	test   %eax,%eax
400050b9:	74 1c                	je     400050d7 <mmap_alloc+0x63>
400050bb:	8b 45 f0             	mov    -0x10(%ebp),%eax
400050be:	83 c0 08             	add    $0x8,%eax
400050c1:	89 c2                	mov    %eax,%edx
400050c3:	83 e2 07             	and    $0x7,%edx
400050c6:	b8 08 00 00 00       	mov    $0x8,%eax
400050cb:	29 d0                	sub    %edx,%eax
400050cd:	89 c2                	mov    %eax,%edx
400050cf:	83 e2 07             	and    $0x7,%edx
400050d2:	89 55 d8             	mov    %edx,-0x28(%ebp)
400050d5:	eb 07                	jmp    400050de <mmap_alloc+0x6a>
400050d7:	c7 45 d8 00 00 00 00 	movl   $0x0,-0x28(%ebp)
400050de:	8b 45 d8             	mov    -0x28(%ebp),%eax
400050e1:	89 45 f4             	mov    %eax,-0xc(%ebp)
400050e4:	8b 55 f4             	mov    -0xc(%ebp),%edx
400050e7:	8b 45 ec             	mov    -0x14(%ebp),%eax
400050ea:	29 d0                	sub    %edx,%eax
400050ec:	83 e8 10             	sub    $0x10,%eax
400050ef:	89 45 f8             	mov    %eax,-0x8(%ebp)
400050f2:	8b 45 f0             	mov    -0x10(%ebp),%eax
400050f5:	03 45 f4             	add    -0xc(%ebp),%eax
400050f8:	89 45 fc             	mov    %eax,-0x4(%ebp)
400050fb:	8b 55 fc             	mov    -0x4(%ebp),%edx
400050fe:	8b 45 f4             	mov    -0xc(%ebp),%eax
40005101:	89 02                	mov    %eax,(%edx)
40005103:	8b 45 f8             	mov    -0x8(%ebp),%eax
40005106:	89 c2                	mov    %eax,%edx
40005108:	83 ca 02             	or     $0x2,%edx
4000510b:	8b 45 fc             	mov    -0x4(%ebp),%eax
4000510e:	89 50 04             	mov    %edx,0x4(%eax)
40005111:	8b 55 f8             	mov    -0x8(%ebp),%edx
40005114:	8b 45 fc             	mov    -0x4(%ebp),%eax
40005117:	01 d0                	add    %edx,%eax
40005119:	c7 40 04 07 00 00 00 	movl   $0x7,0x4(%eax)
40005120:	8b 45 f8             	mov    -0x8(%ebp),%eax
40005123:	83 c0 04             	add    $0x4,%eax
40005126:	03 45 fc             	add    -0x4(%ebp),%eax
40005129:	c7 40 04 00 00 00 00 	movl   $0x0,0x4(%eax)
40005130:	8b 45 08             	mov    0x8(%ebp),%eax
40005133:	8b 40 10             	mov    0x10(%eax),%eax
40005136:	3b 45 f0             	cmp    -0x10(%ebp),%eax
40005139:	76 09                	jbe    40005144 <mmap_alloc+0xd0>
4000513b:	8b 55 08             	mov    0x8(%ebp),%edx
4000513e:	8b 45 f0             	mov    -0x10(%ebp),%eax
40005141:	89 42 10             	mov    %eax,0x10(%edx)
40005144:	8b 45 08             	mov    0x8(%ebp),%eax
40005147:	8b 80 ac 01 00 00    	mov    0x1ac(%eax),%eax
4000514d:	89 c2                	mov    %eax,%edx
4000514f:	03 55 ec             	add    -0x14(%ebp),%edx
40005152:	8b 45 08             	mov    0x8(%ebp),%eax
40005155:	89 90 ac 01 00 00    	mov    %edx,0x1ac(%eax)
4000515b:	8b 45 08             	mov    0x8(%ebp),%eax
4000515e:	8b 90 ac 01 00 00    	mov    0x1ac(%eax),%edx
40005164:	8b 45 08             	mov    0x8(%ebp),%eax
40005167:	8b 80 b0 01 00 00    	mov    0x1b0(%eax),%eax
4000516d:	39 c2                	cmp    %eax,%edx
4000516f:	76 12                	jbe    40005183 <mmap_alloc+0x10f>
40005171:	8b 45 08             	mov    0x8(%ebp),%eax
40005174:	8b 90 ac 01 00 00    	mov    0x1ac(%eax),%edx
4000517a:	8b 45 08             	mov    0x8(%ebp),%eax
4000517d:	89 90 b0 01 00 00    	mov    %edx,0x1b0(%eax)
40005183:	8b 45 fc             	mov    -0x4(%ebp),%eax
40005186:	83 c0 08             	add    $0x8,%eax
40005189:	89 45 dc             	mov    %eax,-0x24(%ebp)
4000518c:	eb 07                	jmp    40005195 <mmap_alloc+0x121>
4000518e:	c7 45 dc 00 00 00 00 	movl   $0x0,-0x24(%ebp)
40005195:	8b 45 dc             	mov    -0x24(%ebp),%eax
40005198:	c9                   	leave  
40005199:	c3                   	ret    

4000519a <mmap_resize>:
4000519a:	55                   	push   %ebp
4000519b:	89 e5                	mov    %esp,%ebp
4000519d:	83 ec 24             	sub    $0x24,%esp
400051a0:	8b 45 0c             	mov    0xc(%ebp),%eax
400051a3:	8b 40 04             	mov    0x4(%eax),%eax
400051a6:	83 e0 fc             	and    $0xfffffffc,%eax
400051a9:	89 45 e4             	mov    %eax,-0x1c(%ebp)
400051ac:	8b 45 10             	mov    0x10(%ebp),%eax
400051af:	c1 e8 03             	shr    $0x3,%eax
400051b2:	83 f8 1f             	cmp    $0x1f,%eax
400051b5:	77 0c                	ja     400051c3 <mmap_resize+0x29>
400051b7:	c7 45 dc 00 00 00 00 	movl   $0x0,-0x24(%ebp)
400051be:	e9 17 01 00 00       	jmp    400052da <mmap_resize+0x140>
400051c3:	8b 45 10             	mov    0x10(%ebp),%eax
400051c6:	83 c0 04             	add    $0x4,%eax
400051c9:	3b 45 e4             	cmp    -0x1c(%ebp),%eax
400051cc:	77 22                	ja     400051f0 <mmap_resize+0x56>
400051ce:	8b 55 10             	mov    0x10(%ebp),%edx
400051d1:	8b 45 e4             	mov    -0x1c(%ebp),%eax
400051d4:	89 c1                	mov    %eax,%ecx
400051d6:	29 d1                	sub    %edx,%ecx
400051d8:	89 ca                	mov    %ecx,%edx
400051da:	a1 88 12 01 40       	mov    0x40011288,%eax
400051df:	01 c0                	add    %eax,%eax
400051e1:	39 c2                	cmp    %eax,%edx
400051e3:	77 0b                	ja     400051f0 <mmap_resize+0x56>
400051e5:	8b 45 0c             	mov    0xc(%ebp),%eax
400051e8:	89 45 dc             	mov    %eax,-0x24(%ebp)
400051eb:	e9 ea 00 00 00       	jmp    400052da <mmap_resize+0x140>
400051f0:	8b 45 0c             	mov    0xc(%ebp),%eax
400051f3:	8b 00                	mov    (%eax),%eax
400051f5:	89 45 e8             	mov    %eax,-0x18(%ebp)
400051f8:	8b 55 e8             	mov    -0x18(%ebp),%edx
400051fb:	8b 45 e4             	mov    -0x1c(%ebp),%eax
400051fe:	01 d0                	add    %edx,%eax
40005200:	83 c0 10             	add    $0x10,%eax
40005203:	89 45 ec             	mov    %eax,-0x14(%ebp)
40005206:	a1 88 12 01 40       	mov    0x40011288,%eax
4000520b:	03 45 10             	add    0x10(%ebp),%eax
4000520e:	8d 50 1f             	lea    0x1f(%eax),%edx
40005211:	a1 88 12 01 40       	mov    0x40011288,%eax
40005216:	f7 d8                	neg    %eax
40005218:	21 d0                	and    %edx,%eax
4000521a:	89 45 f0             	mov    %eax,-0x10(%ebp)
4000521d:	c7 45 f4 ff ff ff ff 	movl   $0xffffffff,-0xc(%ebp)
40005224:	83 7d f4 ff          	cmpl   $0xffffffff,-0xc(%ebp)
40005228:	0f 84 a5 00 00 00    	je     400052d3 <mmap_resize+0x139>
4000522e:	8b 45 f4             	mov    -0xc(%ebp),%eax
40005231:	03 45 e8             	add    -0x18(%ebp),%eax
40005234:	89 45 f8             	mov    %eax,-0x8(%ebp)
40005237:	8b 55 e8             	mov    -0x18(%ebp),%edx
4000523a:	8b 45 f0             	mov    -0x10(%ebp),%eax
4000523d:	29 d0                	sub    %edx,%eax
4000523f:	83 e8 10             	sub    $0x10,%eax
40005242:	89 45 fc             	mov    %eax,-0x4(%ebp)
40005245:	8b 45 fc             	mov    -0x4(%ebp),%eax
40005248:	89 c2                	mov    %eax,%edx
4000524a:	83 ca 02             	or     $0x2,%edx
4000524d:	8b 45 f8             	mov    -0x8(%ebp),%eax
40005250:	89 50 04             	mov    %edx,0x4(%eax)
40005253:	8b 55 fc             	mov    -0x4(%ebp),%edx
40005256:	8b 45 f8             	mov    -0x8(%ebp),%eax
40005259:	01 d0                	add    %edx,%eax
4000525b:	c7 40 04 07 00 00 00 	movl   $0x7,0x4(%eax)
40005262:	8b 45 fc             	mov    -0x4(%ebp),%eax
40005265:	83 c0 04             	add    $0x4,%eax
40005268:	03 45 f8             	add    -0x8(%ebp),%eax
4000526b:	c7 40 04 00 00 00 00 	movl   $0x0,0x4(%eax)
40005272:	8b 45 08             	mov    0x8(%ebp),%eax
40005275:	8b 40 10             	mov    0x10(%eax),%eax
40005278:	3b 45 f4             	cmp    -0xc(%ebp),%eax
4000527b:	76 09                	jbe    40005286 <mmap_resize+0xec>
4000527d:	8b 55 08             	mov    0x8(%ebp),%edx
40005280:	8b 45 f4             	mov    -0xc(%ebp),%eax
40005283:	89 42 10             	mov    %eax,0x10(%edx)
40005286:	8b 45 08             	mov    0x8(%ebp),%eax
40005289:	8b 88 ac 01 00 00    	mov    0x1ac(%eax),%ecx
4000528f:	8b 55 ec             	mov    -0x14(%ebp),%edx
40005292:	8b 45 f0             	mov    -0x10(%ebp),%eax
40005295:	29 d0                	sub    %edx,%eax
40005297:	8d 14 01             	lea    (%ecx,%eax,1),%edx
4000529a:	8b 45 08             	mov    0x8(%ebp),%eax
4000529d:	89 90 ac 01 00 00    	mov    %edx,0x1ac(%eax)
400052a3:	8b 45 08             	mov    0x8(%ebp),%eax
400052a6:	8b 90 ac 01 00 00    	mov    0x1ac(%eax),%edx
400052ac:	8b 45 08             	mov    0x8(%ebp),%eax
400052af:	8b 80 b0 01 00 00    	mov    0x1b0(%eax),%eax
400052b5:	39 c2                	cmp    %eax,%edx
400052b7:	76 12                	jbe    400052cb <mmap_resize+0x131>
400052b9:	8b 45 08             	mov    0x8(%ebp),%eax
400052bc:	8b 90 ac 01 00 00    	mov    0x1ac(%eax),%edx
400052c2:	8b 45 08             	mov    0x8(%ebp),%eax
400052c5:	89 90 b0 01 00 00    	mov    %edx,0x1b0(%eax)
400052cb:	8b 4d f8             	mov    -0x8(%ebp),%ecx
400052ce:	89 4d dc             	mov    %ecx,-0x24(%ebp)
400052d1:	eb 07                	jmp    400052da <mmap_resize+0x140>
400052d3:	c7 45 dc 00 00 00 00 	movl   $0x0,-0x24(%ebp)
400052da:	8b 45 dc             	mov    -0x24(%ebp),%eax
400052dd:	c9                   	leave  
400052de:	c3                   	ret    

400052df <init_top>:
400052df:	55                   	push   %ebp
400052e0:	89 e5                	mov    %esp,%ebp
400052e2:	83 ec 14             	sub    $0x14,%esp
400052e5:	8b 45 0c             	mov    0xc(%ebp),%eax
400052e8:	83 c0 08             	add    $0x8,%eax
400052eb:	83 e0 07             	and    $0x7,%eax
400052ee:	85 c0                	test   %eax,%eax
400052f0:	74 1c                	je     4000530e <init_top+0x2f>
400052f2:	8b 45 0c             	mov    0xc(%ebp),%eax
400052f5:	83 c0 08             	add    $0x8,%eax
400052f8:	89 c2                	mov    %eax,%edx
400052fa:	83 e2 07             	and    $0x7,%edx
400052fd:	b8 08 00 00 00       	mov    $0x8,%eax
40005302:	29 d0                	sub    %edx,%eax
40005304:	89 c2                	mov    %eax,%edx
40005306:	83 e2 07             	and    $0x7,%edx
40005309:	89 55 ec             	mov    %edx,-0x14(%ebp)
4000530c:	eb 07                	jmp    40005315 <init_top+0x36>
4000530e:	c7 45 ec 00 00 00 00 	movl   $0x0,-0x14(%ebp)
40005315:	8b 45 ec             	mov    -0x14(%ebp),%eax
40005318:	89 45 fc             	mov    %eax,-0x4(%ebp)
4000531b:	8b 45 fc             	mov    -0x4(%ebp),%eax
4000531e:	01 45 0c             	add    %eax,0xc(%ebp)
40005321:	8b 45 fc             	mov    -0x4(%ebp),%eax
40005324:	29 45 10             	sub    %eax,0x10(%ebp)
40005327:	8b 55 08             	mov    0x8(%ebp),%edx
4000532a:	8b 45 0c             	mov    0xc(%ebp),%eax
4000532d:	89 42 18             	mov    %eax,0x18(%edx)
40005330:	8b 55 08             	mov    0x8(%ebp),%edx
40005333:	8b 45 10             	mov    0x10(%ebp),%eax
40005336:	89 42 0c             	mov    %eax,0xc(%edx)
40005339:	8b 45 10             	mov    0x10(%ebp),%eax
4000533c:	89 c2                	mov    %eax,%edx
4000533e:	83 ca 01             	or     $0x1,%edx
40005341:	8b 45 0c             	mov    0xc(%ebp),%eax
40005344:	89 50 04             	mov    %edx,0x4(%eax)
40005347:	8b 55 10             	mov    0x10(%ebp),%edx
4000534a:	8b 45 0c             	mov    0xc(%ebp),%eax
4000534d:	01 d0                	add    %edx,%eax
4000534f:	c7 40 04 28 00 00 00 	movl   $0x28,0x4(%eax)
40005356:	8b 15 90 12 01 40    	mov    0x40011290,%edx
4000535c:	8b 45 08             	mov    0x8(%ebp),%eax
4000535f:	89 50 1c             	mov    %edx,0x1c(%eax)
40005362:	c9                   	leave  
40005363:	c3                   	ret    

40005364 <init_bins>:
40005364:	55                   	push   %ebp
40005365:	89 e5                	mov    %esp,%ebp
40005367:	83 ec 10             	sub    $0x10,%esp
4000536a:	c7 45 f8 00 00 00 00 	movl   $0x0,-0x8(%ebp)
40005371:	eb 2d                	jmp    400053a0 <init_bins+0x3c>
40005373:	8b 45 08             	mov    0x8(%ebp),%eax
40005376:	83 c0 24             	add    $0x24,%eax
40005379:	89 c2                	mov    %eax,%edx
4000537b:	8b 45 f8             	mov    -0x8(%ebp),%eax
4000537e:	c1 e0 03             	shl    $0x3,%eax
40005381:	8d 04 02             	lea    (%edx,%eax,1),%eax
40005384:	89 45 fc             	mov    %eax,-0x4(%ebp)
40005387:	8b 55 fc             	mov    -0x4(%ebp),%edx
4000538a:	8b 45 fc             	mov    -0x4(%ebp),%eax
4000538d:	89 42 0c             	mov    %eax,0xc(%edx)
40005390:	8b 45 fc             	mov    -0x4(%ebp),%eax
40005393:	8b 50 0c             	mov    0xc(%eax),%edx
40005396:	8b 45 fc             	mov    -0x4(%ebp),%eax
40005399:	89 50 08             	mov    %edx,0x8(%eax)
4000539c:	83 45 f8 01          	addl   $0x1,-0x8(%ebp)
400053a0:	83 7d f8 1f          	cmpl   $0x1f,-0x8(%ebp)
400053a4:	76 cd                	jbe    40005373 <init_bins+0xf>
400053a6:	c9                   	leave  
400053a7:	c3                   	ret    

400053a8 <prepend_alloc>:
400053a8:	55                   	push   %ebp
400053a9:	89 e5                	mov    %esp,%ebp
400053ab:	81 ec 98 00 00 00    	sub    $0x98,%esp
400053b1:	8b 45 0c             	mov    0xc(%ebp),%eax
400053b4:	83 c0 08             	add    $0x8,%eax
400053b7:	83 e0 07             	and    $0x7,%eax
400053ba:	85 c0                	test   %eax,%eax
400053bc:	74 1f                	je     400053dd <prepend_alloc+0x35>
400053be:	8b 45 0c             	mov    0xc(%ebp),%eax
400053c1:	83 c0 08             	add    $0x8,%eax
400053c4:	89 c2                	mov    %eax,%edx
400053c6:	83 e2 07             	and    $0x7,%edx
400053c9:	b8 08 00 00 00       	mov    $0x8,%eax
400053ce:	29 d0                	sub    %edx,%eax
400053d0:	89 c2                	mov    %eax,%edx
400053d2:	83 e2 07             	and    $0x7,%edx
400053d5:	89 95 6c ff ff ff    	mov    %edx,-0x94(%ebp)
400053db:	eb 0a                	jmp    400053e7 <prepend_alloc+0x3f>
400053dd:	c7 85 6c ff ff ff 00 	movl   $0x0,-0x94(%ebp)
400053e4:	00 00 00 
400053e7:	8b 85 6c ff ff ff    	mov    -0x94(%ebp),%eax
400053ed:	03 45 0c             	add    0xc(%ebp),%eax
400053f0:	89 45 80             	mov    %eax,-0x80(%ebp)
400053f3:	8b 45 10             	mov    0x10(%ebp),%eax
400053f6:	83 c0 08             	add    $0x8,%eax
400053f9:	83 e0 07             	and    $0x7,%eax
400053fc:	85 c0                	test   %eax,%eax
400053fe:	74 1f                	je     4000541f <prepend_alloc+0x77>
40005400:	8b 45 10             	mov    0x10(%ebp),%eax
40005403:	83 c0 08             	add    $0x8,%eax
40005406:	89 c2                	mov    %eax,%edx
40005408:	83 e2 07             	and    $0x7,%edx
4000540b:	b8 08 00 00 00       	mov    $0x8,%eax
40005410:	29 d0                	sub    %edx,%eax
40005412:	89 c1                	mov    %eax,%ecx
40005414:	83 e1 07             	and    $0x7,%ecx
40005417:	89 8d 70 ff ff ff    	mov    %ecx,-0x90(%ebp)
4000541d:	eb 0a                	jmp    40005429 <prepend_alloc+0x81>
4000541f:	c7 85 70 ff ff ff 00 	movl   $0x0,-0x90(%ebp)
40005426:	00 00 00 
40005429:	8b 85 70 ff ff ff    	mov    -0x90(%ebp),%eax
4000542f:	03 45 10             	add    0x10(%ebp),%eax
40005432:	89 45 84             	mov    %eax,-0x7c(%ebp)
40005435:	8b 55 84             	mov    -0x7c(%ebp),%edx
40005438:	8b 45 80             	mov    -0x80(%ebp),%eax
4000543b:	89 d1                	mov    %edx,%ecx
4000543d:	29 c1                	sub    %eax,%ecx
4000543f:	89 c8                	mov    %ecx,%eax
40005441:	89 45 88             	mov    %eax,-0x78(%ebp)
40005444:	8b 55 14             	mov    0x14(%ebp),%edx
40005447:	8b 45 80             	mov    -0x80(%ebp),%eax
4000544a:	01 d0                	add    %edx,%eax
4000544c:	89 45 8c             	mov    %eax,-0x74(%ebp)
4000544f:	8b 55 14             	mov    0x14(%ebp),%edx
40005452:	8b 45 88             	mov    -0x78(%ebp),%eax
40005455:	29 d0                	sub    %edx,%eax
40005457:	89 45 90             	mov    %eax,-0x70(%ebp)
4000545a:	8b 45 14             	mov    0x14(%ebp),%eax
4000545d:	89 c2                	mov    %eax,%edx
4000545f:	83 ca 03             	or     $0x3,%edx
40005462:	8b 45 80             	mov    -0x80(%ebp),%eax
40005465:	89 50 04             	mov    %edx,0x4(%eax)
40005468:	8b 45 08             	mov    0x8(%ebp),%eax
4000546b:	8b 40 18             	mov    0x18(%eax),%eax
4000546e:	3b 45 84             	cmp    -0x7c(%ebp),%eax
40005471:	75 36                	jne    400054a9 <prepend_alloc+0x101>
40005473:	8b 45 08             	mov    0x8(%ebp),%eax
40005476:	8b 40 0c             	mov    0xc(%eax),%eax
40005479:	89 c2                	mov    %eax,%edx
4000547b:	03 55 90             	add    -0x70(%ebp),%edx
4000547e:	8b 45 08             	mov    0x8(%ebp),%eax
40005481:	89 50 0c             	mov    %edx,0xc(%eax)
40005484:	8b 45 08             	mov    0x8(%ebp),%eax
40005487:	8b 40 0c             	mov    0xc(%eax),%eax
4000548a:	89 45 94             	mov    %eax,-0x6c(%ebp)
4000548d:	8b 55 08             	mov    0x8(%ebp),%edx
40005490:	8b 45 8c             	mov    -0x74(%ebp),%eax
40005493:	89 42 18             	mov    %eax,0x18(%edx)
40005496:	8b 45 94             	mov    -0x6c(%ebp),%eax
40005499:	89 c2                	mov    %eax,%edx
4000549b:	83 ca 01             	or     $0x1,%edx
4000549e:	8b 45 8c             	mov    -0x74(%ebp),%eax
400054a1:	89 50 04             	mov    %edx,0x4(%eax)
400054a4:	e9 9f 06 00 00       	jmp    40005b48 <prepend_alloc+0x7a0>
400054a9:	8b 45 08             	mov    0x8(%ebp),%eax
400054ac:	8b 40 14             	mov    0x14(%eax),%eax
400054af:	3b 45 84             	cmp    -0x7c(%ebp),%eax
400054b2:	75 44                	jne    400054f8 <prepend_alloc+0x150>
400054b4:	8b 45 08             	mov    0x8(%ebp),%eax
400054b7:	8b 40 08             	mov    0x8(%eax),%eax
400054ba:	89 c2                	mov    %eax,%edx
400054bc:	03 55 90             	add    -0x70(%ebp),%edx
400054bf:	8b 45 08             	mov    0x8(%ebp),%eax
400054c2:	89 50 08             	mov    %edx,0x8(%eax)
400054c5:	8b 45 08             	mov    0x8(%ebp),%eax
400054c8:	8b 40 08             	mov    0x8(%eax),%eax
400054cb:	89 45 98             	mov    %eax,-0x68(%ebp)
400054ce:	8b 55 08             	mov    0x8(%ebp),%edx
400054d1:	8b 45 8c             	mov    -0x74(%ebp),%eax
400054d4:	89 42 14             	mov    %eax,0x14(%edx)
400054d7:	8b 45 98             	mov    -0x68(%ebp),%eax
400054da:	89 c2                	mov    %eax,%edx
400054dc:	83 ca 01             	or     $0x1,%edx
400054df:	8b 45 8c             	mov    -0x74(%ebp),%eax
400054e2:	89 50 04             	mov    %edx,0x4(%eax)
400054e5:	8b 55 98             	mov    -0x68(%ebp),%edx
400054e8:	8b 45 8c             	mov    -0x74(%ebp),%eax
400054eb:	8d 14 10             	lea    (%eax,%edx,1),%edx
400054ee:	8b 45 98             	mov    -0x68(%ebp),%eax
400054f1:	89 02                	mov    %eax,(%edx)
400054f3:	e9 50 06 00 00       	jmp    40005b48 <prepend_alloc+0x7a0>
400054f8:	8b 45 84             	mov    -0x7c(%ebp),%eax
400054fb:	8b 40 04             	mov    0x4(%eax),%eax
400054fe:	83 e0 02             	and    $0x2,%eax
40005501:	85 c0                	test   %eax,%eax
40005503:	0f 85 5b 03 00 00    	jne    40005864 <prepend_alloc+0x4bc>
40005509:	8b 45 84             	mov    -0x7c(%ebp),%eax
4000550c:	8b 40 04             	mov    0x4(%eax),%eax
4000550f:	83 e0 fc             	and    $0xfffffffc,%eax
40005512:	89 45 9c             	mov    %eax,-0x64(%ebp)
40005515:	8b 45 9c             	mov    -0x64(%ebp),%eax
40005518:	c1 e8 03             	shr    $0x3,%eax
4000551b:	83 f8 1f             	cmp    $0x1f,%eax
4000551e:	0f 87 05 01 00 00    	ja     40005629 <prepend_alloc+0x281>
40005524:	8b 45 84             	mov    -0x7c(%ebp),%eax
40005527:	8b 40 08             	mov    0x8(%eax),%eax
4000552a:	89 45 a0             	mov    %eax,-0x60(%ebp)
4000552d:	8b 45 84             	mov    -0x7c(%ebp),%eax
40005530:	8b 40 0c             	mov    0xc(%eax),%eax
40005533:	89 45 a4             	mov    %eax,-0x5c(%ebp)
40005536:	8b 45 9c             	mov    -0x64(%ebp),%eax
40005539:	c1 e8 03             	shr    $0x3,%eax
4000553c:	89 45 a8             	mov    %eax,-0x58(%ebp)
4000553f:	8b 45 a0             	mov    -0x60(%ebp),%eax
40005542:	3b 45 a4             	cmp    -0x5c(%ebp),%eax
40005545:	75 1d                	jne    40005564 <prepend_alloc+0x1bc>
40005547:	8b 45 08             	mov    0x8(%ebp),%eax
4000554a:	8b 10                	mov    (%eax),%edx
4000554c:	8b 4d a8             	mov    -0x58(%ebp),%ecx
4000554f:	b8 01 00 00 00       	mov    $0x1,%eax
40005554:	d3 e0                	shl    %cl,%eax
40005556:	f7 d0                	not    %eax
40005558:	21 c2                	and    %eax,%edx
4000555a:	8b 45 08             	mov    0x8(%ebp),%eax
4000555d:	89 10                	mov    %edx,(%eax)
4000555f:	e9 f4 02 00 00       	jmp    40005858 <prepend_alloc+0x4b0>
40005564:	8b 45 08             	mov    0x8(%ebp),%eax
40005567:	83 c0 24             	add    $0x24,%eax
4000556a:	89 c2                	mov    %eax,%edx
4000556c:	8b 45 a8             	mov    -0x58(%ebp),%eax
4000556f:	c1 e0 03             	shl    $0x3,%eax
40005572:	8d 04 02             	lea    (%edx,%eax,1),%eax
40005575:	3b 45 a0             	cmp    -0x60(%ebp),%eax
40005578:	0f 94 c0             	sete   %al
4000557b:	0f b6 c0             	movzbl %al,%eax
4000557e:	85 c0                	test   %eax,%eax
40005580:	75 15                	jne    40005597 <prepend_alloc+0x1ef>
40005582:	8b 45 08             	mov    0x8(%ebp),%eax
40005585:	8b 50 10             	mov    0x10(%eax),%edx
40005588:	8b 45 a0             	mov    -0x60(%ebp),%eax
4000558b:	39 c2                	cmp    %eax,%edx
4000558d:	0f 96 c0             	setbe  %al
40005590:	0f b6 c0             	movzbl %al,%eax
40005593:	85 c0                	test   %eax,%eax
40005595:	74 0c                	je     400055a3 <prepend_alloc+0x1fb>
40005597:	c7 85 74 ff ff ff 01 	movl   $0x1,-0x8c(%ebp)
4000559e:	00 00 00 
400055a1:	eb 0a                	jmp    400055ad <prepend_alloc+0x205>
400055a3:	c7 85 74 ff ff ff 00 	movl   $0x0,-0x8c(%ebp)
400055aa:	00 00 00 
400055ad:	83 bd 74 ff ff ff 00 	cmpl   $0x0,-0x8c(%ebp)
400055b4:	74 69                	je     4000561f <prepend_alloc+0x277>
400055b6:	8b 45 08             	mov    0x8(%ebp),%eax
400055b9:	83 c0 24             	add    $0x24,%eax
400055bc:	89 c2                	mov    %eax,%edx
400055be:	8b 45 a8             	mov    -0x58(%ebp),%eax
400055c1:	c1 e0 03             	shl    $0x3,%eax
400055c4:	8d 04 02             	lea    (%edx,%eax,1),%eax
400055c7:	3b 45 a4             	cmp    -0x5c(%ebp),%eax
400055ca:	0f 94 c0             	sete   %al
400055cd:	0f b6 c0             	movzbl %al,%eax
400055d0:	85 c0                	test   %eax,%eax
400055d2:	75 15                	jne    400055e9 <prepend_alloc+0x241>
400055d4:	8b 45 08             	mov    0x8(%ebp),%eax
400055d7:	8b 50 10             	mov    0x10(%eax),%edx
400055da:	8b 45 a4             	mov    -0x5c(%ebp),%eax
400055dd:	39 c2                	cmp    %eax,%edx
400055df:	0f 96 c0             	setbe  %al
400055e2:	0f b6 c0             	movzbl %al,%eax
400055e5:	85 c0                	test   %eax,%eax
400055e7:	74 0c                	je     400055f5 <prepend_alloc+0x24d>
400055e9:	c7 85 78 ff ff ff 01 	movl   $0x1,-0x88(%ebp)
400055f0:	00 00 00 
400055f3:	eb 0a                	jmp    400055ff <prepend_alloc+0x257>
400055f5:	c7 85 78 ff ff ff 00 	movl   $0x0,-0x88(%ebp)
400055fc:	00 00 00 
400055ff:	83 bd 78 ff ff ff 00 	cmpl   $0x0,-0x88(%ebp)
40005606:	74 17                	je     4000561f <prepend_alloc+0x277>
40005608:	8b 55 a0             	mov    -0x60(%ebp),%edx
4000560b:	8b 45 a4             	mov    -0x5c(%ebp),%eax
4000560e:	89 42 0c             	mov    %eax,0xc(%edx)
40005611:	8b 55 a4             	mov    -0x5c(%ebp),%edx
40005614:	8b 45 a0             	mov    -0x60(%ebp),%eax
40005617:	89 42 08             	mov    %eax,0x8(%edx)
4000561a:	e9 39 02 00 00       	jmp    40005858 <prepend_alloc+0x4b0>
4000561f:	e8 5c 83 00 00       	call   4000d980 <abort>
40005624:	e9 2f 02 00 00       	jmp    40005858 <prepend_alloc+0x4b0>
40005629:	8b 45 84             	mov    -0x7c(%ebp),%eax
4000562c:	89 45 ac             	mov    %eax,-0x54(%ebp)
4000562f:	8b 45 ac             	mov    -0x54(%ebp),%eax
40005632:	8b 40 18             	mov    0x18(%eax),%eax
40005635:	89 45 b0             	mov    %eax,-0x50(%ebp)
40005638:	8b 45 ac             	mov    -0x54(%ebp),%eax
4000563b:	8b 40 0c             	mov    0xc(%eax),%eax
4000563e:	3b 45 ac             	cmp    -0x54(%ebp),%eax
40005641:	74 48                	je     4000568b <prepend_alloc+0x2e3>
40005643:	8b 45 ac             	mov    -0x54(%ebp),%eax
40005646:	8b 40 08             	mov    0x8(%eax),%eax
40005649:	89 45 b8             	mov    %eax,-0x48(%ebp)
4000564c:	8b 45 ac             	mov    -0x54(%ebp),%eax
4000564f:	8b 40 0c             	mov    0xc(%eax),%eax
40005652:	89 45 b4             	mov    %eax,-0x4c(%ebp)
40005655:	8b 45 08             	mov    0x8(%ebp),%eax
40005658:	8b 50 10             	mov    0x10(%eax),%edx
4000565b:	8b 45 b8             	mov    -0x48(%ebp),%eax
4000565e:	39 c2                	cmp    %eax,%edx
40005660:	0f 96 c0             	setbe  %al
40005663:	0f b6 c0             	movzbl %al,%eax
40005666:	85 c0                	test   %eax,%eax
40005668:	74 17                	je     40005681 <prepend_alloc+0x2d9>
4000566a:	8b 55 b8             	mov    -0x48(%ebp),%edx
4000566d:	8b 45 b4             	mov    -0x4c(%ebp),%eax
40005670:	89 42 0c             	mov    %eax,0xc(%edx)
40005673:	8b 55 b4             	mov    -0x4c(%ebp),%edx
40005676:	8b 45 b8             	mov    -0x48(%ebp),%eax
40005679:	89 42 08             	mov    %eax,0x8(%edx)
4000567c:	e9 91 00 00 00       	jmp    40005712 <prepend_alloc+0x36a>
40005681:	e8 fa 82 00 00       	call   4000d980 <abort>
40005686:	e9 87 00 00 00       	jmp    40005712 <prepend_alloc+0x36a>
4000568b:	8b 45 ac             	mov    -0x54(%ebp),%eax
4000568e:	83 c0 14             	add    $0x14,%eax
40005691:	89 45 bc             	mov    %eax,-0x44(%ebp)
40005694:	8b 45 bc             	mov    -0x44(%ebp),%eax
40005697:	8b 00                	mov    (%eax),%eax
40005699:	89 45 b4             	mov    %eax,-0x4c(%ebp)
4000569c:	83 7d b4 00          	cmpl   $0x0,-0x4c(%ebp)
400056a0:	75 27                	jne    400056c9 <prepend_alloc+0x321>
400056a2:	8b 45 ac             	mov    -0x54(%ebp),%eax
400056a5:	83 c0 10             	add    $0x10,%eax
400056a8:	89 45 bc             	mov    %eax,-0x44(%ebp)
400056ab:	8b 45 bc             	mov    -0x44(%ebp),%eax
400056ae:	8b 00                	mov    (%eax),%eax
400056b0:	89 45 b4             	mov    %eax,-0x4c(%ebp)
400056b3:	83 7d b4 00          	cmpl   $0x0,-0x4c(%ebp)
400056b7:	74 59                	je     40005712 <prepend_alloc+0x36a>
400056b9:	eb 0e                	jmp    400056c9 <prepend_alloc+0x321>
400056bb:	8b 45 c0             	mov    -0x40(%ebp),%eax
400056be:	89 45 bc             	mov    %eax,-0x44(%ebp)
400056c1:	8b 45 bc             	mov    -0x44(%ebp),%eax
400056c4:	8b 00                	mov    (%eax),%eax
400056c6:	89 45 b4             	mov    %eax,-0x4c(%ebp)
400056c9:	8b 45 b4             	mov    -0x4c(%ebp),%eax
400056cc:	83 c0 14             	add    $0x14,%eax
400056cf:	89 45 c0             	mov    %eax,-0x40(%ebp)
400056d2:	8b 45 c0             	mov    -0x40(%ebp),%eax
400056d5:	8b 00                	mov    (%eax),%eax
400056d7:	85 c0                	test   %eax,%eax
400056d9:	75 e0                	jne    400056bb <prepend_alloc+0x313>
400056db:	8b 45 b4             	mov    -0x4c(%ebp),%eax
400056de:	83 c0 10             	add    $0x10,%eax
400056e1:	89 45 c0             	mov    %eax,-0x40(%ebp)
400056e4:	8b 45 c0             	mov    -0x40(%ebp),%eax
400056e7:	8b 00                	mov    (%eax),%eax
400056e9:	85 c0                	test   %eax,%eax
400056eb:	75 ce                	jne    400056bb <prepend_alloc+0x313>
400056ed:	8b 45 08             	mov    0x8(%ebp),%eax
400056f0:	8b 50 10             	mov    0x10(%eax),%edx
400056f3:	8b 45 bc             	mov    -0x44(%ebp),%eax
400056f6:	39 c2                	cmp    %eax,%edx
400056f8:	0f 96 c0             	setbe  %al
400056fb:	0f b6 c0             	movzbl %al,%eax
400056fe:	85 c0                	test   %eax,%eax
40005700:	74 0b                	je     4000570d <prepend_alloc+0x365>
40005702:	8b 45 bc             	mov    -0x44(%ebp),%eax
40005705:	c7 00 00 00 00 00    	movl   $0x0,(%eax)
4000570b:	eb 05                	jmp    40005712 <prepend_alloc+0x36a>
4000570d:	e8 6e 82 00 00       	call   4000d980 <abort>
40005712:	83 7d b0 00          	cmpl   $0x0,-0x50(%ebp)
40005716:	0f 84 3c 01 00 00    	je     40005858 <prepend_alloc+0x4b0>
4000571c:	8b 45 08             	mov    0x8(%ebp),%eax
4000571f:	8d 90 2c 01 00 00    	lea    0x12c(%eax),%edx
40005725:	8b 45 ac             	mov    -0x54(%ebp),%eax
40005728:	8b 40 1c             	mov    0x1c(%eax),%eax
4000572b:	c1 e0 02             	shl    $0x2,%eax
4000572e:	8d 04 02             	lea    (%edx,%eax,1),%eax
40005731:	89 45 c4             	mov    %eax,-0x3c(%ebp)
40005734:	8b 45 c4             	mov    -0x3c(%ebp),%eax
40005737:	8b 00                	mov    (%eax),%eax
40005739:	3b 45 ac             	cmp    -0x54(%ebp),%eax
4000573c:	75 32                	jne    40005770 <prepend_alloc+0x3c8>
4000573e:	8b 55 c4             	mov    -0x3c(%ebp),%edx
40005741:	8b 45 b4             	mov    -0x4c(%ebp),%eax
40005744:	89 02                	mov    %eax,(%edx)
40005746:	8b 45 c4             	mov    -0x3c(%ebp),%eax
40005749:	8b 00                	mov    (%eax),%eax
4000574b:	85 c0                	test   %eax,%eax
4000574d:	75 5c                	jne    400057ab <prepend_alloc+0x403>
4000574f:	8b 45 08             	mov    0x8(%ebp),%eax
40005752:	8b 50 04             	mov    0x4(%eax),%edx
40005755:	8b 45 ac             	mov    -0x54(%ebp),%eax
40005758:	8b 40 1c             	mov    0x1c(%eax),%eax
4000575b:	89 c1                	mov    %eax,%ecx
4000575d:	b8 01 00 00 00       	mov    $0x1,%eax
40005762:	d3 e0                	shl    %cl,%eax
40005764:	f7 d0                	not    %eax
40005766:	21 c2                	and    %eax,%edx
40005768:	8b 45 08             	mov    0x8(%ebp),%eax
4000576b:	89 50 04             	mov    %edx,0x4(%eax)
4000576e:	eb 3b                	jmp    400057ab <prepend_alloc+0x403>
40005770:	8b 45 08             	mov    0x8(%ebp),%eax
40005773:	8b 50 10             	mov    0x10(%eax),%edx
40005776:	8b 45 b0             	mov    -0x50(%ebp),%eax
40005779:	39 c2                	cmp    %eax,%edx
4000577b:	0f 96 c0             	setbe  %al
4000577e:	0f b6 c0             	movzbl %al,%eax
40005781:	85 c0                	test   %eax,%eax
40005783:	74 21                	je     400057a6 <prepend_alloc+0x3fe>
40005785:	8b 45 b0             	mov    -0x50(%ebp),%eax
40005788:	8b 40 10             	mov    0x10(%eax),%eax
4000578b:	3b 45 ac             	cmp    -0x54(%ebp),%eax
4000578e:	75 0b                	jne    4000579b <prepend_alloc+0x3f3>
40005790:	8b 55 b0             	mov    -0x50(%ebp),%edx
40005793:	8b 45 b4             	mov    -0x4c(%ebp),%eax
40005796:	89 42 10             	mov    %eax,0x10(%edx)
40005799:	eb 10                	jmp    400057ab <prepend_alloc+0x403>
4000579b:	8b 55 b0             	mov    -0x50(%ebp),%edx
4000579e:	8b 45 b4             	mov    -0x4c(%ebp),%eax
400057a1:	89 42 14             	mov    %eax,0x14(%edx)
400057a4:	eb 05                	jmp    400057ab <prepend_alloc+0x403>
400057a6:	e8 d5 81 00 00       	call   4000d980 <abort>
400057ab:	83 7d b4 00          	cmpl   $0x0,-0x4c(%ebp)
400057af:	0f 84 a3 00 00 00    	je     40005858 <prepend_alloc+0x4b0>
400057b5:	8b 45 08             	mov    0x8(%ebp),%eax
400057b8:	8b 50 10             	mov    0x10(%eax),%edx
400057bb:	8b 45 b4             	mov    -0x4c(%ebp),%eax
400057be:	39 c2                	cmp    %eax,%edx
400057c0:	0f 96 c0             	setbe  %al
400057c3:	0f b6 c0             	movzbl %al,%eax
400057c6:	85 c0                	test   %eax,%eax
400057c8:	0f 84 85 00 00 00    	je     40005853 <prepend_alloc+0x4ab>
400057ce:	8b 55 b4             	mov    -0x4c(%ebp),%edx
400057d1:	8b 45 b0             	mov    -0x50(%ebp),%eax
400057d4:	89 42 18             	mov    %eax,0x18(%edx)
400057d7:	8b 45 ac             	mov    -0x54(%ebp),%eax
400057da:	8b 40 10             	mov    0x10(%eax),%eax
400057dd:	89 45 c8             	mov    %eax,-0x38(%ebp)
400057e0:	83 7d c8 00          	cmpl   $0x0,-0x38(%ebp)
400057e4:	74 2e                	je     40005814 <prepend_alloc+0x46c>
400057e6:	8b 45 08             	mov    0x8(%ebp),%eax
400057e9:	8b 50 10             	mov    0x10(%eax),%edx
400057ec:	8b 45 c8             	mov    -0x38(%ebp),%eax
400057ef:	39 c2                	cmp    %eax,%edx
400057f1:	0f 96 c0             	setbe  %al
400057f4:	0f b6 c0             	movzbl %al,%eax
400057f7:	85 c0                	test   %eax,%eax
400057f9:	74 14                	je     4000580f <prepend_alloc+0x467>
400057fb:	8b 55 b4             	mov    -0x4c(%ebp),%edx
400057fe:	8b 45 c8             	mov    -0x38(%ebp),%eax
40005801:	89 42 10             	mov    %eax,0x10(%edx)
40005804:	8b 55 c8             	mov    -0x38(%ebp),%edx
40005807:	8b 45 b4             	mov    -0x4c(%ebp),%eax
4000580a:	89 42 18             	mov    %eax,0x18(%edx)
4000580d:	eb 05                	jmp    40005814 <prepend_alloc+0x46c>
4000580f:	e8 6c 81 00 00       	call   4000d980 <abort>
40005814:	8b 45 ac             	mov    -0x54(%ebp),%eax
40005817:	8b 40 14             	mov    0x14(%eax),%eax
4000581a:	89 45 cc             	mov    %eax,-0x34(%ebp)
4000581d:	83 7d cc 00          	cmpl   $0x0,-0x34(%ebp)
40005821:	74 35                	je     40005858 <prepend_alloc+0x4b0>
40005823:	8b 45 08             	mov    0x8(%ebp),%eax
40005826:	8b 50 10             	mov    0x10(%eax),%edx
40005829:	8b 45 cc             	mov    -0x34(%ebp),%eax
4000582c:	39 c2                	cmp    %eax,%edx
4000582e:	0f 96 c0             	setbe  %al
40005831:	0f b6 c0             	movzbl %al,%eax
40005834:	85 c0                	test   %eax,%eax
40005836:	74 14                	je     4000584c <prepend_alloc+0x4a4>
40005838:	8b 55 b4             	mov    -0x4c(%ebp),%edx
4000583b:	8b 45 cc             	mov    -0x34(%ebp),%eax
4000583e:	89 42 14             	mov    %eax,0x14(%edx)
40005841:	8b 55 cc             	mov    -0x34(%ebp),%edx
40005844:	8b 45 b4             	mov    -0x4c(%ebp),%eax
40005847:	89 42 18             	mov    %eax,0x18(%edx)
4000584a:	eb 0c                	jmp    40005858 <prepend_alloc+0x4b0>
4000584c:	e8 2f 81 00 00       	call   4000d980 <abort>
40005851:	eb 05                	jmp    40005858 <prepend_alloc+0x4b0>
40005853:	e8 28 81 00 00       	call   4000d980 <abort>
40005858:	8b 45 9c             	mov    -0x64(%ebp),%eax
4000585b:	01 45 84             	add    %eax,-0x7c(%ebp)
4000585e:	8b 45 9c             	mov    -0x64(%ebp),%eax
40005861:	01 45 90             	add    %eax,-0x70(%ebp)
40005864:	8b 45 84             	mov    -0x7c(%ebp),%eax
40005867:	8b 40 04             	mov    0x4(%eax),%eax
4000586a:	89 c2                	mov    %eax,%edx
4000586c:	83 e2 fe             	and    $0xfffffffe,%edx
4000586f:	8b 45 84             	mov    -0x7c(%ebp),%eax
40005872:	89 50 04             	mov    %edx,0x4(%eax)
40005875:	8b 45 90             	mov    -0x70(%ebp),%eax
40005878:	89 c2                	mov    %eax,%edx
4000587a:	83 ca 01             	or     $0x1,%edx
4000587d:	8b 45 8c             	mov    -0x74(%ebp),%eax
40005880:	89 50 04             	mov    %edx,0x4(%eax)
40005883:	8b 55 90             	mov    -0x70(%ebp),%edx
40005886:	8b 45 8c             	mov    -0x74(%ebp),%eax
40005889:	8d 14 10             	lea    (%eax,%edx,1),%edx
4000588c:	8b 45 90             	mov    -0x70(%ebp),%eax
4000588f:	89 02                	mov    %eax,(%edx)
40005891:	8b 45 90             	mov    -0x70(%ebp),%eax
40005894:	c1 e8 03             	shr    $0x3,%eax
40005897:	83 f8 1f             	cmp    $0x1f,%eax
4000589a:	0f 87 a3 00 00 00    	ja     40005943 <prepend_alloc+0x59b>
400058a0:	8b 45 90             	mov    -0x70(%ebp),%eax
400058a3:	c1 e8 03             	shr    $0x3,%eax
400058a6:	89 45 d0             	mov    %eax,-0x30(%ebp)
400058a9:	8b 45 08             	mov    0x8(%ebp),%eax
400058ac:	83 c0 24             	add    $0x24,%eax
400058af:	89 c2                	mov    %eax,%edx
400058b1:	8b 45 d0             	mov    -0x30(%ebp),%eax
400058b4:	c1 e0 03             	shl    $0x3,%eax
400058b7:	8d 04 02             	lea    (%edx,%eax,1),%eax
400058ba:	89 45 d4             	mov    %eax,-0x2c(%ebp)
400058bd:	8b 45 d4             	mov    -0x2c(%ebp),%eax
400058c0:	89 45 d8             	mov    %eax,-0x28(%ebp)
400058c3:	8b 45 08             	mov    0x8(%ebp),%eax
400058c6:	8b 10                	mov    (%eax),%edx
400058c8:	8b 4d d0             	mov    -0x30(%ebp),%ecx
400058cb:	b8 01 00 00 00       	mov    $0x1,%eax
400058d0:	d3 e0                	shl    %cl,%eax
400058d2:	21 d0                	and    %edx,%eax
400058d4:	85 c0                	test   %eax,%eax
400058d6:	75 18                	jne    400058f0 <prepend_alloc+0x548>
400058d8:	8b 45 08             	mov    0x8(%ebp),%eax
400058db:	8b 10                	mov    (%eax),%edx
400058dd:	8b 4d d0             	mov    -0x30(%ebp),%ecx
400058e0:	b8 01 00 00 00       	mov    $0x1,%eax
400058e5:	d3 e0                	shl    %cl,%eax
400058e7:	09 c2                	or     %eax,%edx
400058e9:	8b 45 08             	mov    0x8(%ebp),%eax
400058ec:	89 10                	mov    %edx,(%eax)
400058ee:	eb 2a                	jmp    4000591a <prepend_alloc+0x572>
400058f0:	8b 45 d4             	mov    -0x2c(%ebp),%eax
400058f3:	8b 40 08             	mov    0x8(%eax),%eax
400058f6:	89 c2                	mov    %eax,%edx
400058f8:	8b 45 08             	mov    0x8(%ebp),%eax
400058fb:	8b 40 10             	mov    0x10(%eax),%eax
400058fe:	39 c2                	cmp    %eax,%edx
40005900:	0f 93 c0             	setae  %al
40005903:	0f b6 c0             	movzbl %al,%eax
40005906:	85 c0                	test   %eax,%eax
40005908:	74 0b                	je     40005915 <prepend_alloc+0x56d>
4000590a:	8b 45 d4             	mov    -0x2c(%ebp),%eax
4000590d:	8b 40 08             	mov    0x8(%eax),%eax
40005910:	89 45 d8             	mov    %eax,-0x28(%ebp)
40005913:	eb 05                	jmp    4000591a <prepend_alloc+0x572>
40005915:	e8 66 80 00 00       	call   4000d980 <abort>
4000591a:	8b 55 d4             	mov    -0x2c(%ebp),%edx
4000591d:	8b 45 8c             	mov    -0x74(%ebp),%eax
40005920:	89 42 08             	mov    %eax,0x8(%edx)
40005923:	8b 55 d8             	mov    -0x28(%ebp),%edx
40005926:	8b 45 8c             	mov    -0x74(%ebp),%eax
40005929:	89 42 0c             	mov    %eax,0xc(%edx)
4000592c:	8b 55 8c             	mov    -0x74(%ebp),%edx
4000592f:	8b 45 d8             	mov    -0x28(%ebp),%eax
40005932:	89 42 08             	mov    %eax,0x8(%edx)
40005935:	8b 55 8c             	mov    -0x74(%ebp),%edx
40005938:	8b 45 d4             	mov    -0x2c(%ebp),%eax
4000593b:	89 42 0c             	mov    %eax,0xc(%edx)
4000593e:	e9 05 02 00 00       	jmp    40005b48 <prepend_alloc+0x7a0>
40005943:	8b 45 8c             	mov    -0x74(%ebp),%eax
40005946:	89 45 dc             	mov    %eax,-0x24(%ebp)
40005949:	8b 45 90             	mov    -0x70(%ebp),%eax
4000594c:	c1 e8 08             	shr    $0x8,%eax
4000594f:	89 45 e8             	mov    %eax,-0x18(%ebp)
40005952:	83 7d e8 00          	cmpl   $0x0,-0x18(%ebp)
40005956:	75 09                	jne    40005961 <prepend_alloc+0x5b9>
40005958:	c7 45 e4 00 00 00 00 	movl   $0x0,-0x1c(%ebp)
4000595f:	eb 35                	jmp    40005996 <prepend_alloc+0x5ee>
40005961:	81 7d e8 ff ff 00 00 	cmpl   $0xffff,-0x18(%ebp)
40005968:	76 09                	jbe    40005973 <prepend_alloc+0x5cb>
4000596a:	c7 45 e4 1f 00 00 00 	movl   $0x1f,-0x1c(%ebp)
40005971:	eb 23                	jmp    40005996 <prepend_alloc+0x5ee>
40005973:	0f bd 45 e8          	bsr    -0x18(%ebp),%eax
40005977:	89 45 ec             	mov    %eax,-0x14(%ebp)
4000597a:	8b 45 ec             	mov    -0x14(%ebp),%eax
4000597d:	8d 14 00             	lea    (%eax,%eax,1),%edx
40005980:	8b 45 ec             	mov    -0x14(%ebp),%eax
40005983:	83 c0 07             	add    $0x7,%eax
40005986:	89 c1                	mov    %eax,%ecx
40005988:	8b 45 90             	mov    -0x70(%ebp),%eax
4000598b:	d3 e8                	shr    %cl,%eax
4000598d:	83 e0 01             	and    $0x1,%eax
40005990:	8d 04 02             	lea    (%edx,%eax,1),%eax
40005993:	89 45 e4             	mov    %eax,-0x1c(%ebp)
40005996:	8b 45 08             	mov    0x8(%ebp),%eax
40005999:	8d 90 2c 01 00 00    	lea    0x12c(%eax),%edx
4000599f:	8b 45 e4             	mov    -0x1c(%ebp),%eax
400059a2:	c1 e0 02             	shl    $0x2,%eax
400059a5:	8d 04 02             	lea    (%edx,%eax,1),%eax
400059a8:	89 45 e0             	mov    %eax,-0x20(%ebp)
400059ab:	8b 55 dc             	mov    -0x24(%ebp),%edx
400059ae:	8b 45 e4             	mov    -0x1c(%ebp),%eax
400059b1:	89 42 1c             	mov    %eax,0x1c(%edx)
400059b4:	8b 45 dc             	mov    -0x24(%ebp),%eax
400059b7:	c7 40 14 00 00 00 00 	movl   $0x0,0x14(%eax)
400059be:	8b 45 dc             	mov    -0x24(%ebp),%eax
400059c1:	8b 50 14             	mov    0x14(%eax),%edx
400059c4:	8b 45 dc             	mov    -0x24(%ebp),%eax
400059c7:	89 50 10             	mov    %edx,0x10(%eax)
400059ca:	8b 45 08             	mov    0x8(%ebp),%eax
400059cd:	8b 50 04             	mov    0x4(%eax),%edx
400059d0:	8b 4d e4             	mov    -0x1c(%ebp),%ecx
400059d3:	b8 01 00 00 00       	mov    $0x1,%eax
400059d8:	d3 e0                	shl    %cl,%eax
400059da:	21 d0                	and    %edx,%eax
400059dc:	85 c0                	test   %eax,%eax
400059de:	75 43                	jne    40005a23 <prepend_alloc+0x67b>
400059e0:	8b 45 08             	mov    0x8(%ebp),%eax
400059e3:	8b 50 04             	mov    0x4(%eax),%edx
400059e6:	8b 4d e4             	mov    -0x1c(%ebp),%ecx
400059e9:	b8 01 00 00 00       	mov    $0x1,%eax
400059ee:	d3 e0                	shl    %cl,%eax
400059f0:	09 c2                	or     %eax,%edx
400059f2:	8b 45 08             	mov    0x8(%ebp),%eax
400059f5:	89 50 04             	mov    %edx,0x4(%eax)
400059f8:	8b 55 e0             	mov    -0x20(%ebp),%edx
400059fb:	8b 45 dc             	mov    -0x24(%ebp),%eax
400059fe:	89 02                	mov    %eax,(%edx)
40005a00:	8b 55 e0             	mov    -0x20(%ebp),%edx
40005a03:	8b 45 dc             	mov    -0x24(%ebp),%eax
40005a06:	89 50 18             	mov    %edx,0x18(%eax)
40005a09:	8b 55 dc             	mov    -0x24(%ebp),%edx
40005a0c:	8b 45 dc             	mov    -0x24(%ebp),%eax
40005a0f:	89 42 0c             	mov    %eax,0xc(%edx)
40005a12:	8b 45 dc             	mov    -0x24(%ebp),%eax
40005a15:	8b 50 0c             	mov    0xc(%eax),%edx
40005a18:	8b 45 dc             	mov    -0x24(%ebp),%eax
40005a1b:	89 50 08             	mov    %edx,0x8(%eax)
40005a1e:	e9 25 01 00 00       	jmp    40005b48 <prepend_alloc+0x7a0>
40005a23:	8b 45 e0             	mov    -0x20(%ebp),%eax
40005a26:	8b 00                	mov    (%eax),%eax
40005a28:	89 45 f0             	mov    %eax,-0x10(%ebp)
40005a2b:	83 7d e4 1f          	cmpl   $0x1f,-0x1c(%ebp)
40005a2f:	74 16                	je     40005a47 <prepend_alloc+0x69f>
40005a31:	8b 45 e4             	mov    -0x1c(%ebp),%eax
40005a34:	89 c2                	mov    %eax,%edx
40005a36:	d1 ea                	shr    %edx
40005a38:	b8 19 00 00 00       	mov    $0x19,%eax
40005a3d:	29 d0                	sub    %edx,%eax
40005a3f:	89 85 7c ff ff ff    	mov    %eax,-0x84(%ebp)
40005a45:	eb 0a                	jmp    40005a51 <prepend_alloc+0x6a9>
40005a47:	c7 85 7c ff ff ff 00 	movl   $0x0,-0x84(%ebp)
40005a4e:	00 00 00 
40005a51:	8b 45 90             	mov    -0x70(%ebp),%eax
40005a54:	0f b6 8d 7c ff ff ff 	movzbl -0x84(%ebp),%ecx
40005a5b:	d3 e0                	shl    %cl,%eax
40005a5d:	89 45 f4             	mov    %eax,-0xc(%ebp)
40005a60:	8b 45 f0             	mov    -0x10(%ebp),%eax
40005a63:	8b 40 04             	mov    0x4(%eax),%eax
40005a66:	83 e0 fc             	and    $0xfffffffc,%eax
40005a69:	3b 45 90             	cmp    -0x70(%ebp),%eax
40005a6c:	74 6f                	je     40005add <prepend_alloc+0x735>
40005a6e:	8b 45 f0             	mov    -0x10(%ebp),%eax
40005a71:	8d 50 10             	lea    0x10(%eax),%edx
40005a74:	8b 45 f4             	mov    -0xc(%ebp),%eax
40005a77:	c1 e8 1f             	shr    $0x1f,%eax
40005a7a:	c1 e0 02             	shl    $0x2,%eax
40005a7d:	8d 04 02             	lea    (%edx,%eax,1),%eax
40005a80:	89 45 f8             	mov    %eax,-0x8(%ebp)
40005a83:	d1 65 f4             	shll   -0xc(%ebp)
40005a86:	8b 45 f8             	mov    -0x8(%ebp),%eax
40005a89:	8b 00                	mov    (%eax),%eax
40005a8b:	85 c0                	test   %eax,%eax
40005a8d:	74 0a                	je     40005a99 <prepend_alloc+0x6f1>
40005a8f:	8b 45 f8             	mov    -0x8(%ebp),%eax
40005a92:	8b 00                	mov    (%eax),%eax
40005a94:	89 45 f0             	mov    %eax,-0x10(%ebp)
40005a97:	eb c7                	jmp    40005a60 <prepend_alloc+0x6b8>
40005a99:	8b 45 08             	mov    0x8(%ebp),%eax
40005a9c:	8b 50 10             	mov    0x10(%eax),%edx
40005a9f:	8b 45 f8             	mov    -0x8(%ebp),%eax
40005aa2:	39 c2                	cmp    %eax,%edx
40005aa4:	0f 96 c0             	setbe  %al
40005aa7:	0f b6 c0             	movzbl %al,%eax
40005aaa:	85 c0                	test   %eax,%eax
40005aac:	74 28                	je     40005ad6 <prepend_alloc+0x72e>
40005aae:	8b 55 f8             	mov    -0x8(%ebp),%edx
40005ab1:	8b 45 dc             	mov    -0x24(%ebp),%eax
40005ab4:	89 02                	mov    %eax,(%edx)
40005ab6:	8b 55 dc             	mov    -0x24(%ebp),%edx
40005ab9:	8b 45 f0             	mov    -0x10(%ebp),%eax
40005abc:	89 42 18             	mov    %eax,0x18(%edx)
40005abf:	8b 55 dc             	mov    -0x24(%ebp),%edx
40005ac2:	8b 45 dc             	mov    -0x24(%ebp),%eax
40005ac5:	89 42 0c             	mov    %eax,0xc(%edx)
40005ac8:	8b 45 dc             	mov    -0x24(%ebp),%eax
40005acb:	8b 50 0c             	mov    0xc(%eax),%edx
40005ace:	8b 45 dc             	mov    -0x24(%ebp),%eax
40005ad1:	89 50 08             	mov    %edx,0x8(%eax)
40005ad4:	eb 72                	jmp    40005b48 <prepend_alloc+0x7a0>
40005ad6:	e8 a5 7e 00 00       	call   4000d980 <abort>
40005adb:	eb 6b                	jmp    40005b48 <prepend_alloc+0x7a0>
40005add:	8b 45 f0             	mov    -0x10(%ebp),%eax
40005ae0:	8b 40 08             	mov    0x8(%eax),%eax
40005ae3:	89 45 fc             	mov    %eax,-0x4(%ebp)
40005ae6:	8b 45 08             	mov    0x8(%ebp),%eax
40005ae9:	8b 50 10             	mov    0x10(%eax),%edx
40005aec:	8b 45 f0             	mov    -0x10(%ebp),%eax
40005aef:	39 c2                	cmp    %eax,%edx
40005af1:	0f 96 c0             	setbe  %al
40005af4:	0f b6 c0             	movzbl %al,%eax
40005af7:	85 c0                	test   %eax,%eax
40005af9:	74 48                	je     40005b43 <prepend_alloc+0x79b>
40005afb:	8b 45 08             	mov    0x8(%ebp),%eax
40005afe:	8b 50 10             	mov    0x10(%eax),%edx
40005b01:	8b 45 fc             	mov    -0x4(%ebp),%eax
40005b04:	39 c2                	cmp    %eax,%edx
40005b06:	0f 96 c0             	setbe  %al
40005b09:	0f b6 c0             	movzbl %al,%eax
40005b0c:	85 c0                	test   %eax,%eax
40005b0e:	74 33                	je     40005b43 <prepend_alloc+0x79b>
40005b10:	8b 55 fc             	mov    -0x4(%ebp),%edx
40005b13:	8b 45 dc             	mov    -0x24(%ebp),%eax
40005b16:	89 42 0c             	mov    %eax,0xc(%edx)
40005b19:	8b 45 fc             	mov    -0x4(%ebp),%eax
40005b1c:	8b 50 0c             	mov    0xc(%eax),%edx
40005b1f:	8b 45 f0             	mov    -0x10(%ebp),%eax
40005b22:	89 50 08             	mov    %edx,0x8(%eax)
40005b25:	8b 55 dc             	mov    -0x24(%ebp),%edx
40005b28:	8b 45 fc             	mov    -0x4(%ebp),%eax
40005b2b:	89 42 08             	mov    %eax,0x8(%edx)
40005b2e:	8b 55 dc             	mov    -0x24(%ebp),%edx
40005b31:	8b 45 f0             	mov    -0x10(%ebp),%eax
40005b34:	89 42 0c             	mov    %eax,0xc(%edx)
40005b37:	8b 45 dc             	mov    -0x24(%ebp),%eax
40005b3a:	c7 40 18 00 00 00 00 	movl   $0x0,0x18(%eax)
40005b41:	eb 05                	jmp    40005b48 <prepend_alloc+0x7a0>
40005b43:	e8 38 7e 00 00       	call   4000d980 <abort>
40005b48:	8b 45 80             	mov    -0x80(%ebp),%eax
40005b4b:	83 c0 08             	add    $0x8,%eax
40005b4e:	c9                   	leave  
40005b4f:	c3                   	ret    

40005b50 <add_segment>:
40005b50:	55                   	push   %ebp
40005b51:	89 e5                	mov    %esp,%ebp
40005b53:	81 ec 98 00 00 00    	sub    $0x98,%esp
40005b59:	8b 45 08             	mov    0x8(%ebp),%eax
40005b5c:	8b 40 18             	mov    0x18(%eax),%eax
40005b5f:	89 45 8c             	mov    %eax,-0x74(%ebp)
40005b62:	8b 45 8c             	mov    -0x74(%ebp),%eax
40005b65:	89 44 24 04          	mov    %eax,0x4(%esp)
40005b69:	8b 45 08             	mov    0x8(%ebp),%eax
40005b6c:	89 04 24             	mov    %eax,(%esp)
40005b6f:	e8 f0 ef ff ff       	call   40004b64 <segment_holding>
40005b74:	89 45 90             	mov    %eax,-0x70(%ebp)
40005b77:	8b 45 90             	mov    -0x70(%ebp),%eax
40005b7a:	8b 10                	mov    (%eax),%edx
40005b7c:	8b 45 90             	mov    -0x70(%ebp),%eax
40005b7f:	8b 40 04             	mov    0x4(%eax),%eax
40005b82:	8d 04 02             	lea    (%edx,%eax,1),%eax
40005b85:	89 45 94             	mov    %eax,-0x6c(%ebp)
40005b88:	c7 45 98 18 00 00 00 	movl   $0x18,-0x68(%ebp)
40005b8f:	b8 e9 ff ff ff       	mov    $0xffffffe9,%eax
40005b94:	2b 45 98             	sub    -0x68(%ebp),%eax
40005b97:	03 45 94             	add    -0x6c(%ebp),%eax
40005b9a:	89 45 9c             	mov    %eax,-0x64(%ebp)
40005b9d:	8b 45 9c             	mov    -0x64(%ebp),%eax
40005ba0:	83 c0 08             	add    $0x8,%eax
40005ba3:	83 e0 07             	and    $0x7,%eax
40005ba6:	85 c0                	test   %eax,%eax
40005ba8:	74 1f                	je     40005bc9 <add_segment+0x79>
40005baa:	8b 45 9c             	mov    -0x64(%ebp),%eax
40005bad:	83 c0 08             	add    $0x8,%eax
40005bb0:	89 c2                	mov    %eax,%edx
40005bb2:	83 e2 07             	and    $0x7,%edx
40005bb5:	b8 08 00 00 00       	mov    $0x8,%eax
40005bba:	29 d0                	sub    %edx,%eax
40005bbc:	89 c2                	mov    %eax,%edx
40005bbe:	83 e2 07             	and    $0x7,%edx
40005bc1:	89 95 74 ff ff ff    	mov    %edx,-0x8c(%ebp)
40005bc7:	eb 0a                	jmp    40005bd3 <add_segment+0x83>
40005bc9:	c7 85 74 ff ff ff 00 	movl   $0x0,-0x8c(%ebp)
40005bd0:	00 00 00 
40005bd3:	8b 8d 74 ff ff ff    	mov    -0x8c(%ebp),%ecx
40005bd9:	89 4d a0             	mov    %ecx,-0x60(%ebp)
40005bdc:	8b 55 a0             	mov    -0x60(%ebp),%edx
40005bdf:	8b 45 9c             	mov    -0x64(%ebp),%eax
40005be2:	01 d0                	add    %edx,%eax
40005be4:	89 45 a4             	mov    %eax,-0x5c(%ebp)
40005be7:	8b 45 8c             	mov    -0x74(%ebp),%eax
40005bea:	83 c0 10             	add    $0x10,%eax
40005bed:	3b 45 a4             	cmp    -0x5c(%ebp),%eax
40005bf0:	76 0b                	jbe    40005bfd <add_segment+0xad>
40005bf2:	8b 45 8c             	mov    -0x74(%ebp),%eax
40005bf5:	89 85 78 ff ff ff    	mov    %eax,-0x88(%ebp)
40005bfb:	eb 09                	jmp    40005c06 <add_segment+0xb6>
40005bfd:	8b 55 a4             	mov    -0x5c(%ebp),%edx
40005c00:	89 95 78 ff ff ff    	mov    %edx,-0x88(%ebp)
40005c06:	8b 8d 78 ff ff ff    	mov    -0x88(%ebp),%ecx
40005c0c:	89 4d a8             	mov    %ecx,-0x58(%ebp)
40005c0f:	8b 45 a8             	mov    -0x58(%ebp),%eax
40005c12:	89 45 ac             	mov    %eax,-0x54(%ebp)
40005c15:	8b 45 ac             	mov    -0x54(%ebp),%eax
40005c18:	83 c0 08             	add    $0x8,%eax
40005c1b:	89 45 b0             	mov    %eax,-0x50(%ebp)
40005c1e:	8b 55 98             	mov    -0x68(%ebp),%edx
40005c21:	8b 45 ac             	mov    -0x54(%ebp),%eax
40005c24:	01 d0                	add    %edx,%eax
40005c26:	89 45 b4             	mov    %eax,-0x4c(%ebp)
40005c29:	8b 45 b4             	mov    -0x4c(%ebp),%eax
40005c2c:	89 45 b8             	mov    %eax,-0x48(%ebp)
40005c2f:	c7 45 bc 00 00 00 00 	movl   $0x0,-0x44(%ebp)
40005c36:	8b 45 10             	mov    0x10(%ebp),%eax
40005c39:	83 e8 28             	sub    $0x28,%eax
40005c3c:	8b 55 0c             	mov    0xc(%ebp),%edx
40005c3f:	89 44 24 08          	mov    %eax,0x8(%esp)
40005c43:	89 54 24 04          	mov    %edx,0x4(%esp)
40005c47:	8b 45 08             	mov    0x8(%ebp),%eax
40005c4a:	89 04 24             	mov    %eax,(%esp)
40005c4d:	e8 8d f6 ff ff       	call   400052df <init_top>
40005c52:	8b 45 98             	mov    -0x68(%ebp),%eax
40005c55:	89 c2                	mov    %eax,%edx
40005c57:	83 ca 03             	or     $0x3,%edx
40005c5a:	8b 45 ac             	mov    -0x54(%ebp),%eax
40005c5d:	89 50 04             	mov    %edx,0x4(%eax)
40005c60:	8b 4d b0             	mov    -0x50(%ebp),%ecx
40005c63:	8b 55 08             	mov    0x8(%ebp),%edx
40005c66:	8b 82 b8 01 00 00    	mov    0x1b8(%edx),%eax
40005c6c:	89 01                	mov    %eax,(%ecx)
40005c6e:	8b 82 bc 01 00 00    	mov    0x1bc(%edx),%eax
40005c74:	89 41 04             	mov    %eax,0x4(%ecx)
40005c77:	8b 82 c0 01 00 00    	mov    0x1c0(%edx),%eax
40005c7d:	89 41 08             	mov    %eax,0x8(%ecx)
40005c80:	8b 82 c4 01 00 00    	mov    0x1c4(%edx),%eax
40005c86:	89 41 0c             	mov    %eax,0xc(%ecx)
40005c89:	8b 55 08             	mov    0x8(%ebp),%edx
40005c8c:	8b 45 0c             	mov    0xc(%ebp),%eax
40005c8f:	89 82 b8 01 00 00    	mov    %eax,0x1b8(%edx)
40005c95:	8b 55 08             	mov    0x8(%ebp),%edx
40005c98:	8b 45 10             	mov    0x10(%ebp),%eax
40005c9b:	89 82 bc 01 00 00    	mov    %eax,0x1bc(%edx)
40005ca1:	8b 55 08             	mov    0x8(%ebp),%edx
40005ca4:	8b 45 14             	mov    0x14(%ebp),%eax
40005ca7:	89 82 c4 01 00 00    	mov    %eax,0x1c4(%edx)
40005cad:	8b 55 08             	mov    0x8(%ebp),%edx
40005cb0:	8b 45 b0             	mov    -0x50(%ebp),%eax
40005cb3:	89 82 c0 01 00 00    	mov    %eax,0x1c0(%edx)
40005cb9:	8b 45 b8             	mov    -0x48(%ebp),%eax
40005cbc:	83 c0 04             	add    $0x4,%eax
40005cbf:	89 45 c0             	mov    %eax,-0x40(%ebp)
40005cc2:	8b 45 b8             	mov    -0x48(%ebp),%eax
40005cc5:	c7 40 04 07 00 00 00 	movl   $0x7,0x4(%eax)
40005ccc:	83 45 bc 01          	addl   $0x1,-0x44(%ebp)
40005cd0:	8b 45 c0             	mov    -0x40(%ebp),%eax
40005cd3:	83 c0 04             	add    $0x4,%eax
40005cd6:	3b 45 94             	cmp    -0x6c(%ebp),%eax
40005cd9:	73 08                	jae    40005ce3 <add_segment+0x193>
40005cdb:	8b 45 c0             	mov    -0x40(%ebp),%eax
40005cde:	89 45 b8             	mov    %eax,-0x48(%ebp)
40005ce1:	eb d6                	jmp    40005cb9 <add_segment+0x169>
40005ce3:	8b 45 a8             	mov    -0x58(%ebp),%eax
40005ce6:	3b 45 8c             	cmp    -0x74(%ebp),%eax
40005ce9:	0f 84 04 03 00 00    	je     40005ff3 <add_segment+0x4a3>
40005cef:	8b 45 8c             	mov    -0x74(%ebp),%eax
40005cf2:	89 45 c4             	mov    %eax,-0x3c(%ebp)
40005cf5:	8b 55 a8             	mov    -0x58(%ebp),%edx
40005cf8:	8b 45 8c             	mov    -0x74(%ebp),%eax
40005cfb:	89 d1                	mov    %edx,%ecx
40005cfd:	29 c1                	sub    %eax,%ecx
40005cff:	89 c8                	mov    %ecx,%eax
40005d01:	89 45 c8             	mov    %eax,-0x38(%ebp)
40005d04:	8b 55 c8             	mov    -0x38(%ebp),%edx
40005d07:	8b 45 c4             	mov    -0x3c(%ebp),%eax
40005d0a:	01 d0                	add    %edx,%eax
40005d0c:	89 45 cc             	mov    %eax,-0x34(%ebp)
40005d0f:	8b 45 cc             	mov    -0x34(%ebp),%eax
40005d12:	8b 40 04             	mov    0x4(%eax),%eax
40005d15:	89 c2                	mov    %eax,%edx
40005d17:	83 e2 fe             	and    $0xfffffffe,%edx
40005d1a:	8b 45 cc             	mov    -0x34(%ebp),%eax
40005d1d:	89 50 04             	mov    %edx,0x4(%eax)
40005d20:	8b 45 c8             	mov    -0x38(%ebp),%eax
40005d23:	89 c2                	mov    %eax,%edx
40005d25:	83 ca 01             	or     $0x1,%edx
40005d28:	8b 45 c4             	mov    -0x3c(%ebp),%eax
40005d2b:	89 50 04             	mov    %edx,0x4(%eax)
40005d2e:	8b 55 c8             	mov    -0x38(%ebp),%edx
40005d31:	8b 45 c4             	mov    -0x3c(%ebp),%eax
40005d34:	8d 14 10             	lea    (%eax,%edx,1),%edx
40005d37:	8b 45 c8             	mov    -0x38(%ebp),%eax
40005d3a:	89 02                	mov    %eax,(%edx)
40005d3c:	8b 45 c8             	mov    -0x38(%ebp),%eax
40005d3f:	c1 e8 03             	shr    $0x3,%eax
40005d42:	83 f8 1f             	cmp    $0x1f,%eax
40005d45:	0f 87 a3 00 00 00    	ja     40005dee <add_segment+0x29e>
40005d4b:	8b 45 c8             	mov    -0x38(%ebp),%eax
40005d4e:	c1 e8 03             	shr    $0x3,%eax
40005d51:	89 45 d0             	mov    %eax,-0x30(%ebp)
40005d54:	8b 45 08             	mov    0x8(%ebp),%eax
40005d57:	83 c0 24             	add    $0x24,%eax
40005d5a:	89 c2                	mov    %eax,%edx
40005d5c:	8b 45 d0             	mov    -0x30(%ebp),%eax
40005d5f:	c1 e0 03             	shl    $0x3,%eax
40005d62:	8d 04 02             	lea    (%edx,%eax,1),%eax
40005d65:	89 45 d4             	mov    %eax,-0x2c(%ebp)
40005d68:	8b 45 d4             	mov    -0x2c(%ebp),%eax
40005d6b:	89 45 d8             	mov    %eax,-0x28(%ebp)
40005d6e:	8b 45 08             	mov    0x8(%ebp),%eax
40005d71:	8b 10                	mov    (%eax),%edx
40005d73:	8b 4d d0             	mov    -0x30(%ebp),%ecx
40005d76:	b8 01 00 00 00       	mov    $0x1,%eax
40005d7b:	d3 e0                	shl    %cl,%eax
40005d7d:	21 d0                	and    %edx,%eax
40005d7f:	85 c0                	test   %eax,%eax
40005d81:	75 18                	jne    40005d9b <add_segment+0x24b>
40005d83:	8b 45 08             	mov    0x8(%ebp),%eax
40005d86:	8b 10                	mov    (%eax),%edx
40005d88:	8b 4d d0             	mov    -0x30(%ebp),%ecx
40005d8b:	b8 01 00 00 00       	mov    $0x1,%eax
40005d90:	d3 e0                	shl    %cl,%eax
40005d92:	09 c2                	or     %eax,%edx
40005d94:	8b 45 08             	mov    0x8(%ebp),%eax
40005d97:	89 10                	mov    %edx,(%eax)
40005d99:	eb 2a                	jmp    40005dc5 <add_segment+0x275>
40005d9b:	8b 45 d4             	mov    -0x2c(%ebp),%eax
40005d9e:	8b 40 08             	mov    0x8(%eax),%eax
40005da1:	89 c2                	mov    %eax,%edx
40005da3:	8b 45 08             	mov    0x8(%ebp),%eax
40005da6:	8b 40 10             	mov    0x10(%eax),%eax
40005da9:	39 c2                	cmp    %eax,%edx
40005dab:	0f 93 c0             	setae  %al
40005dae:	0f b6 c0             	movzbl %al,%eax
40005db1:	85 c0                	test   %eax,%eax
40005db3:	74 0b                	je     40005dc0 <add_segment+0x270>
40005db5:	8b 45 d4             	mov    -0x2c(%ebp),%eax
40005db8:	8b 40 08             	mov    0x8(%eax),%eax
40005dbb:	89 45 d8             	mov    %eax,-0x28(%ebp)
40005dbe:	eb 05                	jmp    40005dc5 <add_segment+0x275>
40005dc0:	e8 bb 7b 00 00       	call   4000d980 <abort>
40005dc5:	8b 55 d4             	mov    -0x2c(%ebp),%edx
40005dc8:	8b 45 c4             	mov    -0x3c(%ebp),%eax
40005dcb:	89 42 08             	mov    %eax,0x8(%edx)
40005dce:	8b 55 d8             	mov    -0x28(%ebp),%edx
40005dd1:	8b 45 c4             	mov    -0x3c(%ebp),%eax
40005dd4:	89 42 0c             	mov    %eax,0xc(%edx)
40005dd7:	8b 55 c4             	mov    -0x3c(%ebp),%edx
40005dda:	8b 45 d8             	mov    -0x28(%ebp),%eax
40005ddd:	89 42 08             	mov    %eax,0x8(%edx)
40005de0:	8b 55 c4             	mov    -0x3c(%ebp),%edx
40005de3:	8b 45 d4             	mov    -0x2c(%ebp),%eax
40005de6:	89 42 0c             	mov    %eax,0xc(%edx)
40005de9:	e9 05 02 00 00       	jmp    40005ff3 <add_segment+0x4a3>
40005dee:	8b 45 c4             	mov    -0x3c(%ebp),%eax
40005df1:	89 45 dc             	mov    %eax,-0x24(%ebp)
40005df4:	8b 45 c8             	mov    -0x38(%ebp),%eax
40005df7:	c1 e8 08             	shr    $0x8,%eax
40005dfa:	89 45 e8             	mov    %eax,-0x18(%ebp)
40005dfd:	83 7d e8 00          	cmpl   $0x0,-0x18(%ebp)
40005e01:	75 09                	jne    40005e0c <add_segment+0x2bc>
40005e03:	c7 45 e4 00 00 00 00 	movl   $0x0,-0x1c(%ebp)
40005e0a:	eb 35                	jmp    40005e41 <add_segment+0x2f1>
40005e0c:	81 7d e8 ff ff 00 00 	cmpl   $0xffff,-0x18(%ebp)
40005e13:	76 09                	jbe    40005e1e <add_segment+0x2ce>
40005e15:	c7 45 e4 1f 00 00 00 	movl   $0x1f,-0x1c(%ebp)
40005e1c:	eb 23                	jmp    40005e41 <add_segment+0x2f1>
40005e1e:	0f bd 45 e8          	bsr    -0x18(%ebp),%eax
40005e22:	89 45 ec             	mov    %eax,-0x14(%ebp)
40005e25:	8b 45 ec             	mov    -0x14(%ebp),%eax
40005e28:	8d 14 00             	lea    (%eax,%eax,1),%edx
40005e2b:	8b 45 ec             	mov    -0x14(%ebp),%eax
40005e2e:	83 c0 07             	add    $0x7,%eax
40005e31:	89 c1                	mov    %eax,%ecx
40005e33:	8b 45 c8             	mov    -0x38(%ebp),%eax
40005e36:	d3 e8                	shr    %cl,%eax
40005e38:	83 e0 01             	and    $0x1,%eax
40005e3b:	8d 04 02             	lea    (%edx,%eax,1),%eax
40005e3e:	89 45 e4             	mov    %eax,-0x1c(%ebp)
40005e41:	8b 45 08             	mov    0x8(%ebp),%eax
40005e44:	8d 90 2c 01 00 00    	lea    0x12c(%eax),%edx
40005e4a:	8b 45 e4             	mov    -0x1c(%ebp),%eax
40005e4d:	c1 e0 02             	shl    $0x2,%eax
40005e50:	8d 04 02             	lea    (%edx,%eax,1),%eax
40005e53:	89 45 e0             	mov    %eax,-0x20(%ebp)
40005e56:	8b 55 dc             	mov    -0x24(%ebp),%edx
40005e59:	8b 45 e4             	mov    -0x1c(%ebp),%eax
40005e5c:	89 42 1c             	mov    %eax,0x1c(%edx)
40005e5f:	8b 45 dc             	mov    -0x24(%ebp),%eax
40005e62:	c7 40 14 00 00 00 00 	movl   $0x0,0x14(%eax)
40005e69:	8b 45 dc             	mov    -0x24(%ebp),%eax
40005e6c:	8b 50 14             	mov    0x14(%eax),%edx
40005e6f:	8b 45 dc             	mov    -0x24(%ebp),%eax
40005e72:	89 50 10             	mov    %edx,0x10(%eax)
40005e75:	8b 45 08             	mov    0x8(%ebp),%eax
40005e78:	8b 50 04             	mov    0x4(%eax),%edx
40005e7b:	8b 4d e4             	mov    -0x1c(%ebp),%ecx
40005e7e:	b8 01 00 00 00       	mov    $0x1,%eax
40005e83:	d3 e0                	shl    %cl,%eax
40005e85:	21 d0                	and    %edx,%eax
40005e87:	85 c0                	test   %eax,%eax
40005e89:	75 43                	jne    40005ece <add_segment+0x37e>
40005e8b:	8b 45 08             	mov    0x8(%ebp),%eax
40005e8e:	8b 50 04             	mov    0x4(%eax),%edx
40005e91:	8b 4d e4             	mov    -0x1c(%ebp),%ecx
40005e94:	b8 01 00 00 00       	mov    $0x1,%eax
40005e99:	d3 e0                	shl    %cl,%eax
40005e9b:	09 c2                	or     %eax,%edx
40005e9d:	8b 45 08             	mov    0x8(%ebp),%eax
40005ea0:	89 50 04             	mov    %edx,0x4(%eax)
40005ea3:	8b 55 e0             	mov    -0x20(%ebp),%edx
40005ea6:	8b 45 dc             	mov    -0x24(%ebp),%eax
40005ea9:	89 02                	mov    %eax,(%edx)
40005eab:	8b 55 e0             	mov    -0x20(%ebp),%edx
40005eae:	8b 45 dc             	mov    -0x24(%ebp),%eax
40005eb1:	89 50 18             	mov    %edx,0x18(%eax)
40005eb4:	8b 55 dc             	mov    -0x24(%ebp),%edx
40005eb7:	8b 45 dc             	mov    -0x24(%ebp),%eax
40005eba:	89 42 0c             	mov    %eax,0xc(%edx)
40005ebd:	8b 45 dc             	mov    -0x24(%ebp),%eax
40005ec0:	8b 50 0c             	mov    0xc(%eax),%edx
40005ec3:	8b 45 dc             	mov    -0x24(%ebp),%eax
40005ec6:	89 50 08             	mov    %edx,0x8(%eax)
40005ec9:	e9 25 01 00 00       	jmp    40005ff3 <add_segment+0x4a3>
40005ece:	8b 45 e0             	mov    -0x20(%ebp),%eax
40005ed1:	8b 00                	mov    (%eax),%eax
40005ed3:	89 45 f0             	mov    %eax,-0x10(%ebp)
40005ed6:	83 7d e4 1f          	cmpl   $0x1f,-0x1c(%ebp)
40005eda:	74 16                	je     40005ef2 <add_segment+0x3a2>
40005edc:	8b 45 e4             	mov    -0x1c(%ebp),%eax
40005edf:	89 c2                	mov    %eax,%edx
40005ee1:	d1 ea                	shr    %edx
40005ee3:	b8 19 00 00 00       	mov    $0x19,%eax
40005ee8:	29 d0                	sub    %edx,%eax
40005eea:	89 85 7c ff ff ff    	mov    %eax,-0x84(%ebp)
40005ef0:	eb 0a                	jmp    40005efc <add_segment+0x3ac>
40005ef2:	c7 85 7c ff ff ff 00 	movl   $0x0,-0x84(%ebp)
40005ef9:	00 00 00 
40005efc:	8b 45 c8             	mov    -0x38(%ebp),%eax
40005eff:	0f b6 8d 7c ff ff ff 	movzbl -0x84(%ebp),%ecx
40005f06:	d3 e0                	shl    %cl,%eax
40005f08:	89 45 f4             	mov    %eax,-0xc(%ebp)
40005f0b:	8b 45 f0             	mov    -0x10(%ebp),%eax
40005f0e:	8b 40 04             	mov    0x4(%eax),%eax
40005f11:	83 e0 fc             	and    $0xfffffffc,%eax
40005f14:	3b 45 c8             	cmp    -0x38(%ebp),%eax
40005f17:	74 6f                	je     40005f88 <add_segment+0x438>
40005f19:	8b 45 f0             	mov    -0x10(%ebp),%eax
40005f1c:	8d 50 10             	lea    0x10(%eax),%edx
40005f1f:	8b 45 f4             	mov    -0xc(%ebp),%eax
40005f22:	c1 e8 1f             	shr    $0x1f,%eax
40005f25:	c1 e0 02             	shl    $0x2,%eax
40005f28:	8d 04 02             	lea    (%edx,%eax,1),%eax
40005f2b:	89 45 f8             	mov    %eax,-0x8(%ebp)
40005f2e:	d1 65 f4             	shll   -0xc(%ebp)
40005f31:	8b 45 f8             	mov    -0x8(%ebp),%eax
40005f34:	8b 00                	mov    (%eax),%eax
40005f36:	85 c0                	test   %eax,%eax
40005f38:	74 0a                	je     40005f44 <add_segment+0x3f4>
40005f3a:	8b 45 f8             	mov    -0x8(%ebp),%eax
40005f3d:	8b 00                	mov    (%eax),%eax
40005f3f:	89 45 f0             	mov    %eax,-0x10(%ebp)
40005f42:	eb c7                	jmp    40005f0b <add_segment+0x3bb>
40005f44:	8b 45 08             	mov    0x8(%ebp),%eax
40005f47:	8b 50 10             	mov    0x10(%eax),%edx
40005f4a:	8b 45 f8             	mov    -0x8(%ebp),%eax
40005f4d:	39 c2                	cmp    %eax,%edx
40005f4f:	0f 96 c0             	setbe  %al
40005f52:	0f b6 c0             	movzbl %al,%eax
40005f55:	85 c0                	test   %eax,%eax
40005f57:	74 28                	je     40005f81 <add_segment+0x431>
40005f59:	8b 55 f8             	mov    -0x8(%ebp),%edx
40005f5c:	8b 45 dc             	mov    -0x24(%ebp),%eax
40005f5f:	89 02                	mov    %eax,(%edx)
40005f61:	8b 55 dc             	mov    -0x24(%ebp),%edx
40005f64:	8b 45 f0             	mov    -0x10(%ebp),%eax
40005f67:	89 42 18             	mov    %eax,0x18(%edx)
40005f6a:	8b 55 dc             	mov    -0x24(%ebp),%edx
40005f6d:	8b 45 dc             	mov    -0x24(%ebp),%eax
40005f70:	89 42 0c             	mov    %eax,0xc(%edx)
40005f73:	8b 45 dc             	mov    -0x24(%ebp),%eax
40005f76:	8b 50 0c             	mov    0xc(%eax),%edx
40005f79:	8b 45 dc             	mov    -0x24(%ebp),%eax
40005f7c:	89 50 08             	mov    %edx,0x8(%eax)
40005f7f:	eb 72                	jmp    40005ff3 <add_segment+0x4a3>
40005f81:	e8 fa 79 00 00       	call   4000d980 <abort>
40005f86:	eb 6b                	jmp    40005ff3 <add_segment+0x4a3>
40005f88:	8b 45 f0             	mov    -0x10(%ebp),%eax
40005f8b:	8b 40 08             	mov    0x8(%eax),%eax
40005f8e:	89 45 fc             	mov    %eax,-0x4(%ebp)
40005f91:	8b 45 08             	mov    0x8(%ebp),%eax
40005f94:	8b 50 10             	mov    0x10(%eax),%edx
40005f97:	8b 45 f0             	mov    -0x10(%ebp),%eax
40005f9a:	39 c2                	cmp    %eax,%edx
40005f9c:	0f 96 c0             	setbe  %al
40005f9f:	0f b6 c0             	movzbl %al,%eax
40005fa2:	85 c0                	test   %eax,%eax
40005fa4:	74 48                	je     40005fee <add_segment+0x49e>
40005fa6:	8b 45 08             	mov    0x8(%ebp),%eax
40005fa9:	8b 50 10             	mov    0x10(%eax),%edx
40005fac:	8b 45 fc             	mov    -0x4(%ebp),%eax
40005faf:	39 c2                	cmp    %eax,%edx
40005fb1:	0f 96 c0             	setbe  %al
40005fb4:	0f b6 c0             	movzbl %al,%eax
40005fb7:	85 c0                	test   %eax,%eax
40005fb9:	74 33                	je     40005fee <add_segment+0x49e>
40005fbb:	8b 55 fc             	mov    -0x4(%ebp),%edx
40005fbe:	8b 45 dc             	mov    -0x24(%ebp),%eax
40005fc1:	89 42 0c             	mov    %eax,0xc(%edx)
40005fc4:	8b 45 fc             	mov    -0x4(%ebp),%eax
40005fc7:	8b 50 0c             	mov    0xc(%eax),%edx
40005fca:	8b 45 f0             	mov    -0x10(%ebp),%eax
40005fcd:	89 50 08             	mov    %edx,0x8(%eax)
40005fd0:	8b 55 dc             	mov    -0x24(%ebp),%edx
40005fd3:	8b 45 fc             	mov    -0x4(%ebp),%eax
40005fd6:	89 42 08             	mov    %eax,0x8(%edx)
40005fd9:	8b 55 dc             	mov    -0x24(%ebp),%edx
40005fdc:	8b 45 f0             	mov    -0x10(%ebp),%eax
40005fdf:	89 42 0c             	mov    %eax,0xc(%edx)
40005fe2:	8b 45 dc             	mov    -0x24(%ebp),%eax
40005fe5:	c7 40 18 00 00 00 00 	movl   $0x0,0x18(%eax)
40005fec:	eb 05                	jmp    40005ff3 <add_segment+0x4a3>
40005fee:	e8 8d 79 00 00       	call   4000d980 <abort>
40005ff3:	c9                   	leave  
40005ff4:	c3                   	ret    

40005ff5 <sys_alloc>:
40005ff5:	55                   	push   %ebp
40005ff6:	89 e5                	mov    %esp,%ebp
40005ff8:	83 ec 68             	sub    $0x68,%esp
40005ffb:	c7 45 b4 ff ff ff ff 	movl   $0xffffffff,-0x4c(%ebp)
40006002:	c7 45 b8 00 00 00 00 	movl   $0x0,-0x48(%ebp)
40006009:	c7 45 bc 00 00 00 00 	movl   $0x0,-0x44(%ebp)
40006010:	e8 f5 eb ff ff       	call   40004c0a <init_mparams>
40006015:	8b 45 08             	mov    0x8(%ebp),%eax
40006018:	8b 80 b4 01 00 00    	mov    0x1b4(%eax),%eax
4000601e:	83 e0 04             	and    $0x4,%eax
40006021:	85 c0                	test   %eax,%eax
40006023:	0f 85 e1 01 00 00    	jne    4000620a <sys_alloc+0x215>
40006029:	c7 45 c0 ff ff ff ff 	movl   $0xffffffff,-0x40(%ebp)
40006030:	8b 45 08             	mov    0x8(%ebp),%eax
40006033:	8b 40 18             	mov    0x18(%eax),%eax
40006036:	85 c0                	test   %eax,%eax
40006038:	74 1a                	je     40006054 <sys_alloc+0x5f>
4000603a:	8b 45 08             	mov    0x8(%ebp),%eax
4000603d:	8b 40 18             	mov    0x18(%eax),%eax
40006040:	89 44 24 04          	mov    %eax,0x4(%esp)
40006044:	8b 45 08             	mov    0x8(%ebp),%eax
40006047:	89 04 24             	mov    %eax,(%esp)
4000604a:	e8 15 eb ff ff       	call   40004b64 <segment_holding>
4000604f:	89 45 ac             	mov    %eax,-0x54(%ebp)
40006052:	eb 07                	jmp    4000605b <sys_alloc+0x66>
40006054:	c7 45 ac 00 00 00 00 	movl   $0x0,-0x54(%ebp)
4000605b:	8b 45 ac             	mov    -0x54(%ebp),%eax
4000605e:	89 45 c4             	mov    %eax,-0x3c(%ebp)
40006061:	c7 45 c8 00 00 00 00 	movl   $0x0,-0x38(%ebp)
40006068:	83 7d c4 00          	cmpl   $0x0,-0x3c(%ebp)
4000606c:	0f 85 91 00 00 00    	jne    40006103 <sys_alloc+0x10e>
40006072:	c7 04 24 00 00 00 00 	movl   $0x0,(%esp)
40006079:	e8 8e 36 00 00       	call   4000970c <sbrk>
4000607e:	89 45 cc             	mov    %eax,-0x34(%ebp)
40006081:	83 7d cc ff          	cmpl   $0xffffffff,-0x34(%ebp)
40006085:	0f 84 d4 00 00 00    	je     4000615f <sys_alloc+0x16a>
4000608b:	a1 88 12 01 40       	mov    0x40011288,%eax
40006090:	03 45 0c             	add    0xc(%ebp),%eax
40006093:	8d 50 29             	lea    0x29(%eax),%edx
40006096:	a1 88 12 01 40       	mov    0x40011288,%eax
4000609b:	f7 d8                	neg    %eax
4000609d:	21 d0                	and    %edx,%eax
4000609f:	89 45 c8             	mov    %eax,-0x38(%ebp)
400060a2:	a1 84 12 01 40       	mov    0x40011284,%eax
400060a7:	8d 50 ff             	lea    -0x1(%eax),%edx
400060aa:	8b 45 cc             	mov    -0x34(%ebp),%eax
400060ad:	21 d0                	and    %edx,%eax
400060af:	85 c0                	test   %eax,%eax
400060b1:	74 1f                	je     400060d2 <sys_alloc+0xdd>
400060b3:	a1 84 12 01 40       	mov    0x40011284,%eax
400060b8:	03 45 cc             	add    -0x34(%ebp),%eax
400060bb:	89 c2                	mov    %eax,%edx
400060bd:	a1 84 12 01 40       	mov    0x40011284,%eax
400060c2:	f7 d8                	neg    %eax
400060c4:	21 c2                	and    %eax,%edx
400060c6:	8b 45 cc             	mov    -0x34(%ebp),%eax
400060c9:	89 d1                	mov    %edx,%ecx
400060cb:	29 c1                	sub    %eax,%ecx
400060cd:	89 c8                	mov    %ecx,%eax
400060cf:	01 45 c8             	add    %eax,-0x38(%ebp)
400060d2:	81 7d c8 fe ff ff 7f 	cmpl   $0x7ffffffe,-0x38(%ebp)
400060d9:	0f 87 80 00 00 00    	ja     4000615f <sys_alloc+0x16a>
400060df:	8b 45 c8             	mov    -0x38(%ebp),%eax
400060e2:	89 04 24             	mov    %eax,(%esp)
400060e5:	e8 22 36 00 00       	call   4000970c <sbrk>
400060ea:	89 45 c0             	mov    %eax,-0x40(%ebp)
400060ed:	8b 45 c0             	mov    -0x40(%ebp),%eax
400060f0:	3b 45 cc             	cmp    -0x34(%ebp),%eax
400060f3:	75 6a                	jne    4000615f <sys_alloc+0x16a>
400060f5:	8b 45 cc             	mov    -0x34(%ebp),%eax
400060f8:	89 45 b4             	mov    %eax,-0x4c(%ebp)
400060fb:	8b 45 c8             	mov    -0x38(%ebp),%eax
400060fe:	89 45 b8             	mov    %eax,-0x48(%ebp)
40006101:	eb 5c                	jmp    4000615f <sys_alloc+0x16a>
40006103:	8b 45 08             	mov    0x8(%ebp),%eax
40006106:	8b 50 0c             	mov    0xc(%eax),%edx
40006109:	8b 45 0c             	mov    0xc(%ebp),%eax
4000610c:	89 c1                	mov    %eax,%ecx
4000610e:	29 d1                	sub    %edx,%ecx
40006110:	89 ca                	mov    %ecx,%edx
40006112:	a1 88 12 01 40       	mov    0x40011288,%eax
40006117:	8d 04 02             	lea    (%edx,%eax,1),%eax
4000611a:	8d 50 29             	lea    0x29(%eax),%edx
4000611d:	a1 88 12 01 40       	mov    0x40011288,%eax
40006122:	f7 d8                	neg    %eax
40006124:	21 d0                	and    %edx,%eax
40006126:	89 45 c8             	mov    %eax,-0x38(%ebp)
40006129:	81 7d c8 fe ff ff 7f 	cmpl   $0x7ffffffe,-0x38(%ebp)
40006130:	77 2d                	ja     4000615f <sys_alloc+0x16a>
40006132:	8b 45 c8             	mov    -0x38(%ebp),%eax
40006135:	89 04 24             	mov    %eax,(%esp)
40006138:	e8 cf 35 00 00       	call   4000970c <sbrk>
4000613d:	89 45 c0             	mov    %eax,-0x40(%ebp)
40006140:	8b 45 c4             	mov    -0x3c(%ebp),%eax
40006143:	8b 10                	mov    (%eax),%edx
40006145:	8b 45 c4             	mov    -0x3c(%ebp),%eax
40006148:	8b 40 04             	mov    0x4(%eax),%eax
4000614b:	8d 04 02             	lea    (%edx,%eax,1),%eax
4000614e:	39 45 c0             	cmp    %eax,-0x40(%ebp)
40006151:	75 0c                	jne    4000615f <sys_alloc+0x16a>
40006153:	8b 45 c0             	mov    -0x40(%ebp),%eax
40006156:	89 45 b4             	mov    %eax,-0x4c(%ebp)
40006159:	8b 45 c8             	mov    -0x38(%ebp),%eax
4000615c:	89 45 b8             	mov    %eax,-0x48(%ebp)
4000615f:	83 7d b4 ff          	cmpl   $0xffffffff,-0x4c(%ebp)
40006163:	0f 85 a1 00 00 00    	jne    4000620a <sys_alloc+0x215>
40006169:	83 7d c0 ff          	cmpl   $0xffffffff,-0x40(%ebp)
4000616d:	74 70                	je     400061df <sys_alloc+0x1ea>
4000616f:	81 7d c8 fe ff ff 7f 	cmpl   $0x7ffffffe,-0x38(%ebp)
40006176:	77 67                	ja     400061df <sys_alloc+0x1ea>
40006178:	8b 45 0c             	mov    0xc(%ebp),%eax
4000617b:	83 c0 29             	add    $0x29,%eax
4000617e:	3b 45 c8             	cmp    -0x38(%ebp),%eax
40006181:	76 5c                	jbe    400061df <sys_alloc+0x1ea>
40006183:	8b 55 c8             	mov    -0x38(%ebp),%edx
40006186:	8b 45 0c             	mov    0xc(%ebp),%eax
40006189:	89 c1                	mov    %eax,%ecx
4000618b:	29 d1                	sub    %edx,%ecx
4000618d:	89 ca                	mov    %ecx,%edx
4000618f:	a1 88 12 01 40       	mov    0x40011288,%eax
40006194:	8d 04 02             	lea    (%edx,%eax,1),%eax
40006197:	8d 50 29             	lea    0x29(%eax),%edx
4000619a:	a1 88 12 01 40       	mov    0x40011288,%eax
4000619f:	f7 d8                	neg    %eax
400061a1:	21 d0                	and    %edx,%eax
400061a3:	89 45 d0             	mov    %eax,-0x30(%ebp)
400061a6:	81 7d d0 fe ff ff 7f 	cmpl   $0x7ffffffe,-0x30(%ebp)
400061ad:	77 30                	ja     400061df <sys_alloc+0x1ea>
400061af:	8b 45 d0             	mov    -0x30(%ebp),%eax
400061b2:	89 04 24             	mov    %eax,(%esp)
400061b5:	e8 52 35 00 00       	call   4000970c <sbrk>
400061ba:	89 45 d4             	mov    %eax,-0x2c(%ebp)
400061bd:	83 7d d4 ff          	cmpl   $0xffffffff,-0x2c(%ebp)
400061c1:	74 08                	je     400061cb <sys_alloc+0x1d6>
400061c3:	8b 45 d0             	mov    -0x30(%ebp),%eax
400061c6:	01 45 c8             	add    %eax,-0x38(%ebp)
400061c9:	eb 14                	jmp    400061df <sys_alloc+0x1ea>
400061cb:	8b 45 c8             	mov    -0x38(%ebp),%eax
400061ce:	f7 d8                	neg    %eax
400061d0:	89 04 24             	mov    %eax,(%esp)
400061d3:	e8 34 35 00 00       	call   4000970c <sbrk>
400061d8:	c7 45 c0 ff ff ff ff 	movl   $0xffffffff,-0x40(%ebp)
400061df:	83 7d c0 ff          	cmpl   $0xffffffff,-0x40(%ebp)
400061e3:	74 0e                	je     400061f3 <sys_alloc+0x1fe>
400061e5:	8b 45 c0             	mov    -0x40(%ebp),%eax
400061e8:	89 45 b4             	mov    %eax,-0x4c(%ebp)
400061eb:	8b 45 c8             	mov    -0x38(%ebp),%eax
400061ee:	89 45 b8             	mov    %eax,-0x48(%ebp)
400061f1:	eb 17                	jmp    4000620a <sys_alloc+0x215>
400061f3:	8b 45 08             	mov    0x8(%ebp),%eax
400061f6:	8b 80 b4 01 00 00    	mov    0x1b4(%eax),%eax
400061fc:	89 c2                	mov    %eax,%edx
400061fe:	83 ca 04             	or     $0x4,%edx
40006201:	8b 45 08             	mov    0x8(%ebp),%eax
40006204:	89 90 b4 01 00 00    	mov    %edx,0x1b4(%eax)
4000620a:	83 7d b4 ff          	cmpl   $0xffffffff,-0x4c(%ebp)
4000620e:	0f 85 85 00 00 00    	jne    40006299 <sys_alloc+0x2a4>
40006214:	a1 88 12 01 40       	mov    0x40011288,%eax
40006219:	03 45 0c             	add    0xc(%ebp),%eax
4000621c:	8d 50 29             	lea    0x29(%eax),%edx
4000621f:	a1 88 12 01 40       	mov    0x40011288,%eax
40006224:	f7 d8                	neg    %eax
40006226:	21 d0                	and    %edx,%eax
40006228:	89 45 d8             	mov    %eax,-0x28(%ebp)
4000622b:	81 7d d8 fe ff ff 7f 	cmpl   $0x7ffffffe,-0x28(%ebp)
40006232:	77 65                	ja     40006299 <sys_alloc+0x2a4>
40006234:	c7 45 dc ff ff ff ff 	movl   $0xffffffff,-0x24(%ebp)
4000623b:	c7 45 e0 ff ff ff ff 	movl   $0xffffffff,-0x20(%ebp)
40006242:	8b 45 d8             	mov    -0x28(%ebp),%eax
40006245:	89 04 24             	mov    %eax,(%esp)
40006248:	e8 bf 34 00 00       	call   4000970c <sbrk>
4000624d:	89 45 dc             	mov    %eax,-0x24(%ebp)
40006250:	c7 04 24 00 00 00 00 	movl   $0x0,(%esp)
40006257:	e8 b0 34 00 00       	call   4000970c <sbrk>
4000625c:	89 45 e0             	mov    %eax,-0x20(%ebp)
4000625f:	83 7d dc ff          	cmpl   $0xffffffff,-0x24(%ebp)
40006263:	74 34                	je     40006299 <sys_alloc+0x2a4>
40006265:	83 7d e0 ff          	cmpl   $0xffffffff,-0x20(%ebp)
40006269:	74 2e                	je     40006299 <sys_alloc+0x2a4>
4000626b:	8b 45 dc             	mov    -0x24(%ebp),%eax
4000626e:	3b 45 e0             	cmp    -0x20(%ebp),%eax
40006271:	73 26                	jae    40006299 <sys_alloc+0x2a4>
40006273:	8b 55 e0             	mov    -0x20(%ebp),%edx
40006276:	8b 45 dc             	mov    -0x24(%ebp),%eax
40006279:	89 d1                	mov    %edx,%ecx
4000627b:	29 c1                	sub    %eax,%ecx
4000627d:	89 c8                	mov    %ecx,%eax
4000627f:	89 45 e4             	mov    %eax,-0x1c(%ebp)
40006282:	8b 45 0c             	mov    0xc(%ebp),%eax
40006285:	83 c0 28             	add    $0x28,%eax
40006288:	3b 45 e4             	cmp    -0x1c(%ebp),%eax
4000628b:	73 0c                	jae    40006299 <sys_alloc+0x2a4>
4000628d:	8b 45 dc             	mov    -0x24(%ebp),%eax
40006290:	89 45 b4             	mov    %eax,-0x4c(%ebp)
40006293:	8b 45 e4             	mov    -0x1c(%ebp),%eax
40006296:	89 45 b8             	mov    %eax,-0x48(%ebp)
40006299:	83 7d b4 ff          	cmpl   $0xffffffff,-0x4c(%ebp)
4000629d:	0f 84 e4 02 00 00    	je     40006587 <sys_alloc+0x592>
400062a3:	8b 45 08             	mov    0x8(%ebp),%eax
400062a6:	8b 80 ac 01 00 00    	mov    0x1ac(%eax),%eax
400062ac:	89 c2                	mov    %eax,%edx
400062ae:	03 55 b8             	add    -0x48(%ebp),%edx
400062b1:	8b 45 08             	mov    0x8(%ebp),%eax
400062b4:	89 90 ac 01 00 00    	mov    %edx,0x1ac(%eax)
400062ba:	8b 45 08             	mov    0x8(%ebp),%eax
400062bd:	8b 90 ac 01 00 00    	mov    0x1ac(%eax),%edx
400062c3:	8b 45 08             	mov    0x8(%ebp),%eax
400062c6:	8b 80 b0 01 00 00    	mov    0x1b0(%eax),%eax
400062cc:	39 c2                	cmp    %eax,%edx
400062ce:	76 12                	jbe    400062e2 <sys_alloc+0x2ed>
400062d0:	8b 45 08             	mov    0x8(%ebp),%eax
400062d3:	8b 90 ac 01 00 00    	mov    0x1ac(%eax),%edx
400062d9:	8b 45 08             	mov    0x8(%ebp),%eax
400062dc:	89 90 b0 01 00 00    	mov    %edx,0x1b0(%eax)
400062e2:	8b 45 08             	mov    0x8(%ebp),%eax
400062e5:	8b 40 18             	mov    0x18(%eax),%eax
400062e8:	85 c0                	test   %eax,%eax
400062ea:	0f 85 ba 00 00 00    	jne    400063aa <sys_alloc+0x3b5>
400062f0:	8b 55 08             	mov    0x8(%ebp),%edx
400062f3:	8b 45 b4             	mov    -0x4c(%ebp),%eax
400062f6:	89 42 10             	mov    %eax,0x10(%edx)
400062f9:	8b 45 08             	mov    0x8(%ebp),%eax
400062fc:	8b 50 10             	mov    0x10(%eax),%edx
400062ff:	8b 45 08             	mov    0x8(%ebp),%eax
40006302:	89 90 b8 01 00 00    	mov    %edx,0x1b8(%eax)
40006308:	8b 55 08             	mov    0x8(%ebp),%edx
4000630b:	8b 45 b8             	mov    -0x48(%ebp),%eax
4000630e:	89 82 bc 01 00 00    	mov    %eax,0x1bc(%edx)
40006314:	8b 55 08             	mov    0x8(%ebp),%edx
40006317:	8b 45 bc             	mov    -0x44(%ebp),%eax
4000631a:	89 82 c4 01 00 00    	mov    %eax,0x1c4(%edx)
40006320:	8b 15 80 12 01 40    	mov    0x40011280,%edx
40006326:	8b 45 08             	mov    0x8(%ebp),%eax
40006329:	89 50 20             	mov    %edx,0x20(%eax)
4000632c:	8b 45 08             	mov    0x8(%ebp),%eax
4000632f:	89 04 24             	mov    %eax,(%esp)
40006332:	e8 2d f0 ff ff       	call   40005364 <init_bins>
40006337:	81 7d 08 a0 12 01 40 	cmpl   $0x400112a0,0x8(%ebp)
4000633e:	75 21                	jne    40006361 <sys_alloc+0x36c>
40006340:	8b 45 b8             	mov    -0x48(%ebp),%eax
40006343:	83 e8 28             	sub    $0x28,%eax
40006346:	8b 55 b4             	mov    -0x4c(%ebp),%edx
40006349:	89 44 24 08          	mov    %eax,0x8(%esp)
4000634d:	89 54 24 04          	mov    %edx,0x4(%esp)
40006351:	8b 45 08             	mov    0x8(%ebp),%eax
40006354:	89 04 24             	mov    %eax,(%esp)
40006357:	e8 83 ef ff ff       	call   400052df <init_top>
4000635c:	e9 b9 01 00 00       	jmp    4000651a <sys_alloc+0x525>
40006361:	8b 55 08             	mov    0x8(%ebp),%edx
40006364:	8b 45 08             	mov    0x8(%ebp),%eax
40006367:	83 e8 08             	sub    $0x8,%eax
4000636a:	8b 40 04             	mov    0x4(%eax),%eax
4000636d:	83 e0 fc             	and    $0xfffffffc,%eax
40006370:	83 e8 08             	sub    $0x8,%eax
40006373:	8d 04 02             	lea    (%edx,%eax,1),%eax
40006376:	89 45 e8             	mov    %eax,-0x18(%ebp)
40006379:	8b 55 b8             	mov    -0x48(%ebp),%edx
4000637c:	8b 45 b4             	mov    -0x4c(%ebp),%eax
4000637f:	01 d0                	add    %edx,%eax
40006381:	89 c2                	mov    %eax,%edx
40006383:	8b 45 e8             	mov    -0x18(%ebp),%eax
40006386:	89 d1                	mov    %edx,%ecx
40006388:	29 c1                	sub    %eax,%ecx
4000638a:	89 c8                	mov    %ecx,%eax
4000638c:	83 e8 28             	sub    $0x28,%eax
4000638f:	89 44 24 08          	mov    %eax,0x8(%esp)
40006393:	8b 45 e8             	mov    -0x18(%ebp),%eax
40006396:	89 44 24 04          	mov    %eax,0x4(%esp)
4000639a:	8b 45 08             	mov    0x8(%ebp),%eax
4000639d:	89 04 24             	mov    %eax,(%esp)
400063a0:	e8 3a ef ff ff       	call   400052df <init_top>
400063a5:	e9 70 01 00 00       	jmp    4000651a <sys_alloc+0x525>
400063aa:	8b 45 08             	mov    0x8(%ebp),%eax
400063ad:	05 b8 01 00 00       	add    $0x1b8,%eax
400063b2:	89 45 ec             	mov    %eax,-0x14(%ebp)
400063b5:	eb 09                	jmp    400063c0 <sys_alloc+0x3cb>
400063b7:	8b 45 ec             	mov    -0x14(%ebp),%eax
400063ba:	8b 40 08             	mov    0x8(%eax),%eax
400063bd:	89 45 ec             	mov    %eax,-0x14(%ebp)
400063c0:	83 7d ec 00          	cmpl   $0x0,-0x14(%ebp)
400063c4:	74 13                	je     400063d9 <sys_alloc+0x3e4>
400063c6:	8b 45 ec             	mov    -0x14(%ebp),%eax
400063c9:	8b 10                	mov    (%eax),%edx
400063cb:	8b 45 ec             	mov    -0x14(%ebp),%eax
400063ce:	8b 40 04             	mov    0x4(%eax),%eax
400063d1:	8d 04 02             	lea    (%edx,%eax,1),%eax
400063d4:	3b 45 b4             	cmp    -0x4c(%ebp),%eax
400063d7:	75 de                	jne    400063b7 <sys_alloc+0x3c2>
400063d9:	83 7d ec 00          	cmpl   $0x0,-0x14(%ebp)
400063dd:	74 78                	je     40006457 <sys_alloc+0x462>
400063df:	8b 45 ec             	mov    -0x14(%ebp),%eax
400063e2:	8b 40 0c             	mov    0xc(%eax),%eax
400063e5:	83 e0 08             	and    $0x8,%eax
400063e8:	85 c0                	test   %eax,%eax
400063ea:	75 6b                	jne    40006457 <sys_alloc+0x462>
400063ec:	83 7d bc 00          	cmpl   $0x0,-0x44(%ebp)
400063f0:	75 65                	jne    40006457 <sys_alloc+0x462>
400063f2:	8b 45 08             	mov    0x8(%ebp),%eax
400063f5:	8b 40 18             	mov    0x18(%eax),%eax
400063f8:	89 c2                	mov    %eax,%edx
400063fa:	8b 45 ec             	mov    -0x14(%ebp),%eax
400063fd:	8b 00                	mov    (%eax),%eax
400063ff:	39 c2                	cmp    %eax,%edx
40006401:	72 54                	jb     40006457 <sys_alloc+0x462>
40006403:	8b 45 08             	mov    0x8(%ebp),%eax
40006406:	8b 40 18             	mov    0x18(%eax),%eax
40006409:	89 c1                	mov    %eax,%ecx
4000640b:	8b 45 ec             	mov    -0x14(%ebp),%eax
4000640e:	8b 10                	mov    (%eax),%edx
40006410:	8b 45 ec             	mov    -0x14(%ebp),%eax
40006413:	8b 40 04             	mov    0x4(%eax),%eax
40006416:	8d 04 02             	lea    (%edx,%eax,1),%eax
40006419:	39 c1                	cmp    %eax,%ecx
4000641b:	73 3a                	jae    40006457 <sys_alloc+0x462>
4000641d:	8b 45 ec             	mov    -0x14(%ebp),%eax
40006420:	8b 40 04             	mov    0x4(%eax),%eax
40006423:	89 c2                	mov    %eax,%edx
40006425:	03 55 b8             	add    -0x48(%ebp),%edx
40006428:	8b 45 ec             	mov    -0x14(%ebp),%eax
4000642b:	89 50 04             	mov    %edx,0x4(%eax)
4000642e:	8b 45 08             	mov    0x8(%ebp),%eax
40006431:	8b 40 0c             	mov    0xc(%eax),%eax
40006434:	89 c2                	mov    %eax,%edx
40006436:	03 55 b8             	add    -0x48(%ebp),%edx
40006439:	8b 45 08             	mov    0x8(%ebp),%eax
4000643c:	8b 40 18             	mov    0x18(%eax),%eax
4000643f:	89 54 24 08          	mov    %edx,0x8(%esp)
40006443:	89 44 24 04          	mov    %eax,0x4(%esp)
40006447:	8b 45 08             	mov    0x8(%ebp),%eax
4000644a:	89 04 24             	mov    %eax,(%esp)
4000644d:	e8 8d ee ff ff       	call   400052df <init_top>
40006452:	e9 c3 00 00 00       	jmp    4000651a <sys_alloc+0x525>
40006457:	8b 45 08             	mov    0x8(%ebp),%eax
4000645a:	8b 40 10             	mov    0x10(%eax),%eax
4000645d:	3b 45 b4             	cmp    -0x4c(%ebp),%eax
40006460:	76 09                	jbe    4000646b <sys_alloc+0x476>
40006462:	8b 55 08             	mov    0x8(%ebp),%edx
40006465:	8b 45 b4             	mov    -0x4c(%ebp),%eax
40006468:	89 42 10             	mov    %eax,0x10(%edx)
4000646b:	8b 45 08             	mov    0x8(%ebp),%eax
4000646e:	05 b8 01 00 00       	add    $0x1b8,%eax
40006473:	89 45 ec             	mov    %eax,-0x14(%ebp)
40006476:	eb 09                	jmp    40006481 <sys_alloc+0x48c>
40006478:	8b 45 ec             	mov    -0x14(%ebp),%eax
4000647b:	8b 40 08             	mov    0x8(%eax),%eax
4000647e:	89 45 ec             	mov    %eax,-0x14(%ebp)
40006481:	83 7d ec 00          	cmpl   $0x0,-0x14(%ebp)
40006485:	74 11                	je     40006498 <sys_alloc+0x4a3>
40006487:	8b 45 ec             	mov    -0x14(%ebp),%eax
4000648a:	8b 08                	mov    (%eax),%ecx
4000648c:	8b 55 b8             	mov    -0x48(%ebp),%edx
4000648f:	8b 45 b4             	mov    -0x4c(%ebp),%eax
40006492:	01 d0                	add    %edx,%eax
40006494:	39 c1                	cmp    %eax,%ecx
40006496:	75 e0                	jne    40006478 <sys_alloc+0x483>
40006498:	83 7d ec 00          	cmpl   $0x0,-0x14(%ebp)
4000649c:	74 5c                	je     400064fa <sys_alloc+0x505>
4000649e:	8b 45 ec             	mov    -0x14(%ebp),%eax
400064a1:	8b 40 0c             	mov    0xc(%eax),%eax
400064a4:	83 e0 08             	and    $0x8,%eax
400064a7:	85 c0                	test   %eax,%eax
400064a9:	75 4f                	jne    400064fa <sys_alloc+0x505>
400064ab:	83 7d bc 00          	cmpl   $0x0,-0x44(%ebp)
400064af:	75 49                	jne    400064fa <sys_alloc+0x505>
400064b1:	8b 45 ec             	mov    -0x14(%ebp),%eax
400064b4:	8b 00                	mov    (%eax),%eax
400064b6:	89 45 f0             	mov    %eax,-0x10(%ebp)
400064b9:	8b 55 ec             	mov    -0x14(%ebp),%edx
400064bc:	8b 45 b4             	mov    -0x4c(%ebp),%eax
400064bf:	89 02                	mov    %eax,(%edx)
400064c1:	8b 45 ec             	mov    -0x14(%ebp),%eax
400064c4:	8b 40 04             	mov    0x4(%eax),%eax
400064c7:	89 c2                	mov    %eax,%edx
400064c9:	03 55 b8             	add    -0x48(%ebp),%edx
400064cc:	8b 45 ec             	mov    -0x14(%ebp),%eax
400064cf:	89 50 04             	mov    %edx,0x4(%eax)
400064d2:	8b 45 0c             	mov    0xc(%ebp),%eax
400064d5:	89 44 24 0c          	mov    %eax,0xc(%esp)
400064d9:	8b 45 f0             	mov    -0x10(%ebp),%eax
400064dc:	89 44 24 08          	mov    %eax,0x8(%esp)
400064e0:	8b 45 b4             	mov    -0x4c(%ebp),%eax
400064e3:	89 44 24 04          	mov    %eax,0x4(%esp)
400064e7:	8b 45 08             	mov    0x8(%ebp),%eax
400064ea:	89 04 24             	mov    %eax,(%esp)
400064ed:	e8 b6 ee ff ff       	call   400053a8 <prepend_alloc>
400064f2:	89 45 a8             	mov    %eax,-0x58(%ebp)
400064f5:	e9 9e 00 00 00       	jmp    40006598 <sys_alloc+0x5a3>
400064fa:	8b 45 bc             	mov    -0x44(%ebp),%eax
400064fd:	89 44 24 0c          	mov    %eax,0xc(%esp)
40006501:	8b 45 b8             	mov    -0x48(%ebp),%eax
40006504:	89 44 24 08          	mov    %eax,0x8(%esp)
40006508:	8b 45 b4             	mov    -0x4c(%ebp),%eax
4000650b:	89 44 24 04          	mov    %eax,0x4(%esp)
4000650f:	8b 45 08             	mov    0x8(%ebp),%eax
40006512:	89 04 24             	mov    %eax,(%esp)
40006515:	e8 36 f6 ff ff       	call   40005b50 <add_segment>
4000651a:	8b 45 08             	mov    0x8(%ebp),%eax
4000651d:	8b 40 0c             	mov    0xc(%eax),%eax
40006520:	3b 45 0c             	cmp    0xc(%ebp),%eax
40006523:	76 62                	jbe    40006587 <sys_alloc+0x592>
40006525:	8b 45 08             	mov    0x8(%ebp),%eax
40006528:	8b 40 0c             	mov    0xc(%eax),%eax
4000652b:	89 c2                	mov    %eax,%edx
4000652d:	2b 55 0c             	sub    0xc(%ebp),%edx
40006530:	8b 45 08             	mov    0x8(%ebp),%eax
40006533:	89 50 0c             	mov    %edx,0xc(%eax)
40006536:	8b 45 08             	mov    0x8(%ebp),%eax
40006539:	8b 40 0c             	mov    0xc(%eax),%eax
4000653c:	89 45 f4             	mov    %eax,-0xc(%ebp)
4000653f:	8b 45 08             	mov    0x8(%ebp),%eax
40006542:	8b 40 18             	mov    0x18(%eax),%eax
40006545:	89 45 f8             	mov    %eax,-0x8(%ebp)
40006548:	8b 55 0c             	mov    0xc(%ebp),%edx
4000654b:	8b 45 f8             	mov    -0x8(%ebp),%eax
4000654e:	8d 14 10             	lea    (%eax,%edx,1),%edx
40006551:	8b 45 08             	mov    0x8(%ebp),%eax
40006554:	89 50 18             	mov    %edx,0x18(%eax)
40006557:	8b 45 08             	mov    0x8(%ebp),%eax
4000655a:	8b 40 18             	mov    0x18(%eax),%eax
4000655d:	89 45 fc             	mov    %eax,-0x4(%ebp)
40006560:	8b 45 f4             	mov    -0xc(%ebp),%eax
40006563:	89 c2                	mov    %eax,%edx
40006565:	83 ca 01             	or     $0x1,%edx
40006568:	8b 45 fc             	mov    -0x4(%ebp),%eax
4000656b:	89 50 04             	mov    %edx,0x4(%eax)
4000656e:	8b 45 0c             	mov    0xc(%ebp),%eax
40006571:	89 c2                	mov    %eax,%edx
40006573:	83 ca 03             	or     $0x3,%edx
40006576:	8b 45 f8             	mov    -0x8(%ebp),%eax
40006579:	89 50 04             	mov    %edx,0x4(%eax)
4000657c:	8b 45 f8             	mov    -0x8(%ebp),%eax
4000657f:	83 c0 08             	add    $0x8,%eax
40006582:	89 45 a8             	mov    %eax,-0x58(%ebp)
40006585:	eb 11                	jmp    40006598 <sys_alloc+0x5a3>
40006587:	c7 05 44 29 01 40 31 	movl   $0x31,0x40012944
4000658e:	00 00 00 
40006591:	c7 45 a8 00 00 00 00 	movl   $0x0,-0x58(%ebp)
40006598:	8b 45 a8             	mov    -0x58(%ebp),%eax
4000659b:	c9                   	leave  
4000659c:	c3                   	ret    

4000659d <release_unused_segments>:
4000659d:	55                   	push   %ebp
4000659e:	89 e5                	mov    %esp,%ebp
400065a0:	83 ec 70             	sub    $0x70,%esp
400065a3:	c7 45 9c 00 00 00 00 	movl   $0x0,-0x64(%ebp)
400065aa:	8b 45 08             	mov    0x8(%ebp),%eax
400065ad:	05 b8 01 00 00       	add    $0x1b8,%eax
400065b2:	89 45 a0             	mov    %eax,-0x60(%ebp)
400065b5:	8b 45 a0             	mov    -0x60(%ebp),%eax
400065b8:	8b 40 08             	mov    0x8(%eax),%eax
400065bb:	89 45 a4             	mov    %eax,-0x5c(%ebp)
400065be:	eb 26                	jmp    400065e6 <release_unused_segments+0x49>
400065c0:	8b 45 a4             	mov    -0x5c(%ebp),%eax
400065c3:	8b 00                	mov    (%eax),%eax
400065c5:	89 45 a8             	mov    %eax,-0x58(%ebp)
400065c8:	8b 45 a4             	mov    -0x5c(%ebp),%eax
400065cb:	8b 40 04             	mov    0x4(%eax),%eax
400065ce:	89 45 ac             	mov    %eax,-0x54(%ebp)
400065d1:	8b 45 a4             	mov    -0x5c(%ebp),%eax
400065d4:	8b 40 08             	mov    0x8(%eax),%eax
400065d7:	89 45 b0             	mov    %eax,-0x50(%ebp)
400065da:	8b 45 a4             	mov    -0x5c(%ebp),%eax
400065dd:	89 45 a0             	mov    %eax,-0x60(%ebp)
400065e0:	8b 45 b0             	mov    -0x50(%ebp),%eax
400065e3:	89 45 a4             	mov    %eax,-0x5c(%ebp)
400065e6:	83 7d a4 00          	cmpl   $0x0,-0x5c(%ebp)
400065ea:	75 d4                	jne    400065c0 <release_unused_segments+0x23>
400065ec:	8b 45 9c             	mov    -0x64(%ebp),%eax
400065ef:	c9                   	leave  
400065f0:	c3                   	ret    

400065f1 <sys_trim>:
400065f1:	55                   	push   %ebp
400065f2:	89 e5                	mov    %esp,%ebp
400065f4:	83 ec 38             	sub    $0x38,%esp
400065f7:	c7 45 e4 00 00 00 00 	movl   $0x0,-0x1c(%ebp)
400065fe:	83 7d 0c bf          	cmpl   $0xffffffbf,0xc(%ebp)
40006602:	0f 87 3f 01 00 00    	ja     40006747 <sys_trim+0x156>
40006608:	8b 45 08             	mov    0x8(%ebp),%eax
4000660b:	8b 40 18             	mov    0x18(%eax),%eax
4000660e:	85 c0                	test   %eax,%eax
40006610:	0f 84 31 01 00 00    	je     40006747 <sys_trim+0x156>
40006616:	83 45 0c 28          	addl   $0x28,0xc(%ebp)
4000661a:	8b 45 08             	mov    0x8(%ebp),%eax
4000661d:	8b 40 0c             	mov    0xc(%eax),%eax
40006620:	3b 45 0c             	cmp    0xc(%ebp),%eax
40006623:	0f 86 0e 01 00 00    	jbe    40006737 <sys_trim+0x146>
40006629:	a1 88 12 01 40       	mov    0x40011288,%eax
4000662e:	89 45 e8             	mov    %eax,-0x18(%ebp)
40006631:	8b 45 08             	mov    0x8(%ebp),%eax
40006634:	8b 40 0c             	mov    0xc(%eax),%eax
40006637:	2b 45 0c             	sub    0xc(%ebp),%eax
4000663a:	03 45 e8             	add    -0x18(%ebp),%eax
4000663d:	83 e8 01             	sub    $0x1,%eax
40006640:	ba 00 00 00 00       	mov    $0x0,%edx
40006645:	f7 75 e8             	divl   -0x18(%ebp)
40006648:	83 e8 01             	sub    $0x1,%eax
4000664b:	0f af 45 e8          	imul   -0x18(%ebp),%eax
4000664f:	89 45 ec             	mov    %eax,-0x14(%ebp)
40006652:	8b 45 08             	mov    0x8(%ebp),%eax
40006655:	8b 40 18             	mov    0x18(%eax),%eax
40006658:	89 44 24 04          	mov    %eax,0x4(%esp)
4000665c:	8b 45 08             	mov    0x8(%ebp),%eax
4000665f:	89 04 24             	mov    %eax,(%esp)
40006662:	e8 fd e4 ff ff       	call   40004b64 <segment_holding>
40006667:	89 45 f0             	mov    %eax,-0x10(%ebp)
4000666a:	8b 45 f0             	mov    -0x10(%ebp),%eax
4000666d:	8b 40 0c             	mov    0xc(%eax),%eax
40006670:	83 e0 08             	and    $0x8,%eax
40006673:	85 c0                	test   %eax,%eax
40006675:	75 6e                	jne    400066e5 <sys_trim+0xf4>
40006677:	81 7d ec fe ff ff 7f 	cmpl   $0x7ffffffe,-0x14(%ebp)
4000667e:	76 0b                	jbe    4000668b <sys_trim+0x9a>
40006680:	b8 00 00 00 80       	mov    $0x80000000,%eax
40006685:	2b 45 e8             	sub    -0x18(%ebp),%eax
40006688:	89 45 ec             	mov    %eax,-0x14(%ebp)
4000668b:	c7 04 24 00 00 00 00 	movl   $0x0,(%esp)
40006692:	e8 75 30 00 00       	call   4000970c <sbrk>
40006697:	89 45 f4             	mov    %eax,-0xc(%ebp)
4000669a:	8b 45 f0             	mov    -0x10(%ebp),%eax
4000669d:	8b 10                	mov    (%eax),%edx
4000669f:	8b 45 f0             	mov    -0x10(%ebp),%eax
400066a2:	8b 40 04             	mov    0x4(%eax),%eax
400066a5:	8d 04 02             	lea    (%edx,%eax,1),%eax
400066a8:	3b 45 f4             	cmp    -0xc(%ebp),%eax
400066ab:	75 38                	jne    400066e5 <sys_trim+0xf4>
400066ad:	8b 45 ec             	mov    -0x14(%ebp),%eax
400066b0:	f7 d8                	neg    %eax
400066b2:	89 04 24             	mov    %eax,(%esp)
400066b5:	e8 52 30 00 00       	call   4000970c <sbrk>
400066ba:	89 45 f8             	mov    %eax,-0x8(%ebp)
400066bd:	c7 04 24 00 00 00 00 	movl   $0x0,(%esp)
400066c4:	e8 43 30 00 00       	call   4000970c <sbrk>
400066c9:	89 45 fc             	mov    %eax,-0x4(%ebp)
400066cc:	83 7d f8 ff          	cmpl   $0xffffffff,-0x8(%ebp)
400066d0:	74 13                	je     400066e5 <sys_trim+0xf4>
400066d2:	8b 45 fc             	mov    -0x4(%ebp),%eax
400066d5:	3b 45 f4             	cmp    -0xc(%ebp),%eax
400066d8:	73 0b                	jae    400066e5 <sys_trim+0xf4>
400066da:	8b 45 f4             	mov    -0xc(%ebp),%eax
400066dd:	8b 55 fc             	mov    -0x4(%ebp),%edx
400066e0:	29 d0                	sub    %edx,%eax
400066e2:	89 45 e4             	mov    %eax,-0x1c(%ebp)
400066e5:	83 7d e4 00          	cmpl   $0x0,-0x1c(%ebp)
400066e9:	74 4c                	je     40006737 <sys_trim+0x146>
400066eb:	8b 45 f0             	mov    -0x10(%ebp),%eax
400066ee:	8b 40 04             	mov    0x4(%eax),%eax
400066f1:	89 c2                	mov    %eax,%edx
400066f3:	2b 55 e4             	sub    -0x1c(%ebp),%edx
400066f6:	8b 45 f0             	mov    -0x10(%ebp),%eax
400066f9:	89 50 04             	mov    %edx,0x4(%eax)
400066fc:	8b 45 08             	mov    0x8(%ebp),%eax
400066ff:	8b 80 ac 01 00 00    	mov    0x1ac(%eax),%eax
40006705:	89 c2                	mov    %eax,%edx
40006707:	2b 55 e4             	sub    -0x1c(%ebp),%edx
4000670a:	8b 45 08             	mov    0x8(%ebp),%eax
4000670d:	89 90 ac 01 00 00    	mov    %edx,0x1ac(%eax)
40006713:	8b 45 08             	mov    0x8(%ebp),%eax
40006716:	8b 40 0c             	mov    0xc(%eax),%eax
40006719:	89 c2                	mov    %eax,%edx
4000671b:	2b 55 e4             	sub    -0x1c(%ebp),%edx
4000671e:	8b 45 08             	mov    0x8(%ebp),%eax
40006721:	8b 40 18             	mov    0x18(%eax),%eax
40006724:	89 54 24 08          	mov    %edx,0x8(%esp)
40006728:	89 44 24 04          	mov    %eax,0x4(%esp)
4000672c:	8b 45 08             	mov    0x8(%ebp),%eax
4000672f:	89 04 24             	mov    %eax,(%esp)
40006732:	e8 a8 eb ff ff       	call   400052df <init_top>
40006737:	83 7d e4 00          	cmpl   $0x0,-0x1c(%ebp)
4000673b:	75 0a                	jne    40006747 <sys_trim+0x156>
4000673d:	8b 45 08             	mov    0x8(%ebp),%eax
40006740:	c7 40 1c ff ff ff ff 	movl   $0xffffffff,0x1c(%eax)
40006747:	83 7d e4 00          	cmpl   $0x0,-0x1c(%ebp)
4000674b:	0f 95 c0             	setne  %al
4000674e:	0f b6 c0             	movzbl %al,%eax
40006751:	c9                   	leave  
40006752:	c3                   	ret    

40006753 <tmalloc_large>:
40006753:	55                   	push   %ebp
40006754:	89 e5                	mov    %esp,%ebp
40006756:	53                   	push   %ebx
40006757:	81 ec a4 00 00 00    	sub    $0xa4,%esp
4000675d:	c7 85 6c ff ff ff 00 	movl   $0x0,-0x94(%ebp)
40006764:	00 00 00 
40006767:	8b 45 0c             	mov    0xc(%ebp),%eax
4000676a:	f7 d8                	neg    %eax
4000676c:	89 85 70 ff ff ff    	mov    %eax,-0x90(%ebp)
40006772:	8b 45 0c             	mov    0xc(%ebp),%eax
40006775:	c1 e8 08             	shr    $0x8,%eax
40006778:	89 85 7c ff ff ff    	mov    %eax,-0x84(%ebp)
4000677e:	83 bd 7c ff ff ff 00 	cmpl   $0x0,-0x84(%ebp)
40006785:	75 0c                	jne    40006793 <tmalloc_large+0x40>
40006787:	c7 85 78 ff ff ff 00 	movl   $0x0,-0x88(%ebp)
4000678e:	00 00 00 
40006791:	eb 41                	jmp    400067d4 <tmalloc_large+0x81>
40006793:	81 bd 7c ff ff ff ff 	cmpl   $0xffff,-0x84(%ebp)
4000679a:	ff 00 00 
4000679d:	76 0c                	jbe    400067ab <tmalloc_large+0x58>
4000679f:	c7 85 78 ff ff ff 1f 	movl   $0x1f,-0x88(%ebp)
400067a6:	00 00 00 
400067a9:	eb 29                	jmp    400067d4 <tmalloc_large+0x81>
400067ab:	0f bd 85 7c ff ff ff 	bsr    -0x84(%ebp),%eax
400067b2:	89 45 80             	mov    %eax,-0x80(%ebp)
400067b5:	8b 45 80             	mov    -0x80(%ebp),%eax
400067b8:	8d 14 00             	lea    (%eax,%eax,1),%edx
400067bb:	8b 45 80             	mov    -0x80(%ebp),%eax
400067be:	83 c0 07             	add    $0x7,%eax
400067c1:	89 c1                	mov    %eax,%ecx
400067c3:	8b 45 0c             	mov    0xc(%ebp),%eax
400067c6:	d3 e8                	shr    %cl,%eax
400067c8:	83 e0 01             	and    $0x1,%eax
400067cb:	8d 04 02             	lea    (%edx,%eax,1),%eax
400067ce:	89 85 78 ff ff ff    	mov    %eax,-0x88(%ebp)
400067d4:	8b 45 08             	mov    0x8(%ebp),%eax
400067d7:	8d 90 2c 01 00 00    	lea    0x12c(%eax),%edx
400067dd:	8b 85 78 ff ff ff    	mov    -0x88(%ebp),%eax
400067e3:	c1 e0 02             	shl    $0x2,%eax
400067e6:	8d 04 02             	lea    (%edx,%eax,1),%eax
400067e9:	8b 00                	mov    (%eax),%eax
400067eb:	89 85 74 ff ff ff    	mov    %eax,-0x8c(%ebp)
400067f1:	83 bd 74 ff ff ff 00 	cmpl   $0x0,-0x8c(%ebp)
400067f8:	0f 84 d4 00 00 00    	je     400068d2 <tmalloc_large+0x17f>
400067fe:	83 bd 78 ff ff ff 1f 	cmpl   $0x1f,-0x88(%ebp)
40006805:	74 19                	je     40006820 <tmalloc_large+0xcd>
40006807:	8b 85 78 ff ff ff    	mov    -0x88(%ebp),%eax
4000680d:	89 c2                	mov    %eax,%edx
4000680f:	d1 ea                	shr    %edx
40006811:	b8 19 00 00 00       	mov    $0x19,%eax
40006816:	29 d0                	sub    %edx,%eax
40006818:	89 85 5c ff ff ff    	mov    %eax,-0xa4(%ebp)
4000681e:	eb 0a                	jmp    4000682a <tmalloc_large+0xd7>
40006820:	c7 85 5c ff ff ff 00 	movl   $0x0,-0xa4(%ebp)
40006827:	00 00 00 
4000682a:	8b 45 0c             	mov    0xc(%ebp),%eax
4000682d:	0f b6 8d 5c ff ff ff 	movzbl -0xa4(%ebp),%ecx
40006834:	d3 e0                	shl    %cl,%eax
40006836:	89 45 84             	mov    %eax,-0x7c(%ebp)
40006839:	c7 45 88 00 00 00 00 	movl   $0x0,-0x78(%ebp)
40006840:	8b 85 74 ff ff ff    	mov    -0x8c(%ebp),%eax
40006846:	8b 40 04             	mov    0x4(%eax),%eax
40006849:	83 e0 fc             	and    $0xfffffffc,%eax
4000684c:	2b 45 0c             	sub    0xc(%ebp),%eax
4000684f:	89 45 90             	mov    %eax,-0x70(%ebp)
40006852:	8b 45 90             	mov    -0x70(%ebp),%eax
40006855:	3b 85 70 ff ff ff    	cmp    -0x90(%ebp),%eax
4000685b:	73 1e                	jae    4000687b <tmalloc_large+0x128>
4000685d:	8b 85 74 ff ff ff    	mov    -0x8c(%ebp),%eax
40006863:	89 85 6c ff ff ff    	mov    %eax,-0x94(%ebp)
40006869:	8b 45 90             	mov    -0x70(%ebp),%eax
4000686c:	89 85 70 ff ff ff    	mov    %eax,-0x90(%ebp)
40006872:	83 bd 70 ff ff ff 00 	cmpl   $0x0,-0x90(%ebp)
40006879:	74 57                	je     400068d2 <tmalloc_large+0x17f>
4000687b:	8b 85 74 ff ff ff    	mov    -0x8c(%ebp),%eax
40006881:	8b 40 14             	mov    0x14(%eax),%eax
40006884:	89 45 8c             	mov    %eax,-0x74(%ebp)
40006887:	8b 45 84             	mov    -0x7c(%ebp),%eax
4000688a:	c1 e8 1f             	shr    $0x1f,%eax
4000688d:	8b 95 74 ff ff ff    	mov    -0x8c(%ebp),%edx
40006893:	83 c0 04             	add    $0x4,%eax
40006896:	8b 04 82             	mov    (%edx,%eax,4),%eax
40006899:	89 85 74 ff ff ff    	mov    %eax,-0x8c(%ebp)
4000689f:	83 7d 8c 00          	cmpl   $0x0,-0x74(%ebp)
400068a3:	74 11                	je     400068b6 <tmalloc_large+0x163>
400068a5:	8b 45 8c             	mov    -0x74(%ebp),%eax
400068a8:	3b 85 74 ff ff ff    	cmp    -0x8c(%ebp),%eax
400068ae:	74 06                	je     400068b6 <tmalloc_large+0x163>
400068b0:	8b 45 8c             	mov    -0x74(%ebp),%eax
400068b3:	89 45 88             	mov    %eax,-0x78(%ebp)
400068b6:	83 bd 74 ff ff ff 00 	cmpl   $0x0,-0x8c(%ebp)
400068bd:	75 0b                	jne    400068ca <tmalloc_large+0x177>
400068bf:	8b 45 88             	mov    -0x78(%ebp),%eax
400068c2:	89 85 74 ff ff ff    	mov    %eax,-0x8c(%ebp)
400068c8:	eb 08                	jmp    400068d2 <tmalloc_large+0x17f>
400068ca:	d1 65 84             	shll   -0x7c(%ebp)
400068cd:	e9 6e ff ff ff       	jmp    40006840 <tmalloc_large+0xed>
400068d2:	83 bd 74 ff ff ff 00 	cmpl   $0x0,-0x8c(%ebp)
400068d9:	0f 85 e4 00 00 00    	jne    400069c3 <tmalloc_large+0x270>
400068df:	83 bd 6c ff ff ff 00 	cmpl   $0x0,-0x94(%ebp)
400068e6:	0f 85 d7 00 00 00    	jne    400069c3 <tmalloc_large+0x270>
400068ec:	8b 8d 78 ff ff ff    	mov    -0x88(%ebp),%ecx
400068f2:	b8 01 00 00 00       	mov    $0x1,%eax
400068f7:	d3 e0                	shl    %cl,%eax
400068f9:	8d 14 00             	lea    (%eax,%eax,1),%edx
400068fc:	8b 8d 78 ff ff ff    	mov    -0x88(%ebp),%ecx
40006902:	b8 01 00 00 00       	mov    $0x1,%eax
40006907:	d3 e0                	shl    %cl,%eax
40006909:	01 c0                	add    %eax,%eax
4000690b:	f7 d8                	neg    %eax
4000690d:	09 c2                	or     %eax,%edx
4000690f:	8b 45 08             	mov    0x8(%ebp),%eax
40006912:	8b 40 04             	mov    0x4(%eax),%eax
40006915:	21 d0                	and    %edx,%eax
40006917:	89 45 94             	mov    %eax,-0x6c(%ebp)
4000691a:	83 7d 94 00          	cmpl   $0x0,-0x6c(%ebp)
4000691e:	0f 84 9f 00 00 00    	je     400069c3 <tmalloc_large+0x270>
40006924:	8b 45 94             	mov    -0x6c(%ebp),%eax
40006927:	f7 d8                	neg    %eax
40006929:	23 45 94             	and    -0x6c(%ebp),%eax
4000692c:	89 45 9c             	mov    %eax,-0x64(%ebp)
4000692f:	0f bc 45 9c          	bsf    -0x64(%ebp),%eax
40006933:	89 45 a0             	mov    %eax,-0x60(%ebp)
40006936:	8b 45 a0             	mov    -0x60(%ebp),%eax
40006939:	89 45 98             	mov    %eax,-0x68(%ebp)
4000693c:	8b 45 08             	mov    0x8(%ebp),%eax
4000693f:	8d 90 2c 01 00 00    	lea    0x12c(%eax),%edx
40006945:	8b 45 98             	mov    -0x68(%ebp),%eax
40006948:	c1 e0 02             	shl    $0x2,%eax
4000694b:	8d 04 02             	lea    (%edx,%eax,1),%eax
4000694e:	8b 00                	mov    (%eax),%eax
40006950:	89 85 74 ff ff ff    	mov    %eax,-0x8c(%ebp)
40006956:	eb 6b                	jmp    400069c3 <tmalloc_large+0x270>
40006958:	8b 85 74 ff ff ff    	mov    -0x8c(%ebp),%eax
4000695e:	8b 40 04             	mov    0x4(%eax),%eax
40006961:	83 e0 fc             	and    $0xfffffffc,%eax
40006964:	2b 45 0c             	sub    0xc(%ebp),%eax
40006967:	89 45 a4             	mov    %eax,-0x5c(%ebp)
4000696a:	8b 45 a4             	mov    -0x5c(%ebp),%eax
4000696d:	3b 85 70 ff ff ff    	cmp    -0x90(%ebp),%eax
40006973:	73 15                	jae    4000698a <tmalloc_large+0x237>
40006975:	8b 45 a4             	mov    -0x5c(%ebp),%eax
40006978:	89 85 70 ff ff ff    	mov    %eax,-0x90(%ebp)
4000697e:	8b 85 74 ff ff ff    	mov    -0x8c(%ebp),%eax
40006984:	89 85 6c ff ff ff    	mov    %eax,-0x94(%ebp)
4000698a:	8b 85 74 ff ff ff    	mov    -0x8c(%ebp),%eax
40006990:	8b 40 10             	mov    0x10(%eax),%eax
40006993:	85 c0                	test   %eax,%eax
40006995:	74 11                	je     400069a8 <tmalloc_large+0x255>
40006997:	8b 85 74 ff ff ff    	mov    -0x8c(%ebp),%eax
4000699d:	8b 40 10             	mov    0x10(%eax),%eax
400069a0:	89 85 60 ff ff ff    	mov    %eax,-0xa0(%ebp)
400069a6:	eb 0f                	jmp    400069b7 <tmalloc_large+0x264>
400069a8:	8b 85 74 ff ff ff    	mov    -0x8c(%ebp),%eax
400069ae:	8b 40 14             	mov    0x14(%eax),%eax
400069b1:	89 85 60 ff ff ff    	mov    %eax,-0xa0(%ebp)
400069b7:	8b 85 60 ff ff ff    	mov    -0xa0(%ebp),%eax
400069bd:	89 85 74 ff ff ff    	mov    %eax,-0x8c(%ebp)
400069c3:	83 bd 74 ff ff ff 00 	cmpl   $0x0,-0x8c(%ebp)
400069ca:	75 8c                	jne    40006958 <tmalloc_large+0x205>
400069cc:	83 bd 6c ff ff ff 00 	cmpl   $0x0,-0x94(%ebp)
400069d3:	0f 84 13 06 00 00    	je     40006fec <tmalloc_large+0x899>
400069d9:	8b 45 08             	mov    0x8(%ebp),%eax
400069dc:	8b 40 08             	mov    0x8(%eax),%eax
400069df:	2b 45 0c             	sub    0xc(%ebp),%eax
400069e2:	3b 85 70 ff ff ff    	cmp    -0x90(%ebp),%eax
400069e8:	0f 86 fe 05 00 00    	jbe    40006fec <tmalloc_large+0x899>
400069ee:	8b 45 08             	mov    0x8(%ebp),%eax
400069f1:	8b 50 10             	mov    0x10(%eax),%edx
400069f4:	8b 85 6c ff ff ff    	mov    -0x94(%ebp),%eax
400069fa:	39 c2                	cmp    %eax,%edx
400069fc:	0f 96 c0             	setbe  %al
400069ff:	0f b6 c0             	movzbl %al,%eax
40006a02:	85 c0                	test   %eax,%eax
40006a04:	0f 84 dd 05 00 00    	je     40006fe7 <tmalloc_large+0x894>
40006a0a:	8b 85 6c ff ff ff    	mov    -0x94(%ebp),%eax
40006a10:	03 45 0c             	add    0xc(%ebp),%eax
40006a13:	89 45 a8             	mov    %eax,-0x58(%ebp)
40006a16:	8b 95 6c ff ff ff    	mov    -0x94(%ebp),%edx
40006a1c:	8b 45 a8             	mov    -0x58(%ebp),%eax
40006a1f:	39 c2                	cmp    %eax,%edx
40006a21:	0f 92 c0             	setb   %al
40006a24:	0f b6 c0             	movzbl %al,%eax
40006a27:	85 c0                	test   %eax,%eax
40006a29:	0f 84 b8 05 00 00    	je     40006fe7 <tmalloc_large+0x894>
40006a2f:	8b 85 6c ff ff ff    	mov    -0x94(%ebp),%eax
40006a35:	8b 40 18             	mov    0x18(%eax),%eax
40006a38:	89 45 ac             	mov    %eax,-0x54(%ebp)
40006a3b:	8b 85 6c ff ff ff    	mov    -0x94(%ebp),%eax
40006a41:	8b 40 0c             	mov    0xc(%eax),%eax
40006a44:	3b 85 6c ff ff ff    	cmp    -0x94(%ebp),%eax
40006a4a:	74 4e                	je     40006a9a <tmalloc_large+0x347>
40006a4c:	8b 85 6c ff ff ff    	mov    -0x94(%ebp),%eax
40006a52:	8b 40 08             	mov    0x8(%eax),%eax
40006a55:	89 45 b4             	mov    %eax,-0x4c(%ebp)
40006a58:	8b 85 6c ff ff ff    	mov    -0x94(%ebp),%eax
40006a5e:	8b 40 0c             	mov    0xc(%eax),%eax
40006a61:	89 45 b0             	mov    %eax,-0x50(%ebp)
40006a64:	8b 45 08             	mov    0x8(%ebp),%eax
40006a67:	8b 50 10             	mov    0x10(%eax),%edx
40006a6a:	8b 45 b4             	mov    -0x4c(%ebp),%eax
40006a6d:	39 c2                	cmp    %eax,%edx
40006a6f:	0f 96 c0             	setbe  %al
40006a72:	0f b6 c0             	movzbl %al,%eax
40006a75:	85 c0                	test   %eax,%eax
40006a77:	74 17                	je     40006a90 <tmalloc_large+0x33d>
40006a79:	8b 55 b4             	mov    -0x4c(%ebp),%edx
40006a7c:	8b 45 b0             	mov    -0x50(%ebp),%eax
40006a7f:	89 42 0c             	mov    %eax,0xc(%edx)
40006a82:	8b 55 b0             	mov    -0x50(%ebp),%edx
40006a85:	8b 45 b4             	mov    -0x4c(%ebp),%eax
40006a88:	89 42 08             	mov    %eax,0x8(%edx)
40006a8b:	e9 97 00 00 00       	jmp    40006b27 <tmalloc_large+0x3d4>
40006a90:	e8 eb 6e 00 00       	call   4000d980 <abort>
40006a95:	e9 8d 00 00 00       	jmp    40006b27 <tmalloc_large+0x3d4>
40006a9a:	8b 85 6c ff ff ff    	mov    -0x94(%ebp),%eax
40006aa0:	83 c0 14             	add    $0x14,%eax
40006aa3:	89 45 b8             	mov    %eax,-0x48(%ebp)
40006aa6:	8b 45 b8             	mov    -0x48(%ebp),%eax
40006aa9:	8b 00                	mov    (%eax),%eax
40006aab:	89 45 b0             	mov    %eax,-0x50(%ebp)
40006aae:	83 7d b0 00          	cmpl   $0x0,-0x50(%ebp)
40006ab2:	75 2a                	jne    40006ade <tmalloc_large+0x38b>
40006ab4:	8b 85 6c ff ff ff    	mov    -0x94(%ebp),%eax
40006aba:	83 c0 10             	add    $0x10,%eax
40006abd:	89 45 b8             	mov    %eax,-0x48(%ebp)
40006ac0:	8b 45 b8             	mov    -0x48(%ebp),%eax
40006ac3:	8b 00                	mov    (%eax),%eax
40006ac5:	89 45 b0             	mov    %eax,-0x50(%ebp)
40006ac8:	83 7d b0 00          	cmpl   $0x0,-0x50(%ebp)
40006acc:	74 59                	je     40006b27 <tmalloc_large+0x3d4>
40006ace:	eb 0e                	jmp    40006ade <tmalloc_large+0x38b>
40006ad0:	8b 45 bc             	mov    -0x44(%ebp),%eax
40006ad3:	89 45 b8             	mov    %eax,-0x48(%ebp)
40006ad6:	8b 45 b8             	mov    -0x48(%ebp),%eax
40006ad9:	8b 00                	mov    (%eax),%eax
40006adb:	89 45 b0             	mov    %eax,-0x50(%ebp)
40006ade:	8b 45 b0             	mov    -0x50(%ebp),%eax
40006ae1:	83 c0 14             	add    $0x14,%eax
40006ae4:	89 45 bc             	mov    %eax,-0x44(%ebp)
40006ae7:	8b 45 bc             	mov    -0x44(%ebp),%eax
40006aea:	8b 00                	mov    (%eax),%eax
40006aec:	85 c0                	test   %eax,%eax
40006aee:	75 e0                	jne    40006ad0 <tmalloc_large+0x37d>
40006af0:	8b 45 b0             	mov    -0x50(%ebp),%eax
40006af3:	83 c0 10             	add    $0x10,%eax
40006af6:	89 45 bc             	mov    %eax,-0x44(%ebp)
40006af9:	8b 45 bc             	mov    -0x44(%ebp),%eax
40006afc:	8b 00                	mov    (%eax),%eax
40006afe:	85 c0                	test   %eax,%eax
40006b00:	75 ce                	jne    40006ad0 <tmalloc_large+0x37d>
40006b02:	8b 45 08             	mov    0x8(%ebp),%eax
40006b05:	8b 50 10             	mov    0x10(%eax),%edx
40006b08:	8b 45 b8             	mov    -0x48(%ebp),%eax
40006b0b:	39 c2                	cmp    %eax,%edx
40006b0d:	0f 96 c0             	setbe  %al
40006b10:	0f b6 c0             	movzbl %al,%eax
40006b13:	85 c0                	test   %eax,%eax
40006b15:	74 0b                	je     40006b22 <tmalloc_large+0x3cf>
40006b17:	8b 45 b8             	mov    -0x48(%ebp),%eax
40006b1a:	c7 00 00 00 00 00    	movl   $0x0,(%eax)
40006b20:	eb 05                	jmp    40006b27 <tmalloc_large+0x3d4>
40006b22:	e8 59 6e 00 00       	call   4000d980 <abort>
40006b27:	83 7d ac 00          	cmpl   $0x0,-0x54(%ebp)
40006b2b:	0f 84 4e 01 00 00    	je     40006c7f <tmalloc_large+0x52c>
40006b31:	8b 45 08             	mov    0x8(%ebp),%eax
40006b34:	8d 90 2c 01 00 00    	lea    0x12c(%eax),%edx
40006b3a:	8b 85 6c ff ff ff    	mov    -0x94(%ebp),%eax
40006b40:	8b 40 1c             	mov    0x1c(%eax),%eax
40006b43:	c1 e0 02             	shl    $0x2,%eax
40006b46:	8d 04 02             	lea    (%edx,%eax,1),%eax
40006b49:	89 45 c0             	mov    %eax,-0x40(%ebp)
40006b4c:	8b 45 c0             	mov    -0x40(%ebp),%eax
40006b4f:	8b 00                	mov    (%eax),%eax
40006b51:	3b 85 6c ff ff ff    	cmp    -0x94(%ebp),%eax
40006b57:	75 35                	jne    40006b8e <tmalloc_large+0x43b>
40006b59:	8b 55 c0             	mov    -0x40(%ebp),%edx
40006b5c:	8b 45 b0             	mov    -0x50(%ebp),%eax
40006b5f:	89 02                	mov    %eax,(%edx)
40006b61:	8b 45 c0             	mov    -0x40(%ebp),%eax
40006b64:	8b 00                	mov    (%eax),%eax
40006b66:	85 c0                	test   %eax,%eax
40006b68:	75 62                	jne    40006bcc <tmalloc_large+0x479>
40006b6a:	8b 45 08             	mov    0x8(%ebp),%eax
40006b6d:	8b 50 04             	mov    0x4(%eax),%edx
40006b70:	8b 85 6c ff ff ff    	mov    -0x94(%ebp),%eax
40006b76:	8b 40 1c             	mov    0x1c(%eax),%eax
40006b79:	89 c1                	mov    %eax,%ecx
40006b7b:	b8 01 00 00 00       	mov    $0x1,%eax
40006b80:	d3 e0                	shl    %cl,%eax
40006b82:	f7 d0                	not    %eax
40006b84:	21 c2                	and    %eax,%edx
40006b86:	8b 45 08             	mov    0x8(%ebp),%eax
40006b89:	89 50 04             	mov    %edx,0x4(%eax)
40006b8c:	eb 3e                	jmp    40006bcc <tmalloc_large+0x479>
40006b8e:	8b 45 08             	mov    0x8(%ebp),%eax
40006b91:	8b 50 10             	mov    0x10(%eax),%edx
40006b94:	8b 45 ac             	mov    -0x54(%ebp),%eax
40006b97:	39 c2                	cmp    %eax,%edx
40006b99:	0f 96 c0             	setbe  %al
40006b9c:	0f b6 c0             	movzbl %al,%eax
40006b9f:	85 c0                	test   %eax,%eax
40006ba1:	74 24                	je     40006bc7 <tmalloc_large+0x474>
40006ba3:	8b 45 ac             	mov    -0x54(%ebp),%eax
40006ba6:	8b 40 10             	mov    0x10(%eax),%eax
40006ba9:	3b 85 6c ff ff ff    	cmp    -0x94(%ebp),%eax
40006baf:	75 0b                	jne    40006bbc <tmalloc_large+0x469>
40006bb1:	8b 55 ac             	mov    -0x54(%ebp),%edx
40006bb4:	8b 45 b0             	mov    -0x50(%ebp),%eax
40006bb7:	89 42 10             	mov    %eax,0x10(%edx)
40006bba:	eb 10                	jmp    40006bcc <tmalloc_large+0x479>
40006bbc:	8b 55 ac             	mov    -0x54(%ebp),%edx
40006bbf:	8b 45 b0             	mov    -0x50(%ebp),%eax
40006bc2:	89 42 14             	mov    %eax,0x14(%edx)
40006bc5:	eb 05                	jmp    40006bcc <tmalloc_large+0x479>
40006bc7:	e8 b4 6d 00 00       	call   4000d980 <abort>
40006bcc:	83 7d b0 00          	cmpl   $0x0,-0x50(%ebp)
40006bd0:	0f 84 a9 00 00 00    	je     40006c7f <tmalloc_large+0x52c>
40006bd6:	8b 45 08             	mov    0x8(%ebp),%eax
40006bd9:	8b 50 10             	mov    0x10(%eax),%edx
40006bdc:	8b 45 b0             	mov    -0x50(%ebp),%eax
40006bdf:	39 c2                	cmp    %eax,%edx
40006be1:	0f 96 c0             	setbe  %al
40006be4:	0f b6 c0             	movzbl %al,%eax
40006be7:	85 c0                	test   %eax,%eax
40006be9:	0f 84 8b 00 00 00    	je     40006c7a <tmalloc_large+0x527>
40006bef:	8b 55 b0             	mov    -0x50(%ebp),%edx
40006bf2:	8b 45 ac             	mov    -0x54(%ebp),%eax
40006bf5:	89 42 18             	mov    %eax,0x18(%edx)
40006bf8:	8b 85 6c ff ff ff    	mov    -0x94(%ebp),%eax
40006bfe:	8b 40 10             	mov    0x10(%eax),%eax
40006c01:	89 45 c4             	mov    %eax,-0x3c(%ebp)
40006c04:	83 7d c4 00          	cmpl   $0x0,-0x3c(%ebp)
40006c08:	74 2e                	je     40006c38 <tmalloc_large+0x4e5>
40006c0a:	8b 45 08             	mov    0x8(%ebp),%eax
40006c0d:	8b 50 10             	mov    0x10(%eax),%edx
40006c10:	8b 45 c4             	mov    -0x3c(%ebp),%eax
40006c13:	39 c2                	cmp    %eax,%edx
40006c15:	0f 96 c0             	setbe  %al
40006c18:	0f b6 c0             	movzbl %al,%eax
40006c1b:	85 c0                	test   %eax,%eax
40006c1d:	74 14                	je     40006c33 <tmalloc_large+0x4e0>
40006c1f:	8b 55 b0             	mov    -0x50(%ebp),%edx
40006c22:	8b 45 c4             	mov    -0x3c(%ebp),%eax
40006c25:	89 42 10             	mov    %eax,0x10(%edx)
40006c28:	8b 55 c4             	mov    -0x3c(%ebp),%edx
40006c2b:	8b 45 b0             	mov    -0x50(%ebp),%eax
40006c2e:	89 42 18             	mov    %eax,0x18(%edx)
40006c31:	eb 05                	jmp    40006c38 <tmalloc_large+0x4e5>
40006c33:	e8 48 6d 00 00       	call   4000d980 <abort>
40006c38:	8b 85 6c ff ff ff    	mov    -0x94(%ebp),%eax
40006c3e:	8b 40 14             	mov    0x14(%eax),%eax
40006c41:	89 45 c8             	mov    %eax,-0x38(%ebp)
40006c44:	83 7d c8 00          	cmpl   $0x0,-0x38(%ebp)
40006c48:	74 35                	je     40006c7f <tmalloc_large+0x52c>
40006c4a:	8b 45 08             	mov    0x8(%ebp),%eax
40006c4d:	8b 50 10             	mov    0x10(%eax),%edx
40006c50:	8b 45 c8             	mov    -0x38(%ebp),%eax
40006c53:	39 c2                	cmp    %eax,%edx
40006c55:	0f 96 c0             	setbe  %al
40006c58:	0f b6 c0             	movzbl %al,%eax
40006c5b:	85 c0                	test   %eax,%eax
40006c5d:	74 14                	je     40006c73 <tmalloc_large+0x520>
40006c5f:	8b 55 b0             	mov    -0x50(%ebp),%edx
40006c62:	8b 45 c8             	mov    -0x38(%ebp),%eax
40006c65:	89 42 14             	mov    %eax,0x14(%edx)
40006c68:	8b 55 c8             	mov    -0x38(%ebp),%edx
40006c6b:	8b 45 b0             	mov    -0x50(%ebp),%eax
40006c6e:	89 42 18             	mov    %eax,0x18(%edx)
40006c71:	eb 0c                	jmp    40006c7f <tmalloc_large+0x52c>
40006c73:	e8 08 6d 00 00       	call   4000d980 <abort>
40006c78:	eb 05                	jmp    40006c7f <tmalloc_large+0x52c>
40006c7a:	e8 01 6d 00 00       	call   4000d980 <abort>
40006c7f:	83 bd 70 ff ff ff 0f 	cmpl   $0xf,-0x90(%ebp)
40006c86:	77 4f                	ja     40006cd7 <tmalloc_large+0x584>
40006c88:	8b 55 0c             	mov    0xc(%ebp),%edx
40006c8b:	8b 85 70 ff ff ff    	mov    -0x90(%ebp),%eax
40006c91:	01 d0                	add    %edx,%eax
40006c93:	89 c2                	mov    %eax,%edx
40006c95:	83 ca 03             	or     $0x3,%edx
40006c98:	8b 85 6c ff ff ff    	mov    -0x94(%ebp),%eax
40006c9e:	89 50 04             	mov    %edx,0x4(%eax)
40006ca1:	8b 8d 6c ff ff ff    	mov    -0x94(%ebp),%ecx
40006ca7:	8b 55 0c             	mov    0xc(%ebp),%edx
40006caa:	8b 85 70 ff ff ff    	mov    -0x90(%ebp),%eax
40006cb0:	01 d0                	add    %edx,%eax
40006cb2:	8d 1c 01             	lea    (%ecx,%eax,1),%ebx
40006cb5:	8b 8d 6c ff ff ff    	mov    -0x94(%ebp),%ecx
40006cbb:	8b 55 0c             	mov    0xc(%ebp),%edx
40006cbe:	8b 85 70 ff ff ff    	mov    -0x90(%ebp),%eax
40006cc4:	01 d0                	add    %edx,%eax
40006cc6:	8d 04 01             	lea    (%ecx,%eax,1),%eax
40006cc9:	8b 40 04             	mov    0x4(%eax),%eax
40006ccc:	83 c8 01             	or     $0x1,%eax
40006ccf:	89 43 04             	mov    %eax,0x4(%ebx)
40006cd2:	e9 ff 02 00 00       	jmp    40006fd6 <tmalloc_large+0x883>
40006cd7:	8b 45 0c             	mov    0xc(%ebp),%eax
40006cda:	89 c2                	mov    %eax,%edx
40006cdc:	83 ca 03             	or     $0x3,%edx
40006cdf:	8b 85 6c ff ff ff    	mov    -0x94(%ebp),%eax
40006ce5:	89 50 04             	mov    %edx,0x4(%eax)
40006ce8:	8b 85 70 ff ff ff    	mov    -0x90(%ebp),%eax
40006cee:	89 c2                	mov    %eax,%edx
40006cf0:	83 ca 01             	or     $0x1,%edx
40006cf3:	8b 45 a8             	mov    -0x58(%ebp),%eax
40006cf6:	89 50 04             	mov    %edx,0x4(%eax)
40006cf9:	8b 95 70 ff ff ff    	mov    -0x90(%ebp),%edx
40006cff:	8b 45 a8             	mov    -0x58(%ebp),%eax
40006d02:	8d 14 10             	lea    (%eax,%edx,1),%edx
40006d05:	8b 85 70 ff ff ff    	mov    -0x90(%ebp),%eax
40006d0b:	89 02                	mov    %eax,(%edx)
40006d0d:	8b 85 70 ff ff ff    	mov    -0x90(%ebp),%eax
40006d13:	c1 e8 03             	shr    $0x3,%eax
40006d16:	83 f8 1f             	cmp    $0x1f,%eax
40006d19:	0f 87 a6 00 00 00    	ja     40006dc5 <tmalloc_large+0x672>
40006d1f:	8b 85 70 ff ff ff    	mov    -0x90(%ebp),%eax
40006d25:	c1 e8 03             	shr    $0x3,%eax
40006d28:	89 45 cc             	mov    %eax,-0x34(%ebp)
40006d2b:	8b 45 08             	mov    0x8(%ebp),%eax
40006d2e:	83 c0 24             	add    $0x24,%eax
40006d31:	89 c2                	mov    %eax,%edx
40006d33:	8b 45 cc             	mov    -0x34(%ebp),%eax
40006d36:	c1 e0 03             	shl    $0x3,%eax
40006d39:	8d 04 02             	lea    (%edx,%eax,1),%eax
40006d3c:	89 45 d0             	mov    %eax,-0x30(%ebp)
40006d3f:	8b 45 d0             	mov    -0x30(%ebp),%eax
40006d42:	89 45 d4             	mov    %eax,-0x2c(%ebp)
40006d45:	8b 45 08             	mov    0x8(%ebp),%eax
40006d48:	8b 10                	mov    (%eax),%edx
40006d4a:	8b 4d cc             	mov    -0x34(%ebp),%ecx
40006d4d:	b8 01 00 00 00       	mov    $0x1,%eax
40006d52:	d3 e0                	shl    %cl,%eax
40006d54:	21 d0                	and    %edx,%eax
40006d56:	85 c0                	test   %eax,%eax
40006d58:	75 18                	jne    40006d72 <tmalloc_large+0x61f>
40006d5a:	8b 45 08             	mov    0x8(%ebp),%eax
40006d5d:	8b 10                	mov    (%eax),%edx
40006d5f:	8b 4d cc             	mov    -0x34(%ebp),%ecx
40006d62:	b8 01 00 00 00       	mov    $0x1,%eax
40006d67:	d3 e0                	shl    %cl,%eax
40006d69:	09 c2                	or     %eax,%edx
40006d6b:	8b 45 08             	mov    0x8(%ebp),%eax
40006d6e:	89 10                	mov    %edx,(%eax)
40006d70:	eb 2a                	jmp    40006d9c <tmalloc_large+0x649>
40006d72:	8b 45 d0             	mov    -0x30(%ebp),%eax
40006d75:	8b 40 08             	mov    0x8(%eax),%eax
40006d78:	89 c2                	mov    %eax,%edx
40006d7a:	8b 45 08             	mov    0x8(%ebp),%eax
40006d7d:	8b 40 10             	mov    0x10(%eax),%eax
40006d80:	39 c2                	cmp    %eax,%edx
40006d82:	0f 93 c0             	setae  %al
40006d85:	0f b6 c0             	movzbl %al,%eax
40006d88:	85 c0                	test   %eax,%eax
40006d8a:	74 0b                	je     40006d97 <tmalloc_large+0x644>
40006d8c:	8b 45 d0             	mov    -0x30(%ebp),%eax
40006d8f:	8b 40 08             	mov    0x8(%eax),%eax
40006d92:	89 45 d4             	mov    %eax,-0x2c(%ebp)
40006d95:	eb 05                	jmp    40006d9c <tmalloc_large+0x649>
40006d97:	e8 e4 6b 00 00       	call   4000d980 <abort>
40006d9c:	8b 55 d0             	mov    -0x30(%ebp),%edx
40006d9f:	8b 45 a8             	mov    -0x58(%ebp),%eax
40006da2:	89 42 08             	mov    %eax,0x8(%edx)
40006da5:	8b 55 d4             	mov    -0x2c(%ebp),%edx
40006da8:	8b 45 a8             	mov    -0x58(%ebp),%eax
40006dab:	89 42 0c             	mov    %eax,0xc(%edx)
40006dae:	8b 55 a8             	mov    -0x58(%ebp),%edx
40006db1:	8b 45 d4             	mov    -0x2c(%ebp),%eax
40006db4:	89 42 08             	mov    %eax,0x8(%edx)
40006db7:	8b 55 a8             	mov    -0x58(%ebp),%edx
40006dba:	8b 45 d0             	mov    -0x30(%ebp),%eax
40006dbd:	89 42 0c             	mov    %eax,0xc(%edx)
40006dc0:	e9 11 02 00 00       	jmp    40006fd6 <tmalloc_large+0x883>
40006dc5:	8b 45 a8             	mov    -0x58(%ebp),%eax
40006dc8:	89 45 d8             	mov    %eax,-0x28(%ebp)
40006dcb:	8b 85 70 ff ff ff    	mov    -0x90(%ebp),%eax
40006dd1:	c1 e8 08             	shr    $0x8,%eax
40006dd4:	89 45 e4             	mov    %eax,-0x1c(%ebp)
40006dd7:	83 7d e4 00          	cmpl   $0x0,-0x1c(%ebp)
40006ddb:	75 09                	jne    40006de6 <tmalloc_large+0x693>
40006ddd:	c7 45 e0 00 00 00 00 	movl   $0x0,-0x20(%ebp)
40006de4:	eb 38                	jmp    40006e1e <tmalloc_large+0x6cb>
40006de6:	81 7d e4 ff ff 00 00 	cmpl   $0xffff,-0x1c(%ebp)
40006ded:	76 09                	jbe    40006df8 <tmalloc_large+0x6a5>
40006def:	c7 45 e0 1f 00 00 00 	movl   $0x1f,-0x20(%ebp)
40006df6:	eb 26                	jmp    40006e1e <tmalloc_large+0x6cb>
40006df8:	0f bd 45 e4          	bsr    -0x1c(%ebp),%eax
40006dfc:	89 45 e8             	mov    %eax,-0x18(%ebp)
40006dff:	8b 45 e8             	mov    -0x18(%ebp),%eax
40006e02:	8d 14 00             	lea    (%eax,%eax,1),%edx
40006e05:	8b 45 e8             	mov    -0x18(%ebp),%eax
40006e08:	83 c0 07             	add    $0x7,%eax
40006e0b:	89 c1                	mov    %eax,%ecx
40006e0d:	8b 85 70 ff ff ff    	mov    -0x90(%ebp),%eax
40006e13:	d3 e8                	shr    %cl,%eax
40006e15:	83 e0 01             	and    $0x1,%eax
40006e18:	8d 04 02             	lea    (%edx,%eax,1),%eax
40006e1b:	89 45 e0             	mov    %eax,-0x20(%ebp)
40006e1e:	8b 45 08             	mov    0x8(%ebp),%eax
40006e21:	8d 90 2c 01 00 00    	lea    0x12c(%eax),%edx
40006e27:	8b 45 e0             	mov    -0x20(%ebp),%eax
40006e2a:	c1 e0 02             	shl    $0x2,%eax
40006e2d:	8d 04 02             	lea    (%edx,%eax,1),%eax
40006e30:	89 45 dc             	mov    %eax,-0x24(%ebp)
40006e33:	8b 55 d8             	mov    -0x28(%ebp),%edx
40006e36:	8b 45 e0             	mov    -0x20(%ebp),%eax
40006e39:	89 42 1c             	mov    %eax,0x1c(%edx)
40006e3c:	8b 45 d8             	mov    -0x28(%ebp),%eax
40006e3f:	c7 40 14 00 00 00 00 	movl   $0x0,0x14(%eax)
40006e46:	8b 45 d8             	mov    -0x28(%ebp),%eax
40006e49:	8b 50 14             	mov    0x14(%eax),%edx
40006e4c:	8b 45 d8             	mov    -0x28(%ebp),%eax
40006e4f:	89 50 10             	mov    %edx,0x10(%eax)
40006e52:	8b 45 08             	mov    0x8(%ebp),%eax
40006e55:	8b 50 04             	mov    0x4(%eax),%edx
40006e58:	8b 4d e0             	mov    -0x20(%ebp),%ecx
40006e5b:	b8 01 00 00 00       	mov    $0x1,%eax
40006e60:	d3 e0                	shl    %cl,%eax
40006e62:	21 d0                	and    %edx,%eax
40006e64:	85 c0                	test   %eax,%eax
40006e66:	75 43                	jne    40006eab <tmalloc_large+0x758>
40006e68:	8b 45 08             	mov    0x8(%ebp),%eax
40006e6b:	8b 50 04             	mov    0x4(%eax),%edx
40006e6e:	8b 4d e0             	mov    -0x20(%ebp),%ecx
40006e71:	b8 01 00 00 00       	mov    $0x1,%eax
40006e76:	d3 e0                	shl    %cl,%eax
40006e78:	09 c2                	or     %eax,%edx
40006e7a:	8b 45 08             	mov    0x8(%ebp),%eax
40006e7d:	89 50 04             	mov    %edx,0x4(%eax)
40006e80:	8b 55 dc             	mov    -0x24(%ebp),%edx
40006e83:	8b 45 d8             	mov    -0x28(%ebp),%eax
40006e86:	89 02                	mov    %eax,(%edx)
40006e88:	8b 55 dc             	mov    -0x24(%ebp),%edx
40006e8b:	8b 45 d8             	mov    -0x28(%ebp),%eax
40006e8e:	89 50 18             	mov    %edx,0x18(%eax)
40006e91:	8b 55 d8             	mov    -0x28(%ebp),%edx
40006e94:	8b 45 d8             	mov    -0x28(%ebp),%eax
40006e97:	89 42 0c             	mov    %eax,0xc(%edx)
40006e9a:	8b 45 d8             	mov    -0x28(%ebp),%eax
40006e9d:	8b 50 0c             	mov    0xc(%eax),%edx
40006ea0:	8b 45 d8             	mov    -0x28(%ebp),%eax
40006ea3:	89 50 08             	mov    %edx,0x8(%eax)
40006ea6:	e9 2b 01 00 00       	jmp    40006fd6 <tmalloc_large+0x883>
40006eab:	8b 45 dc             	mov    -0x24(%ebp),%eax
40006eae:	8b 00                	mov    (%eax),%eax
40006eb0:	89 45 ec             	mov    %eax,-0x14(%ebp)
40006eb3:	83 7d e0 1f          	cmpl   $0x1f,-0x20(%ebp)
40006eb7:	74 16                	je     40006ecf <tmalloc_large+0x77c>
40006eb9:	8b 45 e0             	mov    -0x20(%ebp),%eax
40006ebc:	89 c2                	mov    %eax,%edx
40006ebe:	d1 ea                	shr    %edx
40006ec0:	b8 19 00 00 00       	mov    $0x19,%eax
40006ec5:	29 d0                	sub    %edx,%eax
40006ec7:	89 85 64 ff ff ff    	mov    %eax,-0x9c(%ebp)
40006ecd:	eb 0a                	jmp    40006ed9 <tmalloc_large+0x786>
40006ecf:	c7 85 64 ff ff ff 00 	movl   $0x0,-0x9c(%ebp)
40006ed6:	00 00 00 
40006ed9:	8b 85 70 ff ff ff    	mov    -0x90(%ebp),%eax
40006edf:	0f b6 8d 64 ff ff ff 	movzbl -0x9c(%ebp),%ecx
40006ee6:	d3 e0                	shl    %cl,%eax
40006ee8:	89 45 f0             	mov    %eax,-0x10(%ebp)
40006eeb:	8b 45 ec             	mov    -0x14(%ebp),%eax
40006eee:	8b 40 04             	mov    0x4(%eax),%eax
40006ef1:	83 e0 fc             	and    $0xfffffffc,%eax
40006ef4:	3b 85 70 ff ff ff    	cmp    -0x90(%ebp),%eax
40006efa:	74 6f                	je     40006f6b <tmalloc_large+0x818>
40006efc:	8b 45 ec             	mov    -0x14(%ebp),%eax
40006eff:	8d 50 10             	lea    0x10(%eax),%edx
40006f02:	8b 45 f0             	mov    -0x10(%ebp),%eax
40006f05:	c1 e8 1f             	shr    $0x1f,%eax
40006f08:	c1 e0 02             	shl    $0x2,%eax
40006f0b:	8d 04 02             	lea    (%edx,%eax,1),%eax
40006f0e:	89 45 f4             	mov    %eax,-0xc(%ebp)
40006f11:	d1 65 f0             	shll   -0x10(%ebp)
40006f14:	8b 45 f4             	mov    -0xc(%ebp),%eax
40006f17:	8b 00                	mov    (%eax),%eax
40006f19:	85 c0                	test   %eax,%eax
40006f1b:	74 0a                	je     40006f27 <tmalloc_large+0x7d4>
40006f1d:	8b 45 f4             	mov    -0xc(%ebp),%eax
40006f20:	8b 00                	mov    (%eax),%eax
40006f22:	89 45 ec             	mov    %eax,-0x14(%ebp)
40006f25:	eb c4                	jmp    40006eeb <tmalloc_large+0x798>
40006f27:	8b 45 08             	mov    0x8(%ebp),%eax
40006f2a:	8b 50 10             	mov    0x10(%eax),%edx
40006f2d:	8b 45 f4             	mov    -0xc(%ebp),%eax
40006f30:	39 c2                	cmp    %eax,%edx
40006f32:	0f 96 c0             	setbe  %al
40006f35:	0f b6 c0             	movzbl %al,%eax
40006f38:	85 c0                	test   %eax,%eax
40006f3a:	74 28                	je     40006f64 <tmalloc_large+0x811>
40006f3c:	8b 55 f4             	mov    -0xc(%ebp),%edx
40006f3f:	8b 45 d8             	mov    -0x28(%ebp),%eax
40006f42:	89 02                	mov    %eax,(%edx)
40006f44:	8b 55 d8             	mov    -0x28(%ebp),%edx
40006f47:	8b 45 ec             	mov    -0x14(%ebp),%eax
40006f4a:	89 42 18             	mov    %eax,0x18(%edx)
40006f4d:	8b 55 d8             	mov    -0x28(%ebp),%edx
40006f50:	8b 45 d8             	mov    -0x28(%ebp),%eax
40006f53:	89 42 0c             	mov    %eax,0xc(%edx)
40006f56:	8b 45 d8             	mov    -0x28(%ebp),%eax
40006f59:	8b 50 0c             	mov    0xc(%eax),%edx
40006f5c:	8b 45 d8             	mov    -0x28(%ebp),%eax
40006f5f:	89 50 08             	mov    %edx,0x8(%eax)
40006f62:	eb 72                	jmp    40006fd6 <tmalloc_large+0x883>
40006f64:	e8 17 6a 00 00       	call   4000d980 <abort>
40006f69:	eb 6b                	jmp    40006fd6 <tmalloc_large+0x883>
40006f6b:	8b 45 ec             	mov    -0x14(%ebp),%eax
40006f6e:	8b 40 08             	mov    0x8(%eax),%eax
40006f71:	89 45 f8             	mov    %eax,-0x8(%ebp)
40006f74:	8b 45 08             	mov    0x8(%ebp),%eax
40006f77:	8b 50 10             	mov    0x10(%eax),%edx
40006f7a:	8b 45 ec             	mov    -0x14(%ebp),%eax
40006f7d:	39 c2                	cmp    %eax,%edx
40006f7f:	0f 96 c0             	setbe  %al
40006f82:	0f b6 c0             	movzbl %al,%eax
40006f85:	85 c0                	test   %eax,%eax
40006f87:	74 48                	je     40006fd1 <tmalloc_large+0x87e>
40006f89:	8b 45 08             	mov    0x8(%ebp),%eax
40006f8c:	8b 50 10             	mov    0x10(%eax),%edx
40006f8f:	8b 45 f8             	mov    -0x8(%ebp),%eax
40006f92:	39 c2                	cmp    %eax,%edx
40006f94:	0f 96 c0             	setbe  %al
40006f97:	0f b6 c0             	movzbl %al,%eax
40006f9a:	85 c0                	test   %eax,%eax
40006f9c:	74 33                	je     40006fd1 <tmalloc_large+0x87e>
40006f9e:	8b 55 f8             	mov    -0x8(%ebp),%edx
40006fa1:	8b 45 d8             	mov    -0x28(%ebp),%eax
40006fa4:	89 42 0c             	mov    %eax,0xc(%edx)
40006fa7:	8b 45 f8             	mov    -0x8(%ebp),%eax
40006faa:	8b 50 0c             	mov    0xc(%eax),%edx
40006fad:	8b 45 ec             	mov    -0x14(%ebp),%eax
40006fb0:	89 50 08             	mov    %edx,0x8(%eax)
40006fb3:	8b 55 d8             	mov    -0x28(%ebp),%edx
40006fb6:	8b 45 f8             	mov    -0x8(%ebp),%eax
40006fb9:	89 42 08             	mov    %eax,0x8(%edx)
40006fbc:	8b 55 d8             	mov    -0x28(%ebp),%edx
40006fbf:	8b 45 ec             	mov    -0x14(%ebp),%eax
40006fc2:	89 42 0c             	mov    %eax,0xc(%edx)
40006fc5:	8b 45 d8             	mov    -0x28(%ebp),%eax
40006fc8:	c7 40 18 00 00 00 00 	movl   $0x0,0x18(%eax)
40006fcf:	eb 05                	jmp    40006fd6 <tmalloc_large+0x883>
40006fd1:	e8 aa 69 00 00       	call   4000d980 <abort>
40006fd6:	8b 85 6c ff ff ff    	mov    -0x94(%ebp),%eax
40006fdc:	83 c0 08             	add    $0x8,%eax
40006fdf:	89 85 68 ff ff ff    	mov    %eax,-0x98(%ebp)
40006fe5:	eb 0f                	jmp    40006ff6 <tmalloc_large+0x8a3>
40006fe7:	e8 94 69 00 00       	call   4000d980 <abort>
40006fec:	c7 85 68 ff ff ff 00 	movl   $0x0,-0x98(%ebp)
40006ff3:	00 00 00 
40006ff6:	8b 85 68 ff ff ff    	mov    -0x98(%ebp),%eax
40006ffc:	81 c4 a4 00 00 00    	add    $0xa4,%esp
40007002:	5b                   	pop    %ebx
40007003:	5d                   	pop    %ebp
40007004:	c3                   	ret    

40007005 <tmalloc_small>:
40007005:	55                   	push   %ebp
40007006:	89 e5                	mov    %esp,%ebp
40007008:	53                   	push   %ebx
40007009:	83 ec 74             	sub    $0x74,%esp
4000700c:	8b 45 08             	mov    0x8(%ebp),%eax
4000700f:	8b 50 04             	mov    0x4(%eax),%edx
40007012:	8b 45 08             	mov    0x8(%ebp),%eax
40007015:	8b 40 04             	mov    0x4(%eax),%eax
40007018:	f7 d8                	neg    %eax
4000701a:	21 d0                	and    %edx,%eax
4000701c:	89 45 b8             	mov    %eax,-0x48(%ebp)
4000701f:	0f bc 45 b8          	bsf    -0x48(%ebp),%eax
40007023:	89 45 bc             	mov    %eax,-0x44(%ebp)
40007026:	8b 45 bc             	mov    -0x44(%ebp),%eax
40007029:	89 45 b4             	mov    %eax,-0x4c(%ebp)
4000702c:	8b 45 08             	mov    0x8(%ebp),%eax
4000702f:	8d 90 2c 01 00 00    	lea    0x12c(%eax),%edx
40007035:	8b 45 b4             	mov    -0x4c(%ebp),%eax
40007038:	c1 e0 02             	shl    $0x2,%eax
4000703b:	8d 04 02             	lea    (%edx,%eax,1),%eax
4000703e:	8b 00                	mov    (%eax),%eax
40007040:	89 45 a8             	mov    %eax,-0x58(%ebp)
40007043:	8b 45 a8             	mov    -0x58(%ebp),%eax
40007046:	89 45 ac             	mov    %eax,-0x54(%ebp)
40007049:	8b 45 a8             	mov    -0x58(%ebp),%eax
4000704c:	8b 40 04             	mov    0x4(%eax),%eax
4000704f:	83 e0 fc             	and    $0xfffffffc,%eax
40007052:	2b 45 0c             	sub    0xc(%ebp),%eax
40007055:	89 45 b0             	mov    %eax,-0x50(%ebp)
40007058:	eb 23                	jmp    4000707d <tmalloc_small+0x78>
4000705a:	8b 45 a8             	mov    -0x58(%ebp),%eax
4000705d:	8b 40 04             	mov    0x4(%eax),%eax
40007060:	83 e0 fc             	and    $0xfffffffc,%eax
40007063:	2b 45 0c             	sub    0xc(%ebp),%eax
40007066:	89 45 c0             	mov    %eax,-0x40(%ebp)
40007069:	8b 45 c0             	mov    -0x40(%ebp),%eax
4000706c:	3b 45 b0             	cmp    -0x50(%ebp),%eax
4000706f:	73 0c                	jae    4000707d <tmalloc_small+0x78>
40007071:	8b 45 c0             	mov    -0x40(%ebp),%eax
40007074:	89 45 b0             	mov    %eax,-0x50(%ebp)
40007077:	8b 45 a8             	mov    -0x58(%ebp),%eax
4000707a:	89 45 ac             	mov    %eax,-0x54(%ebp)
4000707d:	8b 45 a8             	mov    -0x58(%ebp),%eax
40007080:	8b 40 10             	mov    0x10(%eax),%eax
40007083:	85 c0                	test   %eax,%eax
40007085:	74 0b                	je     40007092 <tmalloc_small+0x8d>
40007087:	8b 45 a8             	mov    -0x58(%ebp),%eax
4000708a:	8b 40 10             	mov    0x10(%eax),%eax
4000708d:	89 45 94             	mov    %eax,-0x6c(%ebp)
40007090:	eb 09                	jmp    4000709b <tmalloc_small+0x96>
40007092:	8b 45 a8             	mov    -0x58(%ebp),%eax
40007095:	8b 40 14             	mov    0x14(%eax),%eax
40007098:	89 45 94             	mov    %eax,-0x6c(%ebp)
4000709b:	8b 45 94             	mov    -0x6c(%ebp),%eax
4000709e:	89 45 a8             	mov    %eax,-0x58(%ebp)
400070a1:	83 7d a8 00          	cmpl   $0x0,-0x58(%ebp)
400070a5:	75 b3                	jne    4000705a <tmalloc_small+0x55>
400070a7:	8b 45 08             	mov    0x8(%ebp),%eax
400070aa:	8b 50 10             	mov    0x10(%eax),%edx
400070ad:	8b 45 ac             	mov    -0x54(%ebp),%eax
400070b0:	39 c2                	cmp    %eax,%edx
400070b2:	0f 96 c0             	setbe  %al
400070b5:	0f b6 c0             	movzbl %al,%eax
400070b8:	85 c0                	test   %eax,%eax
400070ba:	0f 84 8c 03 00 00    	je     4000744c <tmalloc_small+0x447>
400070c0:	8b 45 ac             	mov    -0x54(%ebp),%eax
400070c3:	03 45 0c             	add    0xc(%ebp),%eax
400070c6:	89 45 c4             	mov    %eax,-0x3c(%ebp)
400070c9:	8b 55 ac             	mov    -0x54(%ebp),%edx
400070cc:	8b 45 c4             	mov    -0x3c(%ebp),%eax
400070cf:	39 c2                	cmp    %eax,%edx
400070d1:	0f 92 c0             	setb   %al
400070d4:	0f b6 c0             	movzbl %al,%eax
400070d7:	85 c0                	test   %eax,%eax
400070d9:	0f 84 6d 03 00 00    	je     4000744c <tmalloc_small+0x447>
400070df:	8b 45 ac             	mov    -0x54(%ebp),%eax
400070e2:	8b 40 18             	mov    0x18(%eax),%eax
400070e5:	89 45 c8             	mov    %eax,-0x38(%ebp)
400070e8:	8b 45 ac             	mov    -0x54(%ebp),%eax
400070eb:	8b 40 0c             	mov    0xc(%eax),%eax
400070ee:	3b 45 ac             	cmp    -0x54(%ebp),%eax
400070f1:	74 48                	je     4000713b <tmalloc_small+0x136>
400070f3:	8b 45 ac             	mov    -0x54(%ebp),%eax
400070f6:	8b 40 08             	mov    0x8(%eax),%eax
400070f9:	89 45 d0             	mov    %eax,-0x30(%ebp)
400070fc:	8b 45 ac             	mov    -0x54(%ebp),%eax
400070ff:	8b 40 0c             	mov    0xc(%eax),%eax
40007102:	89 45 cc             	mov    %eax,-0x34(%ebp)
40007105:	8b 45 08             	mov    0x8(%ebp),%eax
40007108:	8b 50 10             	mov    0x10(%eax),%edx
4000710b:	8b 45 d0             	mov    -0x30(%ebp),%eax
4000710e:	39 c2                	cmp    %eax,%edx
40007110:	0f 96 c0             	setbe  %al
40007113:	0f b6 c0             	movzbl %al,%eax
40007116:	85 c0                	test   %eax,%eax
40007118:	74 17                	je     40007131 <tmalloc_small+0x12c>
4000711a:	8b 55 d0             	mov    -0x30(%ebp),%edx
4000711d:	8b 45 cc             	mov    -0x34(%ebp),%eax
40007120:	89 42 0c             	mov    %eax,0xc(%edx)
40007123:	8b 55 cc             	mov    -0x34(%ebp),%edx
40007126:	8b 45 d0             	mov    -0x30(%ebp),%eax
40007129:	89 42 08             	mov    %eax,0x8(%edx)
4000712c:	e9 91 00 00 00       	jmp    400071c2 <tmalloc_small+0x1bd>
40007131:	e8 4a 68 00 00       	call   4000d980 <abort>
40007136:	e9 87 00 00 00       	jmp    400071c2 <tmalloc_small+0x1bd>
4000713b:	8b 45 ac             	mov    -0x54(%ebp),%eax
4000713e:	83 c0 14             	add    $0x14,%eax
40007141:	89 45 d4             	mov    %eax,-0x2c(%ebp)
40007144:	8b 45 d4             	mov    -0x2c(%ebp),%eax
40007147:	8b 00                	mov    (%eax),%eax
40007149:	89 45 cc             	mov    %eax,-0x34(%ebp)
4000714c:	83 7d cc 00          	cmpl   $0x0,-0x34(%ebp)
40007150:	75 27                	jne    40007179 <tmalloc_small+0x174>
40007152:	8b 45 ac             	mov    -0x54(%ebp),%eax
40007155:	83 c0 10             	add    $0x10,%eax
40007158:	89 45 d4             	mov    %eax,-0x2c(%ebp)
4000715b:	8b 45 d4             	mov    -0x2c(%ebp),%eax
4000715e:	8b 00                	mov    (%eax),%eax
40007160:	89 45 cc             	mov    %eax,-0x34(%ebp)
40007163:	83 7d cc 00          	cmpl   $0x0,-0x34(%ebp)
40007167:	74 59                	je     400071c2 <tmalloc_small+0x1bd>
40007169:	eb 0e                	jmp    40007179 <tmalloc_small+0x174>
4000716b:	8b 45 d8             	mov    -0x28(%ebp),%eax
4000716e:	89 45 d4             	mov    %eax,-0x2c(%ebp)
40007171:	8b 45 d4             	mov    -0x2c(%ebp),%eax
40007174:	8b 00                	mov    (%eax),%eax
40007176:	89 45 cc             	mov    %eax,-0x34(%ebp)
40007179:	8b 45 cc             	mov    -0x34(%ebp),%eax
4000717c:	83 c0 14             	add    $0x14,%eax
4000717f:	89 45 d8             	mov    %eax,-0x28(%ebp)
40007182:	8b 45 d8             	mov    -0x28(%ebp),%eax
40007185:	8b 00                	mov    (%eax),%eax
40007187:	85 c0                	test   %eax,%eax
40007189:	75 e0                	jne    4000716b <tmalloc_small+0x166>
4000718b:	8b 45 cc             	mov    -0x34(%ebp),%eax
4000718e:	83 c0 10             	add    $0x10,%eax
40007191:	89 45 d8             	mov    %eax,-0x28(%ebp)
40007194:	8b 45 d8             	mov    -0x28(%ebp),%eax
40007197:	8b 00                	mov    (%eax),%eax
40007199:	85 c0                	test   %eax,%eax
4000719b:	75 ce                	jne    4000716b <tmalloc_small+0x166>
4000719d:	8b 45 08             	mov    0x8(%ebp),%eax
400071a0:	8b 50 10             	mov    0x10(%eax),%edx
400071a3:	8b 45 d4             	mov    -0x2c(%ebp),%eax
400071a6:	39 c2                	cmp    %eax,%edx
400071a8:	0f 96 c0             	setbe  %al
400071ab:	0f b6 c0             	movzbl %al,%eax
400071ae:	85 c0                	test   %eax,%eax
400071b0:	74 0b                	je     400071bd <tmalloc_small+0x1b8>
400071b2:	8b 45 d4             	mov    -0x2c(%ebp),%eax
400071b5:	c7 00 00 00 00 00    	movl   $0x0,(%eax)
400071bb:	eb 05                	jmp    400071c2 <tmalloc_small+0x1bd>
400071bd:	e8 be 67 00 00       	call   4000d980 <abort>
400071c2:	83 7d c8 00          	cmpl   $0x0,-0x38(%ebp)
400071c6:	0f 84 3c 01 00 00    	je     40007308 <tmalloc_small+0x303>
400071cc:	8b 45 08             	mov    0x8(%ebp),%eax
400071cf:	8d 90 2c 01 00 00    	lea    0x12c(%eax),%edx
400071d5:	8b 45 ac             	mov    -0x54(%ebp),%eax
400071d8:	8b 40 1c             	mov    0x1c(%eax),%eax
400071db:	c1 e0 02             	shl    $0x2,%eax
400071de:	8d 04 02             	lea    (%edx,%eax,1),%eax
400071e1:	89 45 dc             	mov    %eax,-0x24(%ebp)
400071e4:	8b 45 dc             	mov    -0x24(%ebp),%eax
400071e7:	8b 00                	mov    (%eax),%eax
400071e9:	3b 45 ac             	cmp    -0x54(%ebp),%eax
400071ec:	75 32                	jne    40007220 <tmalloc_small+0x21b>
400071ee:	8b 55 dc             	mov    -0x24(%ebp),%edx
400071f1:	8b 45 cc             	mov    -0x34(%ebp),%eax
400071f4:	89 02                	mov    %eax,(%edx)
400071f6:	8b 45 dc             	mov    -0x24(%ebp),%eax
400071f9:	8b 00                	mov    (%eax),%eax
400071fb:	85 c0                	test   %eax,%eax
400071fd:	75 5c                	jne    4000725b <tmalloc_small+0x256>
400071ff:	8b 45 08             	mov    0x8(%ebp),%eax
40007202:	8b 50 04             	mov    0x4(%eax),%edx
40007205:	8b 45 ac             	mov    -0x54(%ebp),%eax
40007208:	8b 40 1c             	mov    0x1c(%eax),%eax
4000720b:	89 c1                	mov    %eax,%ecx
4000720d:	b8 01 00 00 00       	mov    $0x1,%eax
40007212:	d3 e0                	shl    %cl,%eax
40007214:	f7 d0                	not    %eax
40007216:	21 c2                	and    %eax,%edx
40007218:	8b 45 08             	mov    0x8(%ebp),%eax
4000721b:	89 50 04             	mov    %edx,0x4(%eax)
4000721e:	eb 3b                	jmp    4000725b <tmalloc_small+0x256>
40007220:	8b 45 08             	mov    0x8(%ebp),%eax
40007223:	8b 50 10             	mov    0x10(%eax),%edx
40007226:	8b 45 c8             	mov    -0x38(%ebp),%eax
40007229:	39 c2                	cmp    %eax,%edx
4000722b:	0f 96 c0             	setbe  %al
4000722e:	0f b6 c0             	movzbl %al,%eax
40007231:	85 c0                	test   %eax,%eax
40007233:	74 21                	je     40007256 <tmalloc_small+0x251>
40007235:	8b 45 c8             	mov    -0x38(%ebp),%eax
40007238:	8b 40 10             	mov    0x10(%eax),%eax
4000723b:	3b 45 ac             	cmp    -0x54(%ebp),%eax
4000723e:	75 0b                	jne    4000724b <tmalloc_small+0x246>
40007240:	8b 55 c8             	mov    -0x38(%ebp),%edx
40007243:	8b 45 cc             	mov    -0x34(%ebp),%eax
40007246:	89 42 10             	mov    %eax,0x10(%edx)
40007249:	eb 10                	jmp    4000725b <tmalloc_small+0x256>
4000724b:	8b 55 c8             	mov    -0x38(%ebp),%edx
4000724e:	8b 45 cc             	mov    -0x34(%ebp),%eax
40007251:	89 42 14             	mov    %eax,0x14(%edx)
40007254:	eb 05                	jmp    4000725b <tmalloc_small+0x256>
40007256:	e8 25 67 00 00       	call   4000d980 <abort>
4000725b:	83 7d cc 00          	cmpl   $0x0,-0x34(%ebp)
4000725f:	0f 84 a3 00 00 00    	je     40007308 <tmalloc_small+0x303>
40007265:	8b 45 08             	mov    0x8(%ebp),%eax
40007268:	8b 50 10             	mov    0x10(%eax),%edx
4000726b:	8b 45 cc             	mov    -0x34(%ebp),%eax
4000726e:	39 c2                	cmp    %eax,%edx
40007270:	0f 96 c0             	setbe  %al
40007273:	0f b6 c0             	movzbl %al,%eax
40007276:	85 c0                	test   %eax,%eax
40007278:	0f 84 85 00 00 00    	je     40007303 <tmalloc_small+0x2fe>
4000727e:	8b 55 cc             	mov    -0x34(%ebp),%edx
40007281:	8b 45 c8             	mov    -0x38(%ebp),%eax
40007284:	89 42 18             	mov    %eax,0x18(%edx)
40007287:	8b 45 ac             	mov    -0x54(%ebp),%eax
4000728a:	8b 40 10             	mov    0x10(%eax),%eax
4000728d:	89 45 e0             	mov    %eax,-0x20(%ebp)
40007290:	83 7d e0 00          	cmpl   $0x0,-0x20(%ebp)
40007294:	74 2e                	je     400072c4 <tmalloc_small+0x2bf>
40007296:	8b 45 08             	mov    0x8(%ebp),%eax
40007299:	8b 50 10             	mov    0x10(%eax),%edx
4000729c:	8b 45 e0             	mov    -0x20(%ebp),%eax
4000729f:	39 c2                	cmp    %eax,%edx
400072a1:	0f 96 c0             	setbe  %al
400072a4:	0f b6 c0             	movzbl %al,%eax
400072a7:	85 c0                	test   %eax,%eax
400072a9:	74 14                	je     400072bf <tmalloc_small+0x2ba>
400072ab:	8b 55 cc             	mov    -0x34(%ebp),%edx
400072ae:	8b 45 e0             	mov    -0x20(%ebp),%eax
400072b1:	89 42 10             	mov    %eax,0x10(%edx)
400072b4:	8b 55 e0             	mov    -0x20(%ebp),%edx
400072b7:	8b 45 cc             	mov    -0x34(%ebp),%eax
400072ba:	89 42 18             	mov    %eax,0x18(%edx)
400072bd:	eb 05                	jmp    400072c4 <tmalloc_small+0x2bf>
400072bf:	e8 bc 66 00 00       	call   4000d980 <abort>
400072c4:	8b 45 ac             	mov    -0x54(%ebp),%eax
400072c7:	8b 40 14             	mov    0x14(%eax),%eax
400072ca:	89 45 e4             	mov    %eax,-0x1c(%ebp)
400072cd:	83 7d e4 00          	cmpl   $0x0,-0x1c(%ebp)
400072d1:	74 35                	je     40007308 <tmalloc_small+0x303>
400072d3:	8b 45 08             	mov    0x8(%ebp),%eax
400072d6:	8b 50 10             	mov    0x10(%eax),%edx
400072d9:	8b 45 e4             	mov    -0x1c(%ebp),%eax
400072dc:	39 c2                	cmp    %eax,%edx
400072de:	0f 96 c0             	setbe  %al
400072e1:	0f b6 c0             	movzbl %al,%eax
400072e4:	85 c0                	test   %eax,%eax
400072e6:	74 14                	je     400072fc <tmalloc_small+0x2f7>
400072e8:	8b 55 cc             	mov    -0x34(%ebp),%edx
400072eb:	8b 45 e4             	mov    -0x1c(%ebp),%eax
400072ee:	89 42 14             	mov    %eax,0x14(%edx)
400072f1:	8b 55 e4             	mov    -0x1c(%ebp),%edx
400072f4:	8b 45 cc             	mov    -0x34(%ebp),%eax
400072f7:	89 42 18             	mov    %eax,0x18(%edx)
400072fa:	eb 0c                	jmp    40007308 <tmalloc_small+0x303>
400072fc:	e8 7f 66 00 00       	call   4000d980 <abort>
40007301:	eb 05                	jmp    40007308 <tmalloc_small+0x303>
40007303:	e8 78 66 00 00       	call   4000d980 <abort>
40007308:	83 7d b0 0f          	cmpl   $0xf,-0x50(%ebp)
4000730c:	77 3d                	ja     4000734b <tmalloc_small+0x346>
4000730e:	8b 55 0c             	mov    0xc(%ebp),%edx
40007311:	8b 45 b0             	mov    -0x50(%ebp),%eax
40007314:	01 d0                	add    %edx,%eax
40007316:	89 c2                	mov    %eax,%edx
40007318:	83 ca 03             	or     $0x3,%edx
4000731b:	8b 45 ac             	mov    -0x54(%ebp),%eax
4000731e:	89 50 04             	mov    %edx,0x4(%eax)
40007321:	8b 4d ac             	mov    -0x54(%ebp),%ecx
40007324:	8b 55 0c             	mov    0xc(%ebp),%edx
40007327:	8b 45 b0             	mov    -0x50(%ebp),%eax
4000732a:	01 d0                	add    %edx,%eax
4000732c:	8d 1c 01             	lea    (%ecx,%eax,1),%ebx
4000732f:	8b 4d ac             	mov    -0x54(%ebp),%ecx
40007332:	8b 55 0c             	mov    0xc(%ebp),%edx
40007335:	8b 45 b0             	mov    -0x50(%ebp),%eax
40007338:	01 d0                	add    %edx,%eax
4000733a:	8d 04 01             	lea    (%ecx,%eax,1),%eax
4000733d:	8b 40 04             	mov    0x4(%eax),%eax
40007340:	83 c8 01             	or     $0x1,%eax
40007343:	89 43 04             	mov    %eax,0x4(%ebx)
40007346:	e9 f6 00 00 00       	jmp    40007441 <tmalloc_small+0x43c>
4000734b:	8b 45 0c             	mov    0xc(%ebp),%eax
4000734e:	89 c2                	mov    %eax,%edx
40007350:	83 ca 03             	or     $0x3,%edx
40007353:	8b 45 ac             	mov    -0x54(%ebp),%eax
40007356:	89 50 04             	mov    %edx,0x4(%eax)
40007359:	8b 45 b0             	mov    -0x50(%ebp),%eax
4000735c:	89 c2                	mov    %eax,%edx
4000735e:	83 ca 01             	or     $0x1,%edx
40007361:	8b 45 c4             	mov    -0x3c(%ebp),%eax
40007364:	89 50 04             	mov    %edx,0x4(%eax)
40007367:	8b 55 b0             	mov    -0x50(%ebp),%edx
4000736a:	8b 45 c4             	mov    -0x3c(%ebp),%eax
4000736d:	8d 14 10             	lea    (%eax,%edx,1),%edx
40007370:	8b 45 b0             	mov    -0x50(%ebp),%eax
40007373:	89 02                	mov    %eax,(%edx)
40007375:	8b 45 08             	mov    0x8(%ebp),%eax
40007378:	8b 40 08             	mov    0x8(%eax),%eax
4000737b:	89 45 e8             	mov    %eax,-0x18(%ebp)
4000737e:	83 7d e8 00          	cmpl   $0x0,-0x18(%ebp)
40007382:	0f 84 a7 00 00 00    	je     4000742f <tmalloc_small+0x42a>
40007388:	8b 45 08             	mov    0x8(%ebp),%eax
4000738b:	8b 40 14             	mov    0x14(%eax),%eax
4000738e:	89 45 ec             	mov    %eax,-0x14(%ebp)
40007391:	8b 45 e8             	mov    -0x18(%ebp),%eax
40007394:	c1 e8 03             	shr    $0x3,%eax
40007397:	89 45 f0             	mov    %eax,-0x10(%ebp)
4000739a:	8b 45 08             	mov    0x8(%ebp),%eax
4000739d:	83 c0 24             	add    $0x24,%eax
400073a0:	89 c2                	mov    %eax,%edx
400073a2:	8b 45 f0             	mov    -0x10(%ebp),%eax
400073a5:	c1 e0 03             	shl    $0x3,%eax
400073a8:	8d 04 02             	lea    (%edx,%eax,1),%eax
400073ab:	89 45 f4             	mov    %eax,-0xc(%ebp)
400073ae:	8b 45 f4             	mov    -0xc(%ebp),%eax
400073b1:	89 45 f8             	mov    %eax,-0x8(%ebp)
400073b4:	8b 45 08             	mov    0x8(%ebp),%eax
400073b7:	8b 10                	mov    (%eax),%edx
400073b9:	8b 4d f0             	mov    -0x10(%ebp),%ecx
400073bc:	b8 01 00 00 00       	mov    $0x1,%eax
400073c1:	d3 e0                	shl    %cl,%eax
400073c3:	21 d0                	and    %edx,%eax
400073c5:	85 c0                	test   %eax,%eax
400073c7:	75 18                	jne    400073e1 <tmalloc_small+0x3dc>
400073c9:	8b 45 08             	mov    0x8(%ebp),%eax
400073cc:	8b 10                	mov    (%eax),%edx
400073ce:	8b 4d f0             	mov    -0x10(%ebp),%ecx
400073d1:	b8 01 00 00 00       	mov    $0x1,%eax
400073d6:	d3 e0                	shl    %cl,%eax
400073d8:	09 c2                	or     %eax,%edx
400073da:	8b 45 08             	mov    0x8(%ebp),%eax
400073dd:	89 10                	mov    %edx,(%eax)
400073df:	eb 2a                	jmp    4000740b <tmalloc_small+0x406>
400073e1:	8b 45 f4             	mov    -0xc(%ebp),%eax
400073e4:	8b 40 08             	mov    0x8(%eax),%eax
400073e7:	89 c2                	mov    %eax,%edx
400073e9:	8b 45 08             	mov    0x8(%ebp),%eax
400073ec:	8b 40 10             	mov    0x10(%eax),%eax
400073ef:	39 c2                	cmp    %eax,%edx
400073f1:	0f 93 c0             	setae  %al
400073f4:	0f b6 c0             	movzbl %al,%eax
400073f7:	85 c0                	test   %eax,%eax
400073f9:	74 0b                	je     40007406 <tmalloc_small+0x401>
400073fb:	8b 45 f4             	mov    -0xc(%ebp),%eax
400073fe:	8b 40 08             	mov    0x8(%eax),%eax
40007401:	89 45 f8             	mov    %eax,-0x8(%ebp)
40007404:	eb 05                	jmp    4000740b <tmalloc_small+0x406>
40007406:	e8 75 65 00 00       	call   4000d980 <abort>
4000740b:	8b 55 f4             	mov    -0xc(%ebp),%edx
4000740e:	8b 45 ec             	mov    -0x14(%ebp),%eax
40007411:	89 42 08             	mov    %eax,0x8(%edx)
40007414:	8b 55 f8             	mov    -0x8(%ebp),%edx
40007417:	8b 45 ec             	mov    -0x14(%ebp),%eax
4000741a:	89 42 0c             	mov    %eax,0xc(%edx)
4000741d:	8b 55 ec             	mov    -0x14(%ebp),%edx
40007420:	8b 45 f8             	mov    -0x8(%ebp),%eax
40007423:	89 42 08             	mov    %eax,0x8(%edx)
40007426:	8b 55 ec             	mov    -0x14(%ebp),%edx
40007429:	8b 45 f4             	mov    -0xc(%ebp),%eax
4000742c:	89 42 0c             	mov    %eax,0xc(%edx)
4000742f:	8b 55 08             	mov    0x8(%ebp),%edx
40007432:	8b 45 b0             	mov    -0x50(%ebp),%eax
40007435:	89 42 08             	mov    %eax,0x8(%edx)
40007438:	8b 55 08             	mov    0x8(%ebp),%edx
4000743b:	8b 45 c4             	mov    -0x3c(%ebp),%eax
4000743e:	89 42 14             	mov    %eax,0x14(%edx)
40007441:	8b 45 ac             	mov    -0x54(%ebp),%eax
40007444:	83 c0 08             	add    $0x8,%eax
40007447:	89 45 98             	mov    %eax,-0x68(%ebp)
4000744a:	eb 0c                	jmp    40007458 <tmalloc_small+0x453>
4000744c:	e8 2f 65 00 00       	call   4000d980 <abort>
40007451:	c7 45 98 00 00 00 00 	movl   $0x0,-0x68(%ebp)
40007458:	8b 45 98             	mov    -0x68(%ebp),%eax
4000745b:	83 c4 74             	add    $0x74,%esp
4000745e:	5b                   	pop    %ebx
4000745f:	5d                   	pop    %ebp
40007460:	c3                   	ret    

40007461 <internal_realloc>:
40007461:	55                   	push   %ebp
40007462:	89 e5                	mov    %esp,%ebp
40007464:	83 ec 68             	sub    $0x68,%esp
40007467:	83 7d 10 bf          	cmpl   $0xffffffbf,0x10(%ebp)
4000746b:	76 16                	jbe    40007483 <internal_realloc+0x22>
4000746d:	c7 05 44 29 01 40 31 	movl   $0x31,0x40012944
40007474:	00 00 00 
40007477:	c7 45 ac 00 00 00 00 	movl   $0x0,-0x54(%ebp)
4000747e:	e9 99 02 00 00       	jmp    4000771c <internal_realloc+0x2bb>
40007483:	8b 45 0c             	mov    0xc(%ebp),%eax
40007486:	83 e8 08             	sub    $0x8,%eax
40007489:	89 45 cc             	mov    %eax,-0x34(%ebp)
4000748c:	8b 45 cc             	mov    -0x34(%ebp),%eax
4000748f:	8b 40 04             	mov    0x4(%eax),%eax
40007492:	83 e0 fc             	and    $0xfffffffc,%eax
40007495:	89 45 d0             	mov    %eax,-0x30(%ebp)
40007498:	8b 55 d0             	mov    -0x30(%ebp),%edx
4000749b:	8b 45 cc             	mov    -0x34(%ebp),%eax
4000749e:	01 d0                	add    %edx,%eax
400074a0:	89 45 d4             	mov    %eax,-0x2c(%ebp)
400074a3:	c7 45 d8 00 00 00 00 	movl   $0x0,-0x28(%ebp)
400074aa:	c7 45 dc 00 00 00 00 	movl   $0x0,-0x24(%ebp)
400074b1:	8b 45 08             	mov    0x8(%ebp),%eax
400074b4:	8b 50 10             	mov    0x10(%eax),%edx
400074b7:	8b 45 cc             	mov    -0x34(%ebp),%eax
400074ba:	39 c2                	cmp    %eax,%edx
400074bc:	0f 96 c0             	setbe  %al
400074bf:	0f b6 c0             	movzbl %al,%eax
400074c2:	85 c0                	test   %eax,%eax
400074c4:	74 1e                	je     400074e4 <internal_realloc+0x83>
400074c6:	8b 45 cc             	mov    -0x34(%ebp),%eax
400074c9:	8b 40 04             	mov    0x4(%eax),%eax
400074cc:	83 e0 02             	and    $0x2,%eax
400074cf:	85 c0                	test   %eax,%eax
400074d1:	0f 95 c0             	setne  %al
400074d4:	0f b6 c0             	movzbl %al,%eax
400074d7:	85 c0                	test   %eax,%eax
400074d9:	74 09                	je     400074e4 <internal_realloc+0x83>
400074db:	c7 45 b4 01 00 00 00 	movl   $0x1,-0x4c(%ebp)
400074e2:	eb 07                	jmp    400074eb <internal_realloc+0x8a>
400074e4:	c7 45 b4 00 00 00 00 	movl   $0x0,-0x4c(%ebp)
400074eb:	83 7d b4 00          	cmpl   $0x0,-0x4c(%ebp)
400074ef:	74 1b                	je     4000750c <internal_realloc+0xab>
400074f1:	8b 55 cc             	mov    -0x34(%ebp),%edx
400074f4:	8b 45 d4             	mov    -0x2c(%ebp),%eax
400074f7:	39 c2                	cmp    %eax,%edx
400074f9:	0f 92 c0             	setb   %al
400074fc:	0f b6 c0             	movzbl %al,%eax
400074ff:	85 c0                	test   %eax,%eax
40007501:	74 09                	je     4000750c <internal_realloc+0xab>
40007503:	c7 45 b0 01 00 00 00 	movl   $0x1,-0x50(%ebp)
4000750a:	eb 07                	jmp    40007513 <internal_realloc+0xb2>
4000750c:	c7 45 b0 00 00 00 00 	movl   $0x0,-0x50(%ebp)
40007513:	83 7d b0 00          	cmpl   $0x0,-0x50(%ebp)
40007517:	0f 84 74 01 00 00    	je     40007691 <internal_realloc+0x230>
4000751d:	8b 45 d4             	mov    -0x2c(%ebp),%eax
40007520:	8b 40 04             	mov    0x4(%eax),%eax
40007523:	83 e0 01             	and    $0x1,%eax
40007526:	85 c0                	test   %eax,%eax
40007528:	0f 84 63 01 00 00    	je     40007691 <internal_realloc+0x230>
4000752e:	83 7d 10 0a          	cmpl   $0xa,0x10(%ebp)
40007532:	76 10                	jbe    40007544 <internal_realloc+0xe3>
40007534:	8b 45 10             	mov    0x10(%ebp),%eax
40007537:	83 c0 0b             	add    $0xb,%eax
4000753a:	89 c2                	mov    %eax,%edx
4000753c:	83 e2 f8             	and    $0xfffffff8,%edx
4000753f:	89 55 b8             	mov    %edx,-0x48(%ebp)
40007542:	eb 07                	jmp    4000754b <internal_realloc+0xea>
40007544:	c7 45 b8 10 00 00 00 	movl   $0x10,-0x48(%ebp)
4000754b:	8b 45 b8             	mov    -0x48(%ebp),%eax
4000754e:	89 45 e0             	mov    %eax,-0x20(%ebp)
40007551:	8b 45 d0             	mov    -0x30(%ebp),%eax
40007554:	3b 45 e0             	cmp    -0x20(%ebp),%eax
40007557:	0f 82 96 00 00 00    	jb     400075f3 <internal_realloc+0x192>
4000755d:	8b 55 e0             	mov    -0x20(%ebp),%edx
40007560:	8b 45 d0             	mov    -0x30(%ebp),%eax
40007563:	29 d0                	sub    %edx,%eax
40007565:	89 45 e4             	mov    %eax,-0x1c(%ebp)
40007568:	8b 45 cc             	mov    -0x34(%ebp),%eax
4000756b:	89 45 d8             	mov    %eax,-0x28(%ebp)
4000756e:	83 7d e4 0f          	cmpl   $0xf,-0x1c(%ebp)
40007572:	0f 86 11 01 00 00    	jbe    40007689 <internal_realloc+0x228>
40007578:	8b 55 e0             	mov    -0x20(%ebp),%edx
4000757b:	8b 45 d8             	mov    -0x28(%ebp),%eax
4000757e:	01 d0                	add    %edx,%eax
40007580:	89 45 e8             	mov    %eax,-0x18(%ebp)
40007583:	8b 45 d8             	mov    -0x28(%ebp),%eax
40007586:	8b 40 04             	mov    0x4(%eax),%eax
40007589:	83 e0 01             	and    $0x1,%eax
4000758c:	0b 45 e0             	or     -0x20(%ebp),%eax
4000758f:	89 c2                	mov    %eax,%edx
40007591:	83 ca 02             	or     $0x2,%edx
40007594:	8b 45 d8             	mov    -0x28(%ebp),%eax
40007597:	89 50 04             	mov    %edx,0x4(%eax)
4000759a:	8b 55 e0             	mov    -0x20(%ebp),%edx
4000759d:	8b 45 d8             	mov    -0x28(%ebp),%eax
400075a0:	8d 0c 10             	lea    (%eax,%edx,1),%ecx
400075a3:	8b 55 e0             	mov    -0x20(%ebp),%edx
400075a6:	8b 45 d8             	mov    -0x28(%ebp),%eax
400075a9:	01 d0                	add    %edx,%eax
400075ab:	8b 40 04             	mov    0x4(%eax),%eax
400075ae:	83 c8 01             	or     $0x1,%eax
400075b1:	89 41 04             	mov    %eax,0x4(%ecx)
400075b4:	8b 45 e8             	mov    -0x18(%ebp),%eax
400075b7:	8b 40 04             	mov    0x4(%eax),%eax
400075ba:	83 e0 01             	and    $0x1,%eax
400075bd:	0b 45 e4             	or     -0x1c(%ebp),%eax
400075c0:	89 c2                	mov    %eax,%edx
400075c2:	83 ca 02             	or     $0x2,%edx
400075c5:	8b 45 e8             	mov    -0x18(%ebp),%eax
400075c8:	89 50 04             	mov    %edx,0x4(%eax)
400075cb:	8b 55 e4             	mov    -0x1c(%ebp),%edx
400075ce:	8b 45 e8             	mov    -0x18(%ebp),%eax
400075d1:	8d 0c 10             	lea    (%eax,%edx,1),%ecx
400075d4:	8b 55 e4             	mov    -0x1c(%ebp),%edx
400075d7:	8b 45 e8             	mov    -0x18(%ebp),%eax
400075da:	01 d0                	add    %edx,%eax
400075dc:	8b 40 04             	mov    0x4(%eax),%eax
400075df:	83 c8 01             	or     $0x1,%eax
400075e2:	89 41 04             	mov    %eax,0x4(%ecx)
400075e5:	8b 45 e8             	mov    -0x18(%ebp),%eax
400075e8:	83 c0 08             	add    $0x8,%eax
400075eb:	89 45 dc             	mov    %eax,-0x24(%ebp)
400075ee:	e9 96 00 00 00       	jmp    40007689 <internal_realloc+0x228>
400075f3:	8b 45 08             	mov    0x8(%ebp),%eax
400075f6:	8b 40 18             	mov    0x18(%eax),%eax
400075f9:	3b 45 d4             	cmp    -0x2c(%ebp),%eax
400075fc:	0f 85 87 00 00 00    	jne    40007689 <internal_realloc+0x228>
40007602:	8b 45 08             	mov    0x8(%ebp),%eax
40007605:	8b 40 0c             	mov    0xc(%eax),%eax
40007608:	03 45 d0             	add    -0x30(%ebp),%eax
4000760b:	3b 45 e0             	cmp    -0x20(%ebp),%eax
4000760e:	76 79                	jbe    40007689 <internal_realloc+0x228>
40007610:	8b 45 08             	mov    0x8(%ebp),%eax
40007613:	8b 40 0c             	mov    0xc(%eax),%eax
40007616:	03 45 d0             	add    -0x30(%ebp),%eax
40007619:	89 45 ec             	mov    %eax,-0x14(%ebp)
4000761c:	8b 55 e0             	mov    -0x20(%ebp),%edx
4000761f:	8b 45 ec             	mov    -0x14(%ebp),%eax
40007622:	29 d0                	sub    %edx,%eax
40007624:	89 45 f0             	mov    %eax,-0x10(%ebp)
40007627:	8b 55 e0             	mov    -0x20(%ebp),%edx
4000762a:	8b 45 cc             	mov    -0x34(%ebp),%eax
4000762d:	01 d0                	add    %edx,%eax
4000762f:	89 45 f4             	mov    %eax,-0xc(%ebp)
40007632:	8b 45 cc             	mov    -0x34(%ebp),%eax
40007635:	8b 40 04             	mov    0x4(%eax),%eax
40007638:	83 e0 01             	and    $0x1,%eax
4000763b:	0b 45 e0             	or     -0x20(%ebp),%eax
4000763e:	89 c2                	mov    %eax,%edx
40007640:	83 ca 02             	or     $0x2,%edx
40007643:	8b 45 cc             	mov    -0x34(%ebp),%eax
40007646:	89 50 04             	mov    %edx,0x4(%eax)
40007649:	8b 55 e0             	mov    -0x20(%ebp),%edx
4000764c:	8b 45 cc             	mov    -0x34(%ebp),%eax
4000764f:	8d 0c 10             	lea    (%eax,%edx,1),%ecx
40007652:	8b 55 e0             	mov    -0x20(%ebp),%edx
40007655:	8b 45 cc             	mov    -0x34(%ebp),%eax
40007658:	01 d0                	add    %edx,%eax
4000765a:	8b 40 04             	mov    0x4(%eax),%eax
4000765d:	83 c8 01             	or     $0x1,%eax
40007660:	89 41 04             	mov    %eax,0x4(%ecx)
40007663:	8b 45 f0             	mov    -0x10(%ebp),%eax
40007666:	89 c2                	mov    %eax,%edx
40007668:	83 ca 01             	or     $0x1,%edx
4000766b:	8b 45 f4             	mov    -0xc(%ebp),%eax
4000766e:	89 50 04             	mov    %edx,0x4(%eax)
40007671:	8b 55 08             	mov    0x8(%ebp),%edx
40007674:	8b 45 f4             	mov    -0xc(%ebp),%eax
40007677:	89 42 18             	mov    %eax,0x18(%edx)
4000767a:	8b 55 08             	mov    0x8(%ebp),%edx
4000767d:	8b 45 f0             	mov    -0x10(%ebp),%eax
40007680:	89 42 0c             	mov    %eax,0xc(%edx)
40007683:	8b 45 cc             	mov    -0x34(%ebp),%eax
40007686:	89 45 d8             	mov    %eax,-0x28(%ebp)
40007689:	83 7d d8 00          	cmpl   $0x0,-0x28(%ebp)
4000768d:	75 10                	jne    4000769f <internal_realloc+0x23e>
4000768f:	eb 2a                	jmp    400076bb <internal_realloc+0x25a>
40007691:	e8 ea 62 00 00       	call   4000d980 <abort>
40007696:	c7 45 ac 00 00 00 00 	movl   $0x0,-0x54(%ebp)
4000769d:	eb 7d                	jmp    4000771c <internal_realloc+0x2bb>
4000769f:	83 7d dc 00          	cmpl   $0x0,-0x24(%ebp)
400076a3:	74 0b                	je     400076b0 <internal_realloc+0x24f>
400076a5:	8b 45 dc             	mov    -0x24(%ebp),%eax
400076a8:	89 04 24             	mov    %eax,(%esp)
400076ab:	e8 57 0a 00 00       	call   40008107 <free>
400076b0:	8b 45 d8             	mov    -0x28(%ebp),%eax
400076b3:	83 c0 08             	add    $0x8,%eax
400076b6:	89 45 ac             	mov    %eax,-0x54(%ebp)
400076b9:	eb 61                	jmp    4000771c <internal_realloc+0x2bb>
400076bb:	8b 45 10             	mov    0x10(%ebp),%eax
400076be:	89 04 24             	mov    %eax,(%esp)
400076c1:	e8 8a 05 00 00       	call   40007c50 <malloc>
400076c6:	89 45 f8             	mov    %eax,-0x8(%ebp)
400076c9:	83 7d f8 00          	cmpl   $0x0,-0x8(%ebp)
400076cd:	74 47                	je     40007716 <internal_realloc+0x2b5>
400076cf:	8b 45 d0             	mov    -0x30(%ebp),%eax
400076d2:	83 e8 04             	sub    $0x4,%eax
400076d5:	89 45 fc             	mov    %eax,-0x4(%ebp)
400076d8:	8b 55 fc             	mov    -0x4(%ebp),%edx
400076db:	89 55 a8             	mov    %edx,-0x58(%ebp)
400076de:	8b 45 10             	mov    0x10(%ebp),%eax
400076e1:	89 45 bc             	mov    %eax,-0x44(%ebp)
400076e4:	8b 55 a8             	mov    -0x58(%ebp),%edx
400076e7:	39 55 bc             	cmp    %edx,-0x44(%ebp)
400076ea:	76 06                	jbe    400076f2 <internal_realloc+0x291>
400076ec:	8b 45 a8             	mov    -0x58(%ebp),%eax
400076ef:	89 45 bc             	mov    %eax,-0x44(%ebp)
400076f2:	8b 55 bc             	mov    -0x44(%ebp),%edx
400076f5:	89 54 24 08          	mov    %edx,0x8(%esp)
400076f9:	8b 45 0c             	mov    0xc(%ebp),%eax
400076fc:	89 44 24 04          	mov    %eax,0x4(%esp)
40007700:	8b 45 f8             	mov    -0x8(%ebp),%eax
40007703:	89 04 24             	mov    %eax,(%esp)
40007706:	e8 1d 39 00 00       	call   4000b028 <memcpy>
4000770b:	8b 45 0c             	mov    0xc(%ebp),%eax
4000770e:	89 04 24             	mov    %eax,(%esp)
40007711:	e8 f1 09 00 00       	call   40008107 <free>
40007716:	8b 45 f8             	mov    -0x8(%ebp),%eax
40007719:	89 45 ac             	mov    %eax,-0x54(%ebp)
4000771c:	8b 45 ac             	mov    -0x54(%ebp),%eax
4000771f:	c9                   	leave  
40007720:	c3                   	ret    

40007721 <internal_memalign>:
40007721:	55                   	push   %ebp
40007722:	89 e5                	mov    %esp,%ebp
40007724:	83 ec 58             	sub    $0x58,%esp
40007727:	83 7d 0c 08          	cmpl   $0x8,0xc(%ebp)
4000772b:	77 13                	ja     40007740 <internal_memalign+0x1f>
4000772d:	8b 45 10             	mov    0x10(%ebp),%eax
40007730:	89 04 24             	mov    %eax,(%esp)
40007733:	e8 18 05 00 00       	call   40007c50 <malloc>
40007738:	89 45 b4             	mov    %eax,-0x4c(%ebp)
4000773b:	e9 7c 02 00 00       	jmp    400079bc <internal_memalign+0x29b>
40007740:	83 7d 0c 0f          	cmpl   $0xf,0xc(%ebp)
40007744:	77 07                	ja     4000774d <internal_memalign+0x2c>
40007746:	c7 45 0c 10 00 00 00 	movl   $0x10,0xc(%ebp)
4000774d:	8b 45 0c             	mov    0xc(%ebp),%eax
40007750:	83 e8 01             	sub    $0x1,%eax
40007753:	23 45 0c             	and    0xc(%ebp),%eax
40007756:	85 c0                	test   %eax,%eax
40007758:	74 1a                	je     40007774 <internal_memalign+0x53>
4000775a:	c7 45 c4 10 00 00 00 	movl   $0x10,-0x3c(%ebp)
40007761:	eb 03                	jmp    40007766 <internal_memalign+0x45>
40007763:	d1 65 c4             	shll   -0x3c(%ebp)
40007766:	8b 45 c4             	mov    -0x3c(%ebp),%eax
40007769:	3b 45 0c             	cmp    0xc(%ebp),%eax
4000776c:	72 f5                	jb     40007763 <internal_memalign+0x42>
4000776e:	8b 45 c4             	mov    -0x3c(%ebp),%eax
40007771:	89 45 0c             	mov    %eax,0xc(%ebp)
40007774:	b8 c0 ff ff ff       	mov    $0xffffffc0,%eax
40007779:	2b 45 0c             	sub    0xc(%ebp),%eax
4000777c:	3b 45 10             	cmp    0x10(%ebp),%eax
4000777f:	77 19                	ja     4000779a <internal_memalign+0x79>
40007781:	83 7d 08 00          	cmpl   $0x0,0x8(%ebp)
40007785:	0f 84 2a 02 00 00    	je     400079b5 <internal_memalign+0x294>
4000778b:	c7 05 44 29 01 40 31 	movl   $0x31,0x40012944
40007792:	00 00 00 
40007795:	e9 1b 02 00 00       	jmp    400079b5 <internal_memalign+0x294>
4000779a:	83 7d 10 0a          	cmpl   $0xa,0x10(%ebp)
4000779e:	76 10                	jbe    400077b0 <internal_memalign+0x8f>
400077a0:	8b 45 10             	mov    0x10(%ebp),%eax
400077a3:	83 c0 0b             	add    $0xb,%eax
400077a6:	89 c2                	mov    %eax,%edx
400077a8:	83 e2 f8             	and    $0xfffffff8,%edx
400077ab:	89 55 b8             	mov    %edx,-0x48(%ebp)
400077ae:	eb 07                	jmp    400077b7 <internal_memalign+0x96>
400077b0:	c7 45 b8 10 00 00 00 	movl   $0x10,-0x48(%ebp)
400077b7:	8b 4d b8             	mov    -0x48(%ebp),%ecx
400077ba:	89 4d c8             	mov    %ecx,-0x38(%ebp)
400077bd:	8b 55 0c             	mov    0xc(%ebp),%edx
400077c0:	8b 45 c8             	mov    -0x38(%ebp),%eax
400077c3:	01 d0                	add    %edx,%eax
400077c5:	83 c0 0c             	add    $0xc,%eax
400077c8:	89 45 cc             	mov    %eax,-0x34(%ebp)
400077cb:	8b 45 cc             	mov    -0x34(%ebp),%eax
400077ce:	89 04 24             	mov    %eax,(%esp)
400077d1:	e8 7a 04 00 00       	call   40007c50 <malloc>
400077d6:	89 45 d0             	mov    %eax,-0x30(%ebp)
400077d9:	83 7d d0 00          	cmpl   $0x0,-0x30(%ebp)
400077dd:	0f 84 d2 01 00 00    	je     400079b5 <internal_memalign+0x294>
400077e3:	c7 45 d4 00 00 00 00 	movl   $0x0,-0x2c(%ebp)
400077ea:	c7 45 d8 00 00 00 00 	movl   $0x0,-0x28(%ebp)
400077f1:	8b 45 d0             	mov    -0x30(%ebp),%eax
400077f4:	83 e8 08             	sub    $0x8,%eax
400077f7:	89 45 dc             	mov    %eax,-0x24(%ebp)
400077fa:	8b 45 d0             	mov    -0x30(%ebp),%eax
400077fd:	89 45 ac             	mov    %eax,-0x54(%ebp)
40007800:	8b 45 ac             	mov    -0x54(%ebp),%eax
40007803:	ba 00 00 00 00       	mov    $0x0,%edx
40007808:	f7 75 0c             	divl   0xc(%ebp)
4000780b:	89 d0                	mov    %edx,%eax
4000780d:	85 c0                	test   %eax,%eax
4000780f:	0f 84 d7 00 00 00    	je     400078ec <internal_memalign+0x1cb>
40007815:	8b 45 0c             	mov    0xc(%ebp),%eax
40007818:	83 e8 01             	sub    $0x1,%eax
4000781b:	03 45 d0             	add    -0x30(%ebp),%eax
4000781e:	89 c2                	mov    %eax,%edx
40007820:	8b 45 0c             	mov    0xc(%ebp),%eax
40007823:	f7 d8                	neg    %eax
40007825:	21 d0                	and    %edx,%eax
40007827:	83 e8 08             	sub    $0x8,%eax
4000782a:	89 45 e0             	mov    %eax,-0x20(%ebp)
4000782d:	8b 55 e0             	mov    -0x20(%ebp),%edx
40007830:	8b 45 dc             	mov    -0x24(%ebp),%eax
40007833:	89 d1                	mov    %edx,%ecx
40007835:	29 c1                	sub    %eax,%ecx
40007837:	89 c8                	mov    %ecx,%eax
40007839:	83 f8 0f             	cmp    $0xf,%eax
4000783c:	77 0d                	ja     4000784b <internal_memalign+0x12a>
4000783e:	8b 55 0c             	mov    0xc(%ebp),%edx
40007841:	8b 45 e0             	mov    -0x20(%ebp),%eax
40007844:	01 d0                	add    %edx,%eax
40007846:	89 45 bc             	mov    %eax,-0x44(%ebp)
40007849:	eb 06                	jmp    40007851 <internal_memalign+0x130>
4000784b:	8b 45 e0             	mov    -0x20(%ebp),%eax
4000784e:	89 45 bc             	mov    %eax,-0x44(%ebp)
40007851:	8b 55 bc             	mov    -0x44(%ebp),%edx
40007854:	89 55 e4             	mov    %edx,-0x1c(%ebp)
40007857:	8b 45 e4             	mov    -0x1c(%ebp),%eax
4000785a:	89 45 e8             	mov    %eax,-0x18(%ebp)
4000785d:	8b 55 e4             	mov    -0x1c(%ebp),%edx
40007860:	8b 45 dc             	mov    -0x24(%ebp),%eax
40007863:	89 d1                	mov    %edx,%ecx
40007865:	29 c1                	sub    %eax,%ecx
40007867:	89 c8                	mov    %ecx,%eax
40007869:	89 45 ec             	mov    %eax,-0x14(%ebp)
4000786c:	8b 45 dc             	mov    -0x24(%ebp),%eax
4000786f:	8b 40 04             	mov    0x4(%eax),%eax
40007872:	83 e0 fc             	and    $0xfffffffc,%eax
40007875:	2b 45 ec             	sub    -0x14(%ebp),%eax
40007878:	89 45 f0             	mov    %eax,-0x10(%ebp)
4000787b:	8b 45 e8             	mov    -0x18(%ebp),%eax
4000787e:	8b 40 04             	mov    0x4(%eax),%eax
40007881:	83 e0 01             	and    $0x1,%eax
40007884:	0b 45 f0             	or     -0x10(%ebp),%eax
40007887:	89 c2                	mov    %eax,%edx
40007889:	83 ca 02             	or     $0x2,%edx
4000788c:	8b 45 e8             	mov    -0x18(%ebp),%eax
4000788f:	89 50 04             	mov    %edx,0x4(%eax)
40007892:	8b 55 f0             	mov    -0x10(%ebp),%edx
40007895:	8b 45 e8             	mov    -0x18(%ebp),%eax
40007898:	8d 0c 10             	lea    (%eax,%edx,1),%ecx
4000789b:	8b 55 f0             	mov    -0x10(%ebp),%edx
4000789e:	8b 45 e8             	mov    -0x18(%ebp),%eax
400078a1:	01 d0                	add    %edx,%eax
400078a3:	8b 40 04             	mov    0x4(%eax),%eax
400078a6:	83 c8 01             	or     $0x1,%eax
400078a9:	89 41 04             	mov    %eax,0x4(%ecx)
400078ac:	8b 45 dc             	mov    -0x24(%ebp),%eax
400078af:	8b 40 04             	mov    0x4(%eax),%eax
400078b2:	83 e0 01             	and    $0x1,%eax
400078b5:	0b 45 ec             	or     -0x14(%ebp),%eax
400078b8:	89 c2                	mov    %eax,%edx
400078ba:	83 ca 02             	or     $0x2,%edx
400078bd:	8b 45 dc             	mov    -0x24(%ebp),%eax
400078c0:	89 50 04             	mov    %edx,0x4(%eax)
400078c3:	8b 55 ec             	mov    -0x14(%ebp),%edx
400078c6:	8b 45 dc             	mov    -0x24(%ebp),%eax
400078c9:	8d 0c 10             	lea    (%eax,%edx,1),%ecx
400078cc:	8b 55 ec             	mov    -0x14(%ebp),%edx
400078cf:	8b 45 dc             	mov    -0x24(%ebp),%eax
400078d2:	01 d0                	add    %edx,%eax
400078d4:	8b 40 04             	mov    0x4(%eax),%eax
400078d7:	83 c8 01             	or     $0x1,%eax
400078da:	89 41 04             	mov    %eax,0x4(%ecx)
400078dd:	8b 45 dc             	mov    -0x24(%ebp),%eax
400078e0:	83 c0 08             	add    $0x8,%eax
400078e3:	89 45 d4             	mov    %eax,-0x2c(%ebp)
400078e6:	8b 45 e8             	mov    -0x18(%ebp),%eax
400078e9:	89 45 dc             	mov    %eax,-0x24(%ebp)
400078ec:	8b 45 dc             	mov    -0x24(%ebp),%eax
400078ef:	8b 40 04             	mov    0x4(%eax),%eax
400078f2:	83 e0 fc             	and    $0xfffffffc,%eax
400078f5:	89 45 f4             	mov    %eax,-0xc(%ebp)
400078f8:	8b 45 c8             	mov    -0x38(%ebp),%eax
400078fb:	83 c0 10             	add    $0x10,%eax
400078fe:	3b 45 f4             	cmp    -0xc(%ebp),%eax
40007901:	0f 83 81 00 00 00    	jae    40007988 <internal_memalign+0x267>
40007907:	8b 55 c8             	mov    -0x38(%ebp),%edx
4000790a:	8b 45 f4             	mov    -0xc(%ebp),%eax
4000790d:	29 d0                	sub    %edx,%eax
4000790f:	89 45 f8             	mov    %eax,-0x8(%ebp)
40007912:	8b 55 c8             	mov    -0x38(%ebp),%edx
40007915:	8b 45 dc             	mov    -0x24(%ebp),%eax
40007918:	01 d0                	add    %edx,%eax
4000791a:	89 45 fc             	mov    %eax,-0x4(%ebp)
4000791d:	8b 45 dc             	mov    -0x24(%ebp),%eax
40007920:	8b 40 04             	mov    0x4(%eax),%eax
40007923:	83 e0 01             	and    $0x1,%eax
40007926:	0b 45 c8             	or     -0x38(%ebp),%eax
40007929:	89 c2                	mov    %eax,%edx
4000792b:	83 ca 02             	or     $0x2,%edx
4000792e:	8b 45 dc             	mov    -0x24(%ebp),%eax
40007931:	89 50 04             	mov    %edx,0x4(%eax)
40007934:	8b 55 c8             	mov    -0x38(%ebp),%edx
40007937:	8b 45 dc             	mov    -0x24(%ebp),%eax
4000793a:	8d 0c 10             	lea    (%eax,%edx,1),%ecx
4000793d:	8b 55 c8             	mov    -0x38(%ebp),%edx
40007940:	8b 45 dc             	mov    -0x24(%ebp),%eax
40007943:	01 d0                	add    %edx,%eax
40007945:	8b 40 04             	mov    0x4(%eax),%eax
40007948:	83 c8 01             	or     $0x1,%eax
4000794b:	89 41 04             	mov    %eax,0x4(%ecx)
4000794e:	8b 45 fc             	mov    -0x4(%ebp),%eax
40007951:	8b 40 04             	mov    0x4(%eax),%eax
40007954:	83 e0 01             	and    $0x1,%eax
40007957:	0b 45 f8             	or     -0x8(%ebp),%eax
4000795a:	89 c2                	mov    %eax,%edx
4000795c:	83 ca 02             	or     $0x2,%edx
4000795f:	8b 45 fc             	mov    -0x4(%ebp),%eax
40007962:	89 50 04             	mov    %edx,0x4(%eax)
40007965:	8b 55 f8             	mov    -0x8(%ebp),%edx
40007968:	8b 45 fc             	mov    -0x4(%ebp),%eax
4000796b:	8d 0c 10             	lea    (%eax,%edx,1),%ecx
4000796e:	8b 55 f8             	mov    -0x8(%ebp),%edx
40007971:	8b 45 fc             	mov    -0x4(%ebp),%eax
40007974:	01 d0                	add    %edx,%eax
40007976:	8b 40 04             	mov    0x4(%eax),%eax
40007979:	83 c8 01             	or     $0x1,%eax
4000797c:	89 41 04             	mov    %eax,0x4(%ecx)
4000797f:	8b 45 fc             	mov    -0x4(%ebp),%eax
40007982:	83 c0 08             	add    $0x8,%eax
40007985:	89 45 d8             	mov    %eax,-0x28(%ebp)
40007988:	83 7d d4 00          	cmpl   $0x0,-0x2c(%ebp)
4000798c:	74 0b                	je     40007999 <internal_memalign+0x278>
4000798e:	8b 45 d4             	mov    -0x2c(%ebp),%eax
40007991:	89 04 24             	mov    %eax,(%esp)
40007994:	e8 6e 07 00 00       	call   40008107 <free>
40007999:	83 7d d8 00          	cmpl   $0x0,-0x28(%ebp)
4000799d:	74 0b                	je     400079aa <internal_memalign+0x289>
4000799f:	8b 45 d8             	mov    -0x28(%ebp),%eax
400079a2:	89 04 24             	mov    %eax,(%esp)
400079a5:	e8 5d 07 00 00       	call   40008107 <free>
400079aa:	8b 45 dc             	mov    -0x24(%ebp),%eax
400079ad:	83 c0 08             	add    $0x8,%eax
400079b0:	89 45 b4             	mov    %eax,-0x4c(%ebp)
400079b3:	eb 07                	jmp    400079bc <internal_memalign+0x29b>
400079b5:	c7 45 b4 00 00 00 00 	movl   $0x0,-0x4c(%ebp)
400079bc:	8b 45 b4             	mov    -0x4c(%ebp),%eax
400079bf:	c9                   	leave  
400079c0:	c3                   	ret    

400079c1 <ialloc>:
400079c1:	55                   	push   %ebp
400079c2:	89 e5                	mov    %esp,%ebp
400079c4:	83 ec 58             	sub    $0x58,%esp
400079c7:	83 7d 18 00          	cmpl   $0x0,0x18(%ebp)
400079cb:	74 20                	je     400079ed <ialloc+0x2c>
400079cd:	83 7d 0c 00          	cmpl   $0x0,0xc(%ebp)
400079d1:	75 0b                	jne    400079de <ialloc+0x1d>
400079d3:	8b 45 18             	mov    0x18(%ebp),%eax
400079d6:	89 45 bc             	mov    %eax,-0x44(%ebp)
400079d9:	e9 6d 02 00 00       	jmp    40007c4b <ialloc+0x28a>
400079de:	8b 45 18             	mov    0x18(%ebp),%eax
400079e1:	89 45 e8             	mov    %eax,-0x18(%ebp)
400079e4:	c7 45 d8 00 00 00 00 	movl   $0x0,-0x28(%ebp)
400079eb:	eb 4f                	jmp    40007a3c <ialloc+0x7b>
400079ed:	83 7d 0c 00          	cmpl   $0x0,0xc(%ebp)
400079f1:	75 14                	jne    40007a07 <ialloc+0x46>
400079f3:	c7 04 24 00 00 00 00 	movl   $0x0,(%esp)
400079fa:	e8 51 02 00 00       	call   40007c50 <malloc>
400079ff:	89 45 bc             	mov    %eax,-0x44(%ebp)
40007a02:	e9 44 02 00 00       	jmp    40007c4b <ialloc+0x28a>
40007a07:	c7 45 e8 00 00 00 00 	movl   $0x0,-0x18(%ebp)
40007a0e:	8b 45 0c             	mov    0xc(%ebp),%eax
40007a11:	c1 e0 02             	shl    $0x2,%eax
40007a14:	83 f8 0a             	cmp    $0xa,%eax
40007a17:	76 16                	jbe    40007a2f <ialloc+0x6e>
40007a19:	8b 45 0c             	mov    0xc(%ebp),%eax
40007a1c:	83 c0 01             	add    $0x1,%eax
40007a1f:	c1 e0 02             	shl    $0x2,%eax
40007a22:	83 c0 07             	add    $0x7,%eax
40007a25:	89 c2                	mov    %eax,%edx
40007a27:	83 e2 f8             	and    $0xfffffff8,%edx
40007a2a:	89 55 c0             	mov    %edx,-0x40(%ebp)
40007a2d:	eb 07                	jmp    40007a36 <ialloc+0x75>
40007a2f:	c7 45 c0 10 00 00 00 	movl   $0x10,-0x40(%ebp)
40007a36:	8b 45 c0             	mov    -0x40(%ebp),%eax
40007a39:	89 45 d8             	mov    %eax,-0x28(%ebp)
40007a3c:	8b 45 14             	mov    0x14(%ebp),%eax
40007a3f:	83 e0 01             	and    $0x1,%eax
40007a42:	84 c0                	test   %al,%al
40007a44:	74 35                	je     40007a7b <ialloc+0xba>
40007a46:	8b 45 10             	mov    0x10(%ebp),%eax
40007a49:	8b 00                	mov    (%eax),%eax
40007a4b:	83 f8 0a             	cmp    $0xa,%eax
40007a4e:	76 12                	jbe    40007a62 <ialloc+0xa1>
40007a50:	8b 45 10             	mov    0x10(%ebp),%eax
40007a53:	8b 00                	mov    (%eax),%eax
40007a55:	83 c0 0b             	add    $0xb,%eax
40007a58:	89 c2                	mov    %eax,%edx
40007a5a:	83 e2 f8             	and    $0xfffffff8,%edx
40007a5d:	89 55 c4             	mov    %edx,-0x3c(%ebp)
40007a60:	eb 07                	jmp    40007a69 <ialloc+0xa8>
40007a62:	c7 45 c4 10 00 00 00 	movl   $0x10,-0x3c(%ebp)
40007a69:	8b 45 c4             	mov    -0x3c(%ebp),%eax
40007a6c:	89 45 d0             	mov    %eax,-0x30(%ebp)
40007a6f:	8b 45 0c             	mov    0xc(%ebp),%eax
40007a72:	0f af 45 d0          	imul   -0x30(%ebp),%eax
40007a76:	89 45 d4             	mov    %eax,-0x2c(%ebp)
40007a79:	eb 58                	jmp    40007ad3 <ialloc+0x112>
40007a7b:	c7 45 d0 00 00 00 00 	movl   $0x0,-0x30(%ebp)
40007a82:	c7 45 d4 00 00 00 00 	movl   $0x0,-0x2c(%ebp)
40007a89:	c7 45 f8 00 00 00 00 	movl   $0x0,-0x8(%ebp)
40007a90:	eb 39                	jmp    40007acb <ialloc+0x10a>
40007a92:	8b 45 f8             	mov    -0x8(%ebp),%eax
40007a95:	c1 e0 02             	shl    $0x2,%eax
40007a98:	03 45 10             	add    0x10(%ebp),%eax
40007a9b:	8b 00                	mov    (%eax),%eax
40007a9d:	83 f8 0a             	cmp    $0xa,%eax
40007aa0:	76 18                	jbe    40007aba <ialloc+0xf9>
40007aa2:	8b 45 f8             	mov    -0x8(%ebp),%eax
40007aa5:	c1 e0 02             	shl    $0x2,%eax
40007aa8:	03 45 10             	add    0x10(%ebp),%eax
40007aab:	8b 00                	mov    (%eax),%eax
40007aad:	83 c0 0b             	add    $0xb,%eax
40007ab0:	89 c2                	mov    %eax,%edx
40007ab2:	83 e2 f8             	and    $0xfffffff8,%edx
40007ab5:	89 55 c8             	mov    %edx,-0x38(%ebp)
40007ab8:	eb 07                	jmp    40007ac1 <ialloc+0x100>
40007aba:	c7 45 c8 10 00 00 00 	movl   $0x10,-0x38(%ebp)
40007ac1:	8b 45 c8             	mov    -0x38(%ebp),%eax
40007ac4:	01 45 d4             	add    %eax,-0x2c(%ebp)
40007ac7:	83 45 f8 01          	addl   $0x1,-0x8(%ebp)
40007acb:	8b 45 f8             	mov    -0x8(%ebp),%eax
40007ace:	3b 45 0c             	cmp    0xc(%ebp),%eax
40007ad1:	75 bf                	jne    40007a92 <ialloc+0xd1>
40007ad3:	8b 55 d8             	mov    -0x28(%ebp),%edx
40007ad6:	8b 45 d4             	mov    -0x2c(%ebp),%eax
40007ad9:	01 d0                	add    %edx,%eax
40007adb:	89 45 f4             	mov    %eax,-0xc(%ebp)
40007ade:	c7 45 f0 00 00 00 00 	movl   $0x0,-0x10(%ebp)
40007ae5:	8b 45 08             	mov    0x8(%ebp),%eax
40007ae8:	8b 90 b4 01 00 00    	mov    0x1b4(%eax),%edx
40007aee:	8b 45 08             	mov    0x8(%ebp),%eax
40007af1:	89 90 b4 01 00 00    	mov    %edx,0x1b4(%eax)
40007af7:	8b 45 f4             	mov    -0xc(%ebp),%eax
40007afa:	83 e8 04             	sub    $0x4,%eax
40007afd:	89 04 24             	mov    %eax,(%esp)
40007b00:	e8 4b 01 00 00       	call   40007c50 <malloc>
40007b05:	89 45 dc             	mov    %eax,-0x24(%ebp)
40007b08:	83 7d f0 00          	cmpl   $0x0,-0x10(%ebp)
40007b0c:	74 12                	je     40007b20 <ialloc+0x15f>
40007b0e:	8b 45 08             	mov    0x8(%ebp),%eax
40007b11:	8b 90 b4 01 00 00    	mov    0x1b4(%eax),%edx
40007b17:	8b 45 08             	mov    0x8(%ebp),%eax
40007b1a:	89 90 b4 01 00 00    	mov    %edx,0x1b4(%eax)
40007b20:	83 7d dc 00          	cmpl   $0x0,-0x24(%ebp)
40007b24:	75 0c                	jne    40007b32 <ialloc+0x171>
40007b26:	c7 45 bc 00 00 00 00 	movl   $0x0,-0x44(%ebp)
40007b2d:	e9 19 01 00 00       	jmp    40007c4b <ialloc+0x28a>
40007b32:	8b 45 dc             	mov    -0x24(%ebp),%eax
40007b35:	83 e8 08             	sub    $0x8,%eax
40007b38:	89 45 e0             	mov    %eax,-0x20(%ebp)
40007b3b:	8b 45 e0             	mov    -0x20(%ebp),%eax
40007b3e:	8b 40 04             	mov    0x4(%eax),%eax
40007b41:	83 e0 fc             	and    $0xfffffffc,%eax
40007b44:	89 45 e4             	mov    %eax,-0x1c(%ebp)
40007b47:	8b 45 14             	mov    0x14(%ebp),%eax
40007b4a:	83 e0 02             	and    $0x2,%eax
40007b4d:	85 c0                	test   %eax,%eax
40007b4f:	74 22                	je     40007b73 <ialloc+0x1b2>
40007b51:	8b 55 d8             	mov    -0x28(%ebp),%edx
40007b54:	8b 45 e4             	mov    -0x1c(%ebp),%eax
40007b57:	29 d0                	sub    %edx,%eax
40007b59:	83 e8 04             	sub    $0x4,%eax
40007b5c:	89 44 24 08          	mov    %eax,0x8(%esp)
40007b60:	c7 44 24 04 00 00 00 	movl   $0x0,0x4(%esp)
40007b67:	00 
40007b68:	8b 45 dc             	mov    -0x24(%ebp),%eax
40007b6b:	89 04 24             	mov    %eax,(%esp)
40007b6e:	e8 92 36 00 00       	call   4000b205 <memset>
40007b73:	83 7d e8 00          	cmpl   $0x0,-0x18(%ebp)
40007b77:	75 33                	jne    40007bac <ialloc+0x1eb>
40007b79:	8b 55 d4             	mov    -0x2c(%ebp),%edx
40007b7c:	8b 45 e0             	mov    -0x20(%ebp),%eax
40007b7f:	01 d0                	add    %edx,%eax
40007b81:	89 45 ec             	mov    %eax,-0x14(%ebp)
40007b84:	8b 55 d4             	mov    -0x2c(%ebp),%edx
40007b87:	8b 45 e4             	mov    -0x1c(%ebp),%eax
40007b8a:	29 d0                	sub    %edx,%eax
40007b8c:	89 45 fc             	mov    %eax,-0x4(%ebp)
40007b8f:	8b 45 ec             	mov    -0x14(%ebp),%eax
40007b92:	83 c0 08             	add    $0x8,%eax
40007b95:	89 45 e8             	mov    %eax,-0x18(%ebp)
40007b98:	8b 45 fc             	mov    -0x4(%ebp),%eax
40007b9b:	89 c2                	mov    %eax,%edx
40007b9d:	83 ca 03             	or     $0x3,%edx
40007ba0:	8b 45 ec             	mov    -0x14(%ebp),%eax
40007ba3:	89 50 04             	mov    %edx,0x4(%eax)
40007ba6:	8b 45 d4             	mov    -0x2c(%ebp),%eax
40007ba9:	89 45 e4             	mov    %eax,-0x1c(%ebp)
40007bac:	c7 45 f8 00 00 00 00 	movl   $0x0,-0x8(%ebp)
40007bb3:	8b 45 f8             	mov    -0x8(%ebp),%eax
40007bb6:	c1 e0 02             	shl    $0x2,%eax
40007bb9:	89 c2                	mov    %eax,%edx
40007bbb:	03 55 e8             	add    -0x18(%ebp),%edx
40007bbe:	8b 45 e0             	mov    -0x20(%ebp),%eax
40007bc1:	83 c0 08             	add    $0x8,%eax
40007bc4:	89 02                	mov    %eax,(%edx)
40007bc6:	8b 45 0c             	mov    0xc(%ebp),%eax
40007bc9:	83 e8 01             	sub    $0x1,%eax
40007bcc:	3b 45 f8             	cmp    -0x8(%ebp),%eax
40007bcf:	74 66                	je     40007c37 <ialloc+0x276>
40007bd1:	83 7d d0 00          	cmpl   $0x0,-0x30(%ebp)
40007bd5:	74 08                	je     40007bdf <ialloc+0x21e>
40007bd7:	8b 45 d0             	mov    -0x30(%ebp),%eax
40007bda:	89 45 f4             	mov    %eax,-0xc(%ebp)
40007bdd:	eb 35                	jmp    40007c14 <ialloc+0x253>
40007bdf:	8b 45 f8             	mov    -0x8(%ebp),%eax
40007be2:	c1 e0 02             	shl    $0x2,%eax
40007be5:	03 45 10             	add    0x10(%ebp),%eax
40007be8:	8b 00                	mov    (%eax),%eax
40007bea:	83 f8 0a             	cmp    $0xa,%eax
40007bed:	76 18                	jbe    40007c07 <ialloc+0x246>
40007bef:	8b 45 f8             	mov    -0x8(%ebp),%eax
40007bf2:	c1 e0 02             	shl    $0x2,%eax
40007bf5:	03 45 10             	add    0x10(%ebp),%eax
40007bf8:	8b 00                	mov    (%eax),%eax
40007bfa:	83 c0 0b             	add    $0xb,%eax
40007bfd:	89 c2                	mov    %eax,%edx
40007bff:	83 e2 f8             	and    $0xfffffff8,%edx
40007c02:	89 55 cc             	mov    %edx,-0x34(%ebp)
40007c05:	eb 07                	jmp    40007c0e <ialloc+0x24d>
40007c07:	c7 45 cc 10 00 00 00 	movl   $0x10,-0x34(%ebp)
40007c0e:	8b 45 cc             	mov    -0x34(%ebp),%eax
40007c11:	89 45 f4             	mov    %eax,-0xc(%ebp)
40007c14:	8b 45 f4             	mov    -0xc(%ebp),%eax
40007c17:	29 45 e4             	sub    %eax,-0x1c(%ebp)
40007c1a:	8b 45 f4             	mov    -0xc(%ebp),%eax
40007c1d:	89 c2                	mov    %eax,%edx
40007c1f:	83 ca 03             	or     $0x3,%edx
40007c22:	8b 45 e0             	mov    -0x20(%ebp),%eax
40007c25:	89 50 04             	mov    %edx,0x4(%eax)
40007c28:	8b 45 f4             	mov    -0xc(%ebp),%eax
40007c2b:	01 45 e0             	add    %eax,-0x20(%ebp)
40007c2e:	83 45 f8 01          	addl   $0x1,-0x8(%ebp)
40007c32:	e9 7c ff ff ff       	jmp    40007bb3 <ialloc+0x1f2>
40007c37:	8b 45 e4             	mov    -0x1c(%ebp),%eax
40007c3a:	89 c2                	mov    %eax,%edx
40007c3c:	83 ca 03             	or     $0x3,%edx
40007c3f:	8b 45 e0             	mov    -0x20(%ebp),%eax
40007c42:	89 50 04             	mov    %edx,0x4(%eax)
40007c45:	8b 55 e8             	mov    -0x18(%ebp),%edx
40007c48:	89 55 bc             	mov    %edx,-0x44(%ebp)
40007c4b:	8b 45 bc             	mov    -0x44(%ebp),%eax
40007c4e:	c9                   	leave  
40007c4f:	c3                   	ret    

40007c50 <malloc>:
40007c50:	55                   	push   %ebp
40007c51:	89 e5                	mov    %esp,%ebp
40007c53:	53                   	push   %ebx
40007c54:	81 ec 84 00 00 00    	sub    $0x84,%esp
40007c5a:	81 7d 08 f4 00 00 00 	cmpl   $0xf4,0x8(%ebp)
40007c61:	0f 87 18 03 00 00    	ja     40007f7f <malloc+0x32f>
40007c67:	83 7d 08 0a          	cmpl   $0xa,0x8(%ebp)
40007c6b:	76 10                	jbe    40007c7d <malloc+0x2d>
40007c6d:	8b 45 08             	mov    0x8(%ebp),%eax
40007c70:	83 c0 0b             	add    $0xb,%eax
40007c73:	89 c2                	mov    %eax,%edx
40007c75:	83 e2 f8             	and    $0xfffffff8,%edx
40007c78:	89 55 88             	mov    %edx,-0x78(%ebp)
40007c7b:	eb 07                	jmp    40007c84 <malloc+0x34>
40007c7d:	c7 45 88 10 00 00 00 	movl   $0x10,-0x78(%ebp)
40007c84:	8b 45 88             	mov    -0x78(%ebp),%eax
40007c87:	89 45 90             	mov    %eax,-0x70(%ebp)
40007c8a:	8b 45 90             	mov    -0x70(%ebp),%eax
40007c8d:	c1 e8 03             	shr    $0x3,%eax
40007c90:	89 45 94             	mov    %eax,-0x6c(%ebp)
40007c93:	a1 a0 12 01 40       	mov    0x400112a0,%eax
40007c98:	8b 4d 94             	mov    -0x6c(%ebp),%ecx
40007c9b:	d3 e8                	shr    %cl,%eax
40007c9d:	89 45 98             	mov    %eax,-0x68(%ebp)
40007ca0:	8b 45 98             	mov    -0x68(%ebp),%eax
40007ca3:	83 e0 03             	and    $0x3,%eax
40007ca6:	85 c0                	test   %eax,%eax
40007ca8:	0f 84 c1 00 00 00    	je     40007d6f <malloc+0x11f>
40007cae:	8b 45 98             	mov    -0x68(%ebp),%eax
40007cb1:	83 e0 01             	and    $0x1,%eax
40007cb4:	85 c0                	test   %eax,%eax
40007cb6:	0f 94 c0             	sete   %al
40007cb9:	0f b6 c0             	movzbl %al,%eax
40007cbc:	01 45 94             	add    %eax,-0x6c(%ebp)
40007cbf:	ba c4 12 01 40       	mov    $0x400112c4,%edx
40007cc4:	8b 45 94             	mov    -0x6c(%ebp),%eax
40007cc7:	c1 e0 03             	shl    $0x3,%eax
40007cca:	8d 04 02             	lea    (%edx,%eax,1),%eax
40007ccd:	89 45 9c             	mov    %eax,-0x64(%ebp)
40007cd0:	8b 45 9c             	mov    -0x64(%ebp),%eax
40007cd3:	8b 40 08             	mov    0x8(%eax),%eax
40007cd6:	89 45 a0             	mov    %eax,-0x60(%ebp)
40007cd9:	8b 45 a0             	mov    -0x60(%ebp),%eax
40007cdc:	8b 40 08             	mov    0x8(%eax),%eax
40007cdf:	89 45 a4             	mov    %eax,-0x5c(%ebp)
40007ce2:	8b 45 9c             	mov    -0x64(%ebp),%eax
40007ce5:	3b 45 a4             	cmp    -0x5c(%ebp),%eax
40007ce8:	75 1b                	jne    40007d05 <malloc+0xb5>
40007cea:	8b 15 a0 12 01 40    	mov    0x400112a0,%edx
40007cf0:	8b 4d 94             	mov    -0x6c(%ebp),%ecx
40007cf3:	b8 01 00 00 00       	mov    $0x1,%eax
40007cf8:	d3 e0                	shl    %cl,%eax
40007cfa:	f7 d0                	not    %eax
40007cfc:	21 d0                	and    %edx,%eax
40007cfe:	a3 a0 12 01 40       	mov    %eax,0x400112a0
40007d03:	eb 2e                	jmp    40007d33 <malloc+0xe3>
40007d05:	8b 15 b0 12 01 40    	mov    0x400112b0,%edx
40007d0b:	8b 45 a4             	mov    -0x5c(%ebp),%eax
40007d0e:	39 c2                	cmp    %eax,%edx
40007d10:	0f 96 c0             	setbe  %al
40007d13:	0f b6 c0             	movzbl %al,%eax
40007d16:	85 c0                	test   %eax,%eax
40007d18:	74 14                	je     40007d2e <malloc+0xde>
40007d1a:	8b 55 9c             	mov    -0x64(%ebp),%edx
40007d1d:	8b 45 a4             	mov    -0x5c(%ebp),%eax
40007d20:	89 42 08             	mov    %eax,0x8(%edx)
40007d23:	8b 55 a4             	mov    -0x5c(%ebp),%edx
40007d26:	8b 45 9c             	mov    -0x64(%ebp),%eax
40007d29:	89 42 0c             	mov    %eax,0xc(%edx)
40007d2c:	eb 05                	jmp    40007d33 <malloc+0xe3>
40007d2e:	e8 4d 5c 00 00       	call   4000d980 <abort>
40007d33:	8b 45 94             	mov    -0x6c(%ebp),%eax
40007d36:	c1 e0 03             	shl    $0x3,%eax
40007d39:	89 c2                	mov    %eax,%edx
40007d3b:	83 ca 03             	or     $0x3,%edx
40007d3e:	8b 45 a0             	mov    -0x60(%ebp),%eax
40007d41:	89 50 04             	mov    %edx,0x4(%eax)
40007d44:	8b 45 94             	mov    -0x6c(%ebp),%eax
40007d47:	c1 e0 03             	shl    $0x3,%eax
40007d4a:	89 c2                	mov    %eax,%edx
40007d4c:	03 55 a0             	add    -0x60(%ebp),%edx
40007d4f:	8b 45 94             	mov    -0x6c(%ebp),%eax
40007d52:	c1 e0 03             	shl    $0x3,%eax
40007d55:	03 45 a0             	add    -0x60(%ebp),%eax
40007d58:	8b 40 04             	mov    0x4(%eax),%eax
40007d5b:	83 c8 01             	or     $0x1,%eax
40007d5e:	89 42 04             	mov    %eax,0x4(%edx)
40007d61:	8b 45 a0             	mov    -0x60(%ebp),%eax
40007d64:	83 c0 08             	add    $0x8,%eax
40007d67:	89 45 8c             	mov    %eax,-0x74(%ebp)
40007d6a:	e9 8c 03 00 00       	jmp    400080fb <malloc+0x4ab>
40007d6f:	a1 a8 12 01 40       	mov    0x400112a8,%eax
40007d74:	3b 45 90             	cmp    -0x70(%ebp),%eax
40007d77:	0f 83 46 02 00 00    	jae    40007fc3 <malloc+0x373>
40007d7d:	83 7d 98 00          	cmpl   $0x0,-0x68(%ebp)
40007d81:	0f 84 cd 01 00 00    	je     40007f54 <malloc+0x304>
40007d87:	8b 4d 94             	mov    -0x6c(%ebp),%ecx
40007d8a:	8b 45 98             	mov    -0x68(%ebp),%eax
40007d8d:	89 c3                	mov    %eax,%ebx
40007d8f:	d3 e3                	shl    %cl,%ebx
40007d91:	8b 4d 94             	mov    -0x6c(%ebp),%ecx
40007d94:	b8 01 00 00 00       	mov    $0x1,%eax
40007d99:	d3 e0                	shl    %cl,%eax
40007d9b:	8d 14 00             	lea    (%eax,%eax,1),%edx
40007d9e:	8b 4d 94             	mov    -0x6c(%ebp),%ecx
40007da1:	b8 01 00 00 00       	mov    $0x1,%eax
40007da6:	d3 e0                	shl    %cl,%eax
40007da8:	01 c0                	add    %eax,%eax
40007daa:	f7 d8                	neg    %eax
40007dac:	09 d0                	or     %edx,%eax
40007dae:	21 d8                	and    %ebx,%eax
40007db0:	89 45 bc             	mov    %eax,-0x44(%ebp)
40007db3:	8b 45 bc             	mov    -0x44(%ebp),%eax
40007db6:	f7 d8                	neg    %eax
40007db8:	23 45 bc             	and    -0x44(%ebp),%eax
40007dbb:	89 45 c0             	mov    %eax,-0x40(%ebp)
40007dbe:	0f bc 45 c0          	bsf    -0x40(%ebp),%eax
40007dc2:	89 45 c4             	mov    %eax,-0x3c(%ebp)
40007dc5:	8b 45 c4             	mov    -0x3c(%ebp),%eax
40007dc8:	89 45 b8             	mov    %eax,-0x48(%ebp)
40007dcb:	ba c4 12 01 40       	mov    $0x400112c4,%edx
40007dd0:	8b 45 b8             	mov    -0x48(%ebp),%eax
40007dd3:	c1 e0 03             	shl    $0x3,%eax
40007dd6:	8d 04 02             	lea    (%edx,%eax,1),%eax
40007dd9:	89 45 a8             	mov    %eax,-0x58(%ebp)
40007ddc:	8b 45 a8             	mov    -0x58(%ebp),%eax
40007ddf:	8b 40 08             	mov    0x8(%eax),%eax
40007de2:	89 45 ac             	mov    %eax,-0x54(%ebp)
40007de5:	8b 45 ac             	mov    -0x54(%ebp),%eax
40007de8:	8b 40 08             	mov    0x8(%eax),%eax
40007deb:	89 45 c8             	mov    %eax,-0x38(%ebp)
40007dee:	8b 45 a8             	mov    -0x58(%ebp),%eax
40007df1:	3b 45 c8             	cmp    -0x38(%ebp),%eax
40007df4:	75 1b                	jne    40007e11 <malloc+0x1c1>
40007df6:	8b 15 a0 12 01 40    	mov    0x400112a0,%edx
40007dfc:	8b 4d b8             	mov    -0x48(%ebp),%ecx
40007dff:	b8 01 00 00 00       	mov    $0x1,%eax
40007e04:	d3 e0                	shl    %cl,%eax
40007e06:	f7 d0                	not    %eax
40007e08:	21 d0                	and    %edx,%eax
40007e0a:	a3 a0 12 01 40       	mov    %eax,0x400112a0
40007e0f:	eb 2e                	jmp    40007e3f <malloc+0x1ef>
40007e11:	8b 15 b0 12 01 40    	mov    0x400112b0,%edx
40007e17:	8b 45 c8             	mov    -0x38(%ebp),%eax
40007e1a:	39 c2                	cmp    %eax,%edx
40007e1c:	0f 96 c0             	setbe  %al
40007e1f:	0f b6 c0             	movzbl %al,%eax
40007e22:	85 c0                	test   %eax,%eax
40007e24:	74 14                	je     40007e3a <malloc+0x1ea>
40007e26:	8b 55 a8             	mov    -0x58(%ebp),%edx
40007e29:	8b 45 c8             	mov    -0x38(%ebp),%eax
40007e2c:	89 42 08             	mov    %eax,0x8(%edx)
40007e2f:	8b 55 c8             	mov    -0x38(%ebp),%edx
40007e32:	8b 45 a8             	mov    -0x58(%ebp),%eax
40007e35:	89 42 0c             	mov    %eax,0xc(%edx)
40007e38:	eb 05                	jmp    40007e3f <malloc+0x1ef>
40007e3a:	e8 41 5b 00 00       	call   4000d980 <abort>
40007e3f:	8b 45 b8             	mov    -0x48(%ebp),%eax
40007e42:	c1 e0 03             	shl    $0x3,%eax
40007e45:	2b 45 90             	sub    -0x70(%ebp),%eax
40007e48:	89 45 b4             	mov    %eax,-0x4c(%ebp)
40007e4b:	8b 45 90             	mov    -0x70(%ebp),%eax
40007e4e:	89 c2                	mov    %eax,%edx
40007e50:	83 ca 03             	or     $0x3,%edx
40007e53:	8b 45 ac             	mov    -0x54(%ebp),%eax
40007e56:	89 50 04             	mov    %edx,0x4(%eax)
40007e59:	8b 55 90             	mov    -0x70(%ebp),%edx
40007e5c:	8b 45 ac             	mov    -0x54(%ebp),%eax
40007e5f:	01 d0                	add    %edx,%eax
40007e61:	89 45 b0             	mov    %eax,-0x50(%ebp)
40007e64:	8b 45 b4             	mov    -0x4c(%ebp),%eax
40007e67:	89 c2                	mov    %eax,%edx
40007e69:	83 ca 01             	or     $0x1,%edx
40007e6c:	8b 45 b0             	mov    -0x50(%ebp),%eax
40007e6f:	89 50 04             	mov    %edx,0x4(%eax)
40007e72:	8b 55 b4             	mov    -0x4c(%ebp),%edx
40007e75:	8b 45 b0             	mov    -0x50(%ebp),%eax
40007e78:	8d 14 10             	lea    (%eax,%edx,1),%edx
40007e7b:	8b 45 b4             	mov    -0x4c(%ebp),%eax
40007e7e:	89 02                	mov    %eax,(%edx)
40007e80:	a1 a8 12 01 40       	mov    0x400112a8,%eax
40007e85:	89 45 cc             	mov    %eax,-0x34(%ebp)
40007e88:	83 7d cc 00          	cmpl   $0x0,-0x34(%ebp)
40007e8c:	0f 84 a4 00 00 00    	je     40007f36 <malloc+0x2e6>
40007e92:	a1 b4 12 01 40       	mov    0x400112b4,%eax
40007e97:	89 45 d0             	mov    %eax,-0x30(%ebp)
40007e9a:	8b 45 cc             	mov    -0x34(%ebp),%eax
40007e9d:	c1 e8 03             	shr    $0x3,%eax
40007ea0:	89 45 d4             	mov    %eax,-0x2c(%ebp)
40007ea3:	ba c4 12 01 40       	mov    $0x400112c4,%edx
40007ea8:	8b 45 d4             	mov    -0x2c(%ebp),%eax
40007eab:	c1 e0 03             	shl    $0x3,%eax
40007eae:	8d 04 02             	lea    (%edx,%eax,1),%eax
40007eb1:	89 45 d8             	mov    %eax,-0x28(%ebp)
40007eb4:	8b 45 d8             	mov    -0x28(%ebp),%eax
40007eb7:	89 45 dc             	mov    %eax,-0x24(%ebp)
40007eba:	8b 15 a0 12 01 40    	mov    0x400112a0,%edx
40007ec0:	8b 4d d4             	mov    -0x2c(%ebp),%ecx
40007ec3:	b8 01 00 00 00       	mov    $0x1,%eax
40007ec8:	d3 e0                	shl    %cl,%eax
40007eca:	21 d0                	and    %edx,%eax
40007ecc:	85 c0                	test   %eax,%eax
40007ece:	75 19                	jne    40007ee9 <malloc+0x299>
40007ed0:	8b 15 a0 12 01 40    	mov    0x400112a0,%edx
40007ed6:	8b 4d d4             	mov    -0x2c(%ebp),%ecx
40007ed9:	b8 01 00 00 00       	mov    $0x1,%eax
40007ede:	d3 e0                	shl    %cl,%eax
40007ee0:	09 d0                	or     %edx,%eax
40007ee2:	a3 a0 12 01 40       	mov    %eax,0x400112a0
40007ee7:	eb 29                	jmp    40007f12 <malloc+0x2c2>
40007ee9:	8b 45 d8             	mov    -0x28(%ebp),%eax
40007eec:	8b 40 08             	mov    0x8(%eax),%eax
40007eef:	89 c2                	mov    %eax,%edx
40007ef1:	a1 b0 12 01 40       	mov    0x400112b0,%eax
40007ef6:	39 c2                	cmp    %eax,%edx
40007ef8:	0f 93 c0             	setae  %al
40007efb:	0f b6 c0             	movzbl %al,%eax
40007efe:	85 c0                	test   %eax,%eax
40007f00:	74 0b                	je     40007f0d <malloc+0x2bd>
40007f02:	8b 45 d8             	mov    -0x28(%ebp),%eax
40007f05:	8b 40 08             	mov    0x8(%eax),%eax
40007f08:	89 45 dc             	mov    %eax,-0x24(%ebp)
40007f0b:	eb 05                	jmp    40007f12 <malloc+0x2c2>
40007f0d:	e8 6e 5a 00 00       	call   4000d980 <abort>
40007f12:	8b 55 d8             	mov    -0x28(%ebp),%edx
40007f15:	8b 45 d0             	mov    -0x30(%ebp),%eax
40007f18:	89 42 08             	mov    %eax,0x8(%edx)
40007f1b:	8b 55 dc             	mov    -0x24(%ebp),%edx
40007f1e:	8b 45 d0             	mov    -0x30(%ebp),%eax
40007f21:	89 42 0c             	mov    %eax,0xc(%edx)
40007f24:	8b 55 d0             	mov    -0x30(%ebp),%edx
40007f27:	8b 45 dc             	mov    -0x24(%ebp),%eax
40007f2a:	89 42 08             	mov    %eax,0x8(%edx)
40007f2d:	8b 55 d0             	mov    -0x30(%ebp),%edx
40007f30:	8b 45 d8             	mov    -0x28(%ebp),%eax
40007f33:	89 42 0c             	mov    %eax,0xc(%edx)
40007f36:	8b 45 b4             	mov    -0x4c(%ebp),%eax
40007f39:	a3 a8 12 01 40       	mov    %eax,0x400112a8
40007f3e:	8b 45 b0             	mov    -0x50(%ebp),%eax
40007f41:	a3 b4 12 01 40       	mov    %eax,0x400112b4
40007f46:	8b 45 ac             	mov    -0x54(%ebp),%eax
40007f49:	83 c0 08             	add    $0x8,%eax
40007f4c:	89 45 8c             	mov    %eax,-0x74(%ebp)
40007f4f:	e9 a7 01 00 00       	jmp    400080fb <malloc+0x4ab>
40007f54:	a1 a4 12 01 40       	mov    0x400112a4,%eax
40007f59:	85 c0                	test   %eax,%eax
40007f5b:	74 66                	je     40007fc3 <malloc+0x373>
40007f5d:	8b 45 90             	mov    -0x70(%ebp),%eax
40007f60:	89 44 24 04          	mov    %eax,0x4(%esp)
40007f64:	c7 04 24 a0 12 01 40 	movl   $0x400112a0,(%esp)
40007f6b:	e8 95 f0 ff ff       	call   40007005 <tmalloc_small>
40007f70:	89 45 8c             	mov    %eax,-0x74(%ebp)
40007f73:	83 7d 8c 00          	cmpl   $0x0,-0x74(%ebp)
40007f77:	0f 85 7e 01 00 00    	jne    400080fb <malloc+0x4ab>
40007f7d:	eb 44                	jmp    40007fc3 <malloc+0x373>
40007f7f:	83 7d 08 bf          	cmpl   $0xffffffbf,0x8(%ebp)
40007f83:	76 09                	jbe    40007f8e <malloc+0x33e>
40007f85:	c7 45 90 ff ff ff ff 	movl   $0xffffffff,-0x70(%ebp)
40007f8c:	eb 35                	jmp    40007fc3 <malloc+0x373>
40007f8e:	8b 45 08             	mov    0x8(%ebp),%eax
40007f91:	83 c0 0b             	add    $0xb,%eax
40007f94:	83 e0 f8             	and    $0xfffffff8,%eax
40007f97:	89 45 90             	mov    %eax,-0x70(%ebp)
40007f9a:	a1 a4 12 01 40       	mov    0x400112a4,%eax
40007f9f:	85 c0                	test   %eax,%eax
40007fa1:	74 20                	je     40007fc3 <malloc+0x373>
40007fa3:	8b 45 90             	mov    -0x70(%ebp),%eax
40007fa6:	89 44 24 04          	mov    %eax,0x4(%esp)
40007faa:	c7 04 24 a0 12 01 40 	movl   $0x400112a0,(%esp)
40007fb1:	e8 9d e7 ff ff       	call   40006753 <tmalloc_large>
40007fb6:	89 45 8c             	mov    %eax,-0x74(%ebp)
40007fb9:	83 7d 8c 00          	cmpl   $0x0,-0x74(%ebp)
40007fbd:	0f 85 38 01 00 00    	jne    400080fb <malloc+0x4ab>
40007fc3:	a1 a8 12 01 40       	mov    0x400112a8,%eax
40007fc8:	3b 45 90             	cmp    -0x70(%ebp),%eax
40007fcb:	0f 82 b1 00 00 00    	jb     40008082 <malloc+0x432>
40007fd1:	a1 a8 12 01 40       	mov    0x400112a8,%eax
40007fd6:	2b 45 90             	sub    -0x70(%ebp),%eax
40007fd9:	89 45 e0             	mov    %eax,-0x20(%ebp)
40007fdc:	a1 b4 12 01 40       	mov    0x400112b4,%eax
40007fe1:	89 45 e4             	mov    %eax,-0x1c(%ebp)
40007fe4:	83 7d e0 0f          	cmpl   $0xf,-0x20(%ebp)
40007fe8:	76 49                	jbe    40008033 <malloc+0x3e3>
40007fea:	8b 55 90             	mov    -0x70(%ebp),%edx
40007fed:	8b 45 e4             	mov    -0x1c(%ebp),%eax
40007ff0:	01 d0                	add    %edx,%eax
40007ff2:	a3 b4 12 01 40       	mov    %eax,0x400112b4
40007ff7:	a1 b4 12 01 40       	mov    0x400112b4,%eax
40007ffc:	89 45 e8             	mov    %eax,-0x18(%ebp)
40007fff:	8b 45 e0             	mov    -0x20(%ebp),%eax
40008002:	a3 a8 12 01 40       	mov    %eax,0x400112a8
40008007:	8b 45 e0             	mov    -0x20(%ebp),%eax
4000800a:	89 c2                	mov    %eax,%edx
4000800c:	83 ca 01             	or     $0x1,%edx
4000800f:	8b 45 e8             	mov    -0x18(%ebp),%eax
40008012:	89 50 04             	mov    %edx,0x4(%eax)
40008015:	8b 55 e0             	mov    -0x20(%ebp),%edx
40008018:	8b 45 e8             	mov    -0x18(%ebp),%eax
4000801b:	8d 14 10             	lea    (%eax,%edx,1),%edx
4000801e:	8b 45 e0             	mov    -0x20(%ebp),%eax
40008021:	89 02                	mov    %eax,(%edx)
40008023:	8b 45 90             	mov    -0x70(%ebp),%eax
40008026:	89 c2                	mov    %eax,%edx
40008028:	83 ca 03             	or     $0x3,%edx
4000802b:	8b 45 e4             	mov    -0x1c(%ebp),%eax
4000802e:	89 50 04             	mov    %edx,0x4(%eax)
40008031:	eb 44                	jmp    40008077 <malloc+0x427>
40008033:	a1 a8 12 01 40       	mov    0x400112a8,%eax
40008038:	89 45 ec             	mov    %eax,-0x14(%ebp)
4000803b:	c7 05 a8 12 01 40 00 	movl   $0x0,0x400112a8
40008042:	00 00 00 
40008045:	c7 05 b4 12 01 40 00 	movl   $0x0,0x400112b4
4000804c:	00 00 00 
4000804f:	8b 45 ec             	mov    -0x14(%ebp),%eax
40008052:	89 c2                	mov    %eax,%edx
40008054:	83 ca 03             	or     $0x3,%edx
40008057:	8b 45 e4             	mov    -0x1c(%ebp),%eax
4000805a:	89 50 04             	mov    %edx,0x4(%eax)
4000805d:	8b 55 ec             	mov    -0x14(%ebp),%edx
40008060:	8b 45 e4             	mov    -0x1c(%ebp),%eax
40008063:	8d 0c 10             	lea    (%eax,%edx,1),%ecx
40008066:	8b 55 ec             	mov    -0x14(%ebp),%edx
40008069:	8b 45 e4             	mov    -0x1c(%ebp),%eax
4000806c:	01 d0                	add    %edx,%eax
4000806e:	8b 40 04             	mov    0x4(%eax),%eax
40008071:	83 c8 01             	or     $0x1,%eax
40008074:	89 41 04             	mov    %eax,0x4(%ecx)
40008077:	8b 45 e4             	mov    -0x1c(%ebp),%eax
4000807a:	83 c0 08             	add    $0x8,%eax
4000807d:	89 45 8c             	mov    %eax,-0x74(%ebp)
40008080:	eb 79                	jmp    400080fb <malloc+0x4ab>
40008082:	a1 ac 12 01 40       	mov    0x400112ac,%eax
40008087:	3b 45 90             	cmp    -0x70(%ebp),%eax
4000808a:	76 59                	jbe    400080e5 <malloc+0x495>
4000808c:	a1 ac 12 01 40       	mov    0x400112ac,%eax
40008091:	2b 45 90             	sub    -0x70(%ebp),%eax
40008094:	a3 ac 12 01 40       	mov    %eax,0x400112ac
40008099:	a1 ac 12 01 40       	mov    0x400112ac,%eax
4000809e:	89 45 f0             	mov    %eax,-0x10(%ebp)
400080a1:	a1 b8 12 01 40       	mov    0x400112b8,%eax
400080a6:	89 45 f4             	mov    %eax,-0xc(%ebp)
400080a9:	8b 55 90             	mov    -0x70(%ebp),%edx
400080ac:	8b 45 f4             	mov    -0xc(%ebp),%eax
400080af:	01 d0                	add    %edx,%eax
400080b1:	a3 b8 12 01 40       	mov    %eax,0x400112b8
400080b6:	a1 b8 12 01 40       	mov    0x400112b8,%eax
400080bb:	89 45 f8             	mov    %eax,-0x8(%ebp)
400080be:	8b 45 f0             	mov    -0x10(%ebp),%eax
400080c1:	89 c2                	mov    %eax,%edx
400080c3:	83 ca 01             	or     $0x1,%edx
400080c6:	8b 45 f8             	mov    -0x8(%ebp),%eax
400080c9:	89 50 04             	mov    %edx,0x4(%eax)
400080cc:	8b 45 90             	mov    -0x70(%ebp),%eax
400080cf:	89 c2                	mov    %eax,%edx
400080d1:	83 ca 03             	or     $0x3,%edx
400080d4:	8b 45 f4             	mov    -0xc(%ebp),%eax
400080d7:	89 50 04             	mov    %edx,0x4(%eax)
400080da:	8b 45 f4             	mov    -0xc(%ebp),%eax
400080dd:	83 c0 08             	add    $0x8,%eax
400080e0:	89 45 8c             	mov    %eax,-0x74(%ebp)
400080e3:	eb 16                	jmp    400080fb <malloc+0x4ab>
400080e5:	8b 45 90             	mov    -0x70(%ebp),%eax
400080e8:	89 44 24 04          	mov    %eax,0x4(%esp)
400080ec:	c7 04 24 a0 12 01 40 	movl   $0x400112a0,(%esp)
400080f3:	e8 fd de ff ff       	call   40005ff5 <sys_alloc>
400080f8:	89 45 8c             	mov    %eax,-0x74(%ebp)
400080fb:	8b 45 8c             	mov    -0x74(%ebp),%eax
400080fe:	81 c4 84 00 00 00    	add    $0x84,%esp
40008104:	5b                   	pop    %ebx
40008105:	5d                   	pop    %ebp
40008106:	c3                   	ret    

40008107 <free>:
40008107:	55                   	push   %ebp
40008108:	89 e5                	mov    %esp,%ebp
4000810a:	81 ec c8 00 00 00    	sub    $0xc8,%esp
40008110:	83 7d 08 00          	cmpl   $0x0,0x8(%ebp)
40008114:	0f 84 06 0d 00 00    	je     40008e20 <free+0xd19>
4000811a:	8b 45 08             	mov    0x8(%ebp),%eax
4000811d:	83 e8 08             	sub    $0x8,%eax
40008120:	89 85 50 ff ff ff    	mov    %eax,-0xb0(%ebp)
40008126:	8b 15 b0 12 01 40    	mov    0x400112b0,%edx
4000812c:	8b 85 50 ff ff ff    	mov    -0xb0(%ebp),%eax
40008132:	39 c2                	cmp    %eax,%edx
40008134:	0f 96 c0             	setbe  %al
40008137:	0f b6 c0             	movzbl %al,%eax
4000813a:	85 c0                	test   %eax,%eax
4000813c:	0f 84 d9 0c 00 00    	je     40008e1b <free+0xd14>
40008142:	8b 85 50 ff ff ff    	mov    -0xb0(%ebp),%eax
40008148:	8b 40 04             	mov    0x4(%eax),%eax
4000814b:	83 e0 02             	and    $0x2,%eax
4000814e:	85 c0                	test   %eax,%eax
40008150:	0f 95 c0             	setne  %al
40008153:	0f b6 c0             	movzbl %al,%eax
40008156:	85 c0                	test   %eax,%eax
40008158:	0f 84 bd 0c 00 00    	je     40008e1b <free+0xd14>
4000815e:	8b 85 50 ff ff ff    	mov    -0xb0(%ebp),%eax
40008164:	8b 40 04             	mov    0x4(%eax),%eax
40008167:	83 e0 fc             	and    $0xfffffffc,%eax
4000816a:	89 85 54 ff ff ff    	mov    %eax,-0xac(%ebp)
40008170:	8b 95 54 ff ff ff    	mov    -0xac(%ebp),%edx
40008176:	8b 85 50 ff ff ff    	mov    -0xb0(%ebp),%eax
4000817c:	01 d0                	add    %edx,%eax
4000817e:	89 85 58 ff ff ff    	mov    %eax,-0xa8(%ebp)
40008184:	8b 85 50 ff ff ff    	mov    -0xb0(%ebp),%eax
4000818a:	8b 40 04             	mov    0x4(%eax),%eax
4000818d:	83 e0 01             	and    $0x1,%eax
40008190:	85 c0                	test   %eax,%eax
40008192:	0f 85 cc 04 00 00    	jne    40008664 <free+0x55d>
40008198:	8b 85 50 ff ff ff    	mov    -0xb0(%ebp),%eax
4000819e:	8b 00                	mov    (%eax),%eax
400081a0:	89 85 5c ff ff ff    	mov    %eax,-0xa4(%ebp)
400081a6:	8b 85 5c ff ff ff    	mov    -0xa4(%ebp),%eax
400081ac:	f7 d8                	neg    %eax
400081ae:	03 85 50 ff ff ff    	add    -0xb0(%ebp),%eax
400081b4:	89 85 60 ff ff ff    	mov    %eax,-0xa0(%ebp)
400081ba:	8b 85 5c ff ff ff    	mov    -0xa4(%ebp),%eax
400081c0:	01 85 54 ff ff ff    	add    %eax,-0xac(%ebp)
400081c6:	8b 85 60 ff ff ff    	mov    -0xa0(%ebp),%eax
400081cc:	89 85 50 ff ff ff    	mov    %eax,-0xb0(%ebp)
400081d2:	8b 15 b0 12 01 40    	mov    0x400112b0,%edx
400081d8:	8b 85 60 ff ff ff    	mov    -0xa0(%ebp),%eax
400081de:	39 c2                	cmp    %eax,%edx
400081e0:	0f 96 c0             	setbe  %al
400081e3:	0f b6 c0             	movzbl %al,%eax
400081e6:	85 c0                	test   %eax,%eax
400081e8:	0f 84 2d 0c 00 00    	je     40008e1b <free+0xd14>
400081ee:	a1 b4 12 01 40       	mov    0x400112b4,%eax
400081f3:	3b 85 50 ff ff ff    	cmp    -0xb0(%ebp),%eax
400081f9:	0f 84 02 04 00 00    	je     40008601 <free+0x4fa>
400081ff:	8b 85 5c ff ff ff    	mov    -0xa4(%ebp),%eax
40008205:	c1 e8 03             	shr    $0x3,%eax
40008208:	83 f8 1f             	cmp    $0x1f,%eax
4000820b:	0f 87 39 01 00 00    	ja     4000834a <free+0x243>
40008211:	8b 85 50 ff ff ff    	mov    -0xb0(%ebp),%eax
40008217:	8b 40 08             	mov    0x8(%eax),%eax
4000821a:	89 85 64 ff ff ff    	mov    %eax,-0x9c(%ebp)
40008220:	8b 85 50 ff ff ff    	mov    -0xb0(%ebp),%eax
40008226:	8b 40 0c             	mov    0xc(%eax),%eax
40008229:	89 85 68 ff ff ff    	mov    %eax,-0x98(%ebp)
4000822f:	8b 85 5c ff ff ff    	mov    -0xa4(%ebp),%eax
40008235:	c1 e8 03             	shr    $0x3,%eax
40008238:	89 85 6c ff ff ff    	mov    %eax,-0x94(%ebp)
4000823e:	8b 85 64 ff ff ff    	mov    -0x9c(%ebp),%eax
40008244:	3b 85 68 ff ff ff    	cmp    -0x98(%ebp),%eax
4000824a:	75 21                	jne    4000826d <free+0x166>
4000824c:	8b 15 a0 12 01 40    	mov    0x400112a0,%edx
40008252:	8b 8d 6c ff ff ff    	mov    -0x94(%ebp),%ecx
40008258:	b8 01 00 00 00       	mov    $0x1,%eax
4000825d:	d3 e0                	shl    %cl,%eax
4000825f:	f7 d0                	not    %eax
40008261:	21 d0                	and    %edx,%eax
40008263:	a3 a0 12 01 40       	mov    %eax,0x400112a0
40008268:	e9 f7 03 00 00       	jmp    40008664 <free+0x55d>
4000826d:	ba c4 12 01 40       	mov    $0x400112c4,%edx
40008272:	8b 85 6c ff ff ff    	mov    -0x94(%ebp),%eax
40008278:	c1 e0 03             	shl    $0x3,%eax
4000827b:	8d 04 02             	lea    (%edx,%eax,1),%eax
4000827e:	3b 85 64 ff ff ff    	cmp    -0x9c(%ebp),%eax
40008284:	0f 94 c0             	sete   %al
40008287:	0f b6 c0             	movzbl %al,%eax
4000828a:	85 c0                	test   %eax,%eax
4000828c:	75 18                	jne    400082a6 <free+0x19f>
4000828e:	8b 15 b0 12 01 40    	mov    0x400112b0,%edx
40008294:	8b 85 64 ff ff ff    	mov    -0x9c(%ebp),%eax
4000829a:	39 c2                	cmp    %eax,%edx
4000829c:	0f 96 c0             	setbe  %al
4000829f:	0f b6 c0             	movzbl %al,%eax
400082a2:	85 c0                	test   %eax,%eax
400082a4:	74 0c                	je     400082b2 <free+0x1ab>
400082a6:	c7 85 3c ff ff ff 01 	movl   $0x1,-0xc4(%ebp)
400082ad:	00 00 00 
400082b0:	eb 0a                	jmp    400082bc <free+0x1b5>
400082b2:	c7 85 3c ff ff ff 00 	movl   $0x0,-0xc4(%ebp)
400082b9:	00 00 00 
400082bc:	83 bd 3c ff ff ff 00 	cmpl   $0x0,-0xc4(%ebp)
400082c3:	74 7b                	je     40008340 <free+0x239>
400082c5:	ba c4 12 01 40       	mov    $0x400112c4,%edx
400082ca:	8b 85 6c ff ff ff    	mov    -0x94(%ebp),%eax
400082d0:	c1 e0 03             	shl    $0x3,%eax
400082d3:	8d 04 02             	lea    (%edx,%eax,1),%eax
400082d6:	3b 85 68 ff ff ff    	cmp    -0x98(%ebp),%eax
400082dc:	0f 94 c0             	sete   %al
400082df:	0f b6 c0             	movzbl %al,%eax
400082e2:	85 c0                	test   %eax,%eax
400082e4:	75 18                	jne    400082fe <free+0x1f7>
400082e6:	8b 15 b0 12 01 40    	mov    0x400112b0,%edx
400082ec:	8b 85 68 ff ff ff    	mov    -0x98(%ebp),%eax
400082f2:	39 c2                	cmp    %eax,%edx
400082f4:	0f 96 c0             	setbe  %al
400082f7:	0f b6 c0             	movzbl %al,%eax
400082fa:	85 c0                	test   %eax,%eax
400082fc:	74 0c                	je     4000830a <free+0x203>
400082fe:	c7 85 40 ff ff ff 01 	movl   $0x1,-0xc0(%ebp)
40008305:	00 00 00 
40008308:	eb 0a                	jmp    40008314 <free+0x20d>
4000830a:	c7 85 40 ff ff ff 00 	movl   $0x0,-0xc0(%ebp)
40008311:	00 00 00 
40008314:	83 bd 40 ff ff ff 00 	cmpl   $0x0,-0xc0(%ebp)
4000831b:	74 23                	je     40008340 <free+0x239>
4000831d:	8b 95 64 ff ff ff    	mov    -0x9c(%ebp),%edx
40008323:	8b 85 68 ff ff ff    	mov    -0x98(%ebp),%eax
40008329:	89 42 0c             	mov    %eax,0xc(%edx)
4000832c:	8b 95 68 ff ff ff    	mov    -0x98(%ebp),%edx
40008332:	8b 85 64 ff ff ff    	mov    -0x9c(%ebp),%eax
40008338:	89 42 08             	mov    %eax,0x8(%edx)
4000833b:	e9 24 03 00 00       	jmp    40008664 <free+0x55d>
40008340:	e8 3b 56 00 00       	call   4000d980 <abort>
40008345:	e9 1a 03 00 00       	jmp    40008664 <free+0x55d>
4000834a:	8b 85 50 ff ff ff    	mov    -0xb0(%ebp),%eax
40008350:	89 85 70 ff ff ff    	mov    %eax,-0x90(%ebp)
40008356:	8b 85 70 ff ff ff    	mov    -0x90(%ebp),%eax
4000835c:	8b 40 18             	mov    0x18(%eax),%eax
4000835f:	89 85 74 ff ff ff    	mov    %eax,-0x8c(%ebp)
40008365:	8b 85 70 ff ff ff    	mov    -0x90(%ebp),%eax
4000836b:	8b 40 0c             	mov    0xc(%eax),%eax
4000836e:	3b 85 70 ff ff ff    	cmp    -0x90(%ebp),%eax
40008374:	74 63                	je     400083d9 <free+0x2d2>
40008376:	8b 85 70 ff ff ff    	mov    -0x90(%ebp),%eax
4000837c:	8b 40 08             	mov    0x8(%eax),%eax
4000837f:	89 85 7c ff ff ff    	mov    %eax,-0x84(%ebp)
40008385:	8b 85 70 ff ff ff    	mov    -0x90(%ebp),%eax
4000838b:	8b 40 0c             	mov    0xc(%eax),%eax
4000838e:	89 85 78 ff ff ff    	mov    %eax,-0x88(%ebp)
40008394:	8b 15 b0 12 01 40    	mov    0x400112b0,%edx
4000839a:	8b 85 7c ff ff ff    	mov    -0x84(%ebp),%eax
400083a0:	39 c2                	cmp    %eax,%edx
400083a2:	0f 96 c0             	setbe  %al
400083a5:	0f b6 c0             	movzbl %al,%eax
400083a8:	85 c0                	test   %eax,%eax
400083aa:	74 23                	je     400083cf <free+0x2c8>
400083ac:	8b 95 7c ff ff ff    	mov    -0x84(%ebp),%edx
400083b2:	8b 85 78 ff ff ff    	mov    -0x88(%ebp),%eax
400083b8:	89 42 0c             	mov    %eax,0xc(%edx)
400083bb:	8b 95 78 ff ff ff    	mov    -0x88(%ebp),%edx
400083c1:	8b 85 7c ff ff ff    	mov    -0x84(%ebp),%eax
400083c7:	89 42 08             	mov    %eax,0x8(%edx)
400083ca:	e9 ac 00 00 00       	jmp    4000847b <free+0x374>
400083cf:	e8 ac 55 00 00       	call   4000d980 <abort>
400083d4:	e9 a2 00 00 00       	jmp    4000847b <free+0x374>
400083d9:	8b 85 70 ff ff ff    	mov    -0x90(%ebp),%eax
400083df:	83 c0 14             	add    $0x14,%eax
400083e2:	89 45 80             	mov    %eax,-0x80(%ebp)
400083e5:	8b 45 80             	mov    -0x80(%ebp),%eax
400083e8:	8b 00                	mov    (%eax),%eax
400083ea:	89 85 78 ff ff ff    	mov    %eax,-0x88(%ebp)
400083f0:	83 bd 78 ff ff ff 00 	cmpl   $0x0,-0x88(%ebp)
400083f7:	75 33                	jne    4000842c <free+0x325>
400083f9:	8b 85 70 ff ff ff    	mov    -0x90(%ebp),%eax
400083ff:	83 c0 10             	add    $0x10,%eax
40008402:	89 45 80             	mov    %eax,-0x80(%ebp)
40008405:	8b 45 80             	mov    -0x80(%ebp),%eax
40008408:	8b 00                	mov    (%eax),%eax
4000840a:	89 85 78 ff ff ff    	mov    %eax,-0x88(%ebp)
40008410:	83 bd 78 ff ff ff 00 	cmpl   $0x0,-0x88(%ebp)
40008417:	74 62                	je     4000847b <free+0x374>
40008419:	eb 11                	jmp    4000842c <free+0x325>
4000841b:	8b 45 84             	mov    -0x7c(%ebp),%eax
4000841e:	89 45 80             	mov    %eax,-0x80(%ebp)
40008421:	8b 45 80             	mov    -0x80(%ebp),%eax
40008424:	8b 00                	mov    (%eax),%eax
40008426:	89 85 78 ff ff ff    	mov    %eax,-0x88(%ebp)
4000842c:	8b 85 78 ff ff ff    	mov    -0x88(%ebp),%eax
40008432:	83 c0 14             	add    $0x14,%eax
40008435:	89 45 84             	mov    %eax,-0x7c(%ebp)
40008438:	8b 45 84             	mov    -0x7c(%ebp),%eax
4000843b:	8b 00                	mov    (%eax),%eax
4000843d:	85 c0                	test   %eax,%eax
4000843f:	75 da                	jne    4000841b <free+0x314>
40008441:	8b 85 78 ff ff ff    	mov    -0x88(%ebp),%eax
40008447:	83 c0 10             	add    $0x10,%eax
4000844a:	89 45 84             	mov    %eax,-0x7c(%ebp)
4000844d:	8b 45 84             	mov    -0x7c(%ebp),%eax
40008450:	8b 00                	mov    (%eax),%eax
40008452:	85 c0                	test   %eax,%eax
40008454:	75 c5                	jne    4000841b <free+0x314>
40008456:	8b 15 b0 12 01 40    	mov    0x400112b0,%edx
4000845c:	8b 45 80             	mov    -0x80(%ebp),%eax
4000845f:	39 c2                	cmp    %eax,%edx
40008461:	0f 96 c0             	setbe  %al
40008464:	0f b6 c0             	movzbl %al,%eax
40008467:	85 c0                	test   %eax,%eax
40008469:	74 0b                	je     40008476 <free+0x36f>
4000846b:	8b 45 80             	mov    -0x80(%ebp),%eax
4000846e:	c7 00 00 00 00 00    	movl   $0x0,(%eax)
40008474:	eb 05                	jmp    4000847b <free+0x374>
40008476:	e8 05 55 00 00       	call   4000d980 <abort>
4000847b:	83 bd 74 ff ff ff 00 	cmpl   $0x0,-0x8c(%ebp)
40008482:	0f 84 dc 01 00 00    	je     40008664 <free+0x55d>
40008488:	8b 85 70 ff ff ff    	mov    -0x90(%ebp),%eax
4000848e:	8b 40 1c             	mov    0x1c(%eax),%eax
40008491:	c1 e0 02             	shl    $0x2,%eax
40008494:	05 cc 13 01 40       	add    $0x400113cc,%eax
40008499:	89 45 88             	mov    %eax,-0x78(%ebp)
4000849c:	8b 45 88             	mov    -0x78(%ebp),%eax
4000849f:	8b 00                	mov    (%eax),%eax
400084a1:	3b 85 70 ff ff ff    	cmp    -0x90(%ebp),%eax
400084a7:	75 37                	jne    400084e0 <free+0x3d9>
400084a9:	8b 55 88             	mov    -0x78(%ebp),%edx
400084ac:	8b 85 78 ff ff ff    	mov    -0x88(%ebp),%eax
400084b2:	89 02                	mov    %eax,(%edx)
400084b4:	8b 45 88             	mov    -0x78(%ebp),%eax
400084b7:	8b 00                	mov    (%eax),%eax
400084b9:	85 c0                	test   %eax,%eax
400084bb:	75 73                	jne    40008530 <free+0x429>
400084bd:	8b 15 a4 12 01 40    	mov    0x400112a4,%edx
400084c3:	8b 85 70 ff ff ff    	mov    -0x90(%ebp),%eax
400084c9:	8b 40 1c             	mov    0x1c(%eax),%eax
400084cc:	89 c1                	mov    %eax,%ecx
400084ce:	b8 01 00 00 00       	mov    $0x1,%eax
400084d3:	d3 e0                	shl    %cl,%eax
400084d5:	f7 d0                	not    %eax
400084d7:	21 d0                	and    %edx,%eax
400084d9:	a3 a4 12 01 40       	mov    %eax,0x400112a4
400084de:	eb 50                	jmp    40008530 <free+0x429>
400084e0:	8b 15 b0 12 01 40    	mov    0x400112b0,%edx
400084e6:	8b 85 74 ff ff ff    	mov    -0x8c(%ebp),%eax
400084ec:	39 c2                	cmp    %eax,%edx
400084ee:	0f 96 c0             	setbe  %al
400084f1:	0f b6 c0             	movzbl %al,%eax
400084f4:	85 c0                	test   %eax,%eax
400084f6:	74 33                	je     4000852b <free+0x424>
400084f8:	8b 85 74 ff ff ff    	mov    -0x8c(%ebp),%eax
400084fe:	8b 40 10             	mov    0x10(%eax),%eax
40008501:	3b 85 70 ff ff ff    	cmp    -0x90(%ebp),%eax
40008507:	75 11                	jne    4000851a <free+0x413>
40008509:	8b 95 74 ff ff ff    	mov    -0x8c(%ebp),%edx
4000850f:	8b 85 78 ff ff ff    	mov    -0x88(%ebp),%eax
40008515:	89 42 10             	mov    %eax,0x10(%edx)
40008518:	eb 16                	jmp    40008530 <free+0x429>
4000851a:	8b 95 74 ff ff ff    	mov    -0x8c(%ebp),%edx
40008520:	8b 85 78 ff ff ff    	mov    -0x88(%ebp),%eax
40008526:	89 42 14             	mov    %eax,0x14(%edx)
40008529:	eb 05                	jmp    40008530 <free+0x429>
4000852b:	e8 50 54 00 00       	call   4000d980 <abort>
40008530:	83 bd 78 ff ff ff 00 	cmpl   $0x0,-0x88(%ebp)
40008537:	0f 84 27 01 00 00    	je     40008664 <free+0x55d>
4000853d:	8b 15 b0 12 01 40    	mov    0x400112b0,%edx
40008543:	8b 85 78 ff ff ff    	mov    -0x88(%ebp),%eax
40008549:	39 c2                	cmp    %eax,%edx
4000854b:	0f 96 c0             	setbe  %al
4000854e:	0f b6 c0             	movzbl %al,%eax
40008551:	85 c0                	test   %eax,%eax
40008553:	0f 84 a1 00 00 00    	je     400085fa <free+0x4f3>
40008559:	8b 95 78 ff ff ff    	mov    -0x88(%ebp),%edx
4000855f:	8b 85 74 ff ff ff    	mov    -0x8c(%ebp),%eax
40008565:	89 42 18             	mov    %eax,0x18(%edx)
40008568:	8b 85 70 ff ff ff    	mov    -0x90(%ebp),%eax
4000856e:	8b 40 10             	mov    0x10(%eax),%eax
40008571:	89 45 8c             	mov    %eax,-0x74(%ebp)
40008574:	83 7d 8c 00          	cmpl   $0x0,-0x74(%ebp)
40008578:	74 34                	je     400085ae <free+0x4a7>
4000857a:	8b 15 b0 12 01 40    	mov    0x400112b0,%edx
40008580:	8b 45 8c             	mov    -0x74(%ebp),%eax
40008583:	39 c2                	cmp    %eax,%edx
40008585:	0f 96 c0             	setbe  %al
40008588:	0f b6 c0             	movzbl %al,%eax
4000858b:	85 c0                	test   %eax,%eax
4000858d:	74 1a                	je     400085a9 <free+0x4a2>
4000858f:	8b 95 78 ff ff ff    	mov    -0x88(%ebp),%edx
40008595:	8b 45 8c             	mov    -0x74(%ebp),%eax
40008598:	89 42 10             	mov    %eax,0x10(%edx)
4000859b:	8b 55 8c             	mov    -0x74(%ebp),%edx
4000859e:	8b 85 78 ff ff ff    	mov    -0x88(%ebp),%eax
400085a4:	89 42 18             	mov    %eax,0x18(%edx)
400085a7:	eb 05                	jmp    400085ae <free+0x4a7>
400085a9:	e8 d2 53 00 00       	call   4000d980 <abort>
400085ae:	8b 85 70 ff ff ff    	mov    -0x90(%ebp),%eax
400085b4:	8b 40 14             	mov    0x14(%eax),%eax
400085b7:	89 45 90             	mov    %eax,-0x70(%ebp)
400085ba:	83 7d 90 00          	cmpl   $0x0,-0x70(%ebp)
400085be:	0f 84 a0 00 00 00    	je     40008664 <free+0x55d>
400085c4:	8b 15 b0 12 01 40    	mov    0x400112b0,%edx
400085ca:	8b 45 90             	mov    -0x70(%ebp),%eax
400085cd:	39 c2                	cmp    %eax,%edx
400085cf:	0f 96 c0             	setbe  %al
400085d2:	0f b6 c0             	movzbl %al,%eax
400085d5:	85 c0                	test   %eax,%eax
400085d7:	74 1a                	je     400085f3 <free+0x4ec>
400085d9:	8b 95 78 ff ff ff    	mov    -0x88(%ebp),%edx
400085df:	8b 45 90             	mov    -0x70(%ebp),%eax
400085e2:	89 42 14             	mov    %eax,0x14(%edx)
400085e5:	8b 55 90             	mov    -0x70(%ebp),%edx
400085e8:	8b 85 78 ff ff ff    	mov    -0x88(%ebp),%eax
400085ee:	89 42 18             	mov    %eax,0x18(%edx)
400085f1:	eb 71                	jmp    40008664 <free+0x55d>
400085f3:	e8 88 53 00 00       	call   4000d980 <abort>
400085f8:	eb 6a                	jmp    40008664 <free+0x55d>
400085fa:	e8 81 53 00 00       	call   4000d980 <abort>
400085ff:	eb 63                	jmp    40008664 <free+0x55d>
40008601:	8b 85 58 ff ff ff    	mov    -0xa8(%ebp),%eax
40008607:	8b 40 04             	mov    0x4(%eax),%eax
4000860a:	83 e0 03             	and    $0x3,%eax
4000860d:	83 f8 03             	cmp    $0x3,%eax
40008610:	75 52                	jne    40008664 <free+0x55d>
40008612:	8b 85 54 ff ff ff    	mov    -0xac(%ebp),%eax
40008618:	a3 a8 12 01 40       	mov    %eax,0x400112a8
4000861d:	8b 85 58 ff ff ff    	mov    -0xa8(%ebp),%eax
40008623:	8b 40 04             	mov    0x4(%eax),%eax
40008626:	89 c2                	mov    %eax,%edx
40008628:	83 e2 fe             	and    $0xfffffffe,%edx
4000862b:	8b 85 58 ff ff ff    	mov    -0xa8(%ebp),%eax
40008631:	89 50 04             	mov    %edx,0x4(%eax)
40008634:	8b 85 54 ff ff ff    	mov    -0xac(%ebp),%eax
4000863a:	89 c2                	mov    %eax,%edx
4000863c:	83 ca 01             	or     $0x1,%edx
4000863f:	8b 85 50 ff ff ff    	mov    -0xb0(%ebp),%eax
40008645:	89 50 04             	mov    %edx,0x4(%eax)
40008648:	8b 95 54 ff ff ff    	mov    -0xac(%ebp),%edx
4000864e:	8b 85 50 ff ff ff    	mov    -0xb0(%ebp),%eax
40008654:	8d 14 10             	lea    (%eax,%edx,1),%edx
40008657:	8b 85 54 ff ff ff    	mov    -0xac(%ebp),%eax
4000865d:	89 02                	mov    %eax,(%edx)
4000865f:	e9 bc 07 00 00       	jmp    40008e20 <free+0xd19>
40008664:	8b 95 50 ff ff ff    	mov    -0xb0(%ebp),%edx
4000866a:	8b 85 58 ff ff ff    	mov    -0xa8(%ebp),%eax
40008670:	39 c2                	cmp    %eax,%edx
40008672:	0f 92 c0             	setb   %al
40008675:	0f b6 c0             	movzbl %al,%eax
40008678:	85 c0                	test   %eax,%eax
4000867a:	0f 84 9b 07 00 00    	je     40008e1b <free+0xd14>
40008680:	8b 85 58 ff ff ff    	mov    -0xa8(%ebp),%eax
40008686:	8b 40 04             	mov    0x4(%eax),%eax
40008689:	83 e0 01             	and    $0x1,%eax
4000868c:	85 c0                	test   %eax,%eax
4000868e:	0f 84 87 07 00 00    	je     40008e1b <free+0xd14>
40008694:	8b 85 58 ff ff ff    	mov    -0xa8(%ebp),%eax
4000869a:	8b 40 04             	mov    0x4(%eax),%eax
4000869d:	83 e0 02             	and    $0x2,%eax
400086a0:	85 c0                	test   %eax,%eax
400086a2:	0f 85 61 04 00 00    	jne    40008b09 <free+0xa02>
400086a8:	a1 b8 12 01 40       	mov    0x400112b8,%eax
400086ad:	3b 85 58 ff ff ff    	cmp    -0xa8(%ebp),%eax
400086b3:	75 5e                	jne    40008713 <free+0x60c>
400086b5:	a1 ac 12 01 40       	mov    0x400112ac,%eax
400086ba:	03 85 54 ff ff ff    	add    -0xac(%ebp),%eax
400086c0:	a3 ac 12 01 40       	mov    %eax,0x400112ac
400086c5:	a1 ac 12 01 40       	mov    0x400112ac,%eax
400086ca:	89 45 94             	mov    %eax,-0x6c(%ebp)
400086cd:	8b 85 50 ff ff ff    	mov    -0xb0(%ebp),%eax
400086d3:	a3 b8 12 01 40       	mov    %eax,0x400112b8
400086d8:	8b 45 94             	mov    -0x6c(%ebp),%eax
400086db:	89 c2                	mov    %eax,%edx
400086dd:	83 ca 01             	or     $0x1,%edx
400086e0:	8b 85 50 ff ff ff    	mov    -0xb0(%ebp),%eax
400086e6:	89 50 04             	mov    %edx,0x4(%eax)
400086e9:	a1 b4 12 01 40       	mov    0x400112b4,%eax
400086ee:	3b 85 50 ff ff ff    	cmp    -0xb0(%ebp),%eax
400086f4:	0f 85 26 07 00 00    	jne    40008e20 <free+0xd19>
400086fa:	c7 05 b4 12 01 40 00 	movl   $0x0,0x400112b4
40008701:	00 00 00 
40008704:	c7 05 a8 12 01 40 00 	movl   $0x0,0x400112a8
4000870b:	00 00 00 
4000870e:	e9 0d 07 00 00       	jmp    40008e20 <free+0xd19>
40008713:	a1 b4 12 01 40       	mov    0x400112b4,%eax
40008718:	3b 85 58 ff ff ff    	cmp    -0xa8(%ebp),%eax
4000871e:	75 4a                	jne    4000876a <free+0x663>
40008720:	a1 a8 12 01 40       	mov    0x400112a8,%eax
40008725:	03 85 54 ff ff ff    	add    -0xac(%ebp),%eax
4000872b:	a3 a8 12 01 40       	mov    %eax,0x400112a8
40008730:	a1 a8 12 01 40       	mov    0x400112a8,%eax
40008735:	89 45 98             	mov    %eax,-0x68(%ebp)
40008738:	8b 85 50 ff ff ff    	mov    -0xb0(%ebp),%eax
4000873e:	a3 b4 12 01 40       	mov    %eax,0x400112b4
40008743:	8b 45 98             	mov    -0x68(%ebp),%eax
40008746:	89 c2                	mov    %eax,%edx
40008748:	83 ca 01             	or     $0x1,%edx
4000874b:	8b 85 50 ff ff ff    	mov    -0xb0(%ebp),%eax
40008751:	89 50 04             	mov    %edx,0x4(%eax)
40008754:	8b 55 98             	mov    -0x68(%ebp),%edx
40008757:	8b 85 50 ff ff ff    	mov    -0xb0(%ebp),%eax
4000875d:	8d 14 10             	lea    (%eax,%edx,1),%edx
40008760:	8b 45 98             	mov    -0x68(%ebp),%eax
40008763:	89 02                	mov    %eax,(%edx)
40008765:	e9 b6 06 00 00       	jmp    40008e20 <free+0xd19>
4000876a:	8b 85 58 ff ff ff    	mov    -0xa8(%ebp),%eax
40008770:	8b 40 04             	mov    0x4(%eax),%eax
40008773:	83 e0 fc             	and    $0xfffffffc,%eax
40008776:	89 45 9c             	mov    %eax,-0x64(%ebp)
40008779:	8b 45 9c             	mov    -0x64(%ebp),%eax
4000877c:	01 85 54 ff ff ff    	add    %eax,-0xac(%ebp)
40008782:	8b 45 9c             	mov    -0x64(%ebp),%eax
40008785:	c1 e8 03             	shr    $0x3,%eax
40008788:	83 f8 1f             	cmp    $0x1f,%eax
4000878b:	0f 87 06 01 00 00    	ja     40008897 <free+0x790>
40008791:	8b 85 58 ff ff ff    	mov    -0xa8(%ebp),%eax
40008797:	8b 40 08             	mov    0x8(%eax),%eax
4000879a:	89 45 a0             	mov    %eax,-0x60(%ebp)
4000879d:	8b 85 58 ff ff ff    	mov    -0xa8(%ebp),%eax
400087a3:	8b 40 0c             	mov    0xc(%eax),%eax
400087a6:	89 45 a4             	mov    %eax,-0x5c(%ebp)
400087a9:	8b 45 9c             	mov    -0x64(%ebp),%eax
400087ac:	c1 e8 03             	shr    $0x3,%eax
400087af:	89 45 a8             	mov    %eax,-0x58(%ebp)
400087b2:	8b 45 a0             	mov    -0x60(%ebp),%eax
400087b5:	3b 45 a4             	cmp    -0x5c(%ebp),%eax
400087b8:	75 1e                	jne    400087d8 <free+0x6d1>
400087ba:	8b 15 a0 12 01 40    	mov    0x400112a0,%edx
400087c0:	8b 4d a8             	mov    -0x58(%ebp),%ecx
400087c3:	b8 01 00 00 00       	mov    $0x1,%eax
400087c8:	d3 e0                	shl    %cl,%eax
400087ca:	f7 d0                	not    %eax
400087cc:	21 d0                	and    %edx,%eax
400087ce:	a3 a0 12 01 40       	mov    %eax,0x400112a0
400087d3:	e9 e9 02 00 00       	jmp    40008ac1 <free+0x9ba>
400087d8:	ba c4 12 01 40       	mov    $0x400112c4,%edx
400087dd:	8b 45 a8             	mov    -0x58(%ebp),%eax
400087e0:	c1 e0 03             	shl    $0x3,%eax
400087e3:	8d 04 02             	lea    (%edx,%eax,1),%eax
400087e6:	3b 45 a0             	cmp    -0x60(%ebp),%eax
400087e9:	0f 94 c0             	sete   %al
400087ec:	0f b6 c0             	movzbl %al,%eax
400087ef:	85 c0                	test   %eax,%eax
400087f1:	75 15                	jne    40008808 <free+0x701>
400087f3:	8b 15 b0 12 01 40    	mov    0x400112b0,%edx
400087f9:	8b 45 a0             	mov    -0x60(%ebp),%eax
400087fc:	39 c2                	cmp    %eax,%edx
400087fe:	0f 96 c0             	setbe  %al
40008801:	0f b6 c0             	movzbl %al,%eax
40008804:	85 c0                	test   %eax,%eax
40008806:	74 0c                	je     40008814 <free+0x70d>
40008808:	c7 85 44 ff ff ff 01 	movl   $0x1,-0xbc(%ebp)
4000880f:	00 00 00 
40008812:	eb 0a                	jmp    4000881e <free+0x717>
40008814:	c7 85 44 ff ff ff 00 	movl   $0x0,-0xbc(%ebp)
4000881b:	00 00 00 
4000881e:	83 bd 44 ff ff ff 00 	cmpl   $0x0,-0xbc(%ebp)
40008825:	74 66                	je     4000888d <free+0x786>
40008827:	ba c4 12 01 40       	mov    $0x400112c4,%edx
4000882c:	8b 45 a8             	mov    -0x58(%ebp),%eax
4000882f:	c1 e0 03             	shl    $0x3,%eax
40008832:	8d 04 02             	lea    (%edx,%eax,1),%eax
40008835:	3b 45 a4             	cmp    -0x5c(%ebp),%eax
40008838:	0f 94 c0             	sete   %al
4000883b:	0f b6 c0             	movzbl %al,%eax
4000883e:	85 c0                	test   %eax,%eax
40008840:	75 15                	jne    40008857 <free+0x750>
40008842:	8b 15 b0 12 01 40    	mov    0x400112b0,%edx
40008848:	8b 45 a4             	mov    -0x5c(%ebp),%eax
4000884b:	39 c2                	cmp    %eax,%edx
4000884d:	0f 96 c0             	setbe  %al
40008850:	0f b6 c0             	movzbl %al,%eax
40008853:	85 c0                	test   %eax,%eax
40008855:	74 0c                	je     40008863 <free+0x75c>
40008857:	c7 85 48 ff ff ff 01 	movl   $0x1,-0xb8(%ebp)
4000885e:	00 00 00 
40008861:	eb 0a                	jmp    4000886d <free+0x766>
40008863:	c7 85 48 ff ff ff 00 	movl   $0x0,-0xb8(%ebp)
4000886a:	00 00 00 
4000886d:	83 bd 48 ff ff ff 00 	cmpl   $0x0,-0xb8(%ebp)
40008874:	74 17                	je     4000888d <free+0x786>
40008876:	8b 55 a0             	mov    -0x60(%ebp),%edx
40008879:	8b 45 a4             	mov    -0x5c(%ebp),%eax
4000887c:	89 42 0c             	mov    %eax,0xc(%edx)
4000887f:	8b 55 a4             	mov    -0x5c(%ebp),%edx
40008882:	8b 45 a0             	mov    -0x60(%ebp),%eax
40008885:	89 42 08             	mov    %eax,0x8(%edx)
40008888:	e9 34 02 00 00       	jmp    40008ac1 <free+0x9ba>
4000888d:	e8 ee 50 00 00       	call   4000d980 <abort>
40008892:	e9 2a 02 00 00       	jmp    40008ac1 <free+0x9ba>
40008897:	8b 85 58 ff ff ff    	mov    -0xa8(%ebp),%eax
4000889d:	89 45 ac             	mov    %eax,-0x54(%ebp)
400088a0:	8b 45 ac             	mov    -0x54(%ebp),%eax
400088a3:	8b 40 18             	mov    0x18(%eax),%eax
400088a6:	89 45 b0             	mov    %eax,-0x50(%ebp)
400088a9:	8b 45 ac             	mov    -0x54(%ebp),%eax
400088ac:	8b 40 0c             	mov    0xc(%eax),%eax
400088af:	3b 45 ac             	cmp    -0x54(%ebp),%eax
400088b2:	74 48                	je     400088fc <free+0x7f5>
400088b4:	8b 45 ac             	mov    -0x54(%ebp),%eax
400088b7:	8b 40 08             	mov    0x8(%eax),%eax
400088ba:	89 45 b8             	mov    %eax,-0x48(%ebp)
400088bd:	8b 45 ac             	mov    -0x54(%ebp),%eax
400088c0:	8b 40 0c             	mov    0xc(%eax),%eax
400088c3:	89 45 b4             	mov    %eax,-0x4c(%ebp)
400088c6:	8b 15 b0 12 01 40    	mov    0x400112b0,%edx
400088cc:	8b 45 b8             	mov    -0x48(%ebp),%eax
400088cf:	39 c2                	cmp    %eax,%edx
400088d1:	0f 96 c0             	setbe  %al
400088d4:	0f b6 c0             	movzbl %al,%eax
400088d7:	85 c0                	test   %eax,%eax
400088d9:	74 17                	je     400088f2 <free+0x7eb>
400088db:	8b 55 b8             	mov    -0x48(%ebp),%edx
400088de:	8b 45 b4             	mov    -0x4c(%ebp),%eax
400088e1:	89 42 0c             	mov    %eax,0xc(%edx)
400088e4:	8b 55 b4             	mov    -0x4c(%ebp),%edx
400088e7:	8b 45 b8             	mov    -0x48(%ebp),%eax
400088ea:	89 42 08             	mov    %eax,0x8(%edx)
400088ed:	e9 91 00 00 00       	jmp    40008983 <free+0x87c>
400088f2:	e8 89 50 00 00       	call   4000d980 <abort>
400088f7:	e9 87 00 00 00       	jmp    40008983 <free+0x87c>
400088fc:	8b 45 ac             	mov    -0x54(%ebp),%eax
400088ff:	83 c0 14             	add    $0x14,%eax
40008902:	89 45 bc             	mov    %eax,-0x44(%ebp)
40008905:	8b 45 bc             	mov    -0x44(%ebp),%eax
40008908:	8b 00                	mov    (%eax),%eax
4000890a:	89 45 b4             	mov    %eax,-0x4c(%ebp)
4000890d:	83 7d b4 00          	cmpl   $0x0,-0x4c(%ebp)
40008911:	75 27                	jne    4000893a <free+0x833>
40008913:	8b 45 ac             	mov    -0x54(%ebp),%eax
40008916:	83 c0 10             	add    $0x10,%eax
40008919:	89 45 bc             	mov    %eax,-0x44(%ebp)
4000891c:	8b 45 bc             	mov    -0x44(%ebp),%eax
4000891f:	8b 00                	mov    (%eax),%eax
40008921:	89 45 b4             	mov    %eax,-0x4c(%ebp)
40008924:	83 7d b4 00          	cmpl   $0x0,-0x4c(%ebp)
40008928:	74 59                	je     40008983 <free+0x87c>
4000892a:	eb 0e                	jmp    4000893a <free+0x833>
4000892c:	8b 45 c0             	mov    -0x40(%ebp),%eax
4000892f:	89 45 bc             	mov    %eax,-0x44(%ebp)
40008932:	8b 45 bc             	mov    -0x44(%ebp),%eax
40008935:	8b 00                	mov    (%eax),%eax
40008937:	89 45 b4             	mov    %eax,-0x4c(%ebp)
4000893a:	8b 45 b4             	mov    -0x4c(%ebp),%eax
4000893d:	83 c0 14             	add    $0x14,%eax
40008940:	89 45 c0             	mov    %eax,-0x40(%ebp)
40008943:	8b 45 c0             	mov    -0x40(%ebp),%eax
40008946:	8b 00                	mov    (%eax),%eax
40008948:	85 c0                	test   %eax,%eax
4000894a:	75 e0                	jne    4000892c <free+0x825>
4000894c:	8b 45 b4             	mov    -0x4c(%ebp),%eax
4000894f:	83 c0 10             	add    $0x10,%eax
40008952:	89 45 c0             	mov    %eax,-0x40(%ebp)
40008955:	8b 45 c0             	mov    -0x40(%ebp),%eax
40008958:	8b 00                	mov    (%eax),%eax
4000895a:	85 c0                	test   %eax,%eax
4000895c:	75 ce                	jne    4000892c <free+0x825>
4000895e:	8b 15 b0 12 01 40    	mov    0x400112b0,%edx
40008964:	8b 45 bc             	mov    -0x44(%ebp),%eax
40008967:	39 c2                	cmp    %eax,%edx
40008969:	0f 96 c0             	setbe  %al
4000896c:	0f b6 c0             	movzbl %al,%eax
4000896f:	85 c0                	test   %eax,%eax
40008971:	74 0b                	je     4000897e <free+0x877>
40008973:	8b 45 bc             	mov    -0x44(%ebp),%eax
40008976:	c7 00 00 00 00 00    	movl   $0x0,(%eax)
4000897c:	eb 05                	jmp    40008983 <free+0x87c>
4000897e:	e8 fd 4f 00 00       	call   4000d980 <abort>
40008983:	83 7d b0 00          	cmpl   $0x0,-0x50(%ebp)
40008987:	0f 84 34 01 00 00    	je     40008ac1 <free+0x9ba>
4000898d:	8b 45 ac             	mov    -0x54(%ebp),%eax
40008990:	8b 40 1c             	mov    0x1c(%eax),%eax
40008993:	c1 e0 02             	shl    $0x2,%eax
40008996:	05 cc 13 01 40       	add    $0x400113cc,%eax
4000899b:	89 45 c4             	mov    %eax,-0x3c(%ebp)
4000899e:	8b 45 c4             	mov    -0x3c(%ebp),%eax
400089a1:	8b 00                	mov    (%eax),%eax
400089a3:	3b 45 ac             	cmp    -0x54(%ebp),%eax
400089a6:	75 31                	jne    400089d9 <free+0x8d2>
400089a8:	8b 55 c4             	mov    -0x3c(%ebp),%edx
400089ab:	8b 45 b4             	mov    -0x4c(%ebp),%eax
400089ae:	89 02                	mov    %eax,(%edx)
400089b0:	8b 45 c4             	mov    -0x3c(%ebp),%eax
400089b3:	8b 00                	mov    (%eax),%eax
400089b5:	85 c0                	test   %eax,%eax
400089b7:	75 5b                	jne    40008a14 <free+0x90d>
400089b9:	8b 15 a4 12 01 40    	mov    0x400112a4,%edx
400089bf:	8b 45 ac             	mov    -0x54(%ebp),%eax
400089c2:	8b 40 1c             	mov    0x1c(%eax),%eax
400089c5:	89 c1                	mov    %eax,%ecx
400089c7:	b8 01 00 00 00       	mov    $0x1,%eax
400089cc:	d3 e0                	shl    %cl,%eax
400089ce:	f7 d0                	not    %eax
400089d0:	21 d0                	and    %edx,%eax
400089d2:	a3 a4 12 01 40       	mov    %eax,0x400112a4
400089d7:	eb 3b                	jmp    40008a14 <free+0x90d>
400089d9:	8b 15 b0 12 01 40    	mov    0x400112b0,%edx
400089df:	8b 45 b0             	mov    -0x50(%ebp),%eax
400089e2:	39 c2                	cmp    %eax,%edx
400089e4:	0f 96 c0             	setbe  %al
400089e7:	0f b6 c0             	movzbl %al,%eax
400089ea:	85 c0                	test   %eax,%eax
400089ec:	74 21                	je     40008a0f <free+0x908>
400089ee:	8b 45 b0             	mov    -0x50(%ebp),%eax
400089f1:	8b 40 10             	mov    0x10(%eax),%eax
400089f4:	3b 45 ac             	cmp    -0x54(%ebp),%eax
400089f7:	75 0b                	jne    40008a04 <free+0x8fd>
400089f9:	8b 55 b0             	mov    -0x50(%ebp),%edx
400089fc:	8b 45 b4             	mov    -0x4c(%ebp),%eax
400089ff:	89 42 10             	mov    %eax,0x10(%edx)
40008a02:	eb 10                	jmp    40008a14 <free+0x90d>
40008a04:	8b 55 b0             	mov    -0x50(%ebp),%edx
40008a07:	8b 45 b4             	mov    -0x4c(%ebp),%eax
40008a0a:	89 42 14             	mov    %eax,0x14(%edx)
40008a0d:	eb 05                	jmp    40008a14 <free+0x90d>
40008a0f:	e8 6c 4f 00 00       	call   4000d980 <abort>
40008a14:	83 7d b4 00          	cmpl   $0x0,-0x4c(%ebp)
40008a18:	0f 84 a3 00 00 00    	je     40008ac1 <free+0x9ba>
40008a1e:	8b 15 b0 12 01 40    	mov    0x400112b0,%edx
40008a24:	8b 45 b4             	mov    -0x4c(%ebp),%eax
40008a27:	39 c2                	cmp    %eax,%edx
40008a29:	0f 96 c0             	setbe  %al
40008a2c:	0f b6 c0             	movzbl %al,%eax
40008a2f:	85 c0                	test   %eax,%eax
40008a31:	0f 84 85 00 00 00    	je     40008abc <free+0x9b5>
40008a37:	8b 55 b4             	mov    -0x4c(%ebp),%edx
40008a3a:	8b 45 b0             	mov    -0x50(%ebp),%eax
40008a3d:	89 42 18             	mov    %eax,0x18(%edx)
40008a40:	8b 45 ac             	mov    -0x54(%ebp),%eax
40008a43:	8b 40 10             	mov    0x10(%eax),%eax
40008a46:	89 45 c8             	mov    %eax,-0x38(%ebp)
40008a49:	83 7d c8 00          	cmpl   $0x0,-0x38(%ebp)
40008a4d:	74 2e                	je     40008a7d <free+0x976>
40008a4f:	8b 15 b0 12 01 40    	mov    0x400112b0,%edx
40008a55:	8b 45 c8             	mov    -0x38(%ebp),%eax
40008a58:	39 c2                	cmp    %eax,%edx
40008a5a:	0f 96 c0             	setbe  %al
40008a5d:	0f b6 c0             	movzbl %al,%eax
40008a60:	85 c0                	test   %eax,%eax
40008a62:	74 14                	je     40008a78 <free+0x971>
40008a64:	8b 55 b4             	mov    -0x4c(%ebp),%edx
40008a67:	8b 45 c8             	mov    -0x38(%ebp),%eax
40008a6a:	89 42 10             	mov    %eax,0x10(%edx)
40008a6d:	8b 55 c8             	mov    -0x38(%ebp),%edx
40008a70:	8b 45 b4             	mov    -0x4c(%ebp),%eax
40008a73:	89 42 18             	mov    %eax,0x18(%edx)
40008a76:	eb 05                	jmp    40008a7d <free+0x976>
40008a78:	e8 03 4f 00 00       	call   4000d980 <abort>
40008a7d:	8b 45 ac             	mov    -0x54(%ebp),%eax
40008a80:	8b 40 14             	mov    0x14(%eax),%eax
40008a83:	89 45 cc             	mov    %eax,-0x34(%ebp)
40008a86:	83 7d cc 00          	cmpl   $0x0,-0x34(%ebp)
40008a8a:	74 35                	je     40008ac1 <free+0x9ba>
40008a8c:	8b 15 b0 12 01 40    	mov    0x400112b0,%edx
40008a92:	8b 45 cc             	mov    -0x34(%ebp),%eax
40008a95:	39 c2                	cmp    %eax,%edx
40008a97:	0f 96 c0             	setbe  %al
40008a9a:	0f b6 c0             	movzbl %al,%eax
40008a9d:	85 c0                	test   %eax,%eax
40008a9f:	74 14                	je     40008ab5 <free+0x9ae>
40008aa1:	8b 55 b4             	mov    -0x4c(%ebp),%edx
40008aa4:	8b 45 cc             	mov    -0x34(%ebp),%eax
40008aa7:	89 42 14             	mov    %eax,0x14(%edx)
40008aaa:	8b 55 cc             	mov    -0x34(%ebp),%edx
40008aad:	8b 45 b4             	mov    -0x4c(%ebp),%eax
40008ab0:	89 42 18             	mov    %eax,0x18(%edx)
40008ab3:	eb 0c                	jmp    40008ac1 <free+0x9ba>
40008ab5:	e8 c6 4e 00 00       	call   4000d980 <abort>
40008aba:	eb 05                	jmp    40008ac1 <free+0x9ba>
40008abc:	e8 bf 4e 00 00       	call   4000d980 <abort>
40008ac1:	8b 85 54 ff ff ff    	mov    -0xac(%ebp),%eax
40008ac7:	89 c2                	mov    %eax,%edx
40008ac9:	83 ca 01             	or     $0x1,%edx
40008acc:	8b 85 50 ff ff ff    	mov    -0xb0(%ebp),%eax
40008ad2:	89 50 04             	mov    %edx,0x4(%eax)
40008ad5:	8b 95 54 ff ff ff    	mov    -0xac(%ebp),%edx
40008adb:	8b 85 50 ff ff ff    	mov    -0xb0(%ebp),%eax
40008ae1:	8d 14 10             	lea    (%eax,%edx,1),%edx
40008ae4:	8b 85 54 ff ff ff    	mov    -0xac(%ebp),%eax
40008aea:	89 02                	mov    %eax,(%edx)
40008aec:	a1 b4 12 01 40       	mov    0x400112b4,%eax
40008af1:	3b 85 50 ff ff ff    	cmp    -0xb0(%ebp),%eax
40008af7:	75 52                	jne    40008b4b <free+0xa44>
40008af9:	8b 85 54 ff ff ff    	mov    -0xac(%ebp),%eax
40008aff:	a3 a8 12 01 40       	mov    %eax,0x400112a8
40008b04:	e9 17 03 00 00       	jmp    40008e20 <free+0xd19>
40008b09:	8b 85 58 ff ff ff    	mov    -0xa8(%ebp),%eax
40008b0f:	8b 40 04             	mov    0x4(%eax),%eax
40008b12:	89 c2                	mov    %eax,%edx
40008b14:	83 e2 fe             	and    $0xfffffffe,%edx
40008b17:	8b 85 58 ff ff ff    	mov    -0xa8(%ebp),%eax
40008b1d:	89 50 04             	mov    %edx,0x4(%eax)
40008b20:	8b 85 54 ff ff ff    	mov    -0xac(%ebp),%eax
40008b26:	89 c2                	mov    %eax,%edx
40008b28:	83 ca 01             	or     $0x1,%edx
40008b2b:	8b 85 50 ff ff ff    	mov    -0xb0(%ebp),%eax
40008b31:	89 50 04             	mov    %edx,0x4(%eax)
40008b34:	8b 95 54 ff ff ff    	mov    -0xac(%ebp),%edx
40008b3a:	8b 85 50 ff ff ff    	mov    -0xb0(%ebp),%eax
40008b40:	8d 14 10             	lea    (%eax,%edx,1),%edx
40008b43:	8b 85 54 ff ff ff    	mov    -0xac(%ebp),%eax
40008b49:	89 02                	mov    %eax,(%edx)
40008b4b:	8b 85 54 ff ff ff    	mov    -0xac(%ebp),%eax
40008b51:	c1 e8 03             	shr    $0x3,%eax
40008b54:	83 f8 1f             	cmp    $0x1f,%eax
40008b57:	0f 87 b0 00 00 00    	ja     40008c0d <free+0xb06>
40008b5d:	8b 85 54 ff ff ff    	mov    -0xac(%ebp),%eax
40008b63:	c1 e8 03             	shr    $0x3,%eax
40008b66:	89 45 d0             	mov    %eax,-0x30(%ebp)
40008b69:	ba c4 12 01 40       	mov    $0x400112c4,%edx
40008b6e:	8b 45 d0             	mov    -0x30(%ebp),%eax
40008b71:	c1 e0 03             	shl    $0x3,%eax
40008b74:	8d 04 02             	lea    (%edx,%eax,1),%eax
40008b77:	89 45 d4             	mov    %eax,-0x2c(%ebp)
40008b7a:	8b 45 d4             	mov    -0x2c(%ebp),%eax
40008b7d:	89 45 d8             	mov    %eax,-0x28(%ebp)
40008b80:	8b 15 a0 12 01 40    	mov    0x400112a0,%edx
40008b86:	8b 4d d0             	mov    -0x30(%ebp),%ecx
40008b89:	b8 01 00 00 00       	mov    $0x1,%eax
40008b8e:	d3 e0                	shl    %cl,%eax
40008b90:	21 d0                	and    %edx,%eax
40008b92:	85 c0                	test   %eax,%eax
40008b94:	75 19                	jne    40008baf <free+0xaa8>
40008b96:	8b 15 a0 12 01 40    	mov    0x400112a0,%edx
40008b9c:	8b 4d d0             	mov    -0x30(%ebp),%ecx
40008b9f:	b8 01 00 00 00       	mov    $0x1,%eax
40008ba4:	d3 e0                	shl    %cl,%eax
40008ba6:	09 d0                	or     %edx,%eax
40008ba8:	a3 a0 12 01 40       	mov    %eax,0x400112a0
40008bad:	eb 29                	jmp    40008bd8 <free+0xad1>
40008baf:	8b 45 d4             	mov    -0x2c(%ebp),%eax
40008bb2:	8b 40 08             	mov    0x8(%eax),%eax
40008bb5:	89 c2                	mov    %eax,%edx
40008bb7:	a1 b0 12 01 40       	mov    0x400112b0,%eax
40008bbc:	39 c2                	cmp    %eax,%edx
40008bbe:	0f 93 c0             	setae  %al
40008bc1:	0f b6 c0             	movzbl %al,%eax
40008bc4:	85 c0                	test   %eax,%eax
40008bc6:	74 0b                	je     40008bd3 <free+0xacc>
40008bc8:	8b 45 d4             	mov    -0x2c(%ebp),%eax
40008bcb:	8b 40 08             	mov    0x8(%eax),%eax
40008bce:	89 45 d8             	mov    %eax,-0x28(%ebp)
40008bd1:	eb 05                	jmp    40008bd8 <free+0xad1>
40008bd3:	e8 a8 4d 00 00       	call   4000d980 <abort>
40008bd8:	8b 55 d4             	mov    -0x2c(%ebp),%edx
40008bdb:	8b 85 50 ff ff ff    	mov    -0xb0(%ebp),%eax
40008be1:	89 42 08             	mov    %eax,0x8(%edx)
40008be4:	8b 55 d8             	mov    -0x28(%ebp),%edx
40008be7:	8b 85 50 ff ff ff    	mov    -0xb0(%ebp),%eax
40008bed:	89 42 0c             	mov    %eax,0xc(%edx)
40008bf0:	8b 95 50 ff ff ff    	mov    -0xb0(%ebp),%edx
40008bf6:	8b 45 d8             	mov    -0x28(%ebp),%eax
40008bf9:	89 42 08             	mov    %eax,0x8(%edx)
40008bfc:	8b 95 50 ff ff ff    	mov    -0xb0(%ebp),%edx
40008c02:	8b 45 d4             	mov    -0x2c(%ebp),%eax
40008c05:	89 42 0c             	mov    %eax,0xc(%edx)
40008c08:	e9 13 02 00 00       	jmp    40008e20 <free+0xd19>
40008c0d:	8b 85 50 ff ff ff    	mov    -0xb0(%ebp),%eax
40008c13:	89 45 dc             	mov    %eax,-0x24(%ebp)
40008c16:	8b 85 54 ff ff ff    	mov    -0xac(%ebp),%eax
40008c1c:	c1 e8 08             	shr    $0x8,%eax
40008c1f:	89 45 e8             	mov    %eax,-0x18(%ebp)
40008c22:	83 7d e8 00          	cmpl   $0x0,-0x18(%ebp)
40008c26:	75 09                	jne    40008c31 <free+0xb2a>
40008c28:	c7 45 e4 00 00 00 00 	movl   $0x0,-0x1c(%ebp)
40008c2f:	eb 38                	jmp    40008c69 <free+0xb62>
40008c31:	81 7d e8 ff ff 00 00 	cmpl   $0xffff,-0x18(%ebp)
40008c38:	76 09                	jbe    40008c43 <free+0xb3c>
40008c3a:	c7 45 e4 1f 00 00 00 	movl   $0x1f,-0x1c(%ebp)
40008c41:	eb 26                	jmp    40008c69 <free+0xb62>
40008c43:	0f bd 45 e8          	bsr    -0x18(%ebp),%eax
40008c47:	89 45 ec             	mov    %eax,-0x14(%ebp)
40008c4a:	8b 45 ec             	mov    -0x14(%ebp),%eax
40008c4d:	8d 14 00             	lea    (%eax,%eax,1),%edx
40008c50:	8b 45 ec             	mov    -0x14(%ebp),%eax
40008c53:	83 c0 07             	add    $0x7,%eax
40008c56:	89 c1                	mov    %eax,%ecx
40008c58:	8b 85 54 ff ff ff    	mov    -0xac(%ebp),%eax
40008c5e:	d3 e8                	shr    %cl,%eax
40008c60:	83 e0 01             	and    $0x1,%eax
40008c63:	8d 04 02             	lea    (%edx,%eax,1),%eax
40008c66:	89 45 e4             	mov    %eax,-0x1c(%ebp)
40008c69:	8b 45 e4             	mov    -0x1c(%ebp),%eax
40008c6c:	c1 e0 02             	shl    $0x2,%eax
40008c6f:	05 cc 13 01 40       	add    $0x400113cc,%eax
40008c74:	89 45 e0             	mov    %eax,-0x20(%ebp)
40008c77:	8b 55 dc             	mov    -0x24(%ebp),%edx
40008c7a:	8b 45 e4             	mov    -0x1c(%ebp),%eax
40008c7d:	89 42 1c             	mov    %eax,0x1c(%edx)
40008c80:	8b 45 dc             	mov    -0x24(%ebp),%eax
40008c83:	c7 40 14 00 00 00 00 	movl   $0x0,0x14(%eax)
40008c8a:	8b 45 dc             	mov    -0x24(%ebp),%eax
40008c8d:	8b 50 14             	mov    0x14(%eax),%edx
40008c90:	8b 45 dc             	mov    -0x24(%ebp),%eax
40008c93:	89 50 10             	mov    %edx,0x10(%eax)
40008c96:	8b 15 a4 12 01 40    	mov    0x400112a4,%edx
40008c9c:	8b 4d e4             	mov    -0x1c(%ebp),%ecx
40008c9f:	b8 01 00 00 00       	mov    $0x1,%eax
40008ca4:	d3 e0                	shl    %cl,%eax
40008ca6:	21 d0                	and    %edx,%eax
40008ca8:	85 c0                	test   %eax,%eax
40008caa:	75 42                	jne    40008cee <free+0xbe7>
40008cac:	8b 15 a4 12 01 40    	mov    0x400112a4,%edx
40008cb2:	8b 4d e4             	mov    -0x1c(%ebp),%ecx
40008cb5:	b8 01 00 00 00       	mov    $0x1,%eax
40008cba:	d3 e0                	shl    %cl,%eax
40008cbc:	09 d0                	or     %edx,%eax
40008cbe:	a3 a4 12 01 40       	mov    %eax,0x400112a4
40008cc3:	8b 55 e0             	mov    -0x20(%ebp),%edx
40008cc6:	8b 45 dc             	mov    -0x24(%ebp),%eax
40008cc9:	89 02                	mov    %eax,(%edx)
40008ccb:	8b 55 e0             	mov    -0x20(%ebp),%edx
40008cce:	8b 45 dc             	mov    -0x24(%ebp),%eax
40008cd1:	89 50 18             	mov    %edx,0x18(%eax)
40008cd4:	8b 55 dc             	mov    -0x24(%ebp),%edx
40008cd7:	8b 45 dc             	mov    -0x24(%ebp),%eax
40008cda:	89 42 0c             	mov    %eax,0xc(%edx)
40008cdd:	8b 45 dc             	mov    -0x24(%ebp),%eax
40008ce0:	8b 50 0c             	mov    0xc(%eax),%edx
40008ce3:	8b 45 dc             	mov    -0x24(%ebp),%eax
40008ce6:	89 50 08             	mov    %edx,0x8(%eax)
40008ce9:	e9 32 01 00 00       	jmp    40008e20 <free+0xd19>
40008cee:	8b 45 e0             	mov    -0x20(%ebp),%eax
40008cf1:	8b 00                	mov    (%eax),%eax
40008cf3:	89 45 f0             	mov    %eax,-0x10(%ebp)
40008cf6:	83 7d e4 1f          	cmpl   $0x1f,-0x1c(%ebp)
40008cfa:	74 16                	je     40008d12 <free+0xc0b>
40008cfc:	8b 45 e4             	mov    -0x1c(%ebp),%eax
40008cff:	89 c2                	mov    %eax,%edx
40008d01:	d1 ea                	shr    %edx
40008d03:	b8 19 00 00 00       	mov    $0x19,%eax
40008d08:	29 d0                	sub    %edx,%eax
40008d0a:	89 85 4c ff ff ff    	mov    %eax,-0xb4(%ebp)
40008d10:	eb 0a                	jmp    40008d1c <free+0xc15>
40008d12:	c7 85 4c ff ff ff 00 	movl   $0x0,-0xb4(%ebp)
40008d19:	00 00 00 
40008d1c:	8b 85 54 ff ff ff    	mov    -0xac(%ebp),%eax
40008d22:	0f b6 8d 4c ff ff ff 	movzbl -0xb4(%ebp),%ecx
40008d29:	d3 e0                	shl    %cl,%eax
40008d2b:	89 45 f4             	mov    %eax,-0xc(%ebp)
40008d2e:	8b 45 f0             	mov    -0x10(%ebp),%eax
40008d31:	8b 40 04             	mov    0x4(%eax),%eax
40008d34:	83 e0 fc             	and    $0xfffffffc,%eax
40008d37:	3b 85 54 ff ff ff    	cmp    -0xac(%ebp),%eax
40008d3d:	74 6f                	je     40008dae <free+0xca7>
40008d3f:	8b 45 f0             	mov    -0x10(%ebp),%eax
40008d42:	8d 50 10             	lea    0x10(%eax),%edx
40008d45:	8b 45 f4             	mov    -0xc(%ebp),%eax
40008d48:	c1 e8 1f             	shr    $0x1f,%eax
40008d4b:	c1 e0 02             	shl    $0x2,%eax
40008d4e:	8d 04 02             	lea    (%edx,%eax,1),%eax
40008d51:	89 45 f8             	mov    %eax,-0x8(%ebp)
40008d54:	d1 65 f4             	shll   -0xc(%ebp)
40008d57:	8b 45 f8             	mov    -0x8(%ebp),%eax
40008d5a:	8b 00                	mov    (%eax),%eax
40008d5c:	85 c0                	test   %eax,%eax
40008d5e:	74 0a                	je     40008d6a <free+0xc63>
40008d60:	8b 45 f8             	mov    -0x8(%ebp),%eax
40008d63:	8b 00                	mov    (%eax),%eax
40008d65:	89 45 f0             	mov    %eax,-0x10(%ebp)
40008d68:	eb c4                	jmp    40008d2e <free+0xc27>
40008d6a:	8b 15 b0 12 01 40    	mov    0x400112b0,%edx
40008d70:	8b 45 f8             	mov    -0x8(%ebp),%eax
40008d73:	39 c2                	cmp    %eax,%edx
40008d75:	0f 96 c0             	setbe  %al
40008d78:	0f b6 c0             	movzbl %al,%eax
40008d7b:	85 c0                	test   %eax,%eax
40008d7d:	74 28                	je     40008da7 <free+0xca0>
40008d7f:	8b 55 f8             	mov    -0x8(%ebp),%edx
40008d82:	8b 45 dc             	mov    -0x24(%ebp),%eax
40008d85:	89 02                	mov    %eax,(%edx)
40008d87:	8b 55 dc             	mov    -0x24(%ebp),%edx
40008d8a:	8b 45 f0             	mov    -0x10(%ebp),%eax
40008d8d:	89 42 18             	mov    %eax,0x18(%edx)
40008d90:	8b 55 dc             	mov    -0x24(%ebp),%edx
40008d93:	8b 45 dc             	mov    -0x24(%ebp),%eax
40008d96:	89 42 0c             	mov    %eax,0xc(%edx)
40008d99:	8b 45 dc             	mov    -0x24(%ebp),%eax
40008d9c:	8b 50 0c             	mov    0xc(%eax),%edx
40008d9f:	8b 45 dc             	mov    -0x24(%ebp),%eax
40008da2:	89 50 08             	mov    %edx,0x8(%eax)
40008da5:	eb 79                	jmp    40008e20 <free+0xd19>
40008da7:	e8 d4 4b 00 00       	call   4000d980 <abort>
40008dac:	eb 72                	jmp    40008e20 <free+0xd19>
40008dae:	8b 45 f0             	mov    -0x10(%ebp),%eax
40008db1:	8b 40 08             	mov    0x8(%eax),%eax
40008db4:	89 45 fc             	mov    %eax,-0x4(%ebp)
40008db7:	8b 15 b0 12 01 40    	mov    0x400112b0,%edx
40008dbd:	8b 45 f0             	mov    -0x10(%ebp),%eax
40008dc0:	39 c2                	cmp    %eax,%edx
40008dc2:	0f 96 c0             	setbe  %al
40008dc5:	0f b6 c0             	movzbl %al,%eax
40008dc8:	85 c0                	test   %eax,%eax
40008dca:	74 48                	je     40008e14 <free+0xd0d>
40008dcc:	8b 15 b0 12 01 40    	mov    0x400112b0,%edx
40008dd2:	8b 45 fc             	mov    -0x4(%ebp),%eax
40008dd5:	39 c2                	cmp    %eax,%edx
40008dd7:	0f 96 c0             	setbe  %al
40008dda:	0f b6 c0             	movzbl %al,%eax
40008ddd:	85 c0                	test   %eax,%eax
40008ddf:	74 33                	je     40008e14 <free+0xd0d>
40008de1:	8b 55 fc             	mov    -0x4(%ebp),%edx
40008de4:	8b 45 dc             	mov    -0x24(%ebp),%eax
40008de7:	89 42 0c             	mov    %eax,0xc(%edx)
40008dea:	8b 45 fc             	mov    -0x4(%ebp),%eax
40008ded:	8b 50 0c             	mov    0xc(%eax),%edx
40008df0:	8b 45 f0             	mov    -0x10(%ebp),%eax
40008df3:	89 50 08             	mov    %edx,0x8(%eax)
40008df6:	8b 55 dc             	mov    -0x24(%ebp),%edx
40008df9:	8b 45 fc             	mov    -0x4(%ebp),%eax
40008dfc:	89 42 08             	mov    %eax,0x8(%edx)
40008dff:	8b 55 dc             	mov    -0x24(%ebp),%edx
40008e02:	8b 45 f0             	mov    -0x10(%ebp),%eax
40008e05:	89 42 0c             	mov    %eax,0xc(%edx)
40008e08:	8b 45 dc             	mov    -0x24(%ebp),%eax
40008e0b:	c7 40 18 00 00 00 00 	movl   $0x0,0x18(%eax)
40008e12:	eb 0c                	jmp    40008e20 <free+0xd19>
40008e14:	e8 67 4b 00 00       	call   4000d980 <abort>
40008e19:	eb 05                	jmp    40008e20 <free+0xd19>
40008e1b:	e8 60 4b 00 00       	call   4000d980 <abort>
40008e20:	c9                   	leave  
40008e21:	c3                   	ret    

40008e22 <calloc>:
40008e22:	55                   	push   %ebp
40008e23:	89 e5                	mov    %esp,%ebp
40008e25:	83 ec 28             	sub    $0x28,%esp
40008e28:	c7 45 fc 00 00 00 00 	movl   $0x0,-0x4(%ebp)
40008e2f:	83 7d 08 00          	cmpl   $0x0,0x8(%ebp)
40008e33:	74 31                	je     40008e66 <calloc+0x44>
40008e35:	8b 45 08             	mov    0x8(%ebp),%eax
40008e38:	0f af 45 0c          	imul   0xc(%ebp),%eax
40008e3c:	89 45 fc             	mov    %eax,-0x4(%ebp)
40008e3f:	8b 55 0c             	mov    0xc(%ebp),%edx
40008e42:	8b 45 08             	mov    0x8(%ebp),%eax
40008e45:	09 d0                	or     %edx,%eax
40008e47:	66 b8 00 00          	mov    $0x0,%ax
40008e4b:	85 c0                	test   %eax,%eax
40008e4d:	74 17                	je     40008e66 <calloc+0x44>
40008e4f:	8b 45 fc             	mov    -0x4(%ebp),%eax
40008e52:	ba 00 00 00 00       	mov    $0x0,%edx
40008e57:	f7 75 08             	divl   0x8(%ebp)
40008e5a:	3b 45 0c             	cmp    0xc(%ebp),%eax
40008e5d:	74 07                	je     40008e66 <calloc+0x44>
40008e5f:	c7 45 fc ff ff ff ff 	movl   $0xffffffff,-0x4(%ebp)
40008e66:	8b 45 fc             	mov    -0x4(%ebp),%eax
40008e69:	89 04 24             	mov    %eax,(%esp)
40008e6c:	e8 df ed ff ff       	call   40007c50 <malloc>
40008e71:	89 45 f8             	mov    %eax,-0x8(%ebp)
40008e74:	83 7d f8 00          	cmpl   $0x0,-0x8(%ebp)
40008e78:	74 1a                	je     40008e94 <calloc+0x72>
40008e7a:	8b 45 fc             	mov    -0x4(%ebp),%eax
40008e7d:	89 44 24 08          	mov    %eax,0x8(%esp)
40008e81:	c7 44 24 04 00 00 00 	movl   $0x0,0x4(%esp)
40008e88:	00 
40008e89:	8b 45 f8             	mov    -0x8(%ebp),%eax
40008e8c:	89 04 24             	mov    %eax,(%esp)
40008e8f:	e8 71 23 00 00       	call   4000b205 <memset>
40008e94:	8b 45 f8             	mov    -0x8(%ebp),%eax
40008e97:	c9                   	leave  
40008e98:	c3                   	ret    

40008e99 <realloc>:
40008e99:	55                   	push   %ebp
40008e9a:	89 e5                	mov    %esp,%ebp
40008e9c:	83 ec 28             	sub    $0x28,%esp
40008e9f:	83 7d 08 00          	cmpl   $0x0,0x8(%ebp)
40008ea3:	75 10                	jne    40008eb5 <realloc+0x1c>
40008ea5:	8b 45 0c             	mov    0xc(%ebp),%eax
40008ea8:	89 04 24             	mov    %eax,(%esp)
40008eab:	e8 a0 ed ff ff       	call   40007c50 <malloc>
40008eb0:	89 45 ec             	mov    %eax,-0x14(%ebp)
40008eb3:	eb 23                	jmp    40008ed8 <realloc+0x3f>
40008eb5:	c7 45 fc a0 12 01 40 	movl   $0x400112a0,-0x4(%ebp)
40008ebc:	8b 45 0c             	mov    0xc(%ebp),%eax
40008ebf:	89 44 24 08          	mov    %eax,0x8(%esp)
40008ec3:	8b 45 08             	mov    0x8(%ebp),%eax
40008ec6:	89 44 24 04          	mov    %eax,0x4(%esp)
40008eca:	8b 45 fc             	mov    -0x4(%ebp),%eax
40008ecd:	89 04 24             	mov    %eax,(%esp)
40008ed0:	e8 8c e5 ff ff       	call   40007461 <internal_realloc>
40008ed5:	89 45 ec             	mov    %eax,-0x14(%ebp)
40008ed8:	8b 45 ec             	mov    -0x14(%ebp),%eax
40008edb:	c9                   	leave  
40008edc:	c3                   	ret    

40008edd <memalign>:
40008edd:	55                   	push   %ebp
40008ede:	89 e5                	mov    %esp,%ebp
40008ee0:	83 ec 18             	sub    $0x18,%esp
40008ee3:	8b 45 0c             	mov    0xc(%ebp),%eax
40008ee6:	89 44 24 08          	mov    %eax,0x8(%esp)
40008eea:	8b 45 08             	mov    0x8(%ebp),%eax
40008eed:	89 44 24 04          	mov    %eax,0x4(%esp)
40008ef1:	c7 04 24 a0 12 01 40 	movl   $0x400112a0,(%esp)
40008ef8:	e8 24 e8 ff ff       	call   40007721 <internal_memalign>
40008efd:	c9                   	leave  
40008efe:	c3                   	ret    

40008eff <independent_calloc>:
40008eff:	55                   	push   %ebp
40008f00:	89 e5                	mov    %esp,%ebp
40008f02:	83 ec 28             	sub    $0x28,%esp
40008f05:	8b 45 0c             	mov    0xc(%ebp),%eax
40008f08:	89 45 fc             	mov    %eax,-0x4(%ebp)
40008f0b:	8b 45 10             	mov    0x10(%ebp),%eax
40008f0e:	89 44 24 10          	mov    %eax,0x10(%esp)
40008f12:	c7 44 24 0c 03 00 00 	movl   $0x3,0xc(%esp)
40008f19:	00 
40008f1a:	8d 45 fc             	lea    -0x4(%ebp),%eax
40008f1d:	89 44 24 08          	mov    %eax,0x8(%esp)
40008f21:	8b 45 08             	mov    0x8(%ebp),%eax
40008f24:	89 44 24 04          	mov    %eax,0x4(%esp)
40008f28:	c7 04 24 a0 12 01 40 	movl   $0x400112a0,(%esp)
40008f2f:	e8 8d ea ff ff       	call   400079c1 <ialloc>
40008f34:	c9                   	leave  
40008f35:	c3                   	ret    

40008f36 <independent_comalloc>:
40008f36:	55                   	push   %ebp
40008f37:	89 e5                	mov    %esp,%ebp
40008f39:	83 ec 18             	sub    $0x18,%esp
40008f3c:	8b 45 10             	mov    0x10(%ebp),%eax
40008f3f:	89 44 24 10          	mov    %eax,0x10(%esp)
40008f43:	c7 44 24 0c 00 00 00 	movl   $0x0,0xc(%esp)
40008f4a:	00 
40008f4b:	8b 45 0c             	mov    0xc(%ebp),%eax
40008f4e:	89 44 24 08          	mov    %eax,0x8(%esp)
40008f52:	8b 45 08             	mov    0x8(%ebp),%eax
40008f55:	89 44 24 04          	mov    %eax,0x4(%esp)
40008f59:	c7 04 24 a0 12 01 40 	movl   $0x400112a0,(%esp)
40008f60:	e8 5c ea ff ff       	call   400079c1 <ialloc>
40008f65:	c9                   	leave  
40008f66:	c3                   	ret    

40008f67 <valloc>:
40008f67:	55                   	push   %ebp
40008f68:	89 e5                	mov    %esp,%ebp
40008f6a:	83 ec 18             	sub    $0x18,%esp
40008f6d:	e8 98 bc ff ff       	call   40004c0a <init_mparams>
40008f72:	a1 84 12 01 40       	mov    0x40011284,%eax
40008f77:	89 45 fc             	mov    %eax,-0x4(%ebp)
40008f7a:	8b 45 08             	mov    0x8(%ebp),%eax
40008f7d:	89 44 24 04          	mov    %eax,0x4(%esp)
40008f81:	8b 45 fc             	mov    -0x4(%ebp),%eax
40008f84:	89 04 24             	mov    %eax,(%esp)
40008f87:	e8 51 ff ff ff       	call   40008edd <memalign>
40008f8c:	c9                   	leave  
40008f8d:	c3                   	ret    

40008f8e <pvalloc>:
40008f8e:	55                   	push   %ebp
40008f8f:	89 e5                	mov    %esp,%ebp
40008f91:	83 ec 18             	sub    $0x18,%esp
40008f94:	e8 71 bc ff ff       	call   40004c0a <init_mparams>
40008f99:	a1 84 12 01 40       	mov    0x40011284,%eax
40008f9e:	89 45 fc             	mov    %eax,-0x4(%ebp)
40008fa1:	8b 55 fc             	mov    -0x4(%ebp),%edx
40008fa4:	8b 45 08             	mov    0x8(%ebp),%eax
40008fa7:	01 d0                	add    %edx,%eax
40008fa9:	8d 50 ff             	lea    -0x1(%eax),%edx
40008fac:	8b 45 fc             	mov    -0x4(%ebp),%eax
40008faf:	f7 d8                	neg    %eax
40008fb1:	21 d0                	and    %edx,%eax
40008fb3:	89 44 24 04          	mov    %eax,0x4(%esp)
40008fb7:	8b 45 fc             	mov    -0x4(%ebp),%eax
40008fba:	89 04 24             	mov    %eax,(%esp)
40008fbd:	e8 1b ff ff ff       	call   40008edd <memalign>
40008fc2:	c9                   	leave  
40008fc3:	c3                   	ret    

40008fc4 <malloc_trim>:
40008fc4:	55                   	push   %ebp
40008fc5:	89 e5                	mov    %esp,%ebp
40008fc7:	83 ec 18             	sub    $0x18,%esp
40008fca:	c7 45 fc 00 00 00 00 	movl   $0x0,-0x4(%ebp)
40008fd1:	8b 45 08             	mov    0x8(%ebp),%eax
40008fd4:	89 44 24 04          	mov    %eax,0x4(%esp)
40008fd8:	c7 04 24 a0 12 01 40 	movl   $0x400112a0,(%esp)
40008fdf:	e8 0d d6 ff ff       	call   400065f1 <sys_trim>
40008fe4:	89 45 fc             	mov    %eax,-0x4(%ebp)
40008fe7:	8b 45 fc             	mov    -0x4(%ebp),%eax
40008fea:	c9                   	leave  
40008feb:	c3                   	ret    

40008fec <malloc_footprint>:
40008fec:	55                   	push   %ebp
40008fed:	89 e5                	mov    %esp,%ebp
40008fef:	a1 4c 14 01 40       	mov    0x4001144c,%eax
40008ff4:	5d                   	pop    %ebp
40008ff5:	c3                   	ret    

40008ff6 <malloc_max_footprint>:
40008ff6:	55                   	push   %ebp
40008ff7:	89 e5                	mov    %esp,%ebp
40008ff9:	a1 50 14 01 40       	mov    0x40011450,%eax
40008ffe:	5d                   	pop    %ebp
40008fff:	c3                   	ret    

40009000 <mallinfo>:
40009000:	55                   	push   %ebp
40009001:	89 e5                	mov    %esp,%ebp
40009003:	53                   	push   %ebx
40009004:	83 ec 08             	sub    $0x8,%esp
40009007:	8b 5d 08             	mov    0x8(%ebp),%ebx
4000900a:	c7 44 24 04 a0 12 01 	movl   $0x400112a0,0x4(%esp)
40009011:	40 
40009012:	89 1c 24             	mov    %ebx,(%esp)
40009015:	e8 15 bd ff ff       	call   40004d2f <internal_mallinfo>
4000901a:	83 ec 04             	sub    $0x4,%esp
4000901d:	89 d8                	mov    %ebx,%eax
4000901f:	8b 5d fc             	mov    -0x4(%ebp),%ebx
40009022:	c9                   	leave  
40009023:	c2 04 00             	ret    $0x4

40009026 <malloc_stats>:
40009026:	55                   	push   %ebp
40009027:	89 e5                	mov    %esp,%ebp
40009029:	83 ec 08             	sub    $0x8,%esp
4000902c:	c7 04 24 a0 12 01 40 	movl   $0x400112a0,(%esp)
40009033:	e8 cc be ff ff       	call   40004f04 <internal_malloc_stats>
40009038:	c9                   	leave  
40009039:	c3                   	ret    

4000903a <malloc_usable_size>:
4000903a:	55                   	push   %ebp
4000903b:	89 e5                	mov    %esp,%ebp
4000903d:	83 ec 14             	sub    $0x14,%esp
40009040:	83 7d 08 00          	cmpl   $0x0,0x8(%ebp)
40009044:	74 27                	je     4000906d <malloc_usable_size+0x33>
40009046:	8b 45 08             	mov    0x8(%ebp),%eax
40009049:	83 e8 08             	sub    $0x8,%eax
4000904c:	89 45 fc             	mov    %eax,-0x4(%ebp)
4000904f:	8b 45 fc             	mov    -0x4(%ebp),%eax
40009052:	8b 40 04             	mov    0x4(%eax),%eax
40009055:	83 e0 02             	and    $0x2,%eax
40009058:	85 c0                	test   %eax,%eax
4000905a:	74 11                	je     4000906d <malloc_usable_size+0x33>
4000905c:	8b 45 fc             	mov    -0x4(%ebp),%eax
4000905f:	8b 40 04             	mov    0x4(%eax),%eax
40009062:	83 e0 fc             	and    $0xfffffffc,%eax
40009065:	83 e8 04             	sub    $0x4,%eax
40009068:	89 45 ec             	mov    %eax,-0x14(%ebp)
4000906b:	eb 07                	jmp    40009074 <malloc_usable_size+0x3a>
4000906d:	c7 45 ec 00 00 00 00 	movl   $0x0,-0x14(%ebp)
40009074:	8b 45 ec             	mov    -0x14(%ebp),%eax
40009077:	c9                   	leave  
40009078:	c3                   	ret    

40009079 <mallopt>:
40009079:	55                   	push   %ebp
4000907a:	89 e5                	mov    %esp,%ebp
4000907c:	83 ec 08             	sub    $0x8,%esp
4000907f:	8b 45 0c             	mov    0xc(%ebp),%eax
40009082:	89 44 24 04          	mov    %eax,0x4(%esp)
40009086:	8b 45 08             	mov    0x8(%ebp),%eax
40009089:	89 04 24             	mov    %eax,(%esp)
4000908c:	e8 14 bc ff ff       	call   40004ca5 <change_mparam>
40009091:	c9                   	leave  
40009092:	c3                   	ret    
40009093:	90                   	nop    

40009094 <shmget>:
40009094:	55                   	push   %ebp
40009095:	89 e5                	mov    %esp,%ebp
40009097:	83 ec 38             	sub    $0x38,%esp
4000909a:	8b 45 10             	mov    0x10(%ebp),%eax
4000909d:	25 00 02 00 00       	and    $0x200,%eax
400090a2:	85 c0                	test   %eax,%eax
400090a4:	75 06                	jne    400090ac <shmget+0x18>
400090a6:	83 7d 08 00          	cmpl   $0x0,0x8(%ebp)
400090aa:	75 3c                	jne    400090e8 <shmget+0x54>
400090ac:	c7 04 24 00 00 00 00 	movl   $0x0,(%esp)
400090b3:	e8 84 06 00 00       	call   4000973c <time>
400090b8:	89 44 24 14          	mov    %eax,0x14(%esp)
400090bc:	8b 45 10             	mov    0x10(%ebp),%eax
400090bf:	89 44 24 10          	mov    %eax,0x10(%esp)
400090c3:	8b 45 0c             	mov    0xc(%ebp),%eax
400090c6:	89 44 24 0c          	mov    %eax,0xc(%esp)
400090ca:	8b 45 08             	mov    0x8(%ebp),%eax
400090cd:	89 44 24 08          	mov    %eax,0x8(%esp)
400090d1:	c7 44 24 04 04 00 00 	movl   $0x4,0x4(%esp)
400090d8:	00 
400090d9:	c7 04 24 1b 00 00 00 	movl   $0x1b,(%esp)
400090e0:	e8 9b 47 00 00       	call   4000d880 <syscall_call>
400090e5:	89 45 fc             	mov    %eax,-0x4(%ebp)
400090e8:	8b 45 10             	mov    0x10(%ebp),%eax
400090eb:	25 00 02 00 00       	and    $0x200,%eax
400090f0:	85 c0                	test   %eax,%eax
400090f2:	74 06                	je     400090fa <shmget+0x66>
400090f4:	83 7d fc 00          	cmpl   $0x0,-0x4(%ebp)
400090f8:	79 2a                	jns    40009124 <shmget+0x90>
400090fa:	8b 45 10             	mov    0x10(%ebp),%eax
400090fd:	25 00 04 00 00       	and    $0x400,%eax
40009102:	85 c0                	test   %eax,%eax
40009104:	75 1e                	jne    40009124 <shmget+0x90>
40009106:	8b 45 08             	mov    0x8(%ebp),%eax
40009109:	89 44 24 08          	mov    %eax,0x8(%esp)
4000910d:	c7 44 24 04 01 00 00 	movl   $0x1,0x4(%esp)
40009114:	00 
40009115:	c7 04 24 1a 00 00 00 	movl   $0x1a,(%esp)
4000911c:	e8 5f 47 00 00       	call   4000d880 <syscall_call>
40009121:	89 45 fc             	mov    %eax,-0x4(%ebp)
40009124:	83 7d fc 00          	cmpl   $0x0,-0x4(%ebp)
40009128:	79 0c                	jns    40009136 <shmget+0xa2>
4000912a:	8b 45 fc             	mov    -0x4(%ebp),%eax
4000912d:	89 c2                	mov    %eax,%edx
4000912f:	f7 da                	neg    %edx
40009131:	89 55 ec             	mov    %edx,-0x14(%ebp)
40009134:	eb 07                	jmp    4000913d <shmget+0xa9>
40009136:	c7 45 ec 00 00 00 00 	movl   $0x0,-0x14(%ebp)
4000913d:	8b 45 ec             	mov    -0x14(%ebp),%eax
40009140:	a3 44 29 01 40       	mov    %eax,0x40012944
40009145:	8b 45 fc             	mov    -0x4(%ebp),%eax
40009148:	c1 f8 1f             	sar    $0x1f,%eax
4000914b:	0b 45 fc             	or     -0x4(%ebp),%eax
4000914e:	c9                   	leave  
4000914f:	c3                   	ret    

40009150 <shmat>:
40009150:	55                   	push   %ebp
40009151:	89 e5                	mov    %esp,%ebp
40009153:	83 ec 38             	sub    $0x38,%esp
40009156:	8b 45 0c             	mov    0xc(%ebp),%eax
40009159:	89 45 f8             	mov    %eax,-0x8(%ebp)
4000915c:	c7 04 24 00 00 00 00 	movl   $0x0,(%esp)
40009163:	e8 d4 05 00 00       	call   4000973c <time>
40009168:	89 44 24 14          	mov    %eax,0x14(%esp)
4000916c:	8b 45 10             	mov    0x10(%ebp),%eax
4000916f:	89 44 24 10          	mov    %eax,0x10(%esp)
40009173:	8d 45 f8             	lea    -0x8(%ebp),%eax
40009176:	89 44 24 0c          	mov    %eax,0xc(%esp)
4000917a:	8b 45 08             	mov    0x8(%ebp),%eax
4000917d:	89 44 24 08          	mov    %eax,0x8(%esp)
40009181:	c7 44 24 04 04 00 00 	movl   $0x4,0x4(%esp)
40009188:	00 
40009189:	c7 04 24 1c 00 00 00 	movl   $0x1c,(%esp)
40009190:	e8 eb 46 00 00       	call   4000d880 <syscall_call>
40009195:	89 45 fc             	mov    %eax,-0x4(%ebp)
40009198:	83 7d fc 00          	cmpl   $0x0,-0x4(%ebp)
4000919c:	79 0c                	jns    400091aa <shmat+0x5a>
4000919e:	8b 45 fc             	mov    -0x4(%ebp),%eax
400091a1:	89 c2                	mov    %eax,%edx
400091a3:	f7 da                	neg    %edx
400091a5:	89 55 e8             	mov    %edx,-0x18(%ebp)
400091a8:	eb 07                	jmp    400091b1 <shmat+0x61>
400091aa:	c7 45 e8 00 00 00 00 	movl   $0x0,-0x18(%ebp)
400091b1:	8b 45 e8             	mov    -0x18(%ebp),%eax
400091b4:	a3 44 29 01 40       	mov    %eax,0x40012944
400091b9:	83 7d fc 00          	cmpl   $0x0,-0x4(%ebp)
400091bd:	78 08                	js     400091c7 <shmat+0x77>
400091bf:	8b 55 f8             	mov    -0x8(%ebp),%edx
400091c2:	89 55 ec             	mov    %edx,-0x14(%ebp)
400091c5:	eb 07                	jmp    400091ce <shmat+0x7e>
400091c7:	c7 45 ec 00 00 00 00 	movl   $0x0,-0x14(%ebp)
400091ce:	8b 45 ec             	mov    -0x14(%ebp),%eax
400091d1:	c9                   	leave  
400091d2:	c3                   	ret    

400091d3 <shmdt>:
400091d3:	55                   	push   %ebp
400091d4:	89 e5                	mov    %esp,%ebp
400091d6:	83 ec 28             	sub    $0x28,%esp
400091d9:	c7 04 24 00 00 00 00 	movl   $0x0,(%esp)
400091e0:	e8 57 05 00 00       	call   4000973c <time>
400091e5:	89 44 24 0c          	mov    %eax,0xc(%esp)
400091e9:	8b 45 08             	mov    0x8(%ebp),%eax
400091ec:	89 44 24 08          	mov    %eax,0x8(%esp)
400091f0:	c7 44 24 04 02 00 00 	movl   $0x2,0x4(%esp)
400091f7:	00 
400091f8:	c7 04 24 1d 00 00 00 	movl   $0x1d,(%esp)
400091ff:	e8 7c 46 00 00       	call   4000d880 <syscall_call>
40009204:	89 45 fc             	mov    %eax,-0x4(%ebp)
40009207:	83 7d fc 00          	cmpl   $0x0,-0x4(%ebp)
4000920b:	79 0c                	jns    40009219 <shmdt+0x46>
4000920d:	8b 45 fc             	mov    -0x4(%ebp),%eax
40009210:	89 c2                	mov    %eax,%edx
40009212:	f7 da                	neg    %edx
40009214:	89 55 e8             	mov    %edx,-0x18(%ebp)
40009217:	eb 07                	jmp    40009220 <shmdt+0x4d>
40009219:	c7 45 e8 00 00 00 00 	movl   $0x0,-0x18(%ebp)
40009220:	8b 45 e8             	mov    -0x18(%ebp),%eax
40009223:	a3 44 29 01 40       	mov    %eax,0x40012944
40009228:	83 7d fc 00          	cmpl   $0x0,-0x4(%ebp)
4000922c:	79 09                	jns    40009237 <shmdt+0x64>
4000922e:	c7 45 ec ff ff ff ff 	movl   $0xffffffff,-0x14(%ebp)
40009235:	eb 07                	jmp    4000923e <shmdt+0x6b>
40009237:	c7 45 ec 00 00 00 00 	movl   $0x0,-0x14(%ebp)
4000923e:	8b 45 ec             	mov    -0x14(%ebp),%eax
40009241:	c9                   	leave  
40009242:	c3                   	ret    

40009243 <shmctl>:
40009243:	55                   	push   %ebp
40009244:	89 e5                	mov    %esp,%ebp
40009246:	57                   	push   %edi
40009247:	56                   	push   %esi
40009248:	53                   	push   %ebx
40009249:	83 ec 7c             	sub    $0x7c,%esp
4000924c:	83 7d 0c 03          	cmpl   $0x3,0xc(%ebp)
40009250:	0f 85 c2 00 00 00    	jne    40009318 <shmctl+0xd5>
40009256:	8b 45 10             	mov    0x10(%ebp),%eax
40009259:	8d 50 2c             	lea    0x2c(%eax),%edx
4000925c:	8b 45 10             	mov    0x10(%ebp),%eax
4000925f:	8d 48 28             	lea    0x28(%eax),%ecx
40009262:	8b 45 10             	mov    0x10(%ebp),%eax
40009265:	8d 58 24             	lea    0x24(%eax),%ebx
40009268:	8b 45 10             	mov    0x10(%ebp),%eax
4000926b:	8d 70 20             	lea    0x20(%eax),%esi
4000926e:	8b 45 10             	mov    0x10(%ebp),%eax
40009271:	8d 78 1c             	lea    0x1c(%eax),%edi
40009274:	8b 45 10             	mov    0x10(%ebp),%eax
40009277:	83 c0 18             	add    $0x18,%eax
4000927a:	89 45 c4             	mov    %eax,-0x3c(%ebp)
4000927d:	8b 45 10             	mov    0x10(%ebp),%eax
40009280:	83 c0 14             	add    $0x14,%eax
40009283:	89 45 c8             	mov    %eax,-0x38(%ebp)
40009286:	8b 45 10             	mov    0x10(%ebp),%eax
40009289:	83 c0 10             	add    $0x10,%eax
4000928c:	89 45 cc             	mov    %eax,-0x34(%ebp)
4000928f:	8b 45 10             	mov    0x10(%ebp),%eax
40009292:	83 c0 0c             	add    $0xc,%eax
40009295:	89 45 d0             	mov    %eax,-0x30(%ebp)
40009298:	8b 45 10             	mov    0x10(%ebp),%eax
4000929b:	83 c0 08             	add    $0x8,%eax
4000929e:	89 45 d4             	mov    %eax,-0x2c(%ebp)
400092a1:	8b 45 10             	mov    0x10(%ebp),%eax
400092a4:	83 c0 04             	add    $0x4,%eax
400092a7:	89 45 c0             	mov    %eax,-0x40(%ebp)
400092aa:	8b 45 10             	mov    0x10(%ebp),%eax
400092ad:	89 45 d8             	mov    %eax,-0x28(%ebp)
400092b0:	89 54 24 38          	mov    %edx,0x38(%esp)
400092b4:	89 4c 24 34          	mov    %ecx,0x34(%esp)
400092b8:	89 5c 24 30          	mov    %ebx,0x30(%esp)
400092bc:	89 74 24 2c          	mov    %esi,0x2c(%esp)
400092c0:	89 7c 24 28          	mov    %edi,0x28(%esp)
400092c4:	8b 55 c4             	mov    -0x3c(%ebp),%edx
400092c7:	89 54 24 24          	mov    %edx,0x24(%esp)
400092cb:	8b 45 c8             	mov    -0x38(%ebp),%eax
400092ce:	89 44 24 20          	mov    %eax,0x20(%esp)
400092d2:	8b 55 cc             	mov    -0x34(%ebp),%edx
400092d5:	89 54 24 1c          	mov    %edx,0x1c(%esp)
400092d9:	8b 45 d0             	mov    -0x30(%ebp),%eax
400092dc:	89 44 24 18          	mov    %eax,0x18(%esp)
400092e0:	8b 55 d4             	mov    -0x2c(%ebp),%edx
400092e3:	89 54 24 14          	mov    %edx,0x14(%esp)
400092e7:	8b 45 c0             	mov    -0x40(%ebp),%eax
400092ea:	89 44 24 10          	mov    %eax,0x10(%esp)
400092ee:	8b 55 d8             	mov    -0x28(%ebp),%edx
400092f1:	89 54 24 0c          	mov    %edx,0xc(%esp)
400092f5:	8b 45 08             	mov    0x8(%ebp),%eax
400092f8:	89 44 24 08          	mov    %eax,0x8(%esp)
400092fc:	c7 44 24 04 0d 00 00 	movl   $0xd,0x4(%esp)
40009303:	00 
40009304:	c7 04 24 1e 00 00 00 	movl   $0x1e,(%esp)
4000930b:	e8 70 45 00 00       	call   4000d880 <syscall_call>
40009310:	89 45 f0             	mov    %eax,-0x10(%ebp)
40009313:	e9 87 00 00 00       	jmp    4000939f <shmctl+0x15c>
40009318:	83 7d 0c 02          	cmpl   $0x2,0xc(%ebp)
4000931c:	75 57                	jne    40009375 <shmctl+0x132>
4000931e:	c7 04 24 00 00 00 00 	movl   $0x0,(%esp)
40009325:	e8 12 04 00 00       	call   4000973c <time>
4000932a:	89 c2                	mov    %eax,%edx
4000932c:	8b 45 10             	mov    0x10(%ebp),%eax
4000932f:	8b 48 10             	mov    0x10(%eax),%ecx
40009332:	8b 45 10             	mov    0x10(%ebp),%eax
40009335:	8b 58 04             	mov    0x4(%eax),%ebx
40009338:	8b 45 10             	mov    0x10(%ebp),%eax
4000933b:	8b 00                	mov    (%eax),%eax
4000933d:	c7 44 24 1c 05 00 00 	movl   $0x5,0x1c(%esp)
40009344:	00 
40009345:	89 54 24 18          	mov    %edx,0x18(%esp)
40009349:	89 4c 24 14          	mov    %ecx,0x14(%esp)
4000934d:	89 5c 24 10          	mov    %ebx,0x10(%esp)
40009351:	89 44 24 0c          	mov    %eax,0xc(%esp)
40009355:	8b 45 08             	mov    0x8(%ebp),%eax
40009358:	89 44 24 08          	mov    %eax,0x8(%esp)
4000935c:	c7 44 24 04 07 00 00 	movl   $0x7,0x4(%esp)
40009363:	00 
40009364:	c7 04 24 1f 00 00 00 	movl   $0x1f,(%esp)
4000936b:	e8 10 45 00 00       	call   4000d880 <syscall_call>
40009370:	89 45 f0             	mov    %eax,-0x10(%ebp)
40009373:	eb 2a                	jmp    4000939f <shmctl+0x15c>
40009375:	83 7d 0c 01          	cmpl   $0x1,0xc(%ebp)
40009379:	75 1d                	jne    40009398 <shmctl+0x155>
4000937b:	8b 45 08             	mov    0x8(%ebp),%eax
4000937e:	89 44 24 08          	mov    %eax,0x8(%esp)
40009382:	c7 44 24 04 01 00 00 	movl   $0x1,0x4(%esp)
40009389:	00 
4000938a:	c7 04 24 20 00 00 00 	movl   $0x20,(%esp)
40009391:	e8 ea 44 00 00       	call   4000d880 <syscall_call>
40009396:	eb 07                	jmp    4000939f <shmctl+0x15c>
40009398:	c7 45 f0 e4 ff ff ff 	movl   $0xffffffe4,-0x10(%ebp)
4000939f:	83 7d f0 00          	cmpl   $0x0,-0x10(%ebp)
400093a3:	79 0c                	jns    400093b1 <shmctl+0x16e>
400093a5:	8b 45 f0             	mov    -0x10(%ebp),%eax
400093a8:	89 c2                	mov    %eax,%edx
400093aa:	f7 da                	neg    %edx
400093ac:	89 55 dc             	mov    %edx,-0x24(%ebp)
400093af:	eb 07                	jmp    400093b8 <shmctl+0x175>
400093b1:	c7 45 dc 00 00 00 00 	movl   $0x0,-0x24(%ebp)
400093b8:	8b 45 dc             	mov    -0x24(%ebp),%eax
400093bb:	a3 44 29 01 40       	mov    %eax,0x40012944
400093c0:	83 7d f0 00          	cmpl   $0x0,-0x10(%ebp)
400093c4:	79 09                	jns    400093cf <shmctl+0x18c>
400093c6:	c7 45 e0 ff ff ff ff 	movl   $0xffffffff,-0x20(%ebp)
400093cd:	eb 07                	jmp    400093d6 <shmctl+0x193>
400093cf:	c7 45 e0 00 00 00 00 	movl   $0x0,-0x20(%ebp)
400093d6:	8b 45 e0             	mov    -0x20(%ebp),%eax
400093d9:	83 c4 7c             	add    $0x7c,%esp
400093dc:	5b                   	pop    %ebx
400093dd:	5e                   	pop    %esi
400093de:	5f                   	pop    %edi
400093df:	5d                   	pop    %ebp
400093e0:	c3                   	ret    
400093e1:	90                   	nop    
400093e2:	90                   	nop    
400093e3:	90                   	nop    

400093e4 <sscanf>:
400093e4:	55                   	push   %ebp
400093e5:	89 e5                	mov    %esp,%ebp
400093e7:	83 ec 28             	sub    $0x28,%esp
400093ea:	8d 45 10             	lea    0x10(%ebp),%eax
400093ed:	89 45 f8             	mov    %eax,-0x8(%ebp)
400093f0:	8b 45 f8             	mov    -0x8(%ebp),%eax
400093f3:	89 44 24 08          	mov    %eax,0x8(%esp)
400093f7:	8b 45 0c             	mov    0xc(%ebp),%eax
400093fa:	89 44 24 04          	mov    %eax,0x4(%esp)
400093fe:	8b 45 08             	mov    0x8(%ebp),%eax
40009401:	89 04 24             	mov    %eax,(%esp)
40009404:	e8 f7 11 00 00       	call   4000a600 <vsscanf>
40009409:	89 45 fc             	mov    %eax,-0x4(%ebp)
4000940c:	8b 45 fc             	mov    -0x4(%ebp),%eax
4000940f:	c9                   	leave  
40009410:	c3                   	ret    
40009411:	90                   	nop    
40009412:	90                   	nop    
40009413:	90                   	nop    

40009414 <_stdlib_init_pre>:
40009414:	55                   	push   %ebp
40009415:	89 e5                	mov    %esp,%ebp
40009417:	53                   	push   %ebx
40009418:	83 ec 14             	sub    $0x14,%esp
4000941b:	8b 0d 24 29 01 40    	mov    0x40012924,%ecx
40009421:	c7 45 f4 03 00 01 80 	movl   $0x80010003,-0xc(%ebp)
40009428:	8b 45 f4             	mov    -0xc(%ebp),%eax
4000942b:	f7 e9                	imul   %ecx
4000942d:	8d 04 0a             	lea    (%edx,%ecx,1),%eax
40009430:	89 c2                	mov    %eax,%edx
40009432:	c1 fa 0e             	sar    $0xe,%edx
40009435:	89 c8                	mov    %ecx,%eax
40009437:	c1 f8 1f             	sar    $0x1f,%eax
4000943a:	89 d3                	mov    %edx,%ebx
4000943c:	29 c3                	sub    %eax,%ebx
4000943e:	89 5d f8             	mov    %ebx,-0x8(%ebp)
40009441:	8b 45 f8             	mov    -0x8(%ebp),%eax
40009444:	c1 e0 0f             	shl    $0xf,%eax
40009447:	2b 45 f8             	sub    -0x8(%ebp),%eax
4000944a:	89 ca                	mov    %ecx,%edx
4000944c:	29 c2                	sub    %eax,%edx
4000944e:	89 55 f8             	mov    %edx,-0x8(%ebp)
40009451:	8b 5d f8             	mov    -0x8(%ebp),%ebx
40009454:	89 1d 24 29 01 40    	mov    %ebx,0x40012924
4000945a:	c7 05 44 29 01 40 00 	movl   $0x0,0x40012944
40009461:	00 00 00 
40009464:	e8 b7 25 00 00       	call   4000ba20 <llist_create>
40009469:	a3 9c 29 01 40       	mov    %eax,0x4001299c
4000946e:	e8 77 4a 00 00       	call   4000deea <_signal_init>
40009473:	83 c4 14             	add    $0x14,%esp
40009476:	5b                   	pop    %ebx
40009477:	5d                   	pop    %ebp
40009478:	c3                   	ret    

40009479 <_stdlib_init_post>:
40009479:	55                   	push   %ebp
4000947a:	89 e5                	mov    %esp,%ebp
4000947c:	83 ec 08             	sub    $0x8,%esp
4000947f:	e8 30 46 00 00       	call   4000dab4 <env_init>
40009484:	e8 d7 8c ff ff       	call   40002160 <_fs_init>
40009489:	e8 24 4e 00 00       	call   4000e2b2 <stdio_init>
4000948e:	c9                   	leave  
4000948f:	c3                   	ret    

40009490 <exit>:
40009490:	55                   	push   %ebp
40009491:	89 e5                	mov    %esp,%ebp
40009493:	83 ec 18             	sub    $0x18,%esp
40009496:	eb 05                	jmp    4000949d <exit+0xd>
40009498:	8b 45 fc             	mov    -0x4(%ebp),%eax
4000949b:	ff d0                	call   *%eax
4000949d:	a1 9c 29 01 40       	mov    0x4001299c,%eax
400094a2:	89 04 24             	mov    %eax,(%esp)
400094a5:	e8 4a 26 00 00       	call   4000baf4 <llist_pop>
400094aa:	89 45 fc             	mov    %eax,-0x4(%ebp)
400094ad:	83 7d fc 00          	cmpl   $0x0,-0x4(%ebp)
400094b1:	75 e5                	jne    40009498 <exit+0x8>
400094b3:	8b 45 08             	mov    0x8(%ebp),%eax
400094b6:	89 04 24             	mov    %eax,(%esp)
400094b9:	e8 02 00 00 00       	call   400094c0 <_Exit>
400094be:	c9                   	leave  
400094bf:	c3                   	ret    

400094c0 <_Exit>:
400094c0:	55                   	push   %ebp
400094c1:	89 e5                	mov    %esp,%ebp
400094c3:	83 ec 18             	sub    $0x18,%esp
400094c6:	e8 7b 9c ff ff       	call   40003146 <_close_all_filehandles>
400094cb:	8b 45 08             	mov    0x8(%ebp),%eax
400094ce:	89 44 24 08          	mov    %eax,0x8(%esp)
400094d2:	c7 44 24 04 01 00 00 	movl   $0x1,0x4(%esp)
400094d9:	00 
400094da:	c7 04 24 34 00 00 00 	movl   $0x34,(%esp)
400094e1:	e8 9a 43 00 00       	call   4000d880 <syscall_call>
400094e6:	c9                   	leave  
400094e7:	c3                   	ret    

400094e8 <atexit>:
400094e8:	55                   	push   %ebp
400094e9:	89 e5                	mov    %esp,%ebp
400094eb:	83 ec 18             	sub    $0x18,%esp
400094ee:	a1 9c 29 01 40       	mov    0x4001299c,%eax
400094f3:	8b 55 08             	mov    0x8(%ebp),%edx
400094f6:	89 54 24 04          	mov    %edx,0x4(%esp)
400094fa:	89 04 24             	mov    %eax,(%esp)
400094fd:	e8 99 25 00 00       	call   4000ba9b <llist_push>
40009502:	85 c0                	test   %eax,%eax
40009504:	74 09                	je     4000950f <atexit+0x27>
40009506:	c7 45 fc 00 00 00 00 	movl   $0x0,-0x4(%ebp)
4000950d:	eb 07                	jmp    40009516 <atexit+0x2e>
4000950f:	c7 45 fc ff ff ff ff 	movl   $0xffffffff,-0x4(%ebp)
40009516:	8b 45 fc             	mov    -0x4(%ebp),%eax
40009519:	c9                   	leave  
4000951a:	c3                   	ret    

4000951b <atoi>:
4000951b:	55                   	push   %ebp
4000951c:	89 e5                	mov    %esp,%ebp
4000951e:	83 ec 18             	sub    $0x18,%esp
40009521:	c7 45 f8 00 00 00 00 	movl   $0x0,-0x8(%ebp)
40009528:	c7 45 fc 00 00 00 00 	movl   $0x0,-0x4(%ebp)
4000952f:	8b 45 08             	mov    0x8(%ebp),%eax
40009532:	89 04 24             	mov    %eax,(%esp)
40009535:	e8 a6 1e 00 00       	call   4000b3e0 <strlen>
4000953a:	89 45 f0             	mov    %eax,-0x10(%ebp)
4000953d:	c7 45 f4 00 00 00 00 	movl   $0x0,-0xc(%ebp)
40009544:	eb 59                	jmp    4000959f <atoi+0x84>
40009546:	8b 55 f4             	mov    -0xc(%ebp),%edx
40009549:	8b 45 08             	mov    0x8(%ebp),%eax
4000954c:	01 d0                	add    %edx,%eax
4000954e:	0f b6 00             	movzbl (%eax),%eax
40009551:	3c 2b                	cmp    $0x2b,%al
40009553:	75 09                	jne    4000955e <atoi+0x43>
40009555:	c7 45 fc 00 00 00 00 	movl   $0x0,-0x4(%ebp)
4000955c:	eb 3d                	jmp    4000959b <atoi+0x80>
4000955e:	8b 55 f4             	mov    -0xc(%ebp),%edx
40009561:	8b 45 08             	mov    0x8(%ebp),%eax
40009564:	01 d0                	add    %edx,%eax
40009566:	0f b6 00             	movzbl (%eax),%eax
40009569:	3c 2d                	cmp    $0x2d,%al
4000956b:	75 09                	jne    40009576 <atoi+0x5b>
4000956d:	c7 45 fc 01 00 00 00 	movl   $0x1,-0x4(%ebp)
40009574:	eb 25                	jmp    4000959b <atoi+0x80>
40009576:	8b 55 f8             	mov    -0x8(%ebp),%edx
40009579:	89 d0                	mov    %edx,%eax
4000957b:	c1 e0 02             	shl    $0x2,%eax
4000957e:	01 d0                	add    %edx,%eax
40009580:	01 c0                	add    %eax,%eax
40009582:	89 c1                	mov    %eax,%ecx
40009584:	8b 55 f4             	mov    -0xc(%ebp),%edx
40009587:	8b 45 08             	mov    0x8(%ebp),%eax
4000958a:	01 d0                	add    %edx,%eax
4000958c:	0f b6 00             	movzbl (%eax),%eax
4000958f:	0f be c0             	movsbl %al,%eax
40009592:	8d 04 01             	lea    (%ecx,%eax,1),%eax
40009595:	83 e8 30             	sub    $0x30,%eax
40009598:	89 45 f8             	mov    %eax,-0x8(%ebp)
4000959b:	83 45 f4 01          	addl   $0x1,-0xc(%ebp)
4000959f:	8b 45 f4             	mov    -0xc(%ebp),%eax
400095a2:	3b 45 f0             	cmp    -0x10(%ebp),%eax
400095a5:	72 9f                	jb     40009546 <atoi+0x2b>
400095a7:	83 7d fc 00          	cmpl   $0x0,-0x4(%ebp)
400095ab:	74 03                	je     400095b0 <atoi+0x95>
400095ad:	f7 5d f8             	negl   -0x8(%ebp)
400095b0:	8b 45 f8             	mov    -0x8(%ebp),%eax
400095b3:	c9                   	leave  
400095b4:	c3                   	ret    

400095b5 <abs>:
400095b5:	55                   	push   %ebp
400095b6:	89 e5                	mov    %esp,%ebp
400095b8:	83 7d 08 00          	cmpl   $0x0,0x8(%ebp)
400095bc:	79 03                	jns    400095c1 <abs+0xc>
400095be:	f7 5d 08             	negl   0x8(%ebp)
400095c1:	8b 45 08             	mov    0x8(%ebp),%eax
400095c4:	5d                   	pop    %ebp
400095c5:	c3                   	ret    

400095c6 <div>:
400095c6:	55                   	push   %ebp
400095c7:	89 e5                	mov    %esp,%ebp
400095c9:	83 ec 1c             	sub    $0x1c,%esp
400095cc:	8b 4d 08             	mov    0x8(%ebp),%ecx
400095cf:	8b 45 0c             	mov    0xc(%ebp),%eax
400095d2:	89 45 e4             	mov    %eax,-0x1c(%ebp)
400095d5:	8b 55 e4             	mov    -0x1c(%ebp),%edx
400095d8:	89 d0                	mov    %edx,%eax
400095da:	c1 fa 1f             	sar    $0x1f,%edx
400095dd:	f7 7d 10             	idivl  0x10(%ebp)
400095e0:	89 45 f8             	mov    %eax,-0x8(%ebp)
400095e3:	8b 55 0c             	mov    0xc(%ebp),%edx
400095e6:	89 d0                	mov    %edx,%eax
400095e8:	c1 fa 1f             	sar    $0x1f,%edx
400095eb:	f7 7d 10             	idivl  0x10(%ebp)
400095ee:	89 d0                	mov    %edx,%eax
400095f0:	89 45 fc             	mov    %eax,-0x4(%ebp)
400095f3:	8b 45 f8             	mov    -0x8(%ebp),%eax
400095f6:	8b 55 fc             	mov    -0x4(%ebp),%edx
400095f9:	89 01                	mov    %eax,(%ecx)
400095fb:	89 51 04             	mov    %edx,0x4(%ecx)
400095fe:	89 c8                	mov    %ecx,%eax
40009600:	c9                   	leave  
40009601:	c2 04 00             	ret    $0x4

40009604 <bsearch>:
40009604:	55                   	push   %ebp
40009605:	89 e5                	mov    %esp,%ebp
40009607:	83 ec 38             	sub    $0x38,%esp
4000960a:	8b 45 08             	mov    0x8(%ebp),%eax
4000960d:	89 45 e4             	mov    %eax,-0x1c(%ebp)
40009610:	8b 45 14             	mov    0x14(%ebp),%eax
40009613:	89 04 24             	mov    %eax,(%esp)
40009616:	e8 35 e6 ff ff       	call   40007c50 <malloc>
4000961b:	89 c2                	mov    %eax,%edx
4000961d:	8b 45 14             	mov    0x14(%ebp),%eax
40009620:	89 44 24 08          	mov    %eax,0x8(%esp)
40009624:	8b 45 e4             	mov    -0x1c(%ebp),%eax
40009627:	89 44 24 04          	mov    %eax,0x4(%esp)
4000962b:	89 14 24             	mov    %edx,(%esp)
4000962e:	e8 f5 19 00 00       	call   4000b028 <memcpy>
40009633:	89 45 e8             	mov    %eax,-0x18(%ebp)
40009636:	8b 45 0c             	mov    0xc(%ebp),%eax
40009639:	89 45 ec             	mov    %eax,-0x14(%ebp)
4000963c:	c7 45 f0 00 00 00 00 	movl   $0x0,-0x10(%ebp)
40009643:	c7 45 f4 00 00 00 00 	movl   $0x0,-0xc(%ebp)
4000964a:	c7 45 f8 00 00 00 00 	movl   $0x0,-0x8(%ebp)
40009651:	e9 9a 00 00 00       	jmp    400096f0 <bsearch+0xec>
40009656:	8b 45 10             	mov    0x10(%ebp),%eax
40009659:	0f af 45 14          	imul   0x14(%ebp),%eax
4000965d:	03 45 ec             	add    -0x14(%ebp),%eax
40009660:	0f b6 10             	movzbl (%eax),%edx
40009663:	8b 45 e4             	mov    -0x1c(%ebp),%eax
40009666:	0f b6 00             	movzbl (%eax),%eax
40009669:	38 c2                	cmp    %al,%dl
4000966b:	75 04                	jne    40009671 <bsearch+0x6d>
4000966d:	83 45 f4 01          	addl   $0x1,-0xc(%ebp)
40009671:	8b 45 f4             	mov    -0xc(%ebp),%eax
40009674:	3b 45 14             	cmp    0x14(%ebp),%eax
40009677:	75 73                	jne    400096ec <bsearch+0xe8>
40009679:	8b 45 14             	mov    0x14(%ebp),%eax
4000967c:	89 04 24             	mov    %eax,(%esp)
4000967f:	e8 cc e5 ff ff       	call   40007c50 <malloc>
40009684:	89 c2                	mov    %eax,%edx
40009686:	8b 45 14             	mov    0x14(%ebp),%eax
40009689:	89 44 24 08          	mov    %eax,0x8(%esp)
4000968d:	8b 45 ec             	mov    -0x14(%ebp),%eax
40009690:	89 44 24 04          	mov    %eax,0x4(%esp)
40009694:	89 14 24             	mov    %edx,(%esp)
40009697:	e8 8c 19 00 00       	call   4000b028 <memcpy>
4000969c:	89 45 fc             	mov    %eax,-0x4(%ebp)
4000969f:	83 7d 18 00          	cmpl   $0x0,0x18(%ebp)
400096a3:	74 12                	je     400096b7 <bsearch+0xb3>
400096a5:	8b 45 ec             	mov    -0x14(%ebp),%eax
400096a8:	89 44 24 04          	mov    %eax,0x4(%esp)
400096ac:	8b 45 e4             	mov    -0x1c(%ebp),%eax
400096af:	89 04 24             	mov    %eax,(%esp)
400096b2:	8b 45 18             	mov    0x18(%ebp),%eax
400096b5:	ff d0                	call   *%eax
400096b7:	8b 45 e8             	mov    -0x18(%ebp),%eax
400096ba:	0f b6 10             	movzbl (%eax),%edx
400096bd:	8b 45 e4             	mov    -0x1c(%ebp),%eax
400096c0:	88 10                	mov    %dl,(%eax)
400096c2:	8b 45 fc             	mov    -0x4(%ebp),%eax
400096c5:	0f b6 10             	movzbl (%eax),%edx
400096c8:	8b 45 ec             	mov    -0x14(%ebp),%eax
400096cb:	88 10                	mov    %dl,(%eax)
400096cd:	8b 45 fc             	mov    -0x4(%ebp),%eax
400096d0:	89 04 24             	mov    %eax,(%esp)
400096d3:	e8 2f ea ff ff       	call   40008107 <free>
400096d8:	c7 45 f4 00 00 00 00 	movl   $0x0,-0xc(%ebp)
400096df:	8b 45 10             	mov    0x10(%ebp),%eax
400096e2:	0f af 45 14          	imul   0x14(%ebp),%eax
400096e6:	03 45 0c             	add    0xc(%ebp),%eax
400096e9:	89 45 f0             	mov    %eax,-0x10(%ebp)
400096ec:	83 45 f8 01          	addl   $0x1,-0x8(%ebp)
400096f0:	8b 45 f8             	mov    -0x8(%ebp),%eax
400096f3:	3b 45 10             	cmp    0x10(%ebp),%eax
400096f6:	0f 82 5a ff ff ff    	jb     40009656 <bsearch+0x52>
400096fc:	8b 45 e8             	mov    -0x18(%ebp),%eax
400096ff:	89 04 24             	mov    %eax,(%esp)
40009702:	e8 00 ea ff ff       	call   40008107 <free>
40009707:	8b 45 f0             	mov    -0x10(%ebp),%eax
4000970a:	c9                   	leave  
4000970b:	c3                   	ret    

4000970c <sbrk>:
4000970c:	55                   	push   %ebp
4000970d:	89 e5                	mov    %esp,%ebp
4000970f:	83 ec 18             	sub    $0x18,%esp
40009712:	8b 45 08             	mov    0x8(%ebp),%eax
40009715:	89 44 24 08          	mov    %eax,0x8(%esp)
40009719:	c7 44 24 04 01 00 00 	movl   $0x1,0x4(%esp)
40009720:	00 
40009721:	c7 04 24 01 00 00 00 	movl   $0x1,(%esp)
40009728:	e8 53 41 00 00       	call   4000d880 <syscall_call>
4000972d:	c9                   	leave  
4000972e:	c3                   	ret    

4000972f <rand>:
4000972f:	55                   	push   %ebp
40009730:	89 e5                	mov    %esp,%ebp
40009732:	83 ec 30             	sub    $0x30,%esp
40009735:	b8 de c0 0f d0       	mov    $0xd00fc0de,%eax
4000973a:	c9                   	leave  
4000973b:	c3                   	ret    

4000973c <time>:
4000973c:	55                   	push   %ebp
4000973d:	89 e5                	mov    %esp,%ebp
4000973f:	57                   	push   %edi
40009740:	56                   	push   %esi
40009741:	53                   	push   %ebx
40009742:	83 ec 5c             	sub    $0x5c,%esp
40009745:	a1 74 14 01 40       	mov    0x40011474,%eax
4000974a:	85 c0                	test   %eax,%eax
4000974c:	0f 85 da 01 00 00    	jne    4000992c <time+0x1f0>
40009752:	c7 04 24 00 00 00 00 	movl   $0x0,(%esp)
40009759:	e8 a6 26 00 00       	call   4000be04 <cmos_read>
4000975e:	c1 f8 04             	sar    $0x4,%eax
40009761:	89 c2                	mov    %eax,%edx
40009763:	83 e2 0f             	and    $0xf,%edx
40009766:	89 d0                	mov    %edx,%eax
40009768:	c1 e0 02             	shl    $0x2,%eax
4000976b:	01 d0                	add    %edx,%eax
4000976d:	01 c0                	add    %eax,%eax
4000976f:	89 c3                	mov    %eax,%ebx
40009771:	c7 04 24 00 00 00 00 	movl   $0x0,(%esp)
40009778:	e8 87 26 00 00       	call   4000be04 <cmos_read>
4000977d:	83 e0 0f             	and    $0xf,%eax
40009780:	01 c3                	add    %eax,%ebx
40009782:	89 5d ac             	mov    %ebx,-0x54(%ebp)
40009785:	c7 04 24 02 00 00 00 	movl   $0x2,(%esp)
4000978c:	e8 73 26 00 00       	call   4000be04 <cmos_read>
40009791:	c1 f8 04             	sar    $0x4,%eax
40009794:	89 c2                	mov    %eax,%edx
40009796:	83 e2 0f             	and    $0xf,%edx
40009799:	89 d0                	mov    %edx,%eax
4000979b:	c1 e0 02             	shl    $0x2,%eax
4000979e:	01 d0                	add    %edx,%eax
400097a0:	01 c0                	add    %eax,%eax
400097a2:	89 c3                	mov    %eax,%ebx
400097a4:	c7 04 24 02 00 00 00 	movl   $0x2,(%esp)
400097ab:	e8 54 26 00 00       	call   4000be04 <cmos_read>
400097b0:	83 e0 0f             	and    $0xf,%eax
400097b3:	01 c3                	add    %eax,%ebx
400097b5:	89 5d b0             	mov    %ebx,-0x50(%ebp)
400097b8:	c7 04 24 04 00 00 00 	movl   $0x4,(%esp)
400097bf:	e8 40 26 00 00       	call   4000be04 <cmos_read>
400097c4:	c1 f8 04             	sar    $0x4,%eax
400097c7:	89 c2                	mov    %eax,%edx
400097c9:	83 e2 0f             	and    $0xf,%edx
400097cc:	89 d0                	mov    %edx,%eax
400097ce:	c1 e0 02             	shl    $0x2,%eax
400097d1:	01 d0                	add    %edx,%eax
400097d3:	01 c0                	add    %eax,%eax
400097d5:	89 c3                	mov    %eax,%ebx
400097d7:	c7 04 24 04 00 00 00 	movl   $0x4,(%esp)
400097de:	e8 21 26 00 00       	call   4000be04 <cmos_read>
400097e3:	83 e0 0f             	and    $0xf,%eax
400097e6:	01 c3                	add    %eax,%ebx
400097e8:	89 5d b4             	mov    %ebx,-0x4c(%ebp)
400097eb:	c7 04 24 07 00 00 00 	movl   $0x7,(%esp)
400097f2:	e8 0d 26 00 00       	call   4000be04 <cmos_read>
400097f7:	c1 f8 04             	sar    $0x4,%eax
400097fa:	89 c2                	mov    %eax,%edx
400097fc:	83 e2 0f             	and    $0xf,%edx
400097ff:	89 d0                	mov    %edx,%eax
40009801:	c1 e0 02             	shl    $0x2,%eax
40009804:	01 d0                	add    %edx,%eax
40009806:	01 c0                	add    %eax,%eax
40009808:	89 c3                	mov    %eax,%ebx
4000980a:	c7 04 24 07 00 00 00 	movl   $0x7,(%esp)
40009811:	e8 ee 25 00 00       	call   4000be04 <cmos_read>
40009816:	83 e0 0f             	and    $0xf,%eax
40009819:	01 c3                	add    %eax,%ebx
4000981b:	89 5d b8             	mov    %ebx,-0x48(%ebp)
4000981e:	c7 04 24 08 00 00 00 	movl   $0x8,(%esp)
40009825:	e8 da 25 00 00       	call   4000be04 <cmos_read>
4000982a:	c1 f8 04             	sar    $0x4,%eax
4000982d:	89 c2                	mov    %eax,%edx
4000982f:	83 e2 0f             	and    $0xf,%edx
40009832:	89 d0                	mov    %edx,%eax
40009834:	c1 e0 02             	shl    $0x2,%eax
40009837:	01 d0                	add    %edx,%eax
40009839:	01 c0                	add    %eax,%eax
4000983b:	89 c3                	mov    %eax,%ebx
4000983d:	c7 04 24 08 00 00 00 	movl   $0x8,(%esp)
40009844:	e8 bb 25 00 00       	call   4000be04 <cmos_read>
40009849:	83 e0 0f             	and    $0xf,%eax
4000984c:	8d 04 03             	lea    (%ebx,%eax,1),%eax
4000984f:	83 e8 01             	sub    $0x1,%eax
40009852:	89 45 bc             	mov    %eax,-0x44(%ebp)
40009855:	c7 04 24 09 00 00 00 	movl   $0x9,(%esp)
4000985c:	e8 a3 25 00 00       	call   4000be04 <cmos_read>
40009861:	c1 f8 04             	sar    $0x4,%eax
40009864:	89 c2                	mov    %eax,%edx
40009866:	83 e2 0f             	and    $0xf,%edx
40009869:	89 d0                	mov    %edx,%eax
4000986b:	c1 e0 02             	shl    $0x2,%eax
4000986e:	01 d0                	add    %edx,%eax
40009870:	01 c0                	add    %eax,%eax
40009872:	89 c6                	mov    %eax,%esi
40009874:	c7 04 24 32 00 00 00 	movl   $0x32,(%esp)
4000987b:	e8 84 25 00 00       	call   4000be04 <cmos_read>
40009880:	c1 f8 04             	sar    $0x4,%eax
40009883:	89 c2                	mov    %eax,%edx
40009885:	83 e2 0f             	and    $0xf,%edx
40009888:	89 d0                	mov    %edx,%eax
4000988a:	c1 e0 02             	shl    $0x2,%eax
4000988d:	01 d0                	add    %edx,%eax
4000988f:	01 c0                	add    %eax,%eax
40009891:	89 c3                	mov    %eax,%ebx
40009893:	c7 04 24 32 00 00 00 	movl   $0x32,(%esp)
4000989a:	e8 65 25 00 00       	call   4000be04 <cmos_read>
4000989f:	83 e0 0f             	and    $0xf,%eax
400098a2:	8d 04 03             	lea    (%ebx,%eax,1),%eax
400098a5:	6b c0 64             	imul   $0x64,%eax,%eax
400098a8:	8d 1c 06             	lea    (%esi,%eax,1),%ebx
400098ab:	c7 04 24 09 00 00 00 	movl   $0x9,(%esp)
400098b2:	e8 4d 25 00 00       	call   4000be04 <cmos_read>
400098b7:	83 e0 0f             	and    $0xf,%eax
400098ba:	8d 04 03             	lea    (%ebx,%eax,1),%eax
400098bd:	2d 6c 07 00 00       	sub    $0x76c,%eax
400098c2:	89 45 c0             	mov    %eax,-0x40(%ebp)
400098c5:	8d 45 cc             	lea    -0x34(%ebp),%eax
400098c8:	89 45 a8             	mov    %eax,-0x58(%ebp)
400098cb:	c7 45 a4 00 00 00 00 	movl   $0x0,-0x5c(%ebp)
400098d2:	b8 24 00 00 00       	mov    $0x24,%eax
400098d7:	83 f8 04             	cmp    $0x4,%eax
400098da:	72 12                	jb     400098ee <time+0x1b2>
400098dc:	c7 45 a0 09 00 00 00 	movl   $0x9,-0x60(%ebp)
400098e3:	8b 7d a8             	mov    -0x58(%ebp),%edi
400098e6:	8b 4d a0             	mov    -0x60(%ebp),%ecx
400098e9:	8b 45 a4             	mov    -0x5c(%ebp),%eax
400098ec:	f3 ab                	rep stos %eax,%es:(%edi)
400098ee:	8b 45 ac             	mov    -0x54(%ebp),%eax
400098f1:	89 45 cc             	mov    %eax,-0x34(%ebp)
400098f4:	8b 4d b0             	mov    -0x50(%ebp),%ecx
400098f7:	89 4d d0             	mov    %ecx,-0x30(%ebp)
400098fa:	8b 7d b4             	mov    -0x4c(%ebp),%edi
400098fd:	89 7d d4             	mov    %edi,-0x2c(%ebp)
40009900:	8b 45 b8             	mov    -0x48(%ebp),%eax
40009903:	89 45 d8             	mov    %eax,-0x28(%ebp)
40009906:	8b 4d bc             	mov    -0x44(%ebp),%ecx
40009909:	89 4d dc             	mov    %ecx,-0x24(%ebp)
4000990c:	8b 7d c0             	mov    -0x40(%ebp),%edi
4000990f:	89 7d e0             	mov    %edi,-0x20(%ebp)
40009912:	8d 45 cc             	lea    -0x34(%ebp),%eax
40009915:	89 04 24             	mov    %eax,(%esp)
40009918:	e8 50 00 00 00       	call   4000996d <mktime>
4000991d:	a3 74 14 01 40       	mov    %eax,0x40011474
40009922:	e8 50 00 00 00       	call   40009977 <clock>
40009927:	a3 78 14 01 40       	mov    %eax,0x40011478
4000992c:	e8 46 00 00 00       	call   40009977 <clock>
40009931:	89 c2                	mov    %eax,%edx
40009933:	a1 78 14 01 40       	mov    0x40011478,%eax
40009938:	29 c2                	sub    %eax,%edx
4000993a:	c7 45 9c 1f 85 eb 51 	movl   $0x51eb851f,-0x64(%ebp)
40009941:	8b 45 9c             	mov    -0x64(%ebp),%eax
40009944:	f7 e2                	mul    %edx
40009946:	c1 ea 05             	shr    $0x5,%edx
40009949:	a1 74 14 01 40       	mov    0x40011474,%eax
4000994e:	8d 04 02             	lea    (%edx,%eax,1),%eax
40009951:	89 45 f0             	mov    %eax,-0x10(%ebp)
40009954:	83 7d 08 00          	cmpl   $0x0,0x8(%ebp)
40009958:	74 08                	je     40009962 <time+0x226>
4000995a:	8b 55 08             	mov    0x8(%ebp),%edx
4000995d:	8b 45 f0             	mov    -0x10(%ebp),%eax
40009960:	89 02                	mov    %eax,(%edx)
40009962:	8b 45 f0             	mov    -0x10(%ebp),%eax
40009965:	83 c4 5c             	add    $0x5c,%esp
40009968:	5b                   	pop    %ebx
40009969:	5e                   	pop    %esi
4000996a:	5f                   	pop    %edi
4000996b:	5d                   	pop    %ebp
4000996c:	c3                   	ret    

4000996d <mktime>:
4000996d:	55                   	push   %ebp
4000996e:	89 e5                	mov    %esp,%ebp
40009970:	b8 00 00 00 00       	mov    $0x0,%eax
40009975:	5d                   	pop    %ebp
40009976:	c3                   	ret    

40009977 <clock>:
40009977:	55                   	push   %ebp
40009978:	89 e5                	mov    %esp,%ebp
4000997a:	83 ec 08             	sub    $0x8,%esp
4000997d:	a1 48 10 01 40       	mov    0x40011048,%eax
40009982:	83 f8 ff             	cmp    $0xffffffff,%eax
40009985:	75 19                	jne    400099a0 <clock+0x29>
40009987:	c7 44 24 04 00 00 00 	movl   $0x0,0x4(%esp)
4000998e:	00 
4000998f:	c7 04 24 48 00 00 00 	movl   $0x48,(%esp)
40009996:	e8 e5 3e 00 00       	call   4000d880 <syscall_call>
4000999b:	a3 48 10 01 40       	mov    %eax,0x40011048
400099a0:	c7 44 24 04 00 00 00 	movl   $0x0,0x4(%esp)
400099a7:	00 
400099a8:	c7 04 24 48 00 00 00 	movl   $0x48,(%esp)
400099af:	e8 cc 3e 00 00       	call   4000d880 <syscall_call>
400099b4:	89 c2                	mov    %eax,%edx
400099b6:	a1 48 10 01 40       	mov    0x40011048,%eax
400099bb:	89 d1                	mov    %edx,%ecx
400099bd:	29 c1                	sub    %eax,%ecx
400099bf:	89 c8                	mov    %ecx,%eax
400099c1:	c9                   	leave  
400099c2:	c3                   	ret    
400099c3:	90                   	nop    

400099c4 <swab>:
400099c4:	55                   	push   %ebp
400099c5:	89 e5                	mov    %esp,%ebp
400099c7:	83 ec 10             	sub    $0x10,%esp
400099ca:	8b 55 10             	mov    0x10(%ebp),%edx
400099cd:	89 d0                	mov    %edx,%eax
400099cf:	c1 f8 1f             	sar    $0x1f,%eax
400099d2:	89 c1                	mov    %eax,%ecx
400099d4:	c1 e9 1f             	shr    $0x1f,%ecx
400099d7:	8d 04 0a             	lea    (%edx,%ecx,1),%eax
400099da:	83 e0 01             	and    $0x1,%eax
400099dd:	29 c8                	sub    %ecx,%eax
400099df:	29 45 10             	sub    %eax,0x10(%ebp)
400099e2:	83 7d 10 00          	cmpl   $0x0,0x10(%ebp)
400099e6:	7e 3c                	jle    40009a24 <swab+0x60>
400099e8:	8b 45 08             	mov    0x8(%ebp),%eax
400099eb:	89 45 f4             	mov    %eax,-0xc(%ebp)
400099ee:	8b 45 0c             	mov    0xc(%ebp),%eax
400099f1:	89 45 f8             	mov    %eax,-0x8(%ebp)
400099f4:	c7 45 fc 00 00 00 00 	movl   $0x0,-0x4(%ebp)
400099fb:	eb 1f                	jmp    40009a1c <swab+0x58>
400099fd:	8b 45 10             	mov    0x10(%ebp),%eax
40009a00:	2b 45 fc             	sub    -0x4(%ebp),%eax
40009a03:	83 e8 01             	sub    $0x1,%eax
40009a06:	89 c1                	mov    %eax,%ecx
40009a08:	03 4d f8             	add    -0x8(%ebp),%ecx
40009a0b:	8b 55 fc             	mov    -0x4(%ebp),%edx
40009a0e:	8b 45 f4             	mov    -0xc(%ebp),%eax
40009a11:	01 d0                	add    %edx,%eax
40009a13:	0f b6 00             	movzbl (%eax),%eax
40009a16:	88 01                	mov    %al,(%ecx)
40009a18:	83 45 fc 01          	addl   $0x1,-0x4(%ebp)
40009a1c:	8b 45 10             	mov    0x10(%ebp),%eax
40009a1f:	3b 45 fc             	cmp    -0x4(%ebp),%eax
40009a22:	77 d9                	ja     400099fd <swab+0x39>
40009a24:	c9                   	leave  
40009a25:	c3                   	ret    

40009a26 <sleep>:
40009a26:	55                   	push   %ebp
40009a27:	89 e5                	mov    %esp,%ebp
40009a29:	83 ec 18             	sub    $0x18,%esp
40009a2c:	8b 45 08             	mov    0x8(%ebp),%eax
40009a2f:	89 44 24 08          	mov    %eax,0x8(%esp)
40009a33:	c7 44 24 04 01 00 00 	movl   $0x1,0x4(%esp)
40009a3a:	00 
40009a3b:	c7 04 24 46 00 00 00 	movl   $0x46,(%esp)
40009a42:	e8 39 3e 00 00       	call   4000d880 <syscall_call>
40009a47:	8b 45 08             	mov    0x8(%ebp),%eax
40009a4a:	c9                   	leave  
40009a4b:	c3                   	ret    

40009a4c <usleep>:
40009a4c:	55                   	push   %ebp
40009a4d:	89 e5                	mov    %esp,%ebp
40009a4f:	83 ec 18             	sub    $0x18,%esp
40009a52:	81 7d 08 3f 42 0f 00 	cmpl   $0xf423f,0x8(%ebp)
40009a59:	77 24                	ja     40009a7f <usleep+0x33>
40009a5b:	8b 45 08             	mov    0x8(%ebp),%eax
40009a5e:	89 44 24 08          	mov    %eax,0x8(%esp)
40009a62:	c7 44 24 04 01 00 00 	movl   $0x1,0x4(%esp)
40009a69:	00 
40009a6a:	c7 04 24 47 00 00 00 	movl   $0x47,(%esp)
40009a71:	e8 0a 3e 00 00       	call   4000d880 <syscall_call>
40009a76:	c7 45 fc 00 00 00 00 	movl   $0x0,-0x4(%ebp)
40009a7d:	eb 11                	jmp    40009a90 <usleep+0x44>
40009a7f:	c7 05 44 29 01 40 1c 	movl   $0x1c,0x40012944
40009a86:	00 00 00 
40009a89:	c7 45 fc ff ff ff ff 	movl   $0xffffffff,-0x4(%ebp)
40009a90:	8b 45 fc             	mov    -0x4(%ebp),%eax
40009a93:	c9                   	leave  
40009a94:	c3                   	ret    

40009a95 <alarm>:
40009a95:	55                   	push   %ebp
40009a96:	89 e5                	mov    %esp,%ebp
40009a98:	b8 00 00 00 00       	mov    $0x0,%eax
40009a9d:	5d                   	pop    %ebp
40009a9e:	c3                   	ret    

40009a9f <ualarm>:
40009a9f:	55                   	push   %ebp
40009aa0:	89 e5                	mov    %esp,%ebp
40009aa2:	b8 00 00 00 00       	mov    $0x0,%eax
40009aa7:	5d                   	pop    %ebp
40009aa8:	c3                   	ret    

40009aa9 <getlogin>:
40009aa9:	55                   	push   %ebp
40009aaa:	89 e5                	mov    %esp,%ebp
40009aac:	83 ec 28             	sub    $0x28,%esp
40009aaf:	c7 44 24 04 00 00 00 	movl   $0x0,0x4(%esp)
40009ab6:	00 
40009ab7:	c7 04 24 28 00 00 00 	movl   $0x28,(%esp)
40009abe:	e8 bd 3d 00 00       	call   4000d880 <syscall_call>
40009ac3:	89 04 24             	mov    %eax,(%esp)
40009ac6:	e8 be 42 00 00       	call   4000dd89 <getpwuid>
40009acb:	89 45 fc             	mov    %eax,-0x4(%ebp)
40009ace:	83 7d fc 00          	cmpl   $0x0,-0x4(%ebp)
40009ad2:	75 09                	jne    40009add <getlogin+0x34>
40009ad4:	c7 45 ec 00 00 00 00 	movl   $0x0,-0x14(%ebp)
40009adb:	eb 08                	jmp    40009ae5 <getlogin+0x3c>
40009add:	8b 45 fc             	mov    -0x4(%ebp),%eax
40009ae0:	8b 00                	mov    (%eax),%eax
40009ae2:	89 45 ec             	mov    %eax,-0x14(%ebp)
40009ae5:	8b 45 ec             	mov    -0x14(%ebp),%eax
40009ae8:	c9                   	leave  
40009ae9:	c3                   	ret    
40009aea:	90                   	nop    
40009aeb:	90                   	nop    

40009aec <vfprintf>:
40009aec:	55                   	push   %ebp
40009aed:	89 e5                	mov    %esp,%ebp
40009aef:	81 ec 28 08 00 00    	sub    $0x828,%esp
40009af5:	8b 45 10             	mov    0x10(%ebp),%eax
40009af8:	89 44 24 0c          	mov    %eax,0xc(%esp)
40009afc:	8b 45 0c             	mov    0xc(%ebp),%eax
40009aff:	89 44 24 08          	mov    %eax,0x8(%esp)
40009b03:	c7 44 24 04 00 08 00 	movl   $0x800,0x4(%esp)
40009b0a:	00 
40009b0b:	8d 85 fc f7 ff ff    	lea    -0x804(%ebp),%eax
40009b11:	89 04 24             	mov    %eax,(%esp)
40009b14:	e8 e8 03 00 00       	call   40009f01 <vsnprintf>
40009b19:	89 45 fc             	mov    %eax,-0x4(%ebp)
40009b1c:	83 7d fc 00          	cmpl   $0x0,-0x4(%ebp)
40009b20:	79 0b                	jns    40009b2d <vfprintf+0x41>
40009b22:	8b 45 fc             	mov    -0x4(%ebp),%eax
40009b25:	89 85 ec f7 ff ff    	mov    %eax,-0x814(%ebp)
40009b2b:	eb 32                	jmp    40009b5f <vfprintf+0x73>
40009b2d:	81 7d fc ff 07 00 00 	cmpl   $0x7ff,-0x4(%ebp)
40009b34:	7e 07                	jle    40009b3d <vfprintf+0x51>
40009b36:	c7 45 fc ff 07 00 00 	movl   $0x7ff,-0x4(%ebp)
40009b3d:	8b 55 fc             	mov    -0x4(%ebp),%edx
40009b40:	8b 45 08             	mov    0x8(%ebp),%eax
40009b43:	89 44 24 08          	mov    %eax,0x8(%esp)
40009b47:	89 54 24 04          	mov    %edx,0x4(%esp)
40009b4b:	8d 85 fc f7 ff ff    	lea    -0x804(%ebp),%eax
40009b51:	89 04 24             	mov    %eax,(%esp)
40009b54:	e8 74 4b 00 00       	call   4000e6cd <_fwrite>
40009b59:	89 85 ec f7 ff ff    	mov    %eax,-0x814(%ebp)
40009b5f:	8b 85 ec f7 ff ff    	mov    -0x814(%ebp),%eax
40009b65:	c9                   	leave  
40009b66:	c3                   	ret    
40009b67:	90                   	nop    

40009b68 <format_int>:
40009b68:	55                   	push   %ebp
40009b69:	89 e5                	mov    %esp,%ebp
40009b6b:	53                   	push   %ebx
40009b6c:	83 ec 64             	sub    $0x64,%esp
40009b6f:	8b 45 10             	mov    0x10(%ebp),%eax
40009b72:	89 45 c0             	mov    %eax,-0x40(%ebp)
40009b75:	8b 45 14             	mov    0x14(%ebp),%eax
40009b78:	89 45 c4             	mov    %eax,-0x3c(%ebp)
40009b7b:	c7 45 cc 00 00 00 00 	movl   $0x0,-0x34(%ebp)
40009b82:	c7 45 e4 00 00 00 00 	movl   $0x0,-0x1c(%ebp)
40009b89:	c7 45 e8 00 00 00 00 	movl   $0x0,-0x18(%ebp)
40009b90:	8b 45 18             	mov    0x18(%ebp),%eax
40009b93:	25 80 00 00 00       	and    $0x80,%eax
40009b98:	85 c0                	test   %eax,%eax
40009b9a:	74 09                	je     40009ba5 <format_int+0x3d>
40009b9c:	c7 45 b4 54 f3 00 40 	movl   $0x4000f354,-0x4c(%ebp)
40009ba3:	eb 07                	jmp    40009bac <format_int+0x44>
40009ba5:	c7 45 b4 65 f3 00 40 	movl   $0x4000f365,-0x4c(%ebp)
40009bac:	8b 45 b4             	mov    -0x4c(%ebp),%eax
40009baf:	89 45 d4             	mov    %eax,-0x2c(%ebp)
40009bb2:	8b 45 18             	mov    0x18(%ebp),%eax
40009bb5:	83 e0 40             	and    $0x40,%eax
40009bb8:	85 c0                	test   %eax,%eax
40009bba:	74 24                	je     40009be0 <format_int+0x78>
40009bbc:	8b 45 c0             	mov    -0x40(%ebp),%eax
40009bbf:	8b 55 c4             	mov    -0x3c(%ebp),%edx
40009bc2:	85 d2                	test   %edx,%edx
40009bc4:	79 1a                	jns    40009be0 <format_int+0x78>
40009bc6:	c7 45 e4 01 00 00 00 	movl   $0x1,-0x1c(%ebp)
40009bcd:	8b 45 c0             	mov    -0x40(%ebp),%eax
40009bd0:	8b 55 c4             	mov    -0x3c(%ebp),%edx
40009bd3:	f7 d8                	neg    %eax
40009bd5:	83 d2 00             	adc    $0x0,%edx
40009bd8:	f7 da                	neg    %edx
40009bda:	89 45 c0             	mov    %eax,-0x40(%ebp)
40009bdd:	89 55 c4             	mov    %edx,-0x3c(%ebp)
40009be0:	8b 45 c0             	mov    -0x40(%ebp),%eax
40009be3:	8b 55 c4             	mov    -0x3c(%ebp),%edx
40009be6:	89 45 d8             	mov    %eax,-0x28(%ebp)
40009be9:	89 55 dc             	mov    %edx,-0x24(%ebp)
40009bec:	eb 2c                	jmp    40009c1a <format_int+0xb2>
40009bee:	8b 45 1c             	mov    0x1c(%ebp),%eax
40009bf1:	89 c2                	mov    %eax,%edx
40009bf3:	c1 fa 1f             	sar    $0x1f,%edx
40009bf6:	89 44 24 08          	mov    %eax,0x8(%esp)
40009bfa:	89 54 24 0c          	mov    %edx,0xc(%esp)
40009bfe:	8b 45 d8             	mov    -0x28(%ebp),%eax
40009c01:	8b 55 dc             	mov    -0x24(%ebp),%edx
40009c04:	89 04 24             	mov    %eax,(%esp)
40009c07:	89 54 24 04          	mov    %edx,0x4(%esp)
40009c0b:	e8 80 51 00 00       	call   4000ed90 <__udivdi3>
40009c10:	89 45 d8             	mov    %eax,-0x28(%ebp)
40009c13:	89 55 dc             	mov    %edx,-0x24(%ebp)
40009c16:	83 45 e8 01          	addl   $0x1,-0x18(%ebp)
40009c1a:	8b 45 d8             	mov    -0x28(%ebp),%eax
40009c1d:	8b 55 dc             	mov    -0x24(%ebp),%edx
40009c20:	09 d0                	or     %edx,%eax
40009c22:	85 c0                	test   %eax,%eax
40009c24:	75 c8                	jne    40009bee <format_int+0x86>
40009c26:	8b 45 18             	mov    0x18(%ebp),%eax
40009c29:	83 e0 20             	and    $0x20,%eax
40009c2c:	85 c0                	test   %eax,%eax
40009c2e:	74 1a                	je     40009c4a <format_int+0xe2>
40009c30:	83 7d 1c 08          	cmpl   $0x8,0x1c(%ebp)
40009c34:	75 14                	jne    40009c4a <format_int+0xe2>
40009c36:	8b 45 e8             	mov    -0x18(%ebp),%eax
40009c39:	83 c0 01             	add    $0x1,%eax
40009c3c:	3b 45 24             	cmp    0x24(%ebp),%eax
40009c3f:	7e 09                	jle    40009c4a <format_int+0xe2>
40009c41:	8b 45 e8             	mov    -0x18(%ebp),%eax
40009c44:	83 c0 01             	add    $0x1,%eax
40009c47:	89 45 24             	mov    %eax,0x24(%ebp)
40009c4a:	8b 45 e8             	mov    -0x18(%ebp),%eax
40009c4d:	3b 45 24             	cmp    0x24(%ebp),%eax
40009c50:	7d 08                	jge    40009c5a <format_int+0xf2>
40009c52:	8b 45 24             	mov    0x24(%ebp),%eax
40009c55:	89 45 e8             	mov    %eax,-0x18(%ebp)
40009c58:	eb 13                	jmp    40009c6d <format_int+0x105>
40009c5a:	8b 45 c0             	mov    -0x40(%ebp),%eax
40009c5d:	8b 55 c4             	mov    -0x3c(%ebp),%edx
40009c60:	09 d0                	or     %edx,%eax
40009c62:	85 c0                	test   %eax,%eax
40009c64:	75 07                	jne    40009c6d <format_int+0x105>
40009c66:	c7 45 e8 01 00 00 00 	movl   $0x1,-0x18(%ebp)
40009c6d:	8b 45 18             	mov    0x18(%ebp),%eax
40009c70:	83 e0 08             	and    $0x8,%eax
40009c73:	85 c0                	test   %eax,%eax
40009c75:	74 1e                	je     40009c95 <format_int+0x12d>
40009c77:	83 7d 1c 10          	cmpl   $0x10,0x1c(%ebp)
40009c7b:	75 09                	jne    40009c86 <format_int+0x11e>
40009c7d:	c7 45 b8 04 00 00 00 	movl   $0x4,-0x48(%ebp)
40009c84:	eb 07                	jmp    40009c8d <format_int+0x125>
40009c86:	c7 45 b8 03 00 00 00 	movl   $0x3,-0x48(%ebp)
40009c8d:	8b 55 b8             	mov    -0x48(%ebp),%edx
40009c90:	89 55 f0             	mov    %edx,-0x10(%ebp)
40009c93:	eb 06                	jmp    40009c9b <format_int+0x133>
40009c95:	8b 45 e8             	mov    -0x18(%ebp),%eax
40009c98:	89 45 f0             	mov    %eax,-0x10(%ebp)
40009c9b:	8b 45 e8             	mov    -0x18(%ebp),%eax
40009c9e:	83 e8 01             	sub    $0x1,%eax
40009ca1:	89 45 ac             	mov    %eax,-0x54(%ebp)
40009ca4:	8b 55 ac             	mov    -0x54(%ebp),%edx
40009ca7:	89 d0                	mov    %edx,%eax
40009ca9:	c1 fa 1f             	sar    $0x1f,%edx
40009cac:	f7 7d f0             	idivl  -0x10(%ebp)
40009caf:	01 45 e8             	add    %eax,-0x18(%ebp)
40009cb2:	8b 45 e8             	mov    -0x18(%ebp),%eax
40009cb5:	89 45 ec             	mov    %eax,-0x14(%ebp)
40009cb8:	83 7d e4 00          	cmpl   $0x0,-0x1c(%ebp)
40009cbc:	75 0a                	jne    40009cc8 <format_int+0x160>
40009cbe:	8b 45 18             	mov    0x18(%ebp),%eax
40009cc1:	83 e0 14             	and    $0x14,%eax
40009cc4:	85 c0                	test   %eax,%eax
40009cc6:	74 04                	je     40009ccc <format_int+0x164>
40009cc8:	83 45 ec 01          	addl   $0x1,-0x14(%ebp)
40009ccc:	8b 45 18             	mov    0x18(%ebp),%eax
40009ccf:	83 e0 20             	and    $0x20,%eax
40009cd2:	85 c0                	test   %eax,%eax
40009cd4:	74 0a                	je     40009ce0 <format_int+0x178>
40009cd6:	83 7d 1c 10          	cmpl   $0x10,0x1c(%ebp)
40009cda:	75 04                	jne    40009ce0 <format_int+0x178>
40009cdc:	83 45 ec 02          	addl   $0x2,-0x14(%ebp)
40009ce0:	8b 45 18             	mov    0x18(%ebp),%eax
40009ce3:	83 e0 03             	and    $0x3,%eax
40009ce6:	85 c0                	test   %eax,%eax
40009ce8:	75 2c                	jne    40009d16 <format_int+0x1ae>
40009cea:	8b 45 20             	mov    0x20(%ebp),%eax
40009ced:	3b 45 ec             	cmp    -0x14(%ebp),%eax
40009cf0:	7e 24                	jle    40009d16 <format_int+0x1ae>
40009cf2:	eb 1a                	jmp    40009d0e <format_int+0x1a6>
40009cf4:	8b 45 cc             	mov    -0x34(%ebp),%eax
40009cf7:	3b 45 0c             	cmp    0xc(%ebp),%eax
40009cfa:	73 0a                	jae    40009d06 <format_int+0x19e>
40009cfc:	8b 45 08             	mov    0x8(%ebp),%eax
40009cff:	c6 00 20             	movb   $0x20,(%eax)
40009d02:	83 45 08 01          	addl   $0x1,0x8(%ebp)
40009d06:	83 45 cc 01          	addl   $0x1,-0x34(%ebp)
40009d0a:	83 6d 20 01          	subl   $0x1,0x20(%ebp)
40009d0e:	8b 45 20             	mov    0x20(%ebp),%eax
40009d11:	3b 45 ec             	cmp    -0x14(%ebp),%eax
40009d14:	7f de                	jg     40009cf4 <format_int+0x18c>
40009d16:	83 7d e4 00          	cmpl   $0x0,-0x1c(%ebp)
40009d1a:	74 18                	je     40009d34 <format_int+0x1cc>
40009d1c:	8b 45 cc             	mov    -0x34(%ebp),%eax
40009d1f:	3b 45 0c             	cmp    0xc(%ebp),%eax
40009d22:	73 0a                	jae    40009d2e <format_int+0x1c6>
40009d24:	8b 45 08             	mov    0x8(%ebp),%eax
40009d27:	c6 00 2d             	movb   $0x2d,(%eax)
40009d2a:	83 45 08 01          	addl   $0x1,0x8(%ebp)
40009d2e:	83 45 cc 01          	addl   $0x1,-0x34(%ebp)
40009d32:	eb 42                	jmp    40009d76 <format_int+0x20e>
40009d34:	8b 45 18             	mov    0x18(%ebp),%eax
40009d37:	83 e0 04             	and    $0x4,%eax
40009d3a:	85 c0                	test   %eax,%eax
40009d3c:	74 18                	je     40009d56 <format_int+0x1ee>
40009d3e:	8b 45 cc             	mov    -0x34(%ebp),%eax
40009d41:	3b 45 0c             	cmp    0xc(%ebp),%eax
40009d44:	73 0a                	jae    40009d50 <format_int+0x1e8>
40009d46:	8b 45 08             	mov    0x8(%ebp),%eax
40009d49:	c6 00 2b             	movb   $0x2b,(%eax)
40009d4c:	83 45 08 01          	addl   $0x1,0x8(%ebp)
40009d50:	83 45 cc 01          	addl   $0x1,-0x34(%ebp)
40009d54:	eb 20                	jmp    40009d76 <format_int+0x20e>
40009d56:	8b 45 18             	mov    0x18(%ebp),%eax
40009d59:	83 e0 10             	and    $0x10,%eax
40009d5c:	85 c0                	test   %eax,%eax
40009d5e:	74 16                	je     40009d76 <format_int+0x20e>
40009d60:	8b 45 cc             	mov    -0x34(%ebp),%eax
40009d63:	3b 45 0c             	cmp    0xc(%ebp),%eax
40009d66:	73 0a                	jae    40009d72 <format_int+0x20a>
40009d68:	8b 45 08             	mov    0x8(%ebp),%eax
40009d6b:	c6 00 20             	movb   $0x20,(%eax)
40009d6e:	83 45 08 01          	addl   $0x1,0x8(%ebp)
40009d72:	83 45 cc 01          	addl   $0x1,-0x34(%ebp)
40009d76:	8b 45 18             	mov    0x18(%ebp),%eax
40009d79:	83 e0 20             	and    $0x20,%eax
40009d7c:	85 c0                	test   %eax,%eax
40009d7e:	74 4b                	je     40009dcb <format_int+0x263>
40009d80:	83 7d 1c 10          	cmpl   $0x10,0x1c(%ebp)
40009d84:	75 45                	jne    40009dcb <format_int+0x263>
40009d86:	8b 45 cc             	mov    -0x34(%ebp),%eax
40009d89:	3b 45 0c             	cmp    0xc(%ebp),%eax
40009d8c:	73 0a                	jae    40009d98 <format_int+0x230>
40009d8e:	8b 45 08             	mov    0x8(%ebp),%eax
40009d91:	c6 00 30             	movb   $0x30,(%eax)
40009d94:	83 45 08 01          	addl   $0x1,0x8(%ebp)
40009d98:	83 45 cc 01          	addl   $0x1,-0x34(%ebp)
40009d9c:	8b 45 cc             	mov    -0x34(%ebp),%eax
40009d9f:	3b 45 0c             	cmp    0xc(%ebp),%eax
40009da2:	73 23                	jae    40009dc7 <format_int+0x25f>
40009da4:	8b 45 18             	mov    0x18(%ebp),%eax
40009da7:	25 80 00 00 00       	and    $0x80,%eax
40009dac:	85 c0                	test   %eax,%eax
40009dae:	74 06                	je     40009db6 <format_int+0x24e>
40009db0:	c6 45 bf 58          	movb   $0x58,-0x41(%ebp)
40009db4:	eb 04                	jmp    40009dba <format_int+0x252>
40009db6:	c6 45 bf 78          	movb   $0x78,-0x41(%ebp)
40009dba:	8b 45 08             	mov    0x8(%ebp),%eax
40009dbd:	0f b6 55 bf          	movzbl -0x41(%ebp),%edx
40009dc1:	88 10                	mov    %dl,(%eax)
40009dc3:	83 45 08 01          	addl   $0x1,0x8(%ebp)
40009dc7:	83 45 cc 01          	addl   $0x1,-0x34(%ebp)
40009dcb:	8b 45 18             	mov    0x18(%ebp),%eax
40009dce:	83 e0 03             	and    $0x3,%eax
40009dd1:	83 f8 01             	cmp    $0x1,%eax
40009dd4:	75 2c                	jne    40009e02 <format_int+0x29a>
40009dd6:	8b 45 20             	mov    0x20(%ebp),%eax
40009dd9:	3b 45 e8             	cmp    -0x18(%ebp),%eax
40009ddc:	7e 24                	jle    40009e02 <format_int+0x29a>
40009dde:	eb 1a                	jmp    40009dfa <format_int+0x292>
40009de0:	8b 45 cc             	mov    -0x34(%ebp),%eax
40009de3:	3b 45 0c             	cmp    0xc(%ebp),%eax
40009de6:	73 0a                	jae    40009df2 <format_int+0x28a>
40009de8:	8b 45 08             	mov    0x8(%ebp),%eax
40009deb:	c6 00 30             	movb   $0x30,(%eax)
40009dee:	83 45 08 01          	addl   $0x1,0x8(%ebp)
40009df2:	83 45 cc 01          	addl   $0x1,-0x34(%ebp)
40009df6:	83 6d 20 01          	subl   $0x1,0x20(%ebp)
40009dfa:	8b 45 20             	mov    0x20(%ebp),%eax
40009dfd:	3b 45 ec             	cmp    -0x14(%ebp),%eax
40009e00:	7f de                	jg     40009de0 <format_int+0x278>
40009e02:	8b 45 e8             	mov    -0x18(%ebp),%eax
40009e05:	01 45 08             	add    %eax,0x8(%ebp)
40009e08:	8b 45 e8             	mov    -0x18(%ebp),%eax
40009e0b:	01 45 cc             	add    %eax,-0x34(%ebp)
40009e0e:	8b 45 08             	mov    0x8(%ebp),%eax
40009e11:	89 45 c8             	mov    %eax,-0x38(%ebp)
40009e14:	8b 45 cc             	mov    -0x34(%ebp),%eax
40009e17:	89 45 d0             	mov    %eax,-0x30(%ebp)
40009e1a:	8b 45 f0             	mov    -0x10(%ebp),%eax
40009e1d:	89 45 f4             	mov    %eax,-0xc(%ebp)
40009e20:	e9 9b 00 00 00       	jmp    40009ec0 <format_int+0x358>
40009e25:	83 7d f4 00          	cmpl   $0x0,-0xc(%ebp)
40009e29:	0f 94 c0             	sete   %al
40009e2c:	83 6d f4 01          	subl   $0x1,-0xc(%ebp)
40009e30:	84 c0                	test   %al,%al
40009e32:	74 23                	je     40009e57 <format_int+0x2ef>
40009e34:	83 6d c8 01          	subl   $0x1,-0x38(%ebp)
40009e38:	83 6d d0 01          	subl   $0x1,-0x30(%ebp)
40009e3c:	83 6d e8 01          	subl   $0x1,-0x18(%ebp)
40009e40:	8b 45 d0             	mov    -0x30(%ebp),%eax
40009e43:	3b 45 0c             	cmp    0xc(%ebp),%eax
40009e46:	73 06                	jae    40009e4e <format_int+0x2e6>
40009e48:	8b 45 c8             	mov    -0x38(%ebp),%eax
40009e4b:	c6 00 5f             	movb   $0x5f,(%eax)
40009e4e:	8b 45 f0             	mov    -0x10(%ebp),%eax
40009e51:	83 e8 01             	sub    $0x1,%eax
40009e54:	89 45 f4             	mov    %eax,-0xc(%ebp)
40009e57:	83 6d c8 01          	subl   $0x1,-0x38(%ebp)
40009e5b:	83 6d d0 01          	subl   $0x1,-0x30(%ebp)
40009e5f:	83 6d e8 01          	subl   $0x1,-0x18(%ebp)
40009e63:	8b 45 d0             	mov    -0x30(%ebp),%eax
40009e66:	3b 45 0c             	cmp    0xc(%ebp),%eax
40009e69:	73 2d                	jae    40009e98 <format_int+0x330>
40009e6b:	8b 45 1c             	mov    0x1c(%ebp),%eax
40009e6e:	89 c2                	mov    %eax,%edx
40009e70:	c1 fa 1f             	sar    $0x1f,%edx
40009e73:	8b 4d c0             	mov    -0x40(%ebp),%ecx
40009e76:	8b 5d c4             	mov    -0x3c(%ebp),%ebx
40009e79:	89 44 24 08          	mov    %eax,0x8(%esp)
40009e7d:	89 54 24 0c          	mov    %edx,0xc(%esp)
40009e81:	89 0c 24             	mov    %ecx,(%esp)
40009e84:	89 5c 24 04          	mov    %ebx,0x4(%esp)
40009e88:	e8 63 50 00 00       	call   4000eef0 <__umoddi3>
40009e8d:	03 45 d4             	add    -0x2c(%ebp),%eax
40009e90:	0f b6 10             	movzbl (%eax),%edx
40009e93:	8b 45 c8             	mov    -0x38(%ebp),%eax
40009e96:	88 10                	mov    %dl,(%eax)
40009e98:	8b 45 1c             	mov    0x1c(%ebp),%eax
40009e9b:	89 c2                	mov    %eax,%edx
40009e9d:	c1 fa 1f             	sar    $0x1f,%edx
40009ea0:	89 44 24 08          	mov    %eax,0x8(%esp)
40009ea4:	89 54 24 0c          	mov    %edx,0xc(%esp)
40009ea8:	8b 45 c0             	mov    -0x40(%ebp),%eax
40009eab:	8b 55 c4             	mov    -0x3c(%ebp),%edx
40009eae:	89 04 24             	mov    %eax,(%esp)
40009eb1:	89 54 24 04          	mov    %edx,0x4(%esp)
40009eb5:	e8 d6 4e 00 00       	call   4000ed90 <__udivdi3>
40009eba:	89 45 c0             	mov    %eax,-0x40(%ebp)
40009ebd:	89 55 c4             	mov    %edx,-0x3c(%ebp)
40009ec0:	83 7d e8 00          	cmpl   $0x0,-0x18(%ebp)
40009ec4:	0f 8f 5b ff ff ff    	jg     40009e25 <format_int+0x2bd>
40009eca:	eb 1a                	jmp    40009ee6 <format_int+0x37e>
40009ecc:	8b 45 cc             	mov    -0x34(%ebp),%eax
40009ecf:	3b 45 0c             	cmp    0xc(%ebp),%eax
40009ed2:	73 0a                	jae    40009ede <format_int+0x376>
40009ed4:	8b 45 08             	mov    0x8(%ebp),%eax
40009ed7:	c6 00 20             	movb   $0x20,(%eax)
40009eda:	83 45 08 01          	addl   $0x1,0x8(%ebp)
40009ede:	83 45 cc 01          	addl   $0x1,-0x34(%ebp)
40009ee2:	83 6d 20 01          	subl   $0x1,0x20(%ebp)
40009ee6:	8b 45 18             	mov    0x18(%ebp),%eax
40009ee9:	83 e0 02             	and    $0x2,%eax
40009eec:	85 c0                	test   %eax,%eax
40009eee:	74 08                	je     40009ef8 <format_int+0x390>
40009ef0:	8b 45 20             	mov    0x20(%ebp),%eax
40009ef3:	3b 45 ec             	cmp    -0x14(%ebp),%eax
40009ef6:	7f d4                	jg     40009ecc <format_int+0x364>
40009ef8:	8b 45 cc             	mov    -0x34(%ebp),%eax
40009efb:	83 c4 64             	add    $0x64,%esp
40009efe:	5b                   	pop    %ebx
40009eff:	5d                   	pop    %ebp
40009f00:	c3                   	ret    

40009f01 <vsnprintf>:
40009f01:	55                   	push   %ebp
40009f02:	89 e5                	mov    %esp,%ebp
40009f04:	81 ec 98 00 00 00    	sub    $0x98,%esp
40009f0a:	8b 45 10             	mov    0x10(%ebp),%eax
40009f0d:	89 45 b8             	mov    %eax,-0x48(%ebp)
40009f10:	8b 45 08             	mov    0x8(%ebp),%eax
40009f13:	89 45 c0             	mov    %eax,-0x40(%ebp)
40009f16:	c7 45 c4 00 00 00 00 	movl   $0x0,-0x3c(%ebp)
40009f1d:	c7 45 c8 00 00 00 00 	movl   $0x0,-0x38(%ebp)
40009f24:	c7 45 cc 00 00 00 00 	movl   $0x0,-0x34(%ebp)
40009f2b:	c7 45 d0 00 00 00 00 	movl   $0x0,-0x30(%ebp)
40009f32:	c7 45 d4 00 00 00 00 	movl   $0x0,-0x2c(%ebp)
40009f39:	c7 45 d8 ff ff ff ff 	movl   $0xffffffff,-0x28(%ebp)
40009f40:	c7 45 e4 00 00 00 00 	movl   $0x0,-0x1c(%ebp)
40009f47:	c7 45 e8 00 00 00 00 	movl   $0x0,-0x18(%ebp)
40009f4e:	e9 69 06 00 00       	jmp    4000a5bc <vsnprintf+0x6bb>
40009f53:	83 7d e8 04          	cmpl   $0x4,-0x18(%ebp)
40009f57:	0f 87 5f 06 00 00    	ja     4000a5bc <vsnprintf+0x6bb>
40009f5d:	8b 45 e8             	mov    -0x18(%ebp),%eax
40009f60:	c1 e0 02             	shl    $0x2,%eax
40009f63:	8b 80 80 f3 00 40    	mov    0x4000f380(%eax),%eax
40009f69:	ff e0                	jmp    *%eax
40009f6b:	80 7d bf 25          	cmpb   $0x25,-0x41(%ebp)
40009f6f:	75 28                	jne    40009f99 <vsnprintf+0x98>
40009f71:	c7 45 e8 01 00 00 00 	movl   $0x1,-0x18(%ebp)
40009f78:	c7 45 e4 00 00 00 00 	movl   $0x0,-0x1c(%ebp)
40009f7f:	c7 45 d0 00 00 00 00 	movl   $0x0,-0x30(%ebp)
40009f86:	c7 45 d4 00 00 00 00 	movl   $0x0,-0x2c(%ebp)
40009f8d:	c7 45 d8 ff ff ff ff 	movl   $0xffffffff,-0x28(%ebp)
40009f94:	e9 23 06 00 00       	jmp    4000a5bc <vsnprintf+0x6bb>
40009f99:	8b 45 c4             	mov    -0x3c(%ebp),%eax
40009f9c:	3b 45 0c             	cmp    0xc(%ebp),%eax
40009f9f:	73 0d                	jae    40009fae <vsnprintf+0xad>
40009fa1:	8b 55 c0             	mov    -0x40(%ebp),%edx
40009fa4:	0f b6 45 bf          	movzbl -0x41(%ebp),%eax
40009fa8:	88 02                	mov    %al,(%edx)
40009faa:	83 45 c0 01          	addl   $0x1,-0x40(%ebp)
40009fae:	83 45 c4 01          	addl   $0x1,-0x3c(%ebp)
40009fb2:	e9 05 06 00 00       	jmp    4000a5bc <vsnprintf+0x6bb>
40009fb7:	0f be 45 bf          	movsbl -0x41(%ebp),%eax
40009fbb:	83 e8 20             	sub    $0x20,%eax
40009fbe:	89 45 a0             	mov    %eax,-0x60(%ebp)
40009fc1:	83 7d a0 10          	cmpl   $0x10,-0x60(%ebp)
40009fc5:	77 42                	ja     4000a009 <vsnprintf+0x108>
40009fc7:	8b 55 a0             	mov    -0x60(%ebp),%edx
40009fca:	8b 04 95 94 f3 00 40 	mov    0x4000f394(,%edx,4),%eax
40009fd1:	ff e0                	jmp    *%eax
40009fd3:	83 4d e4 02          	orl    $0x2,-0x1c(%ebp)
40009fd7:	e9 e0 05 00 00       	jmp    4000a5bc <vsnprintf+0x6bb>
40009fdc:	83 4d e4 04          	orl    $0x4,-0x1c(%ebp)
40009fe0:	e9 d7 05 00 00       	jmp    4000a5bc <vsnprintf+0x6bb>
40009fe5:	83 4d e4 08          	orl    $0x8,-0x1c(%ebp)
40009fe9:	e9 ce 05 00 00       	jmp    4000a5bc <vsnprintf+0x6bb>
40009fee:	83 4d e4 10          	orl    $0x10,-0x1c(%ebp)
40009ff2:	e9 c5 05 00 00       	jmp    4000a5bc <vsnprintf+0x6bb>
40009ff7:	83 4d e4 20          	orl    $0x20,-0x1c(%ebp)
40009ffb:	e9 bc 05 00 00       	jmp    4000a5bc <vsnprintf+0x6bb>
4000a000:	83 4d e4 01          	orl    $0x1,-0x1c(%ebp)
4000a004:	e9 b3 05 00 00       	jmp    4000a5bc <vsnprintf+0x6bb>
4000a009:	c7 45 e8 02 00 00 00 	movl   $0x2,-0x18(%ebp)
4000a010:	83 6d b8 01          	subl   $0x1,-0x48(%ebp)
4000a014:	e9 a3 05 00 00       	jmp    4000a5bc <vsnprintf+0x6bb>
4000a019:	80 7d bf 2f          	cmpb   $0x2f,-0x41(%ebp)
4000a01d:	7e 26                	jle    4000a045 <vsnprintf+0x144>
4000a01f:	80 7d bf 39          	cmpb   $0x39,-0x41(%ebp)
4000a023:	7f 20                	jg     4000a045 <vsnprintf+0x144>
4000a025:	8b 55 d4             	mov    -0x2c(%ebp),%edx
4000a028:	89 d0                	mov    %edx,%eax
4000a02a:	c1 e0 02             	shl    $0x2,%eax
4000a02d:	01 d0                	add    %edx,%eax
4000a02f:	01 c0                	add    %eax,%eax
4000a031:	89 c2                	mov    %eax,%edx
4000a033:	0f be 45 bf          	movsbl -0x41(%ebp),%eax
4000a037:	83 e8 30             	sub    $0x30,%eax
4000a03a:	8d 04 02             	lea    (%edx,%eax,1),%eax
4000a03d:	89 45 d4             	mov    %eax,-0x2c(%ebp)
4000a040:	e9 77 05 00 00       	jmp    4000a5bc <vsnprintf+0x6bb>
4000a045:	80 7d bf 2a          	cmpb   $0x2a,-0x41(%ebp)
4000a049:	75 26                	jne    4000a071 <vsnprintf+0x170>
4000a04b:	8b 55 14             	mov    0x14(%ebp),%edx
4000a04e:	8d 42 04             	lea    0x4(%edx),%eax
4000a051:	89 45 14             	mov    %eax,0x14(%ebp)
4000a054:	89 d0                	mov    %edx,%eax
4000a056:	8b 00                	mov    (%eax),%eax
4000a058:	89 45 d4             	mov    %eax,-0x2c(%ebp)
4000a05b:	83 7d d4 00          	cmpl   $0x0,-0x2c(%ebp)
4000a05f:	0f 89 57 05 00 00    	jns    4000a5bc <vsnprintf+0x6bb>
4000a065:	f7 5d d4             	negl   -0x2c(%ebp)
4000a068:	83 4d e4 02          	orl    $0x2,-0x1c(%ebp)
4000a06c:	e9 4b 05 00 00       	jmp    4000a5bc <vsnprintf+0x6bb>
4000a071:	80 7d bf 2e          	cmpb   $0x2e,-0x41(%ebp)
4000a075:	75 13                	jne    4000a08a <vsnprintf+0x189>
4000a077:	c7 45 d8 00 00 00 00 	movl   $0x0,-0x28(%ebp)
4000a07e:	c7 45 e8 03 00 00 00 	movl   $0x3,-0x18(%ebp)
4000a085:	e9 32 05 00 00       	jmp    4000a5bc <vsnprintf+0x6bb>
4000a08a:	c7 45 e8 04 00 00 00 	movl   $0x4,-0x18(%ebp)
4000a091:	83 6d b8 01          	subl   $0x1,-0x48(%ebp)
4000a095:	e9 22 05 00 00       	jmp    4000a5bc <vsnprintf+0x6bb>
4000a09a:	80 7d bf 2f          	cmpb   $0x2f,-0x41(%ebp)
4000a09e:	7e 26                	jle    4000a0c6 <vsnprintf+0x1c5>
4000a0a0:	80 7d bf 39          	cmpb   $0x39,-0x41(%ebp)
4000a0a4:	7f 20                	jg     4000a0c6 <vsnprintf+0x1c5>
4000a0a6:	8b 55 d8             	mov    -0x28(%ebp),%edx
4000a0a9:	89 d0                	mov    %edx,%eax
4000a0ab:	c1 e0 02             	shl    $0x2,%eax
4000a0ae:	01 d0                	add    %edx,%eax
4000a0b0:	01 c0                	add    %eax,%eax
4000a0b2:	89 c2                	mov    %eax,%edx
4000a0b4:	0f be 45 bf          	movsbl -0x41(%ebp),%eax
4000a0b8:	83 e8 30             	sub    $0x30,%eax
4000a0bb:	8d 04 02             	lea    (%edx,%eax,1),%eax
4000a0be:	89 45 d8             	mov    %eax,-0x28(%ebp)
4000a0c1:	e9 f6 04 00 00       	jmp    4000a5bc <vsnprintf+0x6bb>
4000a0c6:	80 7d bf 2a          	cmpb   $0x2a,-0x41(%ebp)
4000a0ca:	75 26                	jne    4000a0f2 <vsnprintf+0x1f1>
4000a0cc:	8b 55 14             	mov    0x14(%ebp),%edx
4000a0cf:	8d 42 04             	lea    0x4(%edx),%eax
4000a0d2:	89 45 14             	mov    %eax,0x14(%ebp)
4000a0d5:	89 d0                	mov    %edx,%eax
4000a0d7:	8b 00                	mov    (%eax),%eax
4000a0d9:	89 45 d8             	mov    %eax,-0x28(%ebp)
4000a0dc:	83 7d d8 00          	cmpl   $0x0,-0x28(%ebp)
4000a0e0:	0f 89 d6 04 00 00    	jns    4000a5bc <vsnprintf+0x6bb>
4000a0e6:	c7 45 d8 ff ff ff ff 	movl   $0xffffffff,-0x28(%ebp)
4000a0ed:	e9 ca 04 00 00       	jmp    4000a5bc <vsnprintf+0x6bb>
4000a0f2:	c7 45 e8 04 00 00 00 	movl   $0x4,-0x18(%ebp)
4000a0f9:	83 6d b8 01          	subl   $0x1,-0x48(%ebp)
4000a0fd:	e9 ba 04 00 00       	jmp    4000a5bc <vsnprintf+0x6bb>
4000a102:	0f be 45 bf          	movsbl -0x41(%ebp),%eax
4000a106:	83 e8 4c             	sub    $0x4c,%eax
4000a109:	89 45 9c             	mov    %eax,-0x64(%ebp)
4000a10c:	83 7d 9c 2e          	cmpl   $0x2e,-0x64(%ebp)
4000a110:	77 4b                	ja     4000a15d <vsnprintf+0x25c>
4000a112:	8b 4d 9c             	mov    -0x64(%ebp),%ecx
4000a115:	8b 04 8d d8 f3 00 40 	mov    0x4000f3d8(,%ecx,4),%eax
4000a11c:	ff e0                	jmp    *%eax
4000a11e:	83 6d d0 01          	subl   $0x1,-0x30(%ebp)
4000a122:	e9 95 04 00 00       	jmp    4000a5bc <vsnprintf+0x6bb>
4000a127:	83 45 d0 01          	addl   $0x1,-0x30(%ebp)
4000a12b:	e9 8c 04 00 00       	jmp    4000a5bc <vsnprintf+0x6bb>
4000a130:	c7 45 d0 02 00 00 00 	movl   $0x2,-0x30(%ebp)
4000a137:	e9 80 04 00 00       	jmp    4000a5bc <vsnprintf+0x6bb>
4000a13c:	c7 45 d0 01 00 00 00 	movl   $0x1,-0x30(%ebp)
4000a143:	e9 74 04 00 00       	jmp    4000a5bc <vsnprintf+0x6bb>
4000a148:	c7 45 d0 01 00 00 00 	movl   $0x1,-0x30(%ebp)
4000a14f:	e9 68 04 00 00       	jmp    4000a5bc <vsnprintf+0x6bb>
4000a154:	83 45 d0 02          	addl   $0x2,-0x30(%ebp)
4000a158:	e9 5f 04 00 00       	jmp    4000a5bc <vsnprintf+0x6bb>
4000a15d:	c7 45 e8 00 00 00 00 	movl   $0x0,-0x18(%ebp)
4000a164:	83 7d d0 fe          	cmpl   $0xfffffffe,-0x30(%ebp)
4000a168:	7d 09                	jge    4000a173 <vsnprintf+0x272>
4000a16a:	c7 45 d0 fe ff ff ff 	movl   $0xfffffffe,-0x30(%ebp)
4000a171:	eb 0d                	jmp    4000a180 <vsnprintf+0x27f>
4000a173:	83 7d d0 02          	cmpl   $0x2,-0x30(%ebp)
4000a177:	7e 07                	jle    4000a180 <vsnprintf+0x27f>
4000a179:	c7 45 d0 02 00 00 00 	movl   $0x2,-0x30(%ebp)
4000a180:	0f be 45 bf          	movsbl -0x41(%ebp),%eax
4000a184:	83 e8 50             	sub    $0x50,%eax
4000a187:	89 45 98             	mov    %eax,-0x68(%ebp)
4000a18a:	83 7d 98 28          	cmpl   $0x28,-0x68(%ebp)
4000a18e:	0f 87 0f 04 00 00    	ja     4000a5a3 <vsnprintf+0x6a2>
4000a194:	8b 55 98             	mov    -0x68(%ebp),%edx
4000a197:	8b 04 95 94 f4 00 40 	mov    0x4000f494(,%edx,4),%eax
4000a19e:	ff e0                	jmp    *%eax
4000a1a0:	81 4d e4 80 00 00 00 	orl    $0x80,-0x1c(%ebp)
4000a1a7:	c7 45 dc 10 00 00 00 	movl   $0x10,-0x24(%ebp)
4000a1ae:	c7 45 d8 08 00 00 00 	movl   $0x8,-0x28(%ebp)
4000a1b5:	83 4d e4 20          	orl    $0x20,-0x1c(%ebp)
4000a1b9:	8b 55 14             	mov    0x14(%ebp),%edx
4000a1bc:	8d 42 04             	lea    0x4(%edx),%eax
4000a1bf:	89 45 14             	mov    %eax,0x14(%ebp)
4000a1c2:	89 d0                	mov    %edx,%eax
4000a1c4:	8b 00                	mov    (%eax),%eax
4000a1c6:	ba 00 00 00 00       	mov    $0x0,%edx
4000a1cb:	89 45 c8             	mov    %eax,-0x38(%ebp)
4000a1ce:	89 55 cc             	mov    %edx,-0x34(%ebp)
4000a1d1:	e9 98 01 00 00       	jmp    4000a36e <vsnprintf+0x46d>
4000a1d6:	c7 45 dc 0a 00 00 00 	movl   $0xa,-0x24(%ebp)
4000a1dd:	83 4d e4 40          	orl    $0x40,-0x1c(%ebp)
4000a1e1:	8b 45 d0             	mov    -0x30(%ebp),%eax
4000a1e4:	83 c0 02             	add    $0x2,%eax
4000a1e7:	89 45 94             	mov    %eax,-0x6c(%ebp)
4000a1ea:	83 7d 94 04          	cmpl   $0x4,-0x6c(%ebp)
4000a1ee:	0f 87 7a 01 00 00    	ja     4000a36e <vsnprintf+0x46d>
4000a1f4:	8b 4d 94             	mov    -0x6c(%ebp),%ecx
4000a1f7:	8b 04 8d 38 f5 00 40 	mov    0x4000f538(,%ecx,4),%eax
4000a1fe:	ff e0                	jmp    *%eax
4000a200:	8b 55 14             	mov    0x14(%ebp),%edx
4000a203:	8d 42 04             	lea    0x4(%edx),%eax
4000a206:	89 45 14             	mov    %eax,0x14(%ebp)
4000a209:	89 d0                	mov    %edx,%eax
4000a20b:	8b 00                	mov    (%eax),%eax
4000a20d:	0f be c0             	movsbl %al,%eax
4000a210:	89 45 c8             	mov    %eax,-0x38(%ebp)
4000a213:	8b 45 c8             	mov    -0x38(%ebp),%eax
4000a216:	89 c2                	mov    %eax,%edx
4000a218:	c1 fa 1f             	sar    $0x1f,%edx
4000a21b:	89 45 c8             	mov    %eax,-0x38(%ebp)
4000a21e:	89 55 cc             	mov    %edx,-0x34(%ebp)
4000a221:	e9 48 01 00 00       	jmp    4000a36e <vsnprintf+0x46d>
4000a226:	8b 55 14             	mov    0x14(%ebp),%edx
4000a229:	8d 42 04             	lea    0x4(%edx),%eax
4000a22c:	89 45 14             	mov    %eax,0x14(%ebp)
4000a22f:	89 d0                	mov    %edx,%eax
4000a231:	8b 00                	mov    (%eax),%eax
4000a233:	98                   	cwtl   
4000a234:	89 45 c8             	mov    %eax,-0x38(%ebp)
4000a237:	8b 45 c8             	mov    -0x38(%ebp),%eax
4000a23a:	89 c2                	mov    %eax,%edx
4000a23c:	c1 fa 1f             	sar    $0x1f,%edx
4000a23f:	89 45 c8             	mov    %eax,-0x38(%ebp)
4000a242:	89 55 cc             	mov    %edx,-0x34(%ebp)
4000a245:	e9 24 01 00 00       	jmp    4000a36e <vsnprintf+0x46d>
4000a24a:	8b 55 14             	mov    0x14(%ebp),%edx
4000a24d:	8d 42 04             	lea    0x4(%edx),%eax
4000a250:	89 45 14             	mov    %eax,0x14(%ebp)
4000a253:	89 d0                	mov    %edx,%eax
4000a255:	8b 00                	mov    (%eax),%eax
4000a257:	89 c2                	mov    %eax,%edx
4000a259:	c1 fa 1f             	sar    $0x1f,%edx
4000a25c:	89 45 c8             	mov    %eax,-0x38(%ebp)
4000a25f:	89 55 cc             	mov    %edx,-0x34(%ebp)
4000a262:	e9 07 01 00 00       	jmp    4000a36e <vsnprintf+0x46d>
4000a267:	8b 55 14             	mov    0x14(%ebp),%edx
4000a26a:	8d 42 04             	lea    0x4(%edx),%eax
4000a26d:	89 45 14             	mov    %eax,0x14(%ebp)
4000a270:	89 d0                	mov    %edx,%eax
4000a272:	8b 00                	mov    (%eax),%eax
4000a274:	89 c2                	mov    %eax,%edx
4000a276:	c1 fa 1f             	sar    $0x1f,%edx
4000a279:	89 45 c8             	mov    %eax,-0x38(%ebp)
4000a27c:	89 55 cc             	mov    %edx,-0x34(%ebp)
4000a27f:	e9 ea 00 00 00       	jmp    4000a36e <vsnprintf+0x46d>
4000a284:	8b 55 14             	mov    0x14(%ebp),%edx
4000a287:	8d 42 08             	lea    0x8(%edx),%eax
4000a28a:	89 45 14             	mov    %eax,0x14(%ebp)
4000a28d:	89 d0                	mov    %edx,%eax
4000a28f:	8b 50 04             	mov    0x4(%eax),%edx
4000a292:	8b 00                	mov    (%eax),%eax
4000a294:	89 45 c8             	mov    %eax,-0x38(%ebp)
4000a297:	89 55 cc             	mov    %edx,-0x34(%ebp)
4000a29a:	e9 cf 00 00 00       	jmp    4000a36e <vsnprintf+0x46d>
4000a29f:	c7 45 dc 08 00 00 00 	movl   $0x8,-0x24(%ebp)
4000a2a6:	eb 17                	jmp    4000a2bf <vsnprintf+0x3be>
4000a2a8:	c7 45 dc 0a 00 00 00 	movl   $0xa,-0x24(%ebp)
4000a2af:	eb 0e                	jmp    4000a2bf <vsnprintf+0x3be>
4000a2b1:	81 4d e4 80 00 00 00 	orl    $0x80,-0x1c(%ebp)
4000a2b8:	c7 45 dc 10 00 00 00 	movl   $0x10,-0x24(%ebp)
4000a2bf:	8b 45 d0             	mov    -0x30(%ebp),%eax
4000a2c2:	83 c0 02             	add    $0x2,%eax
4000a2c5:	89 45 90             	mov    %eax,-0x70(%ebp)
4000a2c8:	83 7d 90 04          	cmpl   $0x4,-0x70(%ebp)
4000a2cc:	0f 87 9c 00 00 00    	ja     4000a36e <vsnprintf+0x46d>
4000a2d2:	8b 55 90             	mov    -0x70(%ebp),%edx
4000a2d5:	8b 04 95 4c f5 00 40 	mov    0x4000f54c(,%edx,4),%eax
4000a2dc:	ff e0                	jmp    *%eax
4000a2de:	8b 55 14             	mov    0x14(%ebp),%edx
4000a2e1:	8d 42 04             	lea    0x4(%edx),%eax
4000a2e4:	89 45 14             	mov    %eax,0x14(%ebp)
4000a2e7:	89 d0                	mov    %edx,%eax
4000a2e9:	8b 00                	mov    (%eax),%eax
4000a2eb:	0f b6 c0             	movzbl %al,%eax
4000a2ee:	89 45 c8             	mov    %eax,-0x38(%ebp)
4000a2f1:	8b 45 c8             	mov    -0x38(%ebp),%eax
4000a2f4:	ba 00 00 00 00       	mov    $0x0,%edx
4000a2f9:	89 45 c8             	mov    %eax,-0x38(%ebp)
4000a2fc:	89 55 cc             	mov    %edx,-0x34(%ebp)
4000a2ff:	eb 6d                	jmp    4000a36e <vsnprintf+0x46d>
4000a301:	8b 55 14             	mov    0x14(%ebp),%edx
4000a304:	8d 42 04             	lea    0x4(%edx),%eax
4000a307:	89 45 14             	mov    %eax,0x14(%ebp)
4000a30a:	89 d0                	mov    %edx,%eax
4000a30c:	8b 00                	mov    (%eax),%eax
4000a30e:	0f b7 c0             	movzwl %ax,%eax
4000a311:	89 45 c8             	mov    %eax,-0x38(%ebp)
4000a314:	8b 45 c8             	mov    -0x38(%ebp),%eax
4000a317:	ba 00 00 00 00       	mov    $0x0,%edx
4000a31c:	89 45 c8             	mov    %eax,-0x38(%ebp)
4000a31f:	89 55 cc             	mov    %edx,-0x34(%ebp)
4000a322:	eb 4a                	jmp    4000a36e <vsnprintf+0x46d>
4000a324:	8b 55 14             	mov    0x14(%ebp),%edx
4000a327:	8d 42 04             	lea    0x4(%edx),%eax
4000a32a:	89 45 14             	mov    %eax,0x14(%ebp)
4000a32d:	89 d0                	mov    %edx,%eax
4000a32f:	8b 00                	mov    (%eax),%eax
4000a331:	ba 00 00 00 00       	mov    $0x0,%edx
4000a336:	89 45 c8             	mov    %eax,-0x38(%ebp)
4000a339:	89 55 cc             	mov    %edx,-0x34(%ebp)
4000a33c:	eb 30                	jmp    4000a36e <vsnprintf+0x46d>
4000a33e:	8b 55 14             	mov    0x14(%ebp),%edx
4000a341:	8d 42 04             	lea    0x4(%edx),%eax
4000a344:	89 45 14             	mov    %eax,0x14(%ebp)
4000a347:	89 d0                	mov    %edx,%eax
4000a349:	8b 00                	mov    (%eax),%eax
4000a34b:	ba 00 00 00 00       	mov    $0x0,%edx
4000a350:	89 45 c8             	mov    %eax,-0x38(%ebp)
4000a353:	89 55 cc             	mov    %edx,-0x34(%ebp)
4000a356:	eb 16                	jmp    4000a36e <vsnprintf+0x46d>
4000a358:	8b 55 14             	mov    0x14(%ebp),%edx
4000a35b:	8d 42 08             	lea    0x8(%edx),%eax
4000a35e:	89 45 14             	mov    %eax,0x14(%ebp)
4000a361:	89 d0                	mov    %edx,%eax
4000a363:	8b 50 04             	mov    0x4(%eax),%edx
4000a366:	8b 00                	mov    (%eax),%eax
4000a368:	89 45 c8             	mov    %eax,-0x38(%ebp)
4000a36b:	89 55 cc             	mov    %edx,-0x34(%ebp)
4000a36e:	8b 45 c4             	mov    -0x3c(%ebp),%eax
4000a371:	3b 45 0c             	cmp    0xc(%ebp),%eax
4000a374:	73 0f                	jae    4000a385 <vsnprintf+0x484>
4000a376:	8b 55 c4             	mov    -0x3c(%ebp),%edx
4000a379:	8b 45 0c             	mov    0xc(%ebp),%eax
4000a37c:	89 c1                	mov    %eax,%ecx
4000a37e:	29 d1                	sub    %edx,%ecx
4000a380:	89 4d a4             	mov    %ecx,-0x5c(%ebp)
4000a383:	eb 07                	jmp    4000a38c <vsnprintf+0x48b>
4000a385:	c7 45 a4 00 00 00 00 	movl   $0x0,-0x5c(%ebp)
4000a38c:	8b 45 d8             	mov    -0x28(%ebp),%eax
4000a38f:	89 44 24 1c          	mov    %eax,0x1c(%esp)
4000a393:	8b 45 d4             	mov    -0x2c(%ebp),%eax
4000a396:	89 44 24 18          	mov    %eax,0x18(%esp)
4000a39a:	8b 45 dc             	mov    -0x24(%ebp),%eax
4000a39d:	89 44 24 14          	mov    %eax,0x14(%esp)
4000a3a1:	8b 45 e4             	mov    -0x1c(%ebp),%eax
4000a3a4:	89 44 24 10          	mov    %eax,0x10(%esp)
4000a3a8:	8b 45 c8             	mov    -0x38(%ebp),%eax
4000a3ab:	8b 55 cc             	mov    -0x34(%ebp),%edx
4000a3ae:	89 44 24 08          	mov    %eax,0x8(%esp)
4000a3b2:	89 54 24 0c          	mov    %edx,0xc(%esp)
4000a3b6:	8b 45 a4             	mov    -0x5c(%ebp),%eax
4000a3b9:	89 44 24 04          	mov    %eax,0x4(%esp)
4000a3bd:	8b 45 c0             	mov    -0x40(%ebp),%eax
4000a3c0:	89 04 24             	mov    %eax,(%esp)
4000a3c3:	e8 a0 f7 ff ff       	call   40009b68 <format_int>
4000a3c8:	89 45 e0             	mov    %eax,-0x20(%ebp)
4000a3cb:	8b 45 e0             	mov    -0x20(%ebp),%eax
4000a3ce:	01 45 c0             	add    %eax,-0x40(%ebp)
4000a3d1:	8b 45 e0             	mov    -0x20(%ebp),%eax
4000a3d4:	01 45 c4             	add    %eax,-0x3c(%ebp)
4000a3d7:	e9 e0 01 00 00       	jmp    4000a5bc <vsnprintf+0x6bb>
4000a3dc:	8b 55 14             	mov    0x14(%ebp),%edx
4000a3df:	8d 42 04             	lea    0x4(%edx),%eax
4000a3e2:	89 45 14             	mov    %eax,0x14(%ebp)
4000a3e5:	89 d0                	mov    %edx,%eax
4000a3e7:	8b 00                	mov    (%eax),%eax
4000a3e9:	88 45 b7             	mov    %al,-0x49(%ebp)
4000a3ec:	8d 45 b7             	lea    -0x49(%ebp),%eax
4000a3ef:	89 45 ec             	mov    %eax,-0x14(%ebp)
4000a3f2:	c7 45 f0 01 00 00 00 	movl   $0x1,-0x10(%ebp)
4000a3f9:	eb 39                	jmp    4000a434 <vsnprintf+0x533>
4000a3fb:	8b 55 14             	mov    0x14(%ebp),%edx
4000a3fe:	8d 42 04             	lea    0x4(%edx),%eax
4000a401:	89 45 14             	mov    %eax,0x14(%ebp)
4000a404:	89 d0                	mov    %edx,%eax
4000a406:	8b 00                	mov    (%eax),%eax
4000a408:	89 45 ec             	mov    %eax,-0x14(%ebp)
4000a40b:	83 7d ec 00          	cmpl   $0x0,-0x14(%ebp)
4000a40f:	74 08                	je     4000a419 <vsnprintf+0x518>
4000a411:	8b 55 ec             	mov    -0x14(%ebp),%edx
4000a414:	89 55 a8             	mov    %edx,-0x58(%ebp)
4000a417:	eb 07                	jmp    4000a420 <vsnprintf+0x51f>
4000a419:	c7 45 a8 76 f3 00 40 	movl   $0x4000f376,-0x58(%ebp)
4000a420:	8b 4d a8             	mov    -0x58(%ebp),%ecx
4000a423:	89 4d ec             	mov    %ecx,-0x14(%ebp)
4000a426:	8b 45 ec             	mov    -0x14(%ebp),%eax
4000a429:	89 04 24             	mov    %eax,(%esp)
4000a42c:	e8 af 0f 00 00       	call   4000b3e0 <strlen>
4000a431:	89 45 f0             	mov    %eax,-0x10(%ebp)
4000a434:	83 7d d8 ff          	cmpl   $0xffffffff,-0x28(%ebp)
4000a438:	74 0e                	je     4000a448 <vsnprintf+0x547>
4000a43a:	8b 45 f0             	mov    -0x10(%ebp),%eax
4000a43d:	3b 45 d8             	cmp    -0x28(%ebp),%eax
4000a440:	7e 06                	jle    4000a448 <vsnprintf+0x547>
4000a442:	8b 45 d8             	mov    -0x28(%ebp),%eax
4000a445:	89 45 f0             	mov    %eax,-0x10(%ebp)
4000a448:	8b 45 d4             	mov    -0x2c(%ebp),%eax
4000a44b:	3b 45 f0             	cmp    -0x10(%ebp),%eax
4000a44e:	7e 4c                	jle    4000a49c <vsnprintf+0x59b>
4000a450:	8b 45 e4             	mov    -0x1c(%ebp),%eax
4000a453:	83 e0 02             	and    $0x2,%eax
4000a456:	85 c0                	test   %eax,%eax
4000a458:	75 42                	jne    4000a49c <vsnprintf+0x59b>
4000a45a:	8b 45 e4             	mov    -0x1c(%ebp),%eax
4000a45d:	83 e0 01             	and    $0x1,%eax
4000a460:	84 c0                	test   %al,%al
4000a462:	74 06                	je     4000a46a <vsnprintf+0x569>
4000a464:	c6 45 af 30          	movb   $0x30,-0x51(%ebp)
4000a468:	eb 04                	jmp    4000a46e <vsnprintf+0x56d>
4000a46a:	c6 45 af 20          	movb   $0x20,-0x51(%ebp)
4000a46e:	0f b6 45 af          	movzbl -0x51(%ebp),%eax
4000a472:	88 45 ff             	mov    %al,-0x1(%ebp)
4000a475:	eb 1d                	jmp    4000a494 <vsnprintf+0x593>
4000a477:	8b 45 c4             	mov    -0x3c(%ebp),%eax
4000a47a:	3b 45 0c             	cmp    0xc(%ebp),%eax
4000a47d:	73 0d                	jae    4000a48c <vsnprintf+0x58b>
4000a47f:	8b 55 c0             	mov    -0x40(%ebp),%edx
4000a482:	0f b6 45 ff          	movzbl -0x1(%ebp),%eax
4000a486:	88 02                	mov    %al,(%edx)
4000a488:	83 45 c0 01          	addl   $0x1,-0x40(%ebp)
4000a48c:	83 45 c4 01          	addl   $0x1,-0x3c(%ebp)
4000a490:	83 6d d4 01          	subl   $0x1,-0x2c(%ebp)
4000a494:	8b 45 d4             	mov    -0x2c(%ebp),%eax
4000a497:	3b 45 f0             	cmp    -0x10(%ebp),%eax
4000a49a:	7f db                	jg     4000a477 <vsnprintf+0x576>
4000a49c:	8b 45 f0             	mov    -0x10(%ebp),%eax
4000a49f:	89 45 f8             	mov    %eax,-0x8(%ebp)
4000a4a2:	eb 2a                	jmp    4000a4ce <vsnprintf+0x5cd>
4000a4a4:	8b 45 ec             	mov    -0x14(%ebp),%eax
4000a4a7:	0f b6 00             	movzbl (%eax),%eax
4000a4aa:	88 45 f7             	mov    %al,-0x9(%ebp)
4000a4ad:	83 45 ec 01          	addl   $0x1,-0x14(%ebp)
4000a4b1:	8b 45 c4             	mov    -0x3c(%ebp),%eax
4000a4b4:	3b 45 0c             	cmp    0xc(%ebp),%eax
4000a4b7:	73 0d                	jae    4000a4c6 <vsnprintf+0x5c5>
4000a4b9:	8b 55 c0             	mov    -0x40(%ebp),%edx
4000a4bc:	0f b6 45 f7          	movzbl -0x9(%ebp),%eax
4000a4c0:	88 02                	mov    %al,(%edx)
4000a4c2:	83 45 c0 01          	addl   $0x1,-0x40(%ebp)
4000a4c6:	83 45 c4 01          	addl   $0x1,-0x3c(%ebp)
4000a4ca:	83 6d f8 01          	subl   $0x1,-0x8(%ebp)
4000a4ce:	83 7d f8 00          	cmpl   $0x0,-0x8(%ebp)
4000a4d2:	75 d0                	jne    4000a4a4 <vsnprintf+0x5a3>
4000a4d4:	8b 45 d4             	mov    -0x2c(%ebp),%eax
4000a4d7:	3b 45 f0             	cmp    -0x10(%ebp),%eax
4000a4da:	0f 8e dc 00 00 00    	jle    4000a5bc <vsnprintf+0x6bb>
4000a4e0:	8b 45 e4             	mov    -0x1c(%ebp),%eax
4000a4e3:	83 e0 02             	and    $0x2,%eax
4000a4e6:	85 c0                	test   %eax,%eax
4000a4e8:	0f 84 ce 00 00 00    	je     4000a5bc <vsnprintf+0x6bb>
4000a4ee:	eb 1a                	jmp    4000a50a <vsnprintf+0x609>
4000a4f0:	8b 45 c4             	mov    -0x3c(%ebp),%eax
4000a4f3:	3b 45 0c             	cmp    0xc(%ebp),%eax
4000a4f6:	73 0a                	jae    4000a502 <vsnprintf+0x601>
4000a4f8:	8b 45 c0             	mov    -0x40(%ebp),%eax
4000a4fb:	c6 00 20             	movb   $0x20,(%eax)
4000a4fe:	83 45 c0 01          	addl   $0x1,-0x40(%ebp)
4000a502:	83 45 c4 01          	addl   $0x1,-0x3c(%ebp)
4000a506:	83 6d d4 01          	subl   $0x1,-0x2c(%ebp)
4000a50a:	8b 45 d4             	mov    -0x2c(%ebp),%eax
4000a50d:	3b 45 f0             	cmp    -0x10(%ebp),%eax
4000a510:	7f de                	jg     4000a4f0 <vsnprintf+0x5ef>
4000a512:	e9 a5 00 00 00       	jmp    4000a5bc <vsnprintf+0x6bb>
4000a517:	8b 45 d0             	mov    -0x30(%ebp),%eax
4000a51a:	83 c0 02             	add    $0x2,%eax
4000a51d:	89 45 8c             	mov    %eax,-0x74(%ebp)
4000a520:	83 7d 8c 04          	cmpl   $0x4,-0x74(%ebp)
4000a524:	0f 87 92 00 00 00    	ja     4000a5bc <vsnprintf+0x6bb>
4000a52a:	8b 55 8c             	mov    -0x74(%ebp),%edx
4000a52d:	8b 04 95 60 f5 00 40 	mov    0x4000f560(,%edx,4),%eax
4000a534:	ff e0                	jmp    *%eax
4000a536:	8b 55 14             	mov    0x14(%ebp),%edx
4000a539:	8d 42 04             	lea    0x4(%edx),%eax
4000a53c:	89 45 14             	mov    %eax,0x14(%ebp)
4000a53f:	89 d0                	mov    %edx,%eax
4000a541:	8b 10                	mov    (%eax),%edx
4000a543:	8b 45 c4             	mov    -0x3c(%ebp),%eax
4000a546:	88 02                	mov    %al,(%edx)
4000a548:	eb 72                	jmp    4000a5bc <vsnprintf+0x6bb>
4000a54a:	8b 55 14             	mov    0x14(%ebp),%edx
4000a54d:	8d 42 04             	lea    0x4(%edx),%eax
4000a550:	89 45 14             	mov    %eax,0x14(%ebp)
4000a553:	89 d0                	mov    %edx,%eax
4000a555:	8b 10                	mov    (%eax),%edx
4000a557:	8b 45 c4             	mov    -0x3c(%ebp),%eax
4000a55a:	66 89 02             	mov    %ax,(%edx)
4000a55d:	eb 5d                	jmp    4000a5bc <vsnprintf+0x6bb>
4000a55f:	8b 55 14             	mov    0x14(%ebp),%edx
4000a562:	8d 42 04             	lea    0x4(%edx),%eax
4000a565:	89 45 14             	mov    %eax,0x14(%ebp)
4000a568:	89 d0                	mov    %edx,%eax
4000a56a:	8b 10                	mov    (%eax),%edx
4000a56c:	8b 45 c4             	mov    -0x3c(%ebp),%eax
4000a56f:	89 02                	mov    %eax,(%edx)
4000a571:	eb 49                	jmp    4000a5bc <vsnprintf+0x6bb>
4000a573:	8b 55 14             	mov    0x14(%ebp),%edx
4000a576:	8d 42 04             	lea    0x4(%edx),%eax
4000a579:	89 45 14             	mov    %eax,0x14(%ebp)
4000a57c:	89 d0                	mov    %edx,%eax
4000a57e:	8b 10                	mov    (%eax),%edx
4000a580:	8b 45 c4             	mov    -0x3c(%ebp),%eax
4000a583:	89 02                	mov    %eax,(%edx)
4000a585:	eb 35                	jmp    4000a5bc <vsnprintf+0x6bb>
4000a587:	8b 55 14             	mov    0x14(%ebp),%edx
4000a58a:	8d 42 04             	lea    0x4(%edx),%eax
4000a58d:	89 45 14             	mov    %eax,0x14(%ebp)
4000a590:	89 d0                	mov    %edx,%eax
4000a592:	8b 08                	mov    (%eax),%ecx
4000a594:	8b 45 c4             	mov    -0x3c(%ebp),%eax
4000a597:	ba 00 00 00 00       	mov    $0x0,%edx
4000a59c:	89 01                	mov    %eax,(%ecx)
4000a59e:	89 51 04             	mov    %edx,0x4(%ecx)
4000a5a1:	eb 19                	jmp    4000a5bc <vsnprintf+0x6bb>
4000a5a3:	8b 45 c4             	mov    -0x3c(%ebp),%eax
4000a5a6:	3b 45 0c             	cmp    0xc(%ebp),%eax
4000a5a9:	73 0d                	jae    4000a5b8 <vsnprintf+0x6b7>
4000a5ab:	8b 55 c0             	mov    -0x40(%ebp),%edx
4000a5ae:	0f b6 45 bf          	movzbl -0x41(%ebp),%eax
4000a5b2:	88 02                	mov    %al,(%edx)
4000a5b4:	83 45 c0 01          	addl   $0x1,-0x40(%ebp)
4000a5b8:	83 45 c4 01          	addl   $0x1,-0x3c(%ebp)
4000a5bc:	8b 45 b8             	mov    -0x48(%ebp),%eax
4000a5bf:	0f b6 00             	movzbl (%eax),%eax
4000a5c2:	88 45 bf             	mov    %al,-0x41(%ebp)
4000a5c5:	80 7d bf 00          	cmpb   $0x0,-0x41(%ebp)
4000a5c9:	0f 95 c0             	setne  %al
4000a5cc:	83 45 b8 01          	addl   $0x1,-0x48(%ebp)
4000a5d0:	84 c0                	test   %al,%al
4000a5d2:	0f 85 7b f9 ff ff    	jne    40009f53 <vsnprintf+0x52>
4000a5d8:	8b 45 c4             	mov    -0x3c(%ebp),%eax
4000a5db:	3b 45 0c             	cmp    0xc(%ebp),%eax
4000a5de:	73 08                	jae    4000a5e8 <vsnprintf+0x6e7>
4000a5e0:	8b 45 c0             	mov    -0x40(%ebp),%eax
4000a5e3:	c6 00 00             	movb   $0x0,(%eax)
4000a5e6:	eb 12                	jmp    4000a5fa <vsnprintf+0x6f9>
4000a5e8:	83 7d 0c 00          	cmpl   $0x0,0xc(%ebp)
4000a5ec:	74 0c                	je     4000a5fa <vsnprintf+0x6f9>
4000a5ee:	8b 45 0c             	mov    0xc(%ebp),%eax
4000a5f1:	83 e8 01             	sub    $0x1,%eax
4000a5f4:	03 45 08             	add    0x8(%ebp),%eax
4000a5f7:	c6 00 00             	movb   $0x0,(%eax)
4000a5fa:	8b 45 c4             	mov    -0x3c(%ebp),%eax
4000a5fd:	c9                   	leave  
4000a5fe:	c3                   	ret    
4000a5ff:	90                   	nop    

4000a600 <vsscanf>:
4000a600:	55                   	push   %ebp
4000a601:	89 e5                	mov    %esp,%ebp
4000a603:	81 ec 98 00 00 00    	sub    $0x98,%esp
4000a609:	8b 45 0c             	mov    0xc(%ebp),%eax
4000a60c:	89 45 b4             	mov    %eax,-0x4c(%ebp)
4000a60f:	8b 45 08             	mov    0x8(%ebp),%eax
4000a612:	89 45 bc             	mov    %eax,-0x44(%ebp)
4000a615:	c7 45 c0 00 00 00 00 	movl   $0x0,-0x40(%ebp)
4000a61c:	c7 45 c4 00 00 00 00 	movl   $0x0,-0x3c(%ebp)
4000a623:	c7 45 cc 00 00 00 00 	movl   $0x0,-0x34(%ebp)
4000a62a:	c7 45 d0 ff ff ff ff 	movl   $0xffffffff,-0x30(%ebp)
4000a631:	c7 45 d8 00 00 00 00 	movl   $0x0,-0x28(%ebp)
4000a638:	c7 45 dc 00 00 00 00 	movl   $0x0,-0x24(%ebp)
4000a63f:	c7 45 e0 00 00 00 00 	movl   $0x0,-0x20(%ebp)
4000a646:	c7 45 e4 00 00 00 00 	movl   $0x0,-0x1c(%ebp)
4000a64d:	c7 45 ec 00 00 00 00 	movl   $0x0,-0x14(%ebp)
4000a654:	c7 45 f0 00 00 00 00 	movl   $0x0,-0x10(%ebp)
4000a65b:	c6 45 f7 00          	movb   $0x0,-0x9(%ebp)
4000a65f:	e9 3d 07 00 00       	jmp    4000ada1 <vsscanf+0x7a1>
4000a664:	83 7d dc 06          	cmpl   $0x6,-0x24(%ebp)
4000a668:	0f 87 33 07 00 00    	ja     4000ada1 <vsscanf+0x7a1>
4000a66e:	8b 45 dc             	mov    -0x24(%ebp),%eax
4000a671:	c1 e0 02             	shl    $0x2,%eax
4000a674:	8b 80 74 f5 00 40    	mov    0x4000f574(%eax),%eax
4000a67a:	ff e0                	jmp    *%eax
4000a67c:	80 7d ba 25          	cmpb   $0x25,-0x46(%ebp)
4000a680:	75 21                	jne    4000a6a3 <vsscanf+0xa3>
4000a682:	c7 45 dc 01 00 00 00 	movl   $0x1,-0x24(%ebp)
4000a689:	c7 45 d8 00 00 00 00 	movl   $0x0,-0x28(%ebp)
4000a690:	c7 45 cc 00 00 00 00 	movl   $0x0,-0x34(%ebp)
4000a697:	c7 45 d0 ff ff ff ff 	movl   $0xffffffff,-0x30(%ebp)
4000a69e:	e9 fe 06 00 00       	jmp    4000ada1 <vsscanf+0x7a1>
4000a6a3:	80 7d ba 20          	cmpb   $0x20,-0x46(%ebp)
4000a6a7:	74 1e                	je     4000a6c7 <vsscanf+0xc7>
4000a6a9:	80 7d ba 0c          	cmpb   $0xc,-0x46(%ebp)
4000a6ad:	74 18                	je     4000a6c7 <vsscanf+0xc7>
4000a6af:	80 7d ba 0a          	cmpb   $0xa,-0x46(%ebp)
4000a6b3:	74 12                	je     4000a6c7 <vsscanf+0xc7>
4000a6b5:	80 7d ba 0d          	cmpb   $0xd,-0x46(%ebp)
4000a6b9:	74 0c                	je     4000a6c7 <vsscanf+0xc7>
4000a6bb:	80 7d ba 09          	cmpb   $0x9,-0x46(%ebp)
4000a6bf:	74 06                	je     4000a6c7 <vsscanf+0xc7>
4000a6c1:	80 7d ba 0b          	cmpb   $0xb,-0x46(%ebp)
4000a6c5:	75 13                	jne    4000a6da <vsscanf+0xda>
4000a6c7:	8b 45 bc             	mov    -0x44(%ebp),%eax
4000a6ca:	89 04 24             	mov    %eax,(%esp)
4000a6cd:	e8 0c 07 00 00       	call   4000adde <skipspace>
4000a6d2:	89 45 bc             	mov    %eax,-0x44(%ebp)
4000a6d5:	e9 c7 06 00 00       	jmp    4000ada1 <vsscanf+0x7a1>
4000a6da:	8b 45 bc             	mov    -0x44(%ebp),%eax
4000a6dd:	0f b6 00             	movzbl (%eax),%eax
4000a6e0:	3a 45 ba             	cmp    -0x46(%ebp),%al
4000a6e3:	75 09                	jne    4000a6ee <vsscanf+0xee>
4000a6e5:	83 45 bc 01          	addl   $0x1,-0x44(%ebp)
4000a6e9:	e9 b3 06 00 00       	jmp    4000ada1 <vsscanf+0x7a1>
4000a6ee:	c7 45 e4 02 00 00 00 	movl   $0x2,-0x1c(%ebp)
4000a6f5:	e9 a7 06 00 00       	jmp    4000ada1 <vsscanf+0x7a1>
4000a6fa:	0f be 45 ba          	movsbl -0x46(%ebp),%eax
4000a6fe:	89 45 84             	mov    %eax,-0x7c(%ebp)
4000a701:	83 7d 84 2a          	cmpl   $0x2a,-0x7c(%ebp)
4000a705:	74 13                	je     4000a71a <vsscanf+0x11a>
4000a707:	83 7d 84 2a          	cmpl   $0x2a,-0x7c(%ebp)
4000a70b:	7c 30                	jl     4000a73d <vsscanf+0x13d>
4000a70d:	8b 45 84             	mov    -0x7c(%ebp),%eax
4000a710:	83 e8 30             	sub    $0x30,%eax
4000a713:	83 f8 09             	cmp    $0x9,%eax
4000a716:	77 25                	ja     4000a73d <vsscanf+0x13d>
4000a718:	eb 09                	jmp    4000a723 <vsscanf+0x123>
4000a71a:	83 4d d8 01          	orl    $0x1,-0x28(%ebp)
4000a71e:	e9 7e 06 00 00       	jmp    4000ada1 <vsscanf+0x7a1>
4000a723:	0f be 45 ba          	movsbl -0x46(%ebp),%eax
4000a727:	83 e8 30             	sub    $0x30,%eax
4000a72a:	89 45 d0             	mov    %eax,-0x30(%ebp)
4000a72d:	c7 45 dc 02 00 00 00 	movl   $0x2,-0x24(%ebp)
4000a734:	83 4d d8 04          	orl    $0x4,-0x28(%ebp)
4000a738:	e9 64 06 00 00       	jmp    4000ada1 <vsscanf+0x7a1>
4000a73d:	c7 45 dc 03 00 00 00 	movl   $0x3,-0x24(%ebp)
4000a744:	83 6d b4 01          	subl   $0x1,-0x4c(%ebp)
4000a748:	e9 54 06 00 00       	jmp    4000ada1 <vsscanf+0x7a1>
4000a74d:	80 7d ba 2f          	cmpb   $0x2f,-0x46(%ebp)
4000a751:	7e 26                	jle    4000a779 <vsscanf+0x179>
4000a753:	80 7d ba 39          	cmpb   $0x39,-0x46(%ebp)
4000a757:	7f 20                	jg     4000a779 <vsscanf+0x179>
4000a759:	8b 55 d0             	mov    -0x30(%ebp),%edx
4000a75c:	89 d0                	mov    %edx,%eax
4000a75e:	c1 e0 02             	shl    $0x2,%eax
4000a761:	01 d0                	add    %edx,%eax
4000a763:	01 c0                	add    %eax,%eax
4000a765:	89 c2                	mov    %eax,%edx
4000a767:	0f be 45 ba          	movsbl -0x46(%ebp),%eax
4000a76b:	8d 04 02             	lea    (%edx,%eax,1),%eax
4000a76e:	83 e8 30             	sub    $0x30,%eax
4000a771:	89 45 d0             	mov    %eax,-0x30(%ebp)
4000a774:	e9 28 06 00 00       	jmp    4000ada1 <vsscanf+0x7a1>
4000a779:	c7 45 dc 03 00 00 00 	movl   $0x3,-0x24(%ebp)
4000a780:	83 6d b4 01          	subl   $0x1,-0x4c(%ebp)
4000a784:	e9 18 06 00 00       	jmp    4000ada1 <vsscanf+0x7a1>
4000a789:	0f be 45 ba          	movsbl -0x46(%ebp),%eax
4000a78d:	83 e8 4c             	sub    $0x4c,%eax
4000a790:	89 45 80             	mov    %eax,-0x80(%ebp)
4000a793:	83 7d 80 2e          	cmpl   $0x2e,-0x80(%ebp)
4000a797:	77 4e                	ja     4000a7e7 <vsscanf+0x1e7>
4000a799:	8b 55 80             	mov    -0x80(%ebp),%edx
4000a79c:	8b 04 95 90 f5 00 40 	mov    0x4000f590(,%edx,4),%eax
4000a7a3:	ff e0                	jmp    *%eax
4000a7a5:	83 6d cc 01          	subl   $0x1,-0x34(%ebp)
4000a7a9:	e9 f3 05 00 00       	jmp    4000ada1 <vsscanf+0x7a1>
4000a7ae:	83 45 cc 01          	addl   $0x1,-0x34(%ebp)
4000a7b2:	e9 ea 05 00 00       	jmp    4000ada1 <vsscanf+0x7a1>
4000a7b7:	c7 45 cc 02 00 00 00 	movl   $0x2,-0x34(%ebp)
4000a7be:	e9 de 05 00 00       	jmp    4000ada1 <vsscanf+0x7a1>
4000a7c3:	c7 45 cc 01 00 00 00 	movl   $0x1,-0x34(%ebp)
4000a7ca:	e9 d2 05 00 00       	jmp    4000ada1 <vsscanf+0x7a1>
4000a7cf:	c7 45 cc 01 00 00 00 	movl   $0x1,-0x34(%ebp)
4000a7d6:	e9 c6 05 00 00       	jmp    4000ada1 <vsscanf+0x7a1>
4000a7db:	c7 45 cc 02 00 00 00 	movl   $0x2,-0x34(%ebp)
4000a7e2:	e9 ba 05 00 00       	jmp    4000ada1 <vsscanf+0x7a1>
4000a7e7:	c7 45 dc 00 00 00 00 	movl   $0x0,-0x24(%ebp)
4000a7ee:	83 7d cc fe          	cmpl   $0xfffffffe,-0x34(%ebp)
4000a7f2:	7d 09                	jge    4000a7fd <vsscanf+0x1fd>
4000a7f4:	c7 45 cc fe ff ff ff 	movl   $0xfffffffe,-0x34(%ebp)
4000a7fb:	eb 0d                	jmp    4000a80a <vsscanf+0x20a>
4000a7fd:	83 7d cc 02          	cmpl   $0x2,-0x34(%ebp)
4000a801:	7e 07                	jle    4000a80a <vsscanf+0x20a>
4000a803:	c7 45 cc 02 00 00 00 	movl   $0x2,-0x34(%ebp)
4000a80a:	0f be 45 ba          	movsbl -0x46(%ebp),%eax
4000a80e:	83 e8 25             	sub    $0x25,%eax
4000a811:	89 85 7c ff ff ff    	mov    %eax,-0x84(%ebp)
4000a817:	83 bd 7c ff ff ff 53 	cmpl   $0x53,-0x84(%ebp)
4000a81e:	0f 87 28 04 00 00    	ja     4000ac4c <vsscanf+0x64c>
4000a824:	8b 8d 7c ff ff ff    	mov    -0x84(%ebp),%ecx
4000a82a:	8b 04 8d 4c f6 00 40 	mov    0x4000f64c(,%ecx,4),%eax
4000a831:	ff e0                	jmp    *%eax
4000a833:	c7 45 cc ff ff ff 7f 	movl   $0x7fffffff,-0x34(%ebp)
4000a83a:	c7 45 d4 00 00 00 00 	movl   $0x0,-0x2c(%ebp)
4000a841:	c7 45 e8 00 00 00 00 	movl   $0x0,-0x18(%ebp)
4000a848:	eb 69                	jmp    4000a8b3 <vsscanf+0x2b3>
4000a84a:	c7 45 d4 00 00 00 00 	movl   $0x0,-0x2c(%ebp)
4000a851:	c7 45 e8 01 00 00 00 	movl   $0x1,-0x18(%ebp)
4000a858:	eb 59                	jmp    4000a8b3 <vsscanf+0x2b3>
4000a85a:	c7 45 d4 0a 00 00 00 	movl   $0xa,-0x2c(%ebp)
4000a861:	c7 45 e8 01 00 00 00 	movl   $0x1,-0x18(%ebp)
4000a868:	eb 49                	jmp    4000a8b3 <vsscanf+0x2b3>
4000a86a:	c7 45 d4 08 00 00 00 	movl   $0x8,-0x2c(%ebp)
4000a871:	c7 45 e8 00 00 00 00 	movl   $0x0,-0x18(%ebp)
4000a878:	eb 39                	jmp    4000a8b3 <vsscanf+0x2b3>
4000a87a:	c7 45 d4 0a 00 00 00 	movl   $0xa,-0x2c(%ebp)
4000a881:	c7 45 e8 00 00 00 00 	movl   $0x0,-0x18(%ebp)
4000a888:	eb 29                	jmp    4000a8b3 <vsscanf+0x2b3>
4000a88a:	c7 45 d4 10 00 00 00 	movl   $0x10,-0x2c(%ebp)
4000a891:	c7 45 e8 00 00 00 00 	movl   $0x0,-0x18(%ebp)
4000a898:	eb 19                	jmp    4000a8b3 <vsscanf+0x2b3>
4000a89a:	8b 55 bc             	mov    -0x44(%ebp),%edx
4000a89d:	8b 45 08             	mov    0x8(%ebp),%eax
4000a8a0:	89 d1                	mov    %edx,%ecx
4000a8a2:	29 c1                	sub    %eax,%ecx
4000a8a4:	89 c8                	mov    %ecx,%eax
4000a8a6:	89 c2                	mov    %eax,%edx
4000a8a8:	c1 fa 1f             	sar    $0x1f,%edx
4000a8ab:	89 45 c0             	mov    %eax,-0x40(%ebp)
4000a8ae:	89 55 c4             	mov    %edx,-0x3c(%ebp)
4000a8b1:	eb 72                	jmp    4000a925 <vsscanf+0x325>
4000a8b3:	8b 45 bc             	mov    -0x44(%ebp),%eax
4000a8b6:	89 04 24             	mov    %eax,(%esp)
4000a8b9:	e8 20 05 00 00       	call   4000adde <skipspace>
4000a8be:	89 45 bc             	mov    %eax,-0x44(%ebp)
4000a8c1:	8b 45 bc             	mov    -0x44(%ebp),%eax
4000a8c4:	0f b6 00             	movzbl (%eax),%eax
4000a8c7:	84 c0                	test   %al,%al
4000a8c9:	75 0c                	jne    4000a8d7 <vsscanf+0x2d7>
4000a8cb:	c7 45 e4 01 00 00 00 	movl   $0x1,-0x1c(%ebp)
4000a8d2:	e9 ca 04 00 00       	jmp    4000ada1 <vsscanf+0x7a1>
4000a8d7:	8d 55 b0             	lea    -0x50(%ebp),%edx
4000a8da:	8b 45 d0             	mov    -0x30(%ebp),%eax
4000a8dd:	89 44 24 0c          	mov    %eax,0xc(%esp)
4000a8e1:	8b 45 d4             	mov    -0x2c(%ebp),%eax
4000a8e4:	89 44 24 08          	mov    %eax,0x8(%esp)
4000a8e8:	89 54 24 04          	mov    %edx,0x4(%esp)
4000a8ec:	8b 45 bc             	mov    -0x44(%ebp),%eax
4000a8ef:	89 04 24             	mov    %eax,(%esp)
4000a8f2:	e8 d8 0d 00 00       	call   4000b6cf <strntoumax>
4000a8f7:	89 45 c0             	mov    %eax,-0x40(%ebp)
4000a8fa:	89 55 c4             	mov    %edx,-0x3c(%ebp)
4000a8fd:	8b 45 b0             	mov    -0x50(%ebp),%eax
4000a900:	3b 45 bc             	cmp    -0x44(%ebp),%eax
4000a903:	75 0c                	jne    4000a911 <vsscanf+0x311>
4000a905:	c7 45 e4 02 00 00 00 	movl   $0x2,-0x1c(%ebp)
4000a90c:	e9 90 04 00 00       	jmp    4000ada1 <vsscanf+0x7a1>
4000a911:	8b 45 b0             	mov    -0x50(%ebp),%eax
4000a914:	89 45 bc             	mov    %eax,-0x44(%ebp)
4000a917:	8b 45 d8             	mov    -0x28(%ebp),%eax
4000a91a:	83 e0 01             	and    $0x1,%eax
4000a91d:	85 c0                	test   %eax,%eax
4000a91f:	75 04                	jne    4000a925 <vsscanf+0x325>
4000a921:	83 45 ec 01          	addl   $0x1,-0x14(%ebp)
4000a925:	8b 45 d8             	mov    -0x28(%ebp),%eax
4000a928:	83 e0 01             	and    $0x1,%eax
4000a92b:	85 c0                	test   %eax,%eax
4000a92d:	0f 85 6e 04 00 00    	jne    4000ada1 <vsscanf+0x7a1>
4000a933:	8b 45 cc             	mov    -0x34(%ebp),%eax
4000a936:	89 85 78 ff ff ff    	mov    %eax,-0x88(%ebp)
4000a93c:	83 bd 78 ff ff ff 00 	cmpl   $0x0,-0x88(%ebp)
4000a943:	74 72                	je     4000a9b7 <vsscanf+0x3b7>
4000a945:	83 bd 78 ff ff ff 00 	cmpl   $0x0,-0x88(%ebp)
4000a94c:	7f 17                	jg     4000a965 <vsscanf+0x365>
4000a94e:	83 bd 78 ff ff ff fe 	cmpl   $0xfffffffe,-0x88(%ebp)
4000a955:	74 31                	je     4000a988 <vsscanf+0x388>
4000a957:	83 bd 78 ff ff ff ff 	cmpl   $0xffffffff,-0x88(%ebp)
4000a95e:	74 3f                	je     4000a99f <vsscanf+0x39f>
4000a960:	e9 3c 04 00 00       	jmp    4000ada1 <vsscanf+0x7a1>
4000a965:	83 bd 78 ff ff ff 02 	cmpl   $0x2,-0x88(%ebp)
4000a96c:	74 77                	je     4000a9e5 <vsscanf+0x3e5>
4000a96e:	83 bd 78 ff ff ff 02 	cmpl   $0x2,-0x88(%ebp)
4000a975:	7c 57                	jl     4000a9ce <vsscanf+0x3ce>
4000a977:	81 bd 78 ff ff ff ff 	cmpl   $0x7fffffff,-0x88(%ebp)
4000a97e:	ff ff 7f 
4000a981:	74 7f                	je     4000aa02 <vsscanf+0x402>
4000a983:	e9 19 04 00 00       	jmp    4000ada1 <vsscanf+0x7a1>
4000a988:	8b 55 10             	mov    0x10(%ebp),%edx
4000a98b:	8d 42 04             	lea    0x4(%edx),%eax
4000a98e:	89 45 10             	mov    %eax,0x10(%ebp)
4000a991:	89 d0                	mov    %edx,%eax
4000a993:	8b 10                	mov    (%eax),%edx
4000a995:	8b 45 c0             	mov    -0x40(%ebp),%eax
4000a998:	88 02                	mov    %al,(%edx)
4000a99a:	e9 02 04 00 00       	jmp    4000ada1 <vsscanf+0x7a1>
4000a99f:	8b 55 10             	mov    0x10(%ebp),%edx
4000a9a2:	8d 42 04             	lea    0x4(%edx),%eax
4000a9a5:	89 45 10             	mov    %eax,0x10(%ebp)
4000a9a8:	89 d0                	mov    %edx,%eax
4000a9aa:	8b 10                	mov    (%eax),%edx
4000a9ac:	8b 45 c0             	mov    -0x40(%ebp),%eax
4000a9af:	66 89 02             	mov    %ax,(%edx)
4000a9b2:	e9 ea 03 00 00       	jmp    4000ada1 <vsscanf+0x7a1>
4000a9b7:	8b 55 10             	mov    0x10(%ebp),%edx
4000a9ba:	8d 42 04             	lea    0x4(%edx),%eax
4000a9bd:	89 45 10             	mov    %eax,0x10(%ebp)
4000a9c0:	89 d0                	mov    %edx,%eax
4000a9c2:	8b 10                	mov    (%eax),%edx
4000a9c4:	8b 45 c0             	mov    -0x40(%ebp),%eax
4000a9c7:	89 02                	mov    %eax,(%edx)
4000a9c9:	e9 d3 03 00 00       	jmp    4000ada1 <vsscanf+0x7a1>
4000a9ce:	8b 55 10             	mov    0x10(%ebp),%edx
4000a9d1:	8d 42 04             	lea    0x4(%edx),%eax
4000a9d4:	89 45 10             	mov    %eax,0x10(%ebp)
4000a9d7:	89 d0                	mov    %edx,%eax
4000a9d9:	8b 10                	mov    (%eax),%edx
4000a9db:	8b 45 c0             	mov    -0x40(%ebp),%eax
4000a9de:	89 02                	mov    %eax,(%edx)
4000a9e0:	e9 bc 03 00 00       	jmp    4000ada1 <vsscanf+0x7a1>
4000a9e5:	8b 55 10             	mov    0x10(%ebp),%edx
4000a9e8:	8d 42 04             	lea    0x4(%edx),%eax
4000a9eb:	89 45 10             	mov    %eax,0x10(%ebp)
4000a9ee:	89 d0                	mov    %edx,%eax
4000a9f0:	8b 08                	mov    (%eax),%ecx
4000a9f2:	8b 45 c0             	mov    -0x40(%ebp),%eax
4000a9f5:	8b 55 c4             	mov    -0x3c(%ebp),%edx
4000a9f8:	89 01                	mov    %eax,(%ecx)
4000a9fa:	89 51 04             	mov    %edx,0x4(%ecx)
4000a9fd:	e9 9f 03 00 00       	jmp    4000ada1 <vsscanf+0x7a1>
4000aa02:	8b 55 10             	mov    0x10(%ebp),%edx
4000aa05:	8d 42 04             	lea    0x4(%edx),%eax
4000aa08:	89 45 10             	mov    %eax,0x10(%ebp)
4000aa0b:	89 d0                	mov    %edx,%eax
4000aa0d:	8b 10                	mov    (%eax),%edx
4000aa0f:	8b 45 c0             	mov    -0x40(%ebp),%eax
4000aa12:	89 02                	mov    %eax,(%edx)
4000aa14:	e9 88 03 00 00       	jmp    4000ada1 <vsscanf+0x7a1>
4000aa19:	8b 45 d8             	mov    -0x28(%ebp),%eax
4000aa1c:	83 e0 04             	and    $0x4,%eax
4000aa1f:	85 c0                	test   %eax,%eax
4000aa21:	74 08                	je     4000aa2b <vsscanf+0x42b>
4000aa23:	8b 55 d0             	mov    -0x30(%ebp),%edx
4000aa26:	89 55 88             	mov    %edx,-0x78(%ebp)
4000aa29:	eb 07                	jmp    4000aa32 <vsscanf+0x432>
4000aa2b:	c7 45 88 01 00 00 00 	movl   $0x1,-0x78(%ebp)
4000aa32:	8b 4d 88             	mov    -0x78(%ebp),%ecx
4000aa35:	89 4d d0             	mov    %ecx,-0x30(%ebp)
4000aa38:	8b 45 d8             	mov    -0x28(%ebp),%eax
4000aa3b:	83 e0 01             	and    $0x1,%eax
4000aa3e:	84 c0                	test   %al,%al
4000aa40:	74 2c                	je     4000aa6e <vsscanf+0x46e>
4000aa42:	eb 16                	jmp    4000aa5a <vsscanf+0x45a>
4000aa44:	8b 45 bc             	mov    -0x44(%ebp),%eax
4000aa47:	0f b6 00             	movzbl (%eax),%eax
4000aa4a:	84 c0                	test   %al,%al
4000aa4c:	75 0c                	jne    4000aa5a <vsscanf+0x45a>
4000aa4e:	c7 45 e4 01 00 00 00 	movl   $0x1,-0x1c(%ebp)
4000aa55:	e9 47 03 00 00       	jmp    4000ada1 <vsscanf+0x7a1>
4000aa5a:	83 7d d0 00          	cmpl   $0x0,-0x30(%ebp)
4000aa5e:	0f 95 c0             	setne  %al
4000aa61:	83 6d d0 01          	subl   $0x1,-0x30(%ebp)
4000aa65:	84 c0                	test   %al,%al
4000aa67:	75 db                	jne    4000aa44 <vsscanf+0x444>
4000aa69:	e9 33 03 00 00       	jmp    4000ada1 <vsscanf+0x7a1>
4000aa6e:	8b 55 10             	mov    0x10(%ebp),%edx
4000aa71:	8d 42 04             	lea    0x4(%edx),%eax
4000aa74:	89 45 10             	mov    %eax,0x10(%ebp)
4000aa77:	89 d0                	mov    %edx,%eax
4000aa79:	8b 00                	mov    (%eax),%eax
4000aa7b:	89 45 e0             	mov    %eax,-0x20(%ebp)
4000aa7e:	eb 26                	jmp    4000aaa6 <vsscanf+0x4a6>
4000aa80:	8b 45 bc             	mov    -0x44(%ebp),%eax
4000aa83:	0f b6 00             	movzbl (%eax),%eax
4000aa86:	84 c0                	test   %al,%al
4000aa88:	75 09                	jne    4000aa93 <vsscanf+0x493>
4000aa8a:	c7 45 e4 01 00 00 00 	movl   $0x1,-0x1c(%ebp)
4000aa91:	eb 22                	jmp    4000aab5 <vsscanf+0x4b5>
4000aa93:	8b 45 bc             	mov    -0x44(%ebp),%eax
4000aa96:	0f b6 10             	movzbl (%eax),%edx
4000aa99:	8b 45 e0             	mov    -0x20(%ebp),%eax
4000aa9c:	88 10                	mov    %dl,(%eax)
4000aa9e:	83 45 e0 01          	addl   $0x1,-0x20(%ebp)
4000aaa2:	83 45 bc 01          	addl   $0x1,-0x44(%ebp)
4000aaa6:	83 7d d0 00          	cmpl   $0x0,-0x30(%ebp)
4000aaaa:	0f 95 c0             	setne  %al
4000aaad:	83 6d d0 01          	subl   $0x1,-0x30(%ebp)
4000aab1:	84 c0                	test   %al,%al
4000aab3:	75 cb                	jne    4000aa80 <vsscanf+0x480>
4000aab5:	83 7d e4 00          	cmpl   $0x0,-0x1c(%ebp)
4000aab9:	0f 85 e2 02 00 00    	jne    4000ada1 <vsscanf+0x7a1>
4000aabf:	83 45 ec 01          	addl   $0x1,-0x14(%ebp)
4000aac3:	e9 d9 02 00 00       	jmp    4000ada1 <vsscanf+0x7a1>
4000aac8:	c6 45 bb 01          	movb   $0x1,-0x45(%ebp)
4000aacc:	8b 45 d8             	mov    -0x28(%ebp),%eax
4000aacf:	83 e0 01             	and    $0x1,%eax
4000aad2:	84 c0                	test   %al,%al
4000aad4:	74 6c                	je     4000ab42 <vsscanf+0x542>
4000aad6:	eb 04                	jmp    4000aadc <vsscanf+0x4dc>
4000aad8:	83 45 bc 01          	addl   $0x1,-0x44(%ebp)
4000aadc:	83 7d d0 00          	cmpl   $0x0,-0x30(%ebp)
4000aae0:	0f 95 c0             	setne  %al
4000aae3:	83 6d d0 01          	subl   $0x1,-0x30(%ebp)
4000aae7:	83 f0 01             	xor    $0x1,%eax
4000aaea:	84 c0                	test   %al,%al
4000aaec:	0f 85 d0 00 00 00    	jne    4000abc2 <vsscanf+0x5c2>
4000aaf2:	8b 45 bc             	mov    -0x44(%ebp),%eax
4000aaf5:	0f b6 00             	movzbl (%eax),%eax
4000aaf8:	88 45 bb             	mov    %al,-0x45(%ebp)
4000aafb:	80 7d bb 00          	cmpb   $0x0,-0x45(%ebp)
4000aaff:	0f 84 bd 00 00 00    	je     4000abc2 <vsscanf+0x5c2>
4000ab05:	80 7d bb 20          	cmpb   $0x20,-0x45(%ebp)
4000ab09:	0f 84 b3 00 00 00    	je     4000abc2 <vsscanf+0x5c2>
4000ab0f:	80 7d bb 0c          	cmpb   $0xc,-0x45(%ebp)
4000ab13:	0f 84 a9 00 00 00    	je     4000abc2 <vsscanf+0x5c2>
4000ab19:	80 7d bb 0a          	cmpb   $0xa,-0x45(%ebp)
4000ab1d:	0f 84 9f 00 00 00    	je     4000abc2 <vsscanf+0x5c2>
4000ab23:	80 7d bb 0d          	cmpb   $0xd,-0x45(%ebp)
4000ab27:	0f 84 95 00 00 00    	je     4000abc2 <vsscanf+0x5c2>
4000ab2d:	80 7d bb 09          	cmpb   $0x9,-0x45(%ebp)
4000ab31:	0f 84 8b 00 00 00    	je     4000abc2 <vsscanf+0x5c2>
4000ab37:	80 7d bb 0b          	cmpb   $0xb,-0x45(%ebp)
4000ab3b:	75 9b                	jne    4000aad8 <vsscanf+0x4d8>
4000ab3d:	e9 80 00 00 00       	jmp    4000abc2 <vsscanf+0x5c2>
4000ab42:	8b 55 10             	mov    0x10(%ebp),%edx
4000ab45:	8d 42 04             	lea    0x4(%edx),%eax
4000ab48:	89 45 10             	mov    %eax,0x10(%ebp)
4000ab4b:	89 d0                	mov    %edx,%eax
4000ab4d:	8b 00                	mov    (%eax),%eax
4000ab4f:	89 45 e0             	mov    %eax,-0x20(%ebp)
4000ab52:	8b 45 e0             	mov    -0x20(%ebp),%eax
4000ab55:	89 45 f8             	mov    %eax,-0x8(%ebp)
4000ab58:	eb 11                	jmp    4000ab6b <vsscanf+0x56b>
4000ab5a:	0f b6 55 bb          	movzbl -0x45(%ebp),%edx
4000ab5e:	8b 45 f8             	mov    -0x8(%ebp),%eax
4000ab61:	88 10                	mov    %dl,(%eax)
4000ab63:	83 45 f8 01          	addl   $0x1,-0x8(%ebp)
4000ab67:	83 45 bc 01          	addl   $0x1,-0x44(%ebp)
4000ab6b:	83 7d d0 00          	cmpl   $0x0,-0x30(%ebp)
4000ab6f:	0f 95 c0             	setne  %al
4000ab72:	83 6d d0 01          	subl   $0x1,-0x30(%ebp)
4000ab76:	83 f0 01             	xor    $0x1,%eax
4000ab79:	84 c0                	test   %al,%al
4000ab7b:	75 33                	jne    4000abb0 <vsscanf+0x5b0>
4000ab7d:	8b 45 bc             	mov    -0x44(%ebp),%eax
4000ab80:	0f b6 00             	movzbl (%eax),%eax
4000ab83:	88 45 bb             	mov    %al,-0x45(%ebp)
4000ab86:	80 7d bb 00          	cmpb   $0x0,-0x45(%ebp)
4000ab8a:	74 24                	je     4000abb0 <vsscanf+0x5b0>
4000ab8c:	80 7d bb 20          	cmpb   $0x20,-0x45(%ebp)
4000ab90:	74 1e                	je     4000abb0 <vsscanf+0x5b0>
4000ab92:	80 7d bb 0c          	cmpb   $0xc,-0x45(%ebp)
4000ab96:	74 18                	je     4000abb0 <vsscanf+0x5b0>
4000ab98:	80 7d bb 0a          	cmpb   $0xa,-0x45(%ebp)
4000ab9c:	74 12                	je     4000abb0 <vsscanf+0x5b0>
4000ab9e:	80 7d bb 0d          	cmpb   $0xd,-0x45(%ebp)
4000aba2:	74 0c                	je     4000abb0 <vsscanf+0x5b0>
4000aba4:	80 7d bb 09          	cmpb   $0x9,-0x45(%ebp)
4000aba8:	74 06                	je     4000abb0 <vsscanf+0x5b0>
4000abaa:	80 7d bb 0b          	cmpb   $0xb,-0x45(%ebp)
4000abae:	75 aa                	jne    4000ab5a <vsscanf+0x55a>
4000abb0:	8b 45 e0             	mov    -0x20(%ebp),%eax
4000abb3:	3b 45 f8             	cmp    -0x8(%ebp),%eax
4000abb6:	74 0a                	je     4000abc2 <vsscanf+0x5c2>
4000abb8:	8b 45 f8             	mov    -0x8(%ebp),%eax
4000abbb:	c6 00 00             	movb   $0x0,(%eax)
4000abbe:	83 45 ec 01          	addl   $0x1,-0x14(%ebp)
4000abc2:	80 7d bb 00          	cmpb   $0x0,-0x45(%ebp)
4000abc6:	0f 85 d5 01 00 00    	jne    4000ada1 <vsscanf+0x7a1>
4000abcc:	c7 45 e4 01 00 00 00 	movl   $0x1,-0x1c(%ebp)
4000abd3:	e9 c9 01 00 00       	jmp    4000ada1 <vsscanf+0x7a1>
4000abd8:	8b 45 d8             	mov    -0x28(%ebp),%eax
4000abdb:	83 e0 01             	and    $0x1,%eax
4000abde:	84 c0                	test   %al,%al
4000abe0:	74 09                	je     4000abeb <vsscanf+0x5eb>
4000abe2:	c7 45 8c 00 00 00 00 	movl   $0x0,-0x74(%ebp)
4000abe9:	eb 0e                	jmp    4000abf9 <vsscanf+0x5f9>
4000abeb:	8b 45 10             	mov    0x10(%ebp),%eax
4000abee:	8d 50 04             	lea    0x4(%eax),%edx
4000abf1:	89 55 10             	mov    %edx,0x10(%ebp)
4000abf4:	8b 00                	mov    (%eax),%eax
4000abf6:	89 45 8c             	mov    %eax,-0x74(%ebp)
4000abf9:	8b 45 8c             	mov    -0x74(%ebp),%eax
4000abfc:	89 45 e0             	mov    %eax,-0x20(%ebp)
4000abff:	c7 45 dc 04 00 00 00 	movl   $0x4,-0x24(%ebp)
4000ac06:	c7 45 f0 00 00 00 00 	movl   $0x0,-0x10(%ebp)
4000ac0d:	c7 44 24 08 20 00 00 	movl   $0x20,0x8(%esp)
4000ac14:	00 
4000ac15:	c7 44 24 04 00 00 00 	movl   $0x0,0x4(%esp)
4000ac1c:	00 
4000ac1d:	8d 45 90             	lea    -0x70(%ebp),%eax
4000ac20:	89 04 24             	mov    %eax,(%esp)
4000ac23:	e8 dd 05 00 00       	call   4000b205 <memset>
4000ac28:	e9 74 01 00 00       	jmp    4000ada1 <vsscanf+0x7a1>
4000ac2d:	8b 45 bc             	mov    -0x44(%ebp),%eax
4000ac30:	0f b6 00             	movzbl (%eax),%eax
4000ac33:	3c 25                	cmp    $0x25,%al
4000ac35:	75 09                	jne    4000ac40 <vsscanf+0x640>
4000ac37:	83 45 bc 01          	addl   $0x1,-0x44(%ebp)
4000ac3b:	e9 61 01 00 00       	jmp    4000ada1 <vsscanf+0x7a1>
4000ac40:	c7 45 e4 02 00 00 00 	movl   $0x2,-0x1c(%ebp)
4000ac47:	e9 55 01 00 00       	jmp    4000ada1 <vsscanf+0x7a1>
4000ac4c:	c7 45 e4 02 00 00 00 	movl   $0x2,-0x1c(%ebp)
4000ac53:	e9 49 01 00 00       	jmp    4000ada1 <vsscanf+0x7a1>
4000ac58:	80 7d ba 5e          	cmpb   $0x5e,-0x46(%ebp)
4000ac5c:	75 16                	jne    4000ac74 <vsscanf+0x674>
4000ac5e:	8b 45 d8             	mov    -0x28(%ebp),%eax
4000ac61:	83 e0 02             	and    $0x2,%eax
4000ac64:	85 c0                	test   %eax,%eax
4000ac66:	75 0c                	jne    4000ac74 <vsscanf+0x674>
4000ac68:	c7 45 f0 01 00 00 00 	movl   $0x1,-0x10(%ebp)
4000ac6f:	e9 2d 01 00 00       	jmp    4000ada1 <vsscanf+0x7a1>
4000ac74:	0f b6 45 ba          	movzbl -0x46(%ebp),%eax
4000ac78:	0f b6 c0             	movzbl %al,%eax
4000ac7b:	89 44 24 04          	mov    %eax,0x4(%esp)
4000ac7f:	8d 45 90             	lea    -0x70(%ebp),%eax
4000ac82:	89 04 24             	mov    %eax,(%esp)
4000ac85:	e8 9e 01 00 00       	call   4000ae28 <set_bit>
4000ac8a:	c7 45 dc 05 00 00 00 	movl   $0x5,-0x24(%ebp)
4000ac91:	e9 0b 01 00 00       	jmp    4000ada1 <vsscanf+0x7a1>
4000ac96:	80 7d ba 5d          	cmpb   $0x5d,-0x46(%ebp)
4000ac9a:	0f 84 83 00 00 00    	je     4000ad23 <vsscanf+0x723>
4000aca0:	80 7d ba 2d          	cmpb   $0x2d,-0x46(%ebp)
4000aca4:	75 13                	jne    4000acb9 <vsscanf+0x6b9>
4000aca6:	0f b6 45 ba          	movzbl -0x46(%ebp),%eax
4000acaa:	88 45 f7             	mov    %al,-0x9(%ebp)
4000acad:	c7 45 dc 06 00 00 00 	movl   $0x6,-0x24(%ebp)
4000acb4:	e9 e8 00 00 00       	jmp    4000ada1 <vsscanf+0x7a1>
4000acb9:	0f b6 45 ba          	movzbl -0x46(%ebp),%eax
4000acbd:	0f b6 c0             	movzbl %al,%eax
4000acc0:	89 44 24 04          	mov    %eax,0x4(%esp)
4000acc4:	8d 45 90             	lea    -0x70(%ebp),%eax
4000acc7:	89 04 24             	mov    %eax,(%esp)
4000acca:	e8 59 01 00 00       	call   4000ae28 <set_bit>
4000accf:	e9 cd 00 00 00       	jmp    4000ada1 <vsscanf+0x7a1>
4000acd4:	80 7d ba 5d          	cmpb   $0x5d,-0x46(%ebp)
4000acd8:	75 15                	jne    4000acef <vsscanf+0x6ef>
4000acda:	c7 44 24 04 2d 00 00 	movl   $0x2d,0x4(%esp)
4000ace1:	00 
4000ace2:	8d 45 90             	lea    -0x70(%ebp),%eax
4000ace5:	89 04 24             	mov    %eax,(%esp)
4000ace8:	e8 3b 01 00 00       	call   4000ae28 <set_bit>
4000aced:	eb 34                	jmp    4000ad23 <vsscanf+0x723>
4000acef:	0f b6 45 f7          	movzbl -0x9(%ebp),%eax
4000acf3:	89 45 fc             	mov    %eax,-0x4(%ebp)
4000acf6:	eb 16                	jmp    4000ad0e <vsscanf+0x70e>
4000acf8:	8b 45 fc             	mov    -0x4(%ebp),%eax
4000acfb:	89 44 24 04          	mov    %eax,0x4(%esp)
4000acff:	8d 45 90             	lea    -0x70(%ebp),%eax
4000ad02:	89 04 24             	mov    %eax,(%esp)
4000ad05:	e8 1e 01 00 00       	call   4000ae28 <set_bit>
4000ad0a:	83 45 fc 01          	addl   $0x1,-0x4(%ebp)
4000ad0e:	0f b6 45 ba          	movzbl -0x46(%ebp),%eax
4000ad12:	0f b6 c0             	movzbl %al,%eax
4000ad15:	3b 45 fc             	cmp    -0x4(%ebp),%eax
4000ad18:	7f de                	jg     4000acf8 <vsscanf+0x6f8>
4000ad1a:	c7 45 dc 05 00 00 00 	movl   $0x5,-0x24(%ebp)
4000ad21:	eb 7e                	jmp    4000ada1 <vsscanf+0x7a1>
4000ad23:	8b 45 bc             	mov    -0x44(%ebp),%eax
4000ad26:	89 45 b0             	mov    %eax,-0x50(%ebp)
4000ad29:	c6 45 bb 01          	movb   $0x1,-0x45(%ebp)
4000ad2d:	eb 17                	jmp    4000ad46 <vsscanf+0x746>
4000ad2f:	83 7d e0 00          	cmpl   $0x0,-0x20(%ebp)
4000ad33:	74 0d                	je     4000ad42 <vsscanf+0x742>
4000ad35:	0f b6 55 bb          	movzbl -0x45(%ebp),%edx
4000ad39:	8b 45 e0             	mov    -0x20(%ebp),%eax
4000ad3c:	88 10                	mov    %dl,(%eax)
4000ad3e:	83 45 e0 01          	addl   $0x1,-0x20(%ebp)
4000ad42:	83 45 bc 01          	addl   $0x1,-0x44(%ebp)
4000ad46:	83 7d d0 00          	cmpl   $0x0,-0x30(%ebp)
4000ad4a:	74 27                	je     4000ad73 <vsscanf+0x773>
4000ad4c:	8b 45 bc             	mov    -0x44(%ebp),%eax
4000ad4f:	0f b6 00             	movzbl (%eax),%eax
4000ad52:	88 45 bb             	mov    %al,-0x45(%ebp)
4000ad55:	80 7d bb 00          	cmpb   $0x0,-0x45(%ebp)
4000ad59:	74 18                	je     4000ad73 <vsscanf+0x773>
4000ad5b:	0f b6 45 bb          	movzbl -0x45(%ebp),%eax
4000ad5f:	89 44 24 04          	mov    %eax,0x4(%esp)
4000ad63:	8d 45 90             	lea    -0x70(%ebp),%eax
4000ad66:	89 04 24             	mov    %eax,(%esp)
4000ad69:	e8 f4 00 00 00       	call   4000ae62 <test_bit>
4000ad6e:	3b 45 f0             	cmp    -0x10(%ebp),%eax
4000ad71:	75 bc                	jne    4000ad2f <vsscanf+0x72f>
4000ad73:	8b 45 b0             	mov    -0x50(%ebp),%eax
4000ad76:	39 45 bc             	cmp    %eax,-0x44(%ebp)
4000ad79:	74 12                	je     4000ad8d <vsscanf+0x78d>
4000ad7b:	83 7d e0 00          	cmpl   $0x0,-0x20(%ebp)
4000ad7f:	74 0c                	je     4000ad8d <vsscanf+0x78d>
4000ad81:	8b 45 e0             	mov    -0x20(%ebp),%eax
4000ad84:	c6 00 00             	movb   $0x0,(%eax)
4000ad87:	83 45 ec 01          	addl   $0x1,-0x14(%ebp)
4000ad8b:	eb 07                	jmp    4000ad94 <vsscanf+0x794>
4000ad8d:	c7 45 e4 02 00 00 00 	movl   $0x2,-0x1c(%ebp)
4000ad94:	80 7d bb 00          	cmpb   $0x0,-0x45(%ebp)
4000ad98:	75 07                	jne    4000ada1 <vsscanf+0x7a1>
4000ad9a:	c7 45 e4 01 00 00 00 	movl   $0x1,-0x1c(%ebp)
4000ada1:	8b 45 b4             	mov    -0x4c(%ebp),%eax
4000ada4:	0f b6 00             	movzbl (%eax),%eax
4000ada7:	88 45 ba             	mov    %al,-0x46(%ebp)
4000adaa:	80 7d ba 00          	cmpb   $0x0,-0x46(%ebp)
4000adae:	0f 95 c0             	setne  %al
4000adb1:	83 45 b4 01          	addl   $0x1,-0x4c(%ebp)
4000adb5:	83 f0 01             	xor    $0x1,%eax
4000adb8:	84 c0                	test   %al,%al
4000adba:	75 0a                	jne    4000adc6 <vsscanf+0x7c6>
4000adbc:	83 7d e4 00          	cmpl   $0x0,-0x1c(%ebp)
4000adc0:	0f 84 9e f8 ff ff    	je     4000a664 <vsscanf+0x64>
4000adc6:	83 7d e4 01          	cmpl   $0x1,-0x1c(%ebp)
4000adca:	75 0d                	jne    4000add9 <vsscanf+0x7d9>
4000adcc:	83 7d ec 00          	cmpl   $0x0,-0x14(%ebp)
4000add0:	75 07                	jne    4000add9 <vsscanf+0x7d9>
4000add2:	c7 45 ec ff ff ff ff 	movl   $0xffffffff,-0x14(%ebp)
4000add9:	8b 45 ec             	mov    -0x14(%ebp),%eax
4000addc:	c9                   	leave  
4000addd:	c3                   	ret    

4000adde <skipspace>:
4000adde:	55                   	push   %ebp
4000addf:	89 e5                	mov    %esp,%ebp
4000ade1:	eb 04                	jmp    4000ade7 <skipspace+0x9>
4000ade3:	83 45 08 01          	addl   $0x1,0x8(%ebp)
4000ade7:	8b 45 08             	mov    0x8(%ebp),%eax
4000adea:	0f b6 00             	movzbl (%eax),%eax
4000aded:	3c 20                	cmp    $0x20,%al
4000adef:	74 f2                	je     4000ade3 <skipspace+0x5>
4000adf1:	8b 45 08             	mov    0x8(%ebp),%eax
4000adf4:	0f b6 00             	movzbl (%eax),%eax
4000adf7:	3c 0c                	cmp    $0xc,%al
4000adf9:	74 e8                	je     4000ade3 <skipspace+0x5>
4000adfb:	8b 45 08             	mov    0x8(%ebp),%eax
4000adfe:	0f b6 00             	movzbl (%eax),%eax
4000ae01:	3c 0a                	cmp    $0xa,%al
4000ae03:	74 de                	je     4000ade3 <skipspace+0x5>
4000ae05:	8b 45 08             	mov    0x8(%ebp),%eax
4000ae08:	0f b6 00             	movzbl (%eax),%eax
4000ae0b:	3c 0d                	cmp    $0xd,%al
4000ae0d:	74 d4                	je     4000ade3 <skipspace+0x5>
4000ae0f:	8b 45 08             	mov    0x8(%ebp),%eax
4000ae12:	0f b6 00             	movzbl (%eax),%eax
4000ae15:	3c 09                	cmp    $0x9,%al
4000ae17:	74 ca                	je     4000ade3 <skipspace+0x5>
4000ae19:	8b 45 08             	mov    0x8(%ebp),%eax
4000ae1c:	0f b6 00             	movzbl (%eax),%eax
4000ae1f:	3c 0b                	cmp    $0xb,%al
4000ae21:	74 c0                	je     4000ade3 <skipspace+0x5>
4000ae23:	8b 45 08             	mov    0x8(%ebp),%eax
4000ae26:	5d                   	pop    %ebp
4000ae27:	c3                   	ret    

4000ae28 <set_bit>:
4000ae28:	55                   	push   %ebp
4000ae29:	89 e5                	mov    %esp,%ebp
4000ae2b:	53                   	push   %ebx
4000ae2c:	8b 45 0c             	mov    0xc(%ebp),%eax
4000ae2f:	89 c2                	mov    %eax,%edx
4000ae31:	c1 ea 05             	shr    $0x5,%edx
4000ae34:	8d 04 95 00 00 00 00 	lea    0x0(,%edx,4),%eax
4000ae3b:	89 c3                	mov    %eax,%ebx
4000ae3d:	03 5d 08             	add    0x8(%ebp),%ebx
4000ae40:	8d 04 95 00 00 00 00 	lea    0x0(,%edx,4),%eax
4000ae47:	03 45 08             	add    0x8(%ebp),%eax
4000ae4a:	8b 10                	mov    (%eax),%edx
4000ae4c:	8b 45 0c             	mov    0xc(%ebp),%eax
4000ae4f:	89 c1                	mov    %eax,%ecx
4000ae51:	83 e1 1f             	and    $0x1f,%ecx
4000ae54:	b8 01 00 00 00       	mov    $0x1,%eax
4000ae59:	d3 e0                	shl    %cl,%eax
4000ae5b:	09 d0                	or     %edx,%eax
4000ae5d:	89 03                	mov    %eax,(%ebx)
4000ae5f:	5b                   	pop    %ebx
4000ae60:	5d                   	pop    %ebp
4000ae61:	c3                   	ret    

4000ae62 <test_bit>:
4000ae62:	55                   	push   %ebp
4000ae63:	89 e5                	mov    %esp,%ebp
4000ae65:	8b 45 0c             	mov    0xc(%ebp),%eax
4000ae68:	c1 e8 05             	shr    $0x5,%eax
4000ae6b:	c1 e0 02             	shl    $0x2,%eax
4000ae6e:	03 45 08             	add    0x8(%ebp),%eax
4000ae71:	8b 10                	mov    (%eax),%edx
4000ae73:	8b 45 0c             	mov    0xc(%ebp),%eax
4000ae76:	89 c1                	mov    %eax,%ecx
4000ae78:	83 e1 1f             	and    $0x1f,%ecx
4000ae7b:	89 d0                	mov    %edx,%eax
4000ae7d:	d3 e8                	shr    %cl,%eax
4000ae7f:	83 e0 01             	and    $0x1,%eax
4000ae82:	5d                   	pop    %ebp
4000ae83:	c3                   	ret    

4000ae84 <memccpy>:
4000ae84:	55                   	push   %ebp
4000ae85:	89 e5                	mov    %esp,%ebp
4000ae87:	83 ec 10             	sub    $0x10,%esp
4000ae8a:	8b 45 08             	mov    0x8(%ebp),%eax
4000ae8d:	89 45 f4             	mov    %eax,-0xc(%ebp)
4000ae90:	8b 45 0c             	mov    0xc(%ebp),%eax
4000ae93:	89 45 f8             	mov    %eax,-0x8(%ebp)
4000ae96:	c7 45 fc 00 00 00 00 	movl   $0x0,-0x4(%ebp)
4000ae9d:	eb 2c                	jmp    4000aecb <memccpy+0x47>
4000ae9f:	8b 55 fc             	mov    -0x4(%ebp),%edx
4000aea2:	8b 45 f4             	mov    -0xc(%ebp),%eax
4000aea5:	8d 0c 10             	lea    (%eax,%edx,1),%ecx
4000aea8:	8b 55 fc             	mov    -0x4(%ebp),%edx
4000aeab:	8b 45 f8             	mov    -0x8(%ebp),%eax
4000aeae:	01 d0                	add    %edx,%eax
4000aeb0:	0f b6 00             	movzbl (%eax),%eax
4000aeb3:	88 01                	mov    %al,(%ecx)
4000aeb5:	8b 55 fc             	mov    -0x4(%ebp),%edx
4000aeb8:	8b 45 f8             	mov    -0x8(%ebp),%eax
4000aebb:	01 d0                	add    %edx,%eax
4000aebd:	0f b6 10             	movzbl (%eax),%edx
4000aec0:	8b 45 10             	mov    0x10(%ebp),%eax
4000aec3:	38 c2                	cmp    %al,%dl
4000aec5:	74 0c                	je     4000aed3 <memccpy+0x4f>
4000aec7:	83 45 fc 01          	addl   $0x1,-0x4(%ebp)
4000aecb:	8b 45 fc             	mov    -0x4(%ebp),%eax
4000aece:	3b 45 14             	cmp    0x14(%ebp),%eax
4000aed1:	72 cc                	jb     4000ae9f <memccpy+0x1b>
4000aed3:	8b 45 08             	mov    0x8(%ebp),%eax
4000aed6:	c9                   	leave  
4000aed7:	c3                   	ret    

4000aed8 <memchr>:
4000aed8:	55                   	push   %ebp
4000aed9:	89 e5                	mov    %esp,%ebp
4000aedb:	83 ec 14             	sub    $0x14,%esp
4000aede:	8b 45 08             	mov    0x8(%ebp),%eax
4000aee1:	89 45 f8             	mov    %eax,-0x8(%ebp)
4000aee4:	c7 45 fc 00 00 00 00 	movl   $0x0,-0x4(%ebp)
4000aeeb:	eb 23                	jmp    4000af10 <memchr+0x38>
4000aeed:	8b 55 fc             	mov    -0x4(%ebp),%edx
4000aef0:	8b 45 f8             	mov    -0x8(%ebp),%eax
4000aef3:	01 d0                	add    %edx,%eax
4000aef5:	0f b6 10             	movzbl (%eax),%edx
4000aef8:	8b 45 0c             	mov    0xc(%ebp),%eax
4000aefb:	38 c2                	cmp    %al,%dl
4000aefd:	75 0d                	jne    4000af0c <memchr+0x34>
4000aeff:	8b 55 fc             	mov    -0x4(%ebp),%edx
4000af02:	8b 45 f8             	mov    -0x8(%ebp),%eax
4000af05:	01 d0                	add    %edx,%eax
4000af07:	89 45 ec             	mov    %eax,-0x14(%ebp)
4000af0a:	eb 13                	jmp    4000af1f <memchr+0x47>
4000af0c:	83 45 fc 01          	addl   $0x1,-0x4(%ebp)
4000af10:	8b 45 fc             	mov    -0x4(%ebp),%eax
4000af13:	3b 45 10             	cmp    0x10(%ebp),%eax
4000af16:	72 d5                	jb     4000aeed <memchr+0x15>
4000af18:	c7 45 ec 00 00 00 00 	movl   $0x0,-0x14(%ebp)
4000af1f:	8b 45 ec             	mov    -0x14(%ebp),%eax
4000af22:	c9                   	leave  
4000af23:	c3                   	ret    

4000af24 <memcmp>:
4000af24:	55                   	push   %ebp
4000af25:	89 e5                	mov    %esp,%ebp
4000af27:	83 ec 24             	sub    $0x24,%esp
4000af2a:	8b 45 08             	mov    0x8(%ebp),%eax
4000af2d:	3b 45 0c             	cmp    0xc(%ebp),%eax
4000af30:	75 0c                	jne    4000af3e <memcmp+0x1a>
4000af32:	c7 45 dc 00 00 00 00 	movl   $0x0,-0x24(%ebp)
4000af39:	e9 e5 00 00 00       	jmp    4000b023 <memcmp+0xff>
4000af3e:	8b 45 10             	mov    0x10(%ebp),%eax
4000af41:	c1 e8 02             	shr    $0x2,%eax
4000af44:	89 45 e4             	mov    %eax,-0x1c(%ebp)
4000af47:	8b 45 10             	mov    0x10(%ebp),%eax
4000af4a:	83 e0 03             	and    $0x3,%eax
4000af4d:	89 45 e8             	mov    %eax,-0x18(%ebp)
4000af50:	8b 45 08             	mov    0x8(%ebp),%eax
4000af53:	89 45 ec             	mov    %eax,-0x14(%ebp)
4000af56:	8b 45 0c             	mov    0xc(%ebp),%eax
4000af59:	89 45 f0             	mov    %eax,-0x10(%ebp)
4000af5c:	8b 55 08             	mov    0x8(%ebp),%edx
4000af5f:	8b 45 e4             	mov    -0x1c(%ebp),%eax
4000af62:	c1 e0 02             	shl    $0x2,%eax
4000af65:	8d 04 02             	lea    (%edx,%eax,1),%eax
4000af68:	89 45 f4             	mov    %eax,-0xc(%ebp)
4000af6b:	8b 55 0c             	mov    0xc(%ebp),%edx
4000af6e:	8b 45 e4             	mov    -0x1c(%ebp),%eax
4000af71:	c1 e0 02             	shl    $0x2,%eax
4000af74:	8d 04 02             	lea    (%edx,%eax,1),%eax
4000af77:	89 45 f8             	mov    %eax,-0x8(%ebp)
4000af7a:	c7 45 fc 00 00 00 00 	movl   $0x0,-0x4(%ebp)
4000af81:	eb 3d                	jmp    4000afc0 <memcmp+0x9c>
4000af83:	8b 45 fc             	mov    -0x4(%ebp),%eax
4000af86:	c1 e0 02             	shl    $0x2,%eax
4000af89:	03 45 ec             	add    -0x14(%ebp),%eax
4000af8c:	8b 10                	mov    (%eax),%edx
4000af8e:	8b 45 fc             	mov    -0x4(%ebp),%eax
4000af91:	c1 e0 02             	shl    $0x2,%eax
4000af94:	03 45 f0             	add    -0x10(%ebp),%eax
4000af97:	8b 00                	mov    (%eax),%eax
4000af99:	39 c2                	cmp    %eax,%edx
4000af9b:	74 1f                	je     4000afbc <memcmp+0x98>
4000af9d:	8b 45 fc             	mov    -0x4(%ebp),%eax
4000afa0:	c1 e0 02             	shl    $0x2,%eax
4000afa3:	03 45 ec             	add    -0x14(%ebp),%eax
4000afa6:	8b 10                	mov    (%eax),%edx
4000afa8:	8b 45 fc             	mov    -0x4(%ebp),%eax
4000afab:	c1 e0 02             	shl    $0x2,%eax
4000afae:	03 45 f0             	add    -0x10(%ebp),%eax
4000afb1:	8b 00                	mov    (%eax),%eax
4000afb3:	89 d1                	mov    %edx,%ecx
4000afb5:	29 c1                	sub    %eax,%ecx
4000afb7:	89 4d dc             	mov    %ecx,-0x24(%ebp)
4000afba:	eb 67                	jmp    4000b023 <memcmp+0xff>
4000afbc:	83 45 fc 01          	addl   $0x1,-0x4(%ebp)
4000afc0:	8b 45 fc             	mov    -0x4(%ebp),%eax
4000afc3:	3b 45 e4             	cmp    -0x1c(%ebp),%eax
4000afc6:	72 bb                	jb     4000af83 <memcmp+0x5f>
4000afc8:	c7 45 fc 00 00 00 00 	movl   $0x0,-0x4(%ebp)
4000afcf:	eb 43                	jmp    4000b014 <memcmp+0xf0>
4000afd1:	8b 55 fc             	mov    -0x4(%ebp),%edx
4000afd4:	8b 45 f4             	mov    -0xc(%ebp),%eax
4000afd7:	01 d0                	add    %edx,%eax
4000afd9:	0f b6 08             	movzbl (%eax),%ecx
4000afdc:	8b 55 fc             	mov    -0x4(%ebp),%edx
4000afdf:	8b 45 f8             	mov    -0x8(%ebp),%eax
4000afe2:	01 d0                	add    %edx,%eax
4000afe4:	0f b6 00             	movzbl (%eax),%eax
4000afe7:	38 c1                	cmp    %al,%cl
4000afe9:	74 25                	je     4000b010 <memcmp+0xec>
4000afeb:	8b 55 fc             	mov    -0x4(%ebp),%edx
4000afee:	8b 45 f4             	mov    -0xc(%ebp),%eax
4000aff1:	01 d0                	add    %edx,%eax
4000aff3:	0f b6 00             	movzbl (%eax),%eax
4000aff6:	0f b6 c8             	movzbl %al,%ecx
4000aff9:	8b 55 fc             	mov    -0x4(%ebp),%edx
4000affc:	8b 45 f8             	mov    -0x8(%ebp),%eax
4000afff:	01 d0                	add    %edx,%eax
4000b001:	0f b6 00             	movzbl (%eax),%eax
4000b004:	0f b6 c0             	movzbl %al,%eax
4000b007:	89 ca                	mov    %ecx,%edx
4000b009:	29 c2                	sub    %eax,%edx
4000b00b:	89 55 dc             	mov    %edx,-0x24(%ebp)
4000b00e:	eb 13                	jmp    4000b023 <memcmp+0xff>
4000b010:	83 45 fc 01          	addl   $0x1,-0x4(%ebp)
4000b014:	8b 45 fc             	mov    -0x4(%ebp),%eax
4000b017:	3b 45 e8             	cmp    -0x18(%ebp),%eax
4000b01a:	72 b5                	jb     4000afd1 <memcmp+0xad>
4000b01c:	c7 45 dc 00 00 00 00 	movl   $0x0,-0x24(%ebp)
4000b023:	8b 45 dc             	mov    -0x24(%ebp),%eax
4000b026:	c9                   	leave  
4000b027:	c3                   	ret    

4000b028 <memcpy>:
4000b028:	55                   	push   %ebp
4000b029:	89 e5                	mov    %esp,%ebp
4000b02b:	83 ec 24             	sub    $0x24,%esp
4000b02e:	8b 45 08             	mov    0x8(%ebp),%eax
4000b031:	3b 45 0c             	cmp    0xc(%ebp),%eax
4000b034:	75 0b                	jne    4000b041 <memcpy+0x19>
4000b036:	8b 45 08             	mov    0x8(%ebp),%eax
4000b039:	89 45 dc             	mov    %eax,-0x24(%ebp)
4000b03c:	e9 9a 00 00 00       	jmp    4000b0db <memcpy+0xb3>
4000b041:	8b 45 10             	mov    0x10(%ebp),%eax
4000b044:	c1 e8 02             	shr    $0x2,%eax
4000b047:	89 45 e4             	mov    %eax,-0x1c(%ebp)
4000b04a:	8b 45 10             	mov    0x10(%ebp),%eax
4000b04d:	83 e0 03             	and    $0x3,%eax
4000b050:	89 45 e8             	mov    %eax,-0x18(%ebp)
4000b053:	8b 45 08             	mov    0x8(%ebp),%eax
4000b056:	89 45 ec             	mov    %eax,-0x14(%ebp)
4000b059:	8b 45 0c             	mov    0xc(%ebp),%eax
4000b05c:	89 45 f0             	mov    %eax,-0x10(%ebp)
4000b05f:	8b 55 08             	mov    0x8(%ebp),%edx
4000b062:	8b 45 e4             	mov    -0x1c(%ebp),%eax
4000b065:	c1 e0 02             	shl    $0x2,%eax
4000b068:	8d 04 02             	lea    (%edx,%eax,1),%eax
4000b06b:	89 45 f4             	mov    %eax,-0xc(%ebp)
4000b06e:	8b 55 0c             	mov    0xc(%ebp),%edx
4000b071:	8b 45 e4             	mov    -0x1c(%ebp),%eax
4000b074:	c1 e0 02             	shl    $0x2,%eax
4000b077:	8d 04 02             	lea    (%edx,%eax,1),%eax
4000b07a:	89 45 f8             	mov    %eax,-0x8(%ebp)
4000b07d:	c7 45 fc 00 00 00 00 	movl   $0x0,-0x4(%ebp)
4000b084:	eb 1c                	jmp    4000b0a2 <memcpy+0x7a>
4000b086:	8b 45 fc             	mov    -0x4(%ebp),%eax
4000b089:	c1 e0 02             	shl    $0x2,%eax
4000b08c:	89 c2                	mov    %eax,%edx
4000b08e:	03 55 ec             	add    -0x14(%ebp),%edx
4000b091:	8b 45 fc             	mov    -0x4(%ebp),%eax
4000b094:	c1 e0 02             	shl    $0x2,%eax
4000b097:	03 45 f0             	add    -0x10(%ebp),%eax
4000b09a:	8b 00                	mov    (%eax),%eax
4000b09c:	89 02                	mov    %eax,(%edx)
4000b09e:	83 45 fc 01          	addl   $0x1,-0x4(%ebp)
4000b0a2:	8b 45 fc             	mov    -0x4(%ebp),%eax
4000b0a5:	3b 45 e4             	cmp    -0x1c(%ebp),%eax
4000b0a8:	72 dc                	jb     4000b086 <memcpy+0x5e>
4000b0aa:	c7 45 fc 00 00 00 00 	movl   $0x0,-0x4(%ebp)
4000b0b1:	eb 1a                	jmp    4000b0cd <memcpy+0xa5>
4000b0b3:	8b 55 fc             	mov    -0x4(%ebp),%edx
4000b0b6:	8b 45 f4             	mov    -0xc(%ebp),%eax
4000b0b9:	8d 0c 10             	lea    (%eax,%edx,1),%ecx
4000b0bc:	8b 55 fc             	mov    -0x4(%ebp),%edx
4000b0bf:	8b 45 f8             	mov    -0x8(%ebp),%eax
4000b0c2:	01 d0                	add    %edx,%eax
4000b0c4:	0f b6 00             	movzbl (%eax),%eax
4000b0c7:	88 01                	mov    %al,(%ecx)
4000b0c9:	83 45 fc 01          	addl   $0x1,-0x4(%ebp)
4000b0cd:	8b 45 fc             	mov    -0x4(%ebp),%eax
4000b0d0:	3b 45 e8             	cmp    -0x18(%ebp),%eax
4000b0d3:	72 de                	jb     4000b0b3 <memcpy+0x8b>
4000b0d5:	8b 45 08             	mov    0x8(%ebp),%eax
4000b0d8:	89 45 dc             	mov    %eax,-0x24(%ebp)
4000b0db:	8b 45 dc             	mov    -0x24(%ebp),%eax
4000b0de:	c9                   	leave  
4000b0df:	c3                   	ret    

4000b0e0 <memmove>:
4000b0e0:	55                   	push   %ebp
4000b0e1:	89 e5                	mov    %esp,%ebp
4000b0e3:	83 ec 24             	sub    $0x24,%esp
4000b0e6:	8b 45 08             	mov    0x8(%ebp),%eax
4000b0e9:	3b 45 0c             	cmp    0xc(%ebp),%eax
4000b0ec:	75 0b                	jne    4000b0f9 <memmove+0x19>
4000b0ee:	8b 45 08             	mov    0x8(%ebp),%eax
4000b0f1:	89 45 dc             	mov    %eax,-0x24(%ebp)
4000b0f4:	e9 07 01 00 00       	jmp    4000b200 <memmove+0x120>
4000b0f9:	8b 45 10             	mov    0x10(%ebp),%eax
4000b0fc:	c1 e8 02             	shr    $0x2,%eax
4000b0ff:	89 45 e4             	mov    %eax,-0x1c(%ebp)
4000b102:	8b 45 10             	mov    0x10(%ebp),%eax
4000b105:	83 e0 03             	and    $0x3,%eax
4000b108:	89 45 e8             	mov    %eax,-0x18(%ebp)
4000b10b:	8b 45 08             	mov    0x8(%ebp),%eax
4000b10e:	89 45 ec             	mov    %eax,-0x14(%ebp)
4000b111:	8b 45 0c             	mov    0xc(%ebp),%eax
4000b114:	89 45 f0             	mov    %eax,-0x10(%ebp)
4000b117:	8b 55 08             	mov    0x8(%ebp),%edx
4000b11a:	8b 45 e4             	mov    -0x1c(%ebp),%eax
4000b11d:	c1 e0 02             	shl    $0x2,%eax
4000b120:	8d 04 02             	lea    (%edx,%eax,1),%eax
4000b123:	89 45 f4             	mov    %eax,-0xc(%ebp)
4000b126:	8b 55 0c             	mov    0xc(%ebp),%edx
4000b129:	8b 45 e4             	mov    -0x1c(%ebp),%eax
4000b12c:	c1 e0 02             	shl    $0x2,%eax
4000b12f:	8d 04 02             	lea    (%edx,%eax,1),%eax
4000b132:	89 45 f8             	mov    %eax,-0x8(%ebp)
4000b135:	8b 45 0c             	mov    0xc(%ebp),%eax
4000b138:	3b 45 08             	cmp    0x8(%ebp),%eax
4000b13b:	76 5a                	jbe    4000b197 <memmove+0xb7>
4000b13d:	c7 45 fc 00 00 00 00 	movl   $0x0,-0x4(%ebp)
4000b144:	eb 1c                	jmp    4000b162 <memmove+0x82>
4000b146:	8b 45 fc             	mov    -0x4(%ebp),%eax
4000b149:	c1 e0 02             	shl    $0x2,%eax
4000b14c:	89 c2                	mov    %eax,%edx
4000b14e:	03 55 ec             	add    -0x14(%ebp),%edx
4000b151:	8b 45 fc             	mov    -0x4(%ebp),%eax
4000b154:	c1 e0 02             	shl    $0x2,%eax
4000b157:	03 45 f0             	add    -0x10(%ebp),%eax
4000b15a:	8b 00                	mov    (%eax),%eax
4000b15c:	89 02                	mov    %eax,(%edx)
4000b15e:	83 45 fc 01          	addl   $0x1,-0x4(%ebp)
4000b162:	8b 45 fc             	mov    -0x4(%ebp),%eax
4000b165:	3b 45 e4             	cmp    -0x1c(%ebp),%eax
4000b168:	72 dc                	jb     4000b146 <memmove+0x66>
4000b16a:	c7 45 fc 00 00 00 00 	movl   $0x0,-0x4(%ebp)
4000b171:	eb 1a                	jmp    4000b18d <memmove+0xad>
4000b173:	8b 55 fc             	mov    -0x4(%ebp),%edx
4000b176:	8b 45 f4             	mov    -0xc(%ebp),%eax
4000b179:	8d 0c 10             	lea    (%eax,%edx,1),%ecx
4000b17c:	8b 55 fc             	mov    -0x4(%ebp),%edx
4000b17f:	8b 45 f8             	mov    -0x8(%ebp),%eax
4000b182:	01 d0                	add    %edx,%eax
4000b184:	0f b6 00             	movzbl (%eax),%eax
4000b187:	88 01                	mov    %al,(%ecx)
4000b189:	83 45 fc 01          	addl   $0x1,-0x4(%ebp)
4000b18d:	8b 45 fc             	mov    -0x4(%ebp),%eax
4000b190:	3b 45 e8             	cmp    -0x18(%ebp),%eax
4000b193:	72 de                	jb     4000b173 <memmove+0x93>
4000b195:	eb 63                	jmp    4000b1fa <memmove+0x11a>
4000b197:	8b 45 e8             	mov    -0x18(%ebp),%eax
4000b19a:	89 45 fc             	mov    %eax,-0x4(%ebp)
4000b19d:	eb 1d                	jmp    4000b1bc <memmove+0xdc>
4000b19f:	8b 45 fc             	mov    -0x4(%ebp),%eax
4000b1a2:	83 e8 01             	sub    $0x1,%eax
4000b1a5:	89 c2                	mov    %eax,%edx
4000b1a7:	03 55 f4             	add    -0xc(%ebp),%edx
4000b1aa:	8b 45 fc             	mov    -0x4(%ebp),%eax
4000b1ad:	83 e8 01             	sub    $0x1,%eax
4000b1b0:	03 45 f8             	add    -0x8(%ebp),%eax
4000b1b3:	0f b6 00             	movzbl (%eax),%eax
4000b1b6:	88 02                	mov    %al,(%edx)
4000b1b8:	83 6d fc 01          	subl   $0x1,-0x4(%ebp)
4000b1bc:	83 7d fc 00          	cmpl   $0x0,-0x4(%ebp)
4000b1c0:	75 dd                	jne    4000b19f <memmove+0xbf>
4000b1c2:	8b 45 e4             	mov    -0x1c(%ebp),%eax
4000b1c5:	89 45 fc             	mov    %eax,-0x4(%ebp)
4000b1c8:	eb 2a                	jmp    4000b1f4 <memmove+0x114>
4000b1ca:	b8 01 00 00 00       	mov    $0x1,%eax
4000b1cf:	2b 45 fc             	sub    -0x4(%ebp),%eax
4000b1d2:	c1 e0 02             	shl    $0x2,%eax
4000b1d5:	f7 d8                	neg    %eax
4000b1d7:	89 c2                	mov    %eax,%edx
4000b1d9:	03 55 ec             	add    -0x14(%ebp),%edx
4000b1dc:	b8 01 00 00 00       	mov    $0x1,%eax
4000b1e1:	2b 45 fc             	sub    -0x4(%ebp),%eax
4000b1e4:	c1 e0 02             	shl    $0x2,%eax
4000b1e7:	f7 d8                	neg    %eax
4000b1e9:	03 45 f0             	add    -0x10(%ebp),%eax
4000b1ec:	8b 00                	mov    (%eax),%eax
4000b1ee:	89 02                	mov    %eax,(%edx)
4000b1f0:	83 6d fc 01          	subl   $0x1,-0x4(%ebp)
4000b1f4:	83 7d fc 00          	cmpl   $0x0,-0x4(%ebp)
4000b1f8:	75 d0                	jne    4000b1ca <memmove+0xea>
4000b1fa:	8b 45 08             	mov    0x8(%ebp),%eax
4000b1fd:	89 45 dc             	mov    %eax,-0x24(%ebp)
4000b200:	8b 45 dc             	mov    -0x24(%ebp),%eax
4000b203:	c9                   	leave  
4000b204:	c3                   	ret    

4000b205 <memset>:
4000b205:	55                   	push   %ebp
4000b206:	89 e5                	mov    %esp,%ebp
4000b208:	83 ec 10             	sub    $0x10,%esp
4000b20b:	8b 45 08             	mov    0x8(%ebp),%eax
4000b20e:	89 45 fc             	mov    %eax,-0x4(%ebp)
4000b211:	c7 45 f8 00 00 00 00 	movl   $0x0,-0x8(%ebp)
4000b218:	eb 12                	jmp    4000b22c <memset+0x27>
4000b21a:	8b 55 f8             	mov    -0x8(%ebp),%edx
4000b21d:	8b 45 fc             	mov    -0x4(%ebp),%eax
4000b220:	8d 14 10             	lea    (%eax,%edx,1),%edx
4000b223:	8b 45 0c             	mov    0xc(%ebp),%eax
4000b226:	88 02                	mov    %al,(%edx)
4000b228:	83 45 f8 01          	addl   $0x1,-0x8(%ebp)
4000b22c:	8b 45 f8             	mov    -0x8(%ebp),%eax
4000b22f:	3b 45 10             	cmp    0x10(%ebp),%eax
4000b232:	72 e6                	jb     4000b21a <memset+0x15>
4000b234:	8b 45 08             	mov    0x8(%ebp),%eax
4000b237:	c9                   	leave  
4000b238:	c3                   	ret    

4000b239 <strcat>:
4000b239:	55                   	push   %ebp
4000b23a:	89 e5                	mov    %esp,%ebp
4000b23c:	83 ec 08             	sub    $0x8,%esp
4000b23f:	8b 45 08             	mov    0x8(%ebp),%eax
4000b242:	89 04 24             	mov    %eax,(%esp)
4000b245:	e8 96 01 00 00       	call   4000b3e0 <strlen>
4000b24a:	89 c2                	mov    %eax,%edx
4000b24c:	03 55 08             	add    0x8(%ebp),%edx
4000b24f:	8b 45 0c             	mov    0xc(%ebp),%eax
4000b252:	89 44 24 04          	mov    %eax,0x4(%esp)
4000b256:	89 14 24             	mov    %edx,(%esp)
4000b259:	e8 ef 00 00 00       	call   4000b34d <strcpy>
4000b25e:	c9                   	leave  
4000b25f:	c3                   	ret    

4000b260 <strchr>:
4000b260:	55                   	push   %ebp
4000b261:	89 e5                	mov    %esp,%ebp
4000b263:	83 ec 14             	sub    $0x14,%esp
4000b266:	c7 45 fc 00 00 00 00 	movl   $0x0,-0x4(%ebp)
4000b26d:	eb 04                	jmp    4000b273 <strchr+0x13>
4000b26f:	83 45 fc 01          	addl   $0x1,-0x4(%ebp)
4000b273:	8b 55 fc             	mov    -0x4(%ebp),%edx
4000b276:	8b 45 08             	mov    0x8(%ebp),%eax
4000b279:	01 d0                	add    %edx,%eax
4000b27b:	0f b6 00             	movzbl (%eax),%eax
4000b27e:	84 c0                	test   %al,%al
4000b280:	74 12                	je     4000b294 <strchr+0x34>
4000b282:	8b 55 fc             	mov    -0x4(%ebp),%edx
4000b285:	8b 45 08             	mov    0x8(%ebp),%eax
4000b288:	01 d0                	add    %edx,%eax
4000b28a:	0f b6 10             	movzbl (%eax),%edx
4000b28d:	8b 45 0c             	mov    0xc(%ebp),%eax
4000b290:	38 c2                	cmp    %al,%dl
4000b292:	75 db                	jne    4000b26f <strchr+0xf>
4000b294:	8b 55 fc             	mov    -0x4(%ebp),%edx
4000b297:	8b 45 08             	mov    0x8(%ebp),%eax
4000b29a:	01 d0                	add    %edx,%eax
4000b29c:	0f b6 00             	movzbl (%eax),%eax
4000b29f:	0f be c0             	movsbl %al,%eax
4000b2a2:	3b 45 0c             	cmp    0xc(%ebp),%eax
4000b2a5:	75 0d                	jne    4000b2b4 <strchr+0x54>
4000b2a7:	8b 45 08             	mov    0x8(%ebp),%eax
4000b2aa:	8b 55 fc             	mov    -0x4(%ebp),%edx
4000b2ad:	01 c2                	add    %eax,%edx
4000b2af:	89 55 ec             	mov    %edx,-0x14(%ebp)
4000b2b2:	eb 07                	jmp    4000b2bb <strchr+0x5b>
4000b2b4:	c7 45 ec 00 00 00 00 	movl   $0x0,-0x14(%ebp)
4000b2bb:	8b 45 ec             	mov    -0x14(%ebp),%eax
4000b2be:	c9                   	leave  
4000b2bf:	c3                   	ret    

4000b2c0 <strcmp>:
4000b2c0:	55                   	push   %ebp
4000b2c1:	89 e5                	mov    %esp,%ebp
4000b2c3:	83 ec 14             	sub    $0x14,%esp
4000b2c6:	8b 45 08             	mov    0x8(%ebp),%eax
4000b2c9:	3b 45 0c             	cmp    0xc(%ebp),%eax
4000b2cc:	75 09                	jne    4000b2d7 <strcmp+0x17>
4000b2ce:	c7 45 ec 00 00 00 00 	movl   $0x0,-0x14(%ebp)
4000b2d5:	eb 71                	jmp    4000b348 <strcmp+0x88>
4000b2d7:	c7 45 fc 00 00 00 00 	movl   $0x0,-0x4(%ebp)
4000b2de:	eb 43                	jmp    4000b323 <strcmp+0x63>
4000b2e0:	8b 55 fc             	mov    -0x4(%ebp),%edx
4000b2e3:	8b 45 08             	mov    0x8(%ebp),%eax
4000b2e6:	01 d0                	add    %edx,%eax
4000b2e8:	0f b6 08             	movzbl (%eax),%ecx
4000b2eb:	8b 55 fc             	mov    -0x4(%ebp),%edx
4000b2ee:	8b 45 0c             	mov    0xc(%ebp),%eax
4000b2f1:	01 d0                	add    %edx,%eax
4000b2f3:	0f b6 00             	movzbl (%eax),%eax
4000b2f6:	38 c1                	cmp    %al,%cl
4000b2f8:	74 25                	je     4000b31f <strcmp+0x5f>
4000b2fa:	8b 55 fc             	mov    -0x4(%ebp),%edx
4000b2fd:	8b 45 08             	mov    0x8(%ebp),%eax
4000b300:	01 d0                	add    %edx,%eax
4000b302:	0f b6 00             	movzbl (%eax),%eax
4000b305:	0f be c8             	movsbl %al,%ecx
4000b308:	8b 55 fc             	mov    -0x4(%ebp),%edx
4000b30b:	8b 45 0c             	mov    0xc(%ebp),%eax
4000b30e:	01 d0                	add    %edx,%eax
4000b310:	0f b6 00             	movzbl (%eax),%eax
4000b313:	0f be c0             	movsbl %al,%eax
4000b316:	89 ca                	mov    %ecx,%edx
4000b318:	29 c2                	sub    %eax,%edx
4000b31a:	89 55 ec             	mov    %edx,-0x14(%ebp)
4000b31d:	eb 29                	jmp    4000b348 <strcmp+0x88>
4000b31f:	83 45 fc 01          	addl   $0x1,-0x4(%ebp)
4000b323:	8b 55 fc             	mov    -0x4(%ebp),%edx
4000b326:	8b 45 08             	mov    0x8(%ebp),%eax
4000b329:	01 d0                	add    %edx,%eax
4000b32b:	0f b6 00             	movzbl (%eax),%eax
4000b32e:	84 c0                	test   %al,%al
4000b330:	75 ae                	jne    4000b2e0 <strcmp+0x20>
4000b332:	8b 55 fc             	mov    -0x4(%ebp),%edx
4000b335:	8b 45 0c             	mov    0xc(%ebp),%eax
4000b338:	01 d0                	add    %edx,%eax
4000b33a:	0f b6 00             	movzbl (%eax),%eax
4000b33d:	84 c0                	test   %al,%al
4000b33f:	75 9f                	jne    4000b2e0 <strcmp+0x20>
4000b341:	c7 45 ec 00 00 00 00 	movl   $0x0,-0x14(%ebp)
4000b348:	8b 45 ec             	mov    -0x14(%ebp),%eax
4000b34b:	c9                   	leave  
4000b34c:	c3                   	ret    

4000b34d <strcpy>:
4000b34d:	55                   	push   %ebp
4000b34e:	89 e5                	mov    %esp,%ebp
4000b350:	83 ec 10             	sub    $0x10,%esp
4000b353:	c7 45 fc 00 00 00 00 	movl   $0x0,-0x4(%ebp)
4000b35a:	eb 1a                	jmp    4000b376 <strcpy+0x29>
4000b35c:	8b 55 fc             	mov    -0x4(%ebp),%edx
4000b35f:	8b 45 08             	mov    0x8(%ebp),%eax
4000b362:	8d 0c 10             	lea    (%eax,%edx,1),%ecx
4000b365:	8b 55 fc             	mov    -0x4(%ebp),%edx
4000b368:	8b 45 0c             	mov    0xc(%ebp),%eax
4000b36b:	01 d0                	add    %edx,%eax
4000b36d:	0f b6 00             	movzbl (%eax),%eax
4000b370:	88 01                	mov    %al,(%ecx)
4000b372:	83 45 fc 01          	addl   $0x1,-0x4(%ebp)
4000b376:	8b 55 fc             	mov    -0x4(%ebp),%edx
4000b379:	8b 45 0c             	mov    0xc(%ebp),%eax
4000b37c:	01 d0                	add    %edx,%eax
4000b37e:	0f b6 00             	movzbl (%eax),%eax
4000b381:	84 c0                	test   %al,%al
4000b383:	75 d7                	jne    4000b35c <strcpy+0xf>
4000b385:	8b 55 fc             	mov    -0x4(%ebp),%edx
4000b388:	8b 45 08             	mov    0x8(%ebp),%eax
4000b38b:	01 d0                	add    %edx,%eax
4000b38d:	c6 00 00             	movb   $0x0,(%eax)
4000b390:	8b 45 08             	mov    0x8(%ebp),%eax
4000b393:	c9                   	leave  
4000b394:	c3                   	ret    

4000b395 <strdup>:
4000b395:	55                   	push   %ebp
4000b396:	89 e5                	mov    %esp,%ebp
4000b398:	83 ec 28             	sub    $0x28,%esp
4000b39b:	8b 45 08             	mov    0x8(%ebp),%eax
4000b39e:	89 04 24             	mov    %eax,(%esp)
4000b3a1:	e8 3a 00 00 00       	call   4000b3e0 <strlen>
4000b3a6:	83 c0 01             	add    $0x1,%eax
4000b3a9:	89 45 fc             	mov    %eax,-0x4(%ebp)
4000b3ac:	8b 45 fc             	mov    -0x4(%ebp),%eax
4000b3af:	89 04 24             	mov    %eax,(%esp)
4000b3b2:	e8 99 c8 ff ff       	call   40007c50 <malloc>
4000b3b7:	89 c2                	mov    %eax,%edx
4000b3b9:	8b 45 fc             	mov    -0x4(%ebp),%eax
4000b3bc:	89 44 24 08          	mov    %eax,0x8(%esp)
4000b3c0:	8b 45 08             	mov    0x8(%ebp),%eax
4000b3c3:	89 44 24 04          	mov    %eax,0x4(%esp)
4000b3c7:	89 14 24             	mov    %edx,(%esp)
4000b3ca:	e8 59 fc ff ff       	call   4000b028 <memcpy>
4000b3cf:	c9                   	leave  
4000b3d0:	c3                   	ret    

4000b3d1 <strerror>:
4000b3d1:	55                   	push   %ebp
4000b3d2:	89 e5                	mov    %esp,%ebp
4000b3d4:	8b 45 08             	mov    0x8(%ebp),%eax
4000b3d7:	8b 04 85 60 10 01 40 	mov    0x40011060(,%eax,4),%eax
4000b3de:	5d                   	pop    %ebp
4000b3df:	c3                   	ret    

4000b3e0 <strlen>:
4000b3e0:	55                   	push   %ebp
4000b3e1:	89 e5                	mov    %esp,%ebp
4000b3e3:	83 ec 10             	sub    $0x10,%esp
4000b3e6:	c7 45 fc 00 00 00 00 	movl   $0x0,-0x4(%ebp)
4000b3ed:	eb 04                	jmp    4000b3f3 <strlen+0x13>
4000b3ef:	83 45 fc 01          	addl   $0x1,-0x4(%ebp)
4000b3f3:	8b 55 fc             	mov    -0x4(%ebp),%edx
4000b3f6:	8b 45 08             	mov    0x8(%ebp),%eax
4000b3f9:	01 d0                	add    %edx,%eax
4000b3fb:	0f b6 00             	movzbl (%eax),%eax
4000b3fe:	84 c0                	test   %al,%al
4000b400:	75 ed                	jne    4000b3ef <strlen+0xf>
4000b402:	8b 45 fc             	mov    -0x4(%ebp),%eax
4000b405:	c9                   	leave  
4000b406:	c3                   	ret    

4000b407 <strncat>:
4000b407:	55                   	push   %ebp
4000b408:	89 e5                	mov    %esp,%ebp
4000b40a:	83 ec 1c             	sub    $0x1c,%esp
4000b40d:	8b 45 0c             	mov    0xc(%ebp),%eax
4000b410:	89 04 24             	mov    %eax,(%esp)
4000b413:	e8 c8 ff ff ff       	call   4000b3e0 <strlen>
4000b418:	89 45 f4             	mov    %eax,-0xc(%ebp)
4000b41b:	8b 45 10             	mov    0x10(%ebp),%eax
4000b41e:	89 45 e8             	mov    %eax,-0x18(%ebp)
4000b421:	8b 45 f4             	mov    -0xc(%ebp),%eax
4000b424:	89 45 ec             	mov    %eax,-0x14(%ebp)
4000b427:	8b 45 e8             	mov    -0x18(%ebp),%eax
4000b42a:	39 45 ec             	cmp    %eax,-0x14(%ebp)
4000b42d:	76 06                	jbe    4000b435 <strncat+0x2e>
4000b42f:	8b 45 e8             	mov    -0x18(%ebp),%eax
4000b432:	89 45 ec             	mov    %eax,-0x14(%ebp)
4000b435:	8b 45 ec             	mov    -0x14(%ebp),%eax
4000b438:	89 45 f4             	mov    %eax,-0xc(%ebp)
4000b43b:	8b 45 08             	mov    0x8(%ebp),%eax
4000b43e:	89 04 24             	mov    %eax,(%esp)
4000b441:	e8 9a ff ff ff       	call   4000b3e0 <strlen>
4000b446:	89 45 f8             	mov    %eax,-0x8(%ebp)
4000b449:	c7 45 fc 00 00 00 00 	movl   $0x0,-0x4(%ebp)
4000b450:	eb 1e                	jmp    4000b470 <strncat+0x69>
4000b452:	8b 55 fc             	mov    -0x4(%ebp),%edx
4000b455:	8b 45 f8             	mov    -0x8(%ebp),%eax
4000b458:	01 d0                	add    %edx,%eax
4000b45a:	89 c1                	mov    %eax,%ecx
4000b45c:	03 4d 08             	add    0x8(%ebp),%ecx
4000b45f:	8b 55 fc             	mov    -0x4(%ebp),%edx
4000b462:	8b 45 0c             	mov    0xc(%ebp),%eax
4000b465:	01 d0                	add    %edx,%eax
4000b467:	0f b6 00             	movzbl (%eax),%eax
4000b46a:	88 01                	mov    %al,(%ecx)
4000b46c:	83 45 fc 01          	addl   $0x1,-0x4(%ebp)
4000b470:	8b 45 fc             	mov    -0x4(%ebp),%eax
4000b473:	3b 45 f4             	cmp    -0xc(%ebp),%eax
4000b476:	72 da                	jb     4000b452 <strncat+0x4b>
4000b478:	8b 55 f4             	mov    -0xc(%ebp),%edx
4000b47b:	8b 45 f8             	mov    -0x8(%ebp),%eax
4000b47e:	01 d0                	add    %edx,%eax
4000b480:	03 45 08             	add    0x8(%ebp),%eax
4000b483:	c6 00 00             	movb   $0x0,(%eax)
4000b486:	8b 45 08             	mov    0x8(%ebp),%eax
4000b489:	c9                   	leave  
4000b48a:	c3                   	ret    

4000b48b <strncmp>:
4000b48b:	55                   	push   %ebp
4000b48c:	89 e5                	mov    %esp,%ebp
4000b48e:	83 ec 14             	sub    $0x14,%esp
4000b491:	8b 45 08             	mov    0x8(%ebp),%eax
4000b494:	3b 45 0c             	cmp    0xc(%ebp),%eax
4000b497:	75 09                	jne    4000b4a2 <strncmp+0x17>
4000b499:	c7 45 ec 00 00 00 00 	movl   $0x0,-0x14(%ebp)
4000b4a0:	eb 79                	jmp    4000b51b <strncmp+0x90>
4000b4a2:	c7 45 fc 00 00 00 00 	movl   $0x0,-0x4(%ebp)
4000b4a9:	eb 43                	jmp    4000b4ee <strncmp+0x63>
4000b4ab:	8b 55 fc             	mov    -0x4(%ebp),%edx
4000b4ae:	8b 45 08             	mov    0x8(%ebp),%eax
4000b4b1:	01 d0                	add    %edx,%eax
4000b4b3:	0f b6 08             	movzbl (%eax),%ecx
4000b4b6:	8b 55 fc             	mov    -0x4(%ebp),%edx
4000b4b9:	8b 45 0c             	mov    0xc(%ebp),%eax
4000b4bc:	01 d0                	add    %edx,%eax
4000b4be:	0f b6 00             	movzbl (%eax),%eax
4000b4c1:	38 c1                	cmp    %al,%cl
4000b4c3:	74 25                	je     4000b4ea <strncmp+0x5f>
4000b4c5:	8b 55 fc             	mov    -0x4(%ebp),%edx
4000b4c8:	8b 45 08             	mov    0x8(%ebp),%eax
4000b4cb:	01 d0                	add    %edx,%eax
4000b4cd:	0f b6 00             	movzbl (%eax),%eax
4000b4d0:	0f be c8             	movsbl %al,%ecx
4000b4d3:	8b 55 fc             	mov    -0x4(%ebp),%edx
4000b4d6:	8b 45 0c             	mov    0xc(%ebp),%eax
4000b4d9:	01 d0                	add    %edx,%eax
4000b4db:	0f b6 00             	movzbl (%eax),%eax
4000b4de:	0f be c0             	movsbl %al,%eax
4000b4e1:	89 ca                	mov    %ecx,%edx
4000b4e3:	29 c2                	sub    %eax,%edx
4000b4e5:	89 55 ec             	mov    %edx,-0x14(%ebp)
4000b4e8:	eb 31                	jmp    4000b51b <strncmp+0x90>
4000b4ea:	83 45 fc 01          	addl   $0x1,-0x4(%ebp)
4000b4ee:	8b 55 fc             	mov    -0x4(%ebp),%edx
4000b4f1:	8b 45 08             	mov    0x8(%ebp),%eax
4000b4f4:	01 d0                	add    %edx,%eax
4000b4f6:	0f b6 00             	movzbl (%eax),%eax
4000b4f9:	84 c0                	test   %al,%al
4000b4fb:	75 0f                	jne    4000b50c <strncmp+0x81>
4000b4fd:	8b 55 fc             	mov    -0x4(%ebp),%edx
4000b500:	8b 45 0c             	mov    0xc(%ebp),%eax
4000b503:	01 d0                	add    %edx,%eax
4000b505:	0f b6 00             	movzbl (%eax),%eax
4000b508:	84 c0                	test   %al,%al
4000b50a:	74 08                	je     4000b514 <strncmp+0x89>
4000b50c:	8b 45 fc             	mov    -0x4(%ebp),%eax
4000b50f:	3b 45 10             	cmp    0x10(%ebp),%eax
4000b512:	72 97                	jb     4000b4ab <strncmp+0x20>
4000b514:	c7 45 ec 00 00 00 00 	movl   $0x0,-0x14(%ebp)
4000b51b:	8b 45 ec             	mov    -0x14(%ebp),%eax
4000b51e:	c9                   	leave  
4000b51f:	c3                   	ret    

4000b520 <strncpy>:
4000b520:	55                   	push   %ebp
4000b521:	89 e5                	mov    %esp,%ebp
4000b523:	83 ec 1c             	sub    $0x1c,%esp
4000b526:	8b 45 0c             	mov    0xc(%ebp),%eax
4000b529:	89 04 24             	mov    %eax,(%esp)
4000b52c:	e8 af fe ff ff       	call   4000b3e0 <strlen>
4000b531:	83 c0 01             	add    $0x1,%eax
4000b534:	89 45 fc             	mov    %eax,-0x4(%ebp)
4000b537:	8b 45 10             	mov    0x10(%ebp),%eax
4000b53a:	3b 45 fc             	cmp    -0x4(%ebp),%eax
4000b53d:	73 06                	jae    4000b545 <strncpy+0x25>
4000b53f:	8b 45 10             	mov    0x10(%ebp),%eax
4000b542:	89 45 fc             	mov    %eax,-0x4(%ebp)
4000b545:	8b 45 fc             	mov    -0x4(%ebp),%eax
4000b548:	83 e8 01             	sub    $0x1,%eax
4000b54b:	89 44 24 08          	mov    %eax,0x8(%esp)
4000b54f:	8b 45 0c             	mov    0xc(%ebp),%eax
4000b552:	89 44 24 04          	mov    %eax,0x4(%esp)
4000b556:	8b 45 08             	mov    0x8(%ebp),%eax
4000b559:	89 04 24             	mov    %eax,(%esp)
4000b55c:	e8 c7 fa ff ff       	call   4000b028 <memcpy>
4000b561:	8b 45 fc             	mov    -0x4(%ebp),%eax
4000b564:	83 e8 01             	sub    $0x1,%eax
4000b567:	03 45 08             	add    0x8(%ebp),%eax
4000b56a:	c6 00 00             	movb   $0x0,(%eax)
4000b56d:	8b 45 08             	mov    0x8(%ebp),%eax
4000b570:	c9                   	leave  
4000b571:	c3                   	ret    

4000b572 <__strxspn>:
4000b572:	55                   	push   %ebp
4000b573:	89 e5                	mov    %esp,%ebp
4000b575:	81 ec 1c 01 00 00    	sub    $0x11c,%esp
4000b57b:	c7 45 fc 00 00 00 00 	movl   $0x0,-0x4(%ebp)
4000b582:	c7 44 24 08 00 01 00 	movl   $0x100,0x8(%esp)
4000b589:	00 
4000b58a:	c7 44 24 04 00 00 00 	movl   $0x0,0x4(%esp)
4000b591:	00 
4000b592:	8d 85 fc fe ff ff    	lea    -0x104(%ebp),%eax
4000b598:	89 04 24             	mov    %eax,(%esp)
4000b59b:	e8 65 fc ff ff       	call   4000b205 <memset>
4000b5a0:	eb 15                	jmp    4000b5b7 <__strxspn+0x45>
4000b5a2:	8b 45 0c             	mov    0xc(%ebp),%eax
4000b5a5:	0f b6 00             	movzbl (%eax),%eax
4000b5a8:	0f b6 c0             	movzbl %al,%eax
4000b5ab:	c6 84 05 fc fe ff ff 	movb   $0x1,-0x104(%ebp,%eax,1)
4000b5b2:	01 
4000b5b3:	83 45 0c 01          	addl   $0x1,0xc(%ebp)
4000b5b7:	8b 45 0c             	mov    0xc(%ebp),%eax
4000b5ba:	0f b6 00             	movzbl (%eax),%eax
4000b5bd:	84 c0                	test   %al,%al
4000b5bf:	75 e1                	jne    4000b5a2 <__strxspn+0x30>
4000b5c1:	8b 45 10             	mov    0x10(%ebp),%eax
4000b5c4:	88 85 fc fe ff ff    	mov    %al,-0x104(%ebp)
4000b5ca:	eb 04                	jmp    4000b5d0 <__strxspn+0x5e>
4000b5cc:	83 45 fc 01          	addl   $0x1,-0x4(%ebp)
4000b5d0:	8b 45 08             	mov    0x8(%ebp),%eax
4000b5d3:	0f b6 00             	movzbl (%eax),%eax
4000b5d6:	0f b6 c0             	movzbl %al,%eax
4000b5d9:	0f b6 84 05 fc fe ff 	movzbl -0x104(%ebp,%eax,1),%eax
4000b5e0:	ff 
4000b5e1:	0f be c0             	movsbl %al,%eax
4000b5e4:	3b 45 10             	cmp    0x10(%ebp),%eax
4000b5e7:	0f 95 c0             	setne  %al
4000b5ea:	83 45 08 01          	addl   $0x1,0x8(%ebp)
4000b5ee:	84 c0                	test   %al,%al
4000b5f0:	75 da                	jne    4000b5cc <__strxspn+0x5a>
4000b5f2:	8b 45 fc             	mov    -0x4(%ebp),%eax
4000b5f5:	c9                   	leave  
4000b5f6:	c3                   	ret    

4000b5f7 <strpbrk>:
4000b5f7:	55                   	push   %ebp
4000b5f8:	89 e5                	mov    %esp,%ebp
4000b5fa:	83 ec 20             	sub    $0x20,%esp
4000b5fd:	c7 44 24 08 01 00 00 	movl   $0x1,0x8(%esp)
4000b604:	00 
4000b605:	8b 45 0c             	mov    0xc(%ebp),%eax
4000b608:	89 44 24 04          	mov    %eax,0x4(%esp)
4000b60c:	8b 45 08             	mov    0x8(%ebp),%eax
4000b60f:	89 04 24             	mov    %eax,(%esp)
4000b612:	e8 5b ff ff ff       	call   4000b572 <__strxspn>
4000b617:	03 45 08             	add    0x8(%ebp),%eax
4000b61a:	89 45 fc             	mov    %eax,-0x4(%ebp)
4000b61d:	8b 45 fc             	mov    -0x4(%ebp),%eax
4000b620:	0f b6 00             	movzbl (%eax),%eax
4000b623:	84 c0                	test   %al,%al
4000b625:	74 08                	je     4000b62f <strpbrk+0x38>
4000b627:	8b 45 fc             	mov    -0x4(%ebp),%eax
4000b62a:	89 45 ec             	mov    %eax,-0x14(%ebp)
4000b62d:	eb 07                	jmp    4000b636 <strpbrk+0x3f>
4000b62f:	c7 45 ec 00 00 00 00 	movl   $0x0,-0x14(%ebp)
4000b636:	8b 45 ec             	mov    -0x14(%ebp),%eax
4000b639:	c9                   	leave  
4000b63a:	c3                   	ret    

4000b63b <strsep>:
4000b63b:	55                   	push   %ebp
4000b63c:	89 e5                	mov    %esp,%ebp
4000b63e:	83 ec 1c             	sub    $0x1c,%esp
4000b641:	8b 45 08             	mov    0x8(%ebp),%eax
4000b644:	8b 00                	mov    (%eax),%eax
4000b646:	89 45 f8             	mov    %eax,-0x8(%ebp)
4000b649:	83 7d f8 00          	cmpl   $0x0,-0x8(%ebp)
4000b64d:	75 09                	jne    4000b658 <strsep+0x1d>
4000b64f:	c7 45 ec 00 00 00 00 	movl   $0x0,-0x14(%ebp)
4000b656:	eb 33                	jmp    4000b68b <strsep+0x50>
4000b658:	8b 45 0c             	mov    0xc(%ebp),%eax
4000b65b:	89 44 24 04          	mov    %eax,0x4(%esp)
4000b65f:	8b 45 f8             	mov    -0x8(%ebp),%eax
4000b662:	89 04 24             	mov    %eax,(%esp)
4000b665:	e8 8d ff ff ff       	call   4000b5f7 <strpbrk>
4000b66a:	89 45 fc             	mov    %eax,-0x4(%ebp)
4000b66d:	83 7d fc 00          	cmpl   $0x0,-0x4(%ebp)
4000b671:	74 0a                	je     4000b67d <strsep+0x42>
4000b673:	8b 45 fc             	mov    -0x4(%ebp),%eax
4000b676:	c6 00 00             	movb   $0x0,(%eax)
4000b679:	83 45 fc 01          	addl   $0x1,-0x4(%ebp)
4000b67d:	8b 55 08             	mov    0x8(%ebp),%edx
4000b680:	8b 45 fc             	mov    -0x4(%ebp),%eax
4000b683:	89 02                	mov    %eax,(%edx)
4000b685:	8b 45 f8             	mov    -0x8(%ebp),%eax
4000b688:	89 45 ec             	mov    %eax,-0x14(%ebp)
4000b68b:	8b 45 ec             	mov    -0x14(%ebp),%eax
4000b68e:	c9                   	leave  
4000b68f:	c3                   	ret    

4000b690 <strtok>:
4000b690:	55                   	push   %ebp
4000b691:	89 e5                	mov    %esp,%ebp
4000b693:	83 ec 08             	sub    $0x8,%esp
4000b696:	83 7d 08 00          	cmpl   $0x0,0x8(%ebp)
4000b69a:	74 08                	je     4000b6a4 <strtok+0x14>
4000b69c:	8b 45 08             	mov    0x8(%ebp),%eax
4000b69f:	a3 7c 14 01 40       	mov    %eax,0x4001147c
4000b6a4:	8b 45 0c             	mov    0xc(%ebp),%eax
4000b6a7:	89 44 24 04          	mov    %eax,0x4(%esp)
4000b6ab:	c7 04 24 7c 14 01 40 	movl   $0x4001147c,(%esp)
4000b6b2:	e8 84 ff ff ff       	call   4000b63b <strsep>
4000b6b7:	89 45 08             	mov    %eax,0x8(%ebp)
4000b6ba:	83 7d 08 00          	cmpl   $0x0,0x8(%ebp)
4000b6be:	74 0a                	je     4000b6ca <strtok+0x3a>
4000b6c0:	8b 45 08             	mov    0x8(%ebp),%eax
4000b6c3:	0f b6 00             	movzbl (%eax),%eax
4000b6c6:	84 c0                	test   %al,%al
4000b6c8:	74 da                	je     4000b6a4 <strtok+0x14>
4000b6ca:	8b 45 08             	mov    0x8(%ebp),%eax
4000b6cd:	c9                   	leave  
4000b6ce:	c3                   	ret    

4000b6cf <strntoumax>:
4000b6cf:	55                   	push   %ebp
4000b6d0:	89 e5                	mov    %esp,%ebp
4000b6d2:	53                   	push   %ebx
4000b6d3:	83 ec 34             	sub    $0x34,%esp
4000b6d6:	c7 45 e4 00 00 00 00 	movl   $0x0,-0x1c(%ebp)
4000b6dd:	c7 45 e8 00 00 00 00 	movl   $0x0,-0x18(%ebp)
4000b6e4:	c7 45 ec 00 00 00 00 	movl   $0x0,-0x14(%ebp)
4000b6eb:	eb 08                	jmp    4000b6f5 <strntoumax+0x26>
4000b6ed:	83 45 08 01          	addl   $0x1,0x8(%ebp)
4000b6f1:	83 6d 14 01          	subl   $0x1,0x14(%ebp)
4000b6f5:	83 7d 14 00          	cmpl   $0x0,0x14(%ebp)
4000b6f9:	74 3c                	je     4000b737 <strntoumax+0x68>
4000b6fb:	8b 45 08             	mov    0x8(%ebp),%eax
4000b6fe:	0f b6 00             	movzbl (%eax),%eax
4000b701:	3c 20                	cmp    $0x20,%al
4000b703:	74 e8                	je     4000b6ed <strntoumax+0x1e>
4000b705:	8b 45 08             	mov    0x8(%ebp),%eax
4000b708:	0f b6 00             	movzbl (%eax),%eax
4000b70b:	3c 0c                	cmp    $0xc,%al
4000b70d:	74 de                	je     4000b6ed <strntoumax+0x1e>
4000b70f:	8b 45 08             	mov    0x8(%ebp),%eax
4000b712:	0f b6 00             	movzbl (%eax),%eax
4000b715:	3c 0a                	cmp    $0xa,%al
4000b717:	74 d4                	je     4000b6ed <strntoumax+0x1e>
4000b719:	8b 45 08             	mov    0x8(%ebp),%eax
4000b71c:	0f b6 00             	movzbl (%eax),%eax
4000b71f:	3c 0d                	cmp    $0xd,%al
4000b721:	74 ca                	je     4000b6ed <strntoumax+0x1e>
4000b723:	8b 45 08             	mov    0x8(%ebp),%eax
4000b726:	0f b6 00             	movzbl (%eax),%eax
4000b729:	3c 09                	cmp    $0x9,%al
4000b72b:	74 c0                	je     4000b6ed <strntoumax+0x1e>
4000b72d:	8b 45 08             	mov    0x8(%ebp),%eax
4000b730:	0f b6 00             	movzbl (%eax),%eax
4000b733:	3c 0b                	cmp    $0xb,%al
4000b735:	74 b6                	je     4000b6ed <strntoumax+0x1e>
4000b737:	83 7d 14 00          	cmpl   $0x0,0x14(%ebp)
4000b73b:	74 2a                	je     4000b767 <strntoumax+0x98>
4000b73d:	8b 45 08             	mov    0x8(%ebp),%eax
4000b740:	0f b6 00             	movzbl (%eax),%eax
4000b743:	88 45 f7             	mov    %al,-0x9(%ebp)
4000b746:	80 7d f7 2d          	cmpb   $0x2d,-0x9(%ebp)
4000b74a:	74 06                	je     4000b752 <strntoumax+0x83>
4000b74c:	80 7d f7 2b          	cmpb   $0x2b,-0x9(%ebp)
4000b750:	75 15                	jne    4000b767 <strntoumax+0x98>
4000b752:	80 7d f7 2d          	cmpb   $0x2d,-0x9(%ebp)
4000b756:	0f 94 c0             	sete   %al
4000b759:	0f b6 c0             	movzbl %al,%eax
4000b75c:	89 45 e4             	mov    %eax,-0x1c(%ebp)
4000b75f:	83 45 08 01          	addl   $0x1,0x8(%ebp)
4000b763:	83 6d 14 01          	subl   $0x1,0x14(%ebp)
4000b767:	83 7d 10 00          	cmpl   $0x0,0x10(%ebp)
4000b76b:	75 68                	jne    4000b7d5 <strntoumax+0x106>
4000b76d:	83 7d 14 01          	cmpl   $0x1,0x14(%ebp)
4000b771:	76 38                	jbe    4000b7ab <strntoumax+0xdc>
4000b773:	8b 45 08             	mov    0x8(%ebp),%eax
4000b776:	0f b6 00             	movzbl (%eax),%eax
4000b779:	3c 30                	cmp    $0x30,%al
4000b77b:	75 2e                	jne    4000b7ab <strntoumax+0xdc>
4000b77d:	8b 45 08             	mov    0x8(%ebp),%eax
4000b780:	83 c0 01             	add    $0x1,%eax
4000b783:	0f b6 00             	movzbl (%eax),%eax
4000b786:	3c 78                	cmp    $0x78,%al
4000b788:	74 0d                	je     4000b797 <strntoumax+0xc8>
4000b78a:	8b 45 08             	mov    0x8(%ebp),%eax
4000b78d:	83 c0 01             	add    $0x1,%eax
4000b790:	0f b6 00             	movzbl (%eax),%eax
4000b793:	3c 58                	cmp    $0x58,%al
4000b795:	75 14                	jne    4000b7ab <strntoumax+0xdc>
4000b797:	83 6d 14 02          	subl   $0x2,0x14(%ebp)
4000b79b:	83 45 08 02          	addl   $0x2,0x8(%ebp)
4000b79f:	c7 45 10 10 00 00 00 	movl   $0x10,0x10(%ebp)
4000b7a6:	e9 9b 00 00 00       	jmp    4000b846 <strntoumax+0x177>
4000b7ab:	83 7d 14 00          	cmpl   $0x0,0x14(%ebp)
4000b7af:	74 1b                	je     4000b7cc <strntoumax+0xfd>
4000b7b1:	8b 45 08             	mov    0x8(%ebp),%eax
4000b7b4:	0f b6 00             	movzbl (%eax),%eax
4000b7b7:	3c 30                	cmp    $0x30,%al
4000b7b9:	75 11                	jne    4000b7cc <strntoumax+0xfd>
4000b7bb:	83 6d 14 01          	subl   $0x1,0x14(%ebp)
4000b7bf:	83 45 08 01          	addl   $0x1,0x8(%ebp)
4000b7c3:	c7 45 10 08 00 00 00 	movl   $0x8,0x10(%ebp)
4000b7ca:	eb 7a                	jmp    4000b846 <strntoumax+0x177>
4000b7cc:	c7 45 10 0a 00 00 00 	movl   $0xa,0x10(%ebp)
4000b7d3:	eb 71                	jmp    4000b846 <strntoumax+0x177>
4000b7d5:	83 7d 10 10          	cmpl   $0x10,0x10(%ebp)
4000b7d9:	75 6b                	jne    4000b846 <strntoumax+0x177>
4000b7db:	83 7d 14 01          	cmpl   $0x1,0x14(%ebp)
4000b7df:	76 65                	jbe    4000b846 <strntoumax+0x177>
4000b7e1:	8b 45 08             	mov    0x8(%ebp),%eax
4000b7e4:	0f b6 00             	movzbl (%eax),%eax
4000b7e7:	3c 30                	cmp    $0x30,%al
4000b7e9:	75 5b                	jne    4000b846 <strntoumax+0x177>
4000b7eb:	8b 45 08             	mov    0x8(%ebp),%eax
4000b7ee:	83 c0 01             	add    $0x1,%eax
4000b7f1:	0f b6 00             	movzbl (%eax),%eax
4000b7f4:	3c 78                	cmp    $0x78,%al
4000b7f6:	74 0d                	je     4000b805 <strntoumax+0x136>
4000b7f8:	8b 45 08             	mov    0x8(%ebp),%eax
4000b7fb:	83 c0 01             	add    $0x1,%eax
4000b7fe:	0f b6 00             	movzbl (%eax),%eax
4000b801:	3c 58                	cmp    $0x58,%al
4000b803:	75 41                	jne    4000b846 <strntoumax+0x177>
4000b805:	83 6d 14 02          	subl   $0x2,0x14(%ebp)
4000b809:	83 45 08 02          	addl   $0x2,0x8(%ebp)
4000b80d:	eb 37                	jmp    4000b846 <strntoumax+0x177>
4000b80f:	8b 45 10             	mov    0x10(%ebp),%eax
4000b812:	89 c2                	mov    %eax,%edx
4000b814:	c1 fa 1f             	sar    $0x1f,%edx
4000b817:	8b 4d e8             	mov    -0x18(%ebp),%ecx
4000b81a:	0f af ca             	imul   %edx,%ecx
4000b81d:	8b 5d ec             	mov    -0x14(%ebp),%ebx
4000b820:	0f af d8             	imul   %eax,%ebx
4000b823:	01 d9                	add    %ebx,%ecx
4000b825:	f7 65 e8             	mull   -0x18(%ebp)
4000b828:	01 d1                	add    %edx,%ecx
4000b82a:	89 ca                	mov    %ecx,%edx
4000b82c:	8b 4d f0             	mov    -0x10(%ebp),%ecx
4000b82f:	89 cb                	mov    %ecx,%ebx
4000b831:	c1 fb 1f             	sar    $0x1f,%ebx
4000b834:	01 c8                	add    %ecx,%eax
4000b836:	11 da                	adc    %ebx,%edx
4000b838:	89 45 e8             	mov    %eax,-0x18(%ebp)
4000b83b:	89 55 ec             	mov    %edx,-0x14(%ebp)
4000b83e:	83 6d 14 01          	subl   $0x1,0x14(%ebp)
4000b842:	83 45 08 01          	addl   $0x1,0x8(%ebp)
4000b846:	83 7d 14 00          	cmpl   $0x0,0x14(%ebp)
4000b84a:	74 22                	je     4000b86e <strntoumax+0x19f>
4000b84c:	8b 45 08             	mov    0x8(%ebp),%eax
4000b84f:	0f b6 00             	movzbl (%eax),%eax
4000b852:	0f be c0             	movsbl %al,%eax
4000b855:	89 04 24             	mov    %eax,(%esp)
4000b858:	e8 56 00 00 00       	call   4000b8b3 <digitval>
4000b85d:	89 45 f0             	mov    %eax,-0x10(%ebp)
4000b860:	83 7d f0 00          	cmpl   $0x0,-0x10(%ebp)
4000b864:	78 08                	js     4000b86e <strntoumax+0x19f>
4000b866:	8b 45 f0             	mov    -0x10(%ebp),%eax
4000b869:	3b 45 10             	cmp    0x10(%ebp),%eax
4000b86c:	7c a1                	jl     4000b80f <strntoumax+0x140>
4000b86e:	83 7d 0c 00          	cmpl   $0x0,0xc(%ebp)
4000b872:	74 08                	je     4000b87c <strntoumax+0x1ad>
4000b874:	8b 55 08             	mov    0x8(%ebp),%edx
4000b877:	8b 45 0c             	mov    0xc(%ebp),%eax
4000b87a:	89 10                	mov    %edx,(%eax)
4000b87c:	83 7d e4 00          	cmpl   $0x0,-0x1c(%ebp)
4000b880:	74 19                	je     4000b89b <strntoumax+0x1cc>
4000b882:	8b 45 e8             	mov    -0x18(%ebp),%eax
4000b885:	8b 55 ec             	mov    -0x14(%ebp),%edx
4000b888:	89 c1                	mov    %eax,%ecx
4000b88a:	89 d3                	mov    %edx,%ebx
4000b88c:	f7 d9                	neg    %ecx
4000b88e:	83 d3 00             	adc    $0x0,%ebx
4000b891:	f7 db                	neg    %ebx
4000b893:	89 4d d0             	mov    %ecx,-0x30(%ebp)
4000b896:	89 5d d4             	mov    %ebx,-0x2c(%ebp)
4000b899:	eb 0c                	jmp    4000b8a7 <strntoumax+0x1d8>
4000b89b:	8b 45 e8             	mov    -0x18(%ebp),%eax
4000b89e:	8b 55 ec             	mov    -0x14(%ebp),%edx
4000b8a1:	89 45 d0             	mov    %eax,-0x30(%ebp)
4000b8a4:	89 55 d4             	mov    %edx,-0x2c(%ebp)
4000b8a7:	8b 45 d0             	mov    -0x30(%ebp),%eax
4000b8aa:	8b 55 d4             	mov    -0x2c(%ebp),%edx
4000b8ad:	83 c4 34             	add    $0x34,%esp
4000b8b0:	5b                   	pop    %ebx
4000b8b1:	5d                   	pop    %ebp
4000b8b2:	c3                   	ret    

4000b8b3 <digitval>:
4000b8b3:	55                   	push   %ebp
4000b8b4:	89 e5                	mov    %esp,%ebp
4000b8b6:	83 ec 04             	sub    $0x4,%esp
4000b8b9:	83 7d 08 2f          	cmpl   $0x2f,0x8(%ebp)
4000b8bd:	7e 11                	jle    4000b8d0 <digitval+0x1d>
4000b8bf:	83 7d 08 39          	cmpl   $0x39,0x8(%ebp)
4000b8c3:	7f 0b                	jg     4000b8d0 <digitval+0x1d>
4000b8c5:	8b 45 08             	mov    0x8(%ebp),%eax
4000b8c8:	83 e8 30             	sub    $0x30,%eax
4000b8cb:	89 45 fc             	mov    %eax,-0x4(%ebp)
4000b8ce:	eb 35                	jmp    4000b905 <digitval+0x52>
4000b8d0:	83 7d 08 40          	cmpl   $0x40,0x8(%ebp)
4000b8d4:	7e 11                	jle    4000b8e7 <digitval+0x34>
4000b8d6:	83 7d 08 5a          	cmpl   $0x5a,0x8(%ebp)
4000b8da:	7f 0b                	jg     4000b8e7 <digitval+0x34>
4000b8dc:	8b 45 08             	mov    0x8(%ebp),%eax
4000b8df:	83 e8 37             	sub    $0x37,%eax
4000b8e2:	89 45 fc             	mov    %eax,-0x4(%ebp)
4000b8e5:	eb 1e                	jmp    4000b905 <digitval+0x52>
4000b8e7:	83 7d 08 60          	cmpl   $0x60,0x8(%ebp)
4000b8eb:	7e 11                	jle    4000b8fe <digitval+0x4b>
4000b8ed:	83 7d 08 7a          	cmpl   $0x7a,0x8(%ebp)
4000b8f1:	7f 0b                	jg     4000b8fe <digitval+0x4b>
4000b8f3:	8b 45 08             	mov    0x8(%ebp),%eax
4000b8f6:	83 e8 57             	sub    $0x57,%eax
4000b8f9:	89 45 fc             	mov    %eax,-0x4(%ebp)
4000b8fc:	eb 07                	jmp    4000b905 <digitval+0x52>
4000b8fe:	c7 45 fc ff ff ff ff 	movl   $0xffffffff,-0x4(%ebp)
4000b905:	8b 45 fc             	mov    -0x4(%ebp),%eax
4000b908:	c9                   	leave  
4000b909:	c3                   	ret    

4000b90a <strrchr>:
4000b90a:	55                   	push   %ebp
4000b90b:	89 e5                	mov    %esp,%ebp
4000b90d:	83 ec 10             	sub    $0x10,%esp
4000b910:	c7 45 f8 00 00 00 00 	movl   $0x0,-0x8(%ebp)
4000b917:	c7 45 fc 00 00 00 00 	movl   $0x0,-0x4(%ebp)
4000b91e:	eb 20                	jmp    4000b940 <strrchr+0x36>
4000b920:	8b 55 fc             	mov    -0x4(%ebp),%edx
4000b923:	8b 45 08             	mov    0x8(%ebp),%eax
4000b926:	01 d0                	add    %edx,%eax
4000b928:	0f b6 00             	movzbl (%eax),%eax
4000b92b:	0f be c0             	movsbl %al,%eax
4000b92e:	3b 45 0c             	cmp    0xc(%ebp),%eax
4000b931:	75 09                	jne    4000b93c <strrchr+0x32>
4000b933:	8b 45 08             	mov    0x8(%ebp),%eax
4000b936:	03 45 fc             	add    -0x4(%ebp),%eax
4000b939:	89 45 f8             	mov    %eax,-0x8(%ebp)
4000b93c:	83 45 fc 01          	addl   $0x1,-0x4(%ebp)
4000b940:	8b 55 fc             	mov    -0x4(%ebp),%edx
4000b943:	8b 45 08             	mov    0x8(%ebp),%eax
4000b946:	01 d0                	add    %edx,%eax
4000b948:	0f b6 00             	movzbl (%eax),%eax
4000b94b:	84 c0                	test   %al,%al
4000b94d:	75 d1                	jne    4000b920 <strrchr+0x16>
4000b94f:	8b 45 f8             	mov    -0x8(%ebp),%eax
4000b952:	c9                   	leave  
4000b953:	c3                   	ret    

4000b954 <strxspn>:
4000b954:	55                   	push   %ebp
4000b955:	89 e5                	mov    %esp,%ebp
4000b957:	81 ec 1c 01 00 00    	sub    $0x11c,%esp
4000b95d:	c7 45 fc 00 00 00 00 	movl   $0x0,-0x4(%ebp)
4000b964:	c7 44 24 08 00 01 00 	movl   $0x100,0x8(%esp)
4000b96b:	00 
4000b96c:	c7 44 24 04 00 00 00 	movl   $0x0,0x4(%esp)
4000b973:	00 
4000b974:	8d 85 fc fe ff ff    	lea    -0x104(%ebp),%eax
4000b97a:	89 04 24             	mov    %eax,(%esp)
4000b97d:	e8 83 f8 ff ff       	call   4000b205 <memset>
4000b982:	eb 15                	jmp    4000b999 <strxspn+0x45>
4000b984:	8b 45 0c             	mov    0xc(%ebp),%eax
4000b987:	0f b6 00             	movzbl (%eax),%eax
4000b98a:	0f b6 c0             	movzbl %al,%eax
4000b98d:	c6 84 05 fc fe ff ff 	movb   $0x1,-0x104(%ebp,%eax,1)
4000b994:	01 
4000b995:	83 45 0c 01          	addl   $0x1,0xc(%ebp)
4000b999:	8b 45 0c             	mov    0xc(%ebp),%eax
4000b99c:	0f b6 00             	movzbl (%eax),%eax
4000b99f:	84 c0                	test   %al,%al
4000b9a1:	75 e1                	jne    4000b984 <strxspn+0x30>
4000b9a3:	8b 45 10             	mov    0x10(%ebp),%eax
4000b9a6:	88 85 fc fe ff ff    	mov    %al,-0x104(%ebp)
4000b9ac:	eb 04                	jmp    4000b9b2 <strxspn+0x5e>
4000b9ae:	83 45 fc 01          	addl   $0x1,-0x4(%ebp)
4000b9b2:	8b 45 08             	mov    0x8(%ebp),%eax
4000b9b5:	0f b6 00             	movzbl (%eax),%eax
4000b9b8:	0f b6 c0             	movzbl %al,%eax
4000b9bb:	0f b6 84 05 fc fe ff 	movzbl -0x104(%ebp,%eax,1),%eax
4000b9c2:	ff 
4000b9c3:	0f be c0             	movsbl %al,%eax
4000b9c6:	3b 45 10             	cmp    0x10(%ebp),%eax
4000b9c9:	0f 95 c0             	setne  %al
4000b9cc:	83 45 08 01          	addl   $0x1,0x8(%ebp)
4000b9d0:	84 c0                	test   %al,%al
4000b9d2:	75 da                	jne    4000b9ae <strxspn+0x5a>
4000b9d4:	8b 45 fc             	mov    -0x4(%ebp),%eax
4000b9d7:	c9                   	leave  
4000b9d8:	c3                   	ret    

4000b9d9 <strspn>:
4000b9d9:	55                   	push   %ebp
4000b9da:	89 e5                	mov    %esp,%ebp
4000b9dc:	83 ec 0c             	sub    $0xc,%esp
4000b9df:	c7 44 24 08 00 00 00 	movl   $0x0,0x8(%esp)
4000b9e6:	00 
4000b9e7:	8b 45 0c             	mov    0xc(%ebp),%eax
4000b9ea:	89 44 24 04          	mov    %eax,0x4(%esp)
4000b9ee:	8b 45 08             	mov    0x8(%ebp),%eax
4000b9f1:	89 04 24             	mov    %eax,(%esp)
4000b9f4:	e8 5b ff ff ff       	call   4000b954 <strxspn>
4000b9f9:	c9                   	leave  
4000b9fa:	c3                   	ret    

4000b9fb <strcspn>:
4000b9fb:	55                   	push   %ebp
4000b9fc:	89 e5                	mov    %esp,%ebp
4000b9fe:	83 ec 0c             	sub    $0xc,%esp
4000ba01:	c7 44 24 08 01 00 00 	movl   $0x1,0x8(%esp)
4000ba08:	00 
4000ba09:	8b 45 0c             	mov    0xc(%ebp),%eax
4000ba0c:	89 44 24 04          	mov    %eax,0x4(%esp)
4000ba10:	8b 45 08             	mov    0x8(%ebp),%eax
4000ba13:	89 04 24             	mov    %eax,(%esp)
4000ba16:	e8 39 ff ff ff       	call   4000b954 <strxspn>
4000ba1b:	c9                   	leave  
4000ba1c:	c3                   	ret    
4000ba1d:	90                   	nop    
4000ba1e:	90                   	nop    
4000ba1f:	90                   	nop    

4000ba20 <llist_create>:
4000ba20:	55                   	push   %ebp
4000ba21:	89 e5                	mov    %esp,%ebp
4000ba23:	83 ec 18             	sub    $0x18,%esp
4000ba26:	c7 04 24 08 00 00 00 	movl   $0x8,(%esp)
4000ba2d:	e8 1e c2 ff ff       	call   40007c50 <malloc>
4000ba32:	89 45 fc             	mov    %eax,-0x4(%ebp)
4000ba35:	8b 45 fc             	mov    -0x4(%ebp),%eax
4000ba38:	c7 00 00 00 00 00    	movl   $0x0,(%eax)
4000ba3e:	8b 45 fc             	mov    -0x4(%ebp),%eax
4000ba41:	c7 40 04 00 00 00 00 	movl   $0x0,0x4(%eax)
4000ba48:	8b 45 fc             	mov    -0x4(%ebp),%eax
4000ba4b:	c9                   	leave  
4000ba4c:	c3                   	ret    

4000ba4d <llist_destroy>:
4000ba4d:	55                   	push   %ebp
4000ba4e:	89 e5                	mov    %esp,%ebp
4000ba50:	83 ec 08             	sub    $0x8,%esp
4000ba53:	8b 45 08             	mov    0x8(%ebp),%eax
4000ba56:	89 04 24             	mov    %eax,(%esp)
4000ba59:	e8 96 00 00 00       	call   4000baf4 <llist_pop>
4000ba5e:	85 c0                	test   %eax,%eax
4000ba60:	75 f1                	jne    4000ba53 <llist_destroy+0x6>
4000ba62:	8b 45 08             	mov    0x8(%ebp),%eax
4000ba65:	89 04 24             	mov    %eax,(%esp)
4000ba68:	e8 9a c6 ff ff       	call   40008107 <free>
4000ba6d:	c9                   	leave  
4000ba6e:	c3                   	ret    

4000ba6f <llist_size>:
4000ba6f:	55                   	push   %ebp
4000ba70:	89 e5                	mov    %esp,%ebp
4000ba72:	83 ec 04             	sub    $0x4,%esp
4000ba75:	83 7d 08 00          	cmpl   $0x0,0x8(%ebp)
4000ba79:	74 09                	je     4000ba84 <llist_size+0x15>
4000ba7b:	8b 45 08             	mov    0x8(%ebp),%eax
4000ba7e:	8b 00                	mov    (%eax),%eax
4000ba80:	85 c0                	test   %eax,%eax
4000ba82:	75 09                	jne    4000ba8d <llist_size+0x1e>
4000ba84:	c7 45 fc 00 00 00 00 	movl   $0x0,-0x4(%ebp)
4000ba8b:	eb 09                	jmp    4000ba96 <llist_size+0x27>
4000ba8d:	8b 45 08             	mov    0x8(%ebp),%eax
4000ba90:	8b 40 04             	mov    0x4(%eax),%eax
4000ba93:	89 45 fc             	mov    %eax,-0x4(%ebp)
4000ba96:	8b 45 fc             	mov    -0x4(%ebp),%eax
4000ba99:	c9                   	leave  
4000ba9a:	c3                   	ret    

4000ba9b <llist_push>:
4000ba9b:	55                   	push   %ebp
4000ba9c:	89 e5                	mov    %esp,%ebp
4000ba9e:	83 ec 18             	sub    $0x18,%esp
4000baa1:	83 7d 08 00          	cmpl   $0x0,0x8(%ebp)
4000baa5:	75 09                	jne    4000bab0 <llist_push+0x15>
4000baa7:	c7 45 ec 00 00 00 00 	movl   $0x0,-0x14(%ebp)
4000baae:	eb 3f                	jmp    4000baef <llist_push+0x54>
4000bab0:	c7 04 24 08 00 00 00 	movl   $0x8,(%esp)
4000bab7:	e8 94 c1 ff ff       	call   40007c50 <malloc>
4000babc:	89 45 fc             	mov    %eax,-0x4(%ebp)
4000babf:	8b 55 fc             	mov    -0x4(%ebp),%edx
4000bac2:	8b 45 0c             	mov    0xc(%ebp),%eax
4000bac5:	89 42 04             	mov    %eax,0x4(%edx)
4000bac8:	8b 45 08             	mov    0x8(%ebp),%eax
4000bacb:	8b 10                	mov    (%eax),%edx
4000bacd:	8b 45 fc             	mov    -0x4(%ebp),%eax
4000bad0:	89 10                	mov    %edx,(%eax)
4000bad2:	8b 55 08             	mov    0x8(%ebp),%edx
4000bad5:	8b 45 fc             	mov    -0x4(%ebp),%eax
4000bad8:	89 02                	mov    %eax,(%edx)
4000bada:	8b 45 08             	mov    0x8(%ebp),%eax
4000badd:	8b 40 04             	mov    0x4(%eax),%eax
4000bae0:	8d 50 01             	lea    0x1(%eax),%edx
4000bae3:	8b 45 08             	mov    0x8(%ebp),%eax
4000bae6:	89 50 04             	mov    %edx,0x4(%eax)
4000bae9:	8b 45 08             	mov    0x8(%ebp),%eax
4000baec:	89 45 ec             	mov    %eax,-0x14(%ebp)
4000baef:	8b 45 ec             	mov    -0x14(%ebp),%eax
4000baf2:	c9                   	leave  
4000baf3:	c3                   	ret    

4000baf4 <llist_pop>:
4000baf4:	55                   	push   %ebp
4000baf5:	89 e5                	mov    %esp,%ebp
4000baf7:	83 ec 18             	sub    $0x18,%esp
4000bafa:	83 7d 08 00          	cmpl   $0x0,0x8(%ebp)
4000bafe:	75 09                	jne    4000bb09 <llist_pop+0x15>
4000bb00:	c7 45 ec 00 00 00 00 	movl   $0x0,-0x14(%ebp)
4000bb07:	eb 51                	jmp    4000bb5a <llist_pop+0x66>
4000bb09:	8b 45 08             	mov    0x8(%ebp),%eax
4000bb0c:	8b 00                	mov    (%eax),%eax
4000bb0e:	85 c0                	test   %eax,%eax
4000bb10:	74 3b                	je     4000bb4d <llist_pop+0x59>
4000bb12:	8b 45 08             	mov    0x8(%ebp),%eax
4000bb15:	8b 00                	mov    (%eax),%eax
4000bb17:	8b 40 04             	mov    0x4(%eax),%eax
4000bb1a:	89 45 fc             	mov    %eax,-0x4(%ebp)
4000bb1d:	8b 45 08             	mov    0x8(%ebp),%eax
4000bb20:	8b 00                	mov    (%eax),%eax
4000bb22:	89 45 f8             	mov    %eax,-0x8(%ebp)
4000bb25:	8b 45 08             	mov    0x8(%ebp),%eax
4000bb28:	8b 00                	mov    (%eax),%eax
4000bb2a:	8b 10                	mov    (%eax),%edx
4000bb2c:	8b 45 08             	mov    0x8(%ebp),%eax
4000bb2f:	89 10                	mov    %edx,(%eax)
4000bb31:	8b 45 f8             	mov    -0x8(%ebp),%eax
4000bb34:	89 04 24             	mov    %eax,(%esp)
4000bb37:	e8 cb c5 ff ff       	call   40008107 <free>
4000bb3c:	8b 45 08             	mov    0x8(%ebp),%eax
4000bb3f:	8b 40 04             	mov    0x4(%eax),%eax
4000bb42:	8d 50 ff             	lea    -0x1(%eax),%edx
4000bb45:	8b 45 08             	mov    0x8(%ebp),%eax
4000bb48:	89 50 04             	mov    %edx,0x4(%eax)
4000bb4b:	eb 07                	jmp    4000bb54 <llist_pop+0x60>
4000bb4d:	c7 45 fc 00 00 00 00 	movl   $0x0,-0x4(%ebp)
4000bb54:	8b 45 fc             	mov    -0x4(%ebp),%eax
4000bb57:	89 45 ec             	mov    %eax,-0x14(%ebp)
4000bb5a:	8b 45 ec             	mov    -0x14(%ebp),%eax
4000bb5d:	c9                   	leave  
4000bb5e:	c3                   	ret    

4000bb5f <llist_get_node_at>:
4000bb5f:	55                   	push   %ebp
4000bb60:	89 e5                	mov    %esp,%ebp
4000bb62:	83 ec 14             	sub    $0x14,%esp
4000bb65:	83 7d 08 00          	cmpl   $0x0,0x8(%ebp)
4000bb69:	74 09                	je     4000bb74 <llist_get_node_at+0x15>
4000bb6b:	8b 45 08             	mov    0x8(%ebp),%eax
4000bb6e:	8b 00                	mov    (%eax),%eax
4000bb70:	85 c0                	test   %eax,%eax
4000bb72:	75 09                	jne    4000bb7d <llist_get_node_at+0x1e>
4000bb74:	c7 45 ec 00 00 00 00 	movl   $0x0,-0x14(%ebp)
4000bb7b:	eb 51                	jmp    4000bbce <llist_get_node_at+0x6f>
4000bb7d:	8b 45 08             	mov    0x8(%ebp),%eax
4000bb80:	8b 00                	mov    (%eax),%eax
4000bb82:	89 45 f8             	mov    %eax,-0x8(%ebp)
4000bb85:	8b 45 0c             	mov    0xc(%ebp),%eax
4000bb88:	89 45 fc             	mov    %eax,-0x4(%ebp)
4000bb8b:	8b 45 08             	mov    0x8(%ebp),%eax
4000bb8e:	8b 40 04             	mov    0x4(%eax),%eax
4000bb91:	83 e8 01             	sub    $0x1,%eax
4000bb94:	3b 45 0c             	cmp    0xc(%ebp),%eax
4000bb97:	73 20                	jae    4000bbb9 <llist_get_node_at+0x5a>
4000bb99:	c7 45 ec 00 00 00 00 	movl   $0x0,-0x14(%ebp)
4000bba0:	eb 2c                	jmp    4000bbce <llist_get_node_at+0x6f>
4000bba2:	8b 45 f8             	mov    -0x8(%ebp),%eax
4000bba5:	8b 00                	mov    (%eax),%eax
4000bba7:	89 45 f8             	mov    %eax,-0x8(%ebp)
4000bbaa:	83 7d f8 00          	cmpl   $0x0,-0x8(%ebp)
4000bbae:	75 09                	jne    4000bbb9 <llist_get_node_at+0x5a>
4000bbb0:	c7 45 ec 00 00 00 00 	movl   $0x0,-0x14(%ebp)
4000bbb7:	eb 15                	jmp    4000bbce <llist_get_node_at+0x6f>
4000bbb9:	83 7d fc 00          	cmpl   $0x0,-0x4(%ebp)
4000bbbd:	0f 95 c0             	setne  %al
4000bbc0:	83 6d fc 01          	subl   $0x1,-0x4(%ebp)
4000bbc4:	84 c0                	test   %al,%al
4000bbc6:	75 da                	jne    4000bba2 <llist_get_node_at+0x43>
4000bbc8:	8b 45 f8             	mov    -0x8(%ebp),%eax
4000bbcb:	89 45 ec             	mov    %eax,-0x14(%ebp)
4000bbce:	8b 45 ec             	mov    -0x14(%ebp),%eax
4000bbd1:	c9                   	leave  
4000bbd2:	c3                   	ret    

4000bbd3 <llist_get>:
4000bbd3:	55                   	push   %ebp
4000bbd4:	89 e5                	mov    %esp,%ebp
4000bbd6:	83 ec 1c             	sub    $0x1c,%esp
4000bbd9:	8b 45 0c             	mov    0xc(%ebp),%eax
4000bbdc:	89 44 24 04          	mov    %eax,0x4(%esp)
4000bbe0:	8b 45 08             	mov    0x8(%ebp),%eax
4000bbe3:	89 04 24             	mov    %eax,(%esp)
4000bbe6:	e8 74 ff ff ff       	call   4000bb5f <llist_get_node_at>
4000bbeb:	89 45 fc             	mov    %eax,-0x4(%ebp)
4000bbee:	83 7d fc 00          	cmpl   $0x0,-0x4(%ebp)
4000bbf2:	75 09                	jne    4000bbfd <llist_get+0x2a>
4000bbf4:	c7 45 ec 00 00 00 00 	movl   $0x0,-0x14(%ebp)
4000bbfb:	eb 09                	jmp    4000bc06 <llist_get+0x33>
4000bbfd:	8b 45 fc             	mov    -0x4(%ebp),%eax
4000bc00:	8b 40 04             	mov    0x4(%eax),%eax
4000bc03:	89 45 ec             	mov    %eax,-0x14(%ebp)
4000bc06:	8b 45 ec             	mov    -0x14(%ebp),%eax
4000bc09:	c9                   	leave  
4000bc0a:	c3                   	ret    

4000bc0b <llist_insert>:
4000bc0b:	55                   	push   %ebp
4000bc0c:	89 e5                	mov    %esp,%ebp
4000bc0e:	83 ec 28             	sub    $0x28,%esp
4000bc11:	c7 04 24 08 00 00 00 	movl   $0x8,(%esp)
4000bc18:	e8 33 c0 ff ff       	call   40007c50 <malloc>
4000bc1d:	89 45 f8             	mov    %eax,-0x8(%ebp)
4000bc20:	8b 55 f8             	mov    -0x8(%ebp),%edx
4000bc23:	8b 45 10             	mov    0x10(%ebp),%eax
4000bc26:	89 42 04             	mov    %eax,0x4(%edx)
4000bc29:	83 7d 08 00          	cmpl   $0x0,0x8(%ebp)
4000bc2d:	75 09                	jne    4000bc38 <llist_insert+0x2d>
4000bc2f:	c7 45 ec 00 00 00 00 	movl   $0x0,-0x14(%ebp)
4000bc36:	eb 68                	jmp    4000bca0 <llist_insert+0x95>
4000bc38:	83 7d 0c 00          	cmpl   $0x0,0xc(%ebp)
4000bc3c:	74 3b                	je     4000bc79 <llist_insert+0x6e>
4000bc3e:	8b 45 0c             	mov    0xc(%ebp),%eax
4000bc41:	83 e8 01             	sub    $0x1,%eax
4000bc44:	89 44 24 04          	mov    %eax,0x4(%esp)
4000bc48:	8b 45 08             	mov    0x8(%ebp),%eax
4000bc4b:	89 04 24             	mov    %eax,(%esp)
4000bc4e:	e8 0c ff ff ff       	call   4000bb5f <llist_get_node_at>
4000bc53:	89 45 fc             	mov    %eax,-0x4(%ebp)
4000bc56:	83 7d fc 00          	cmpl   $0x0,-0x4(%ebp)
4000bc5a:	75 09                	jne    4000bc65 <llist_insert+0x5a>
4000bc5c:	c7 45 ec 00 00 00 00 	movl   $0x0,-0x14(%ebp)
4000bc63:	eb 3b                	jmp    4000bca0 <llist_insert+0x95>
4000bc65:	8b 45 fc             	mov    -0x4(%ebp),%eax
4000bc68:	8b 10                	mov    (%eax),%edx
4000bc6a:	8b 45 f8             	mov    -0x8(%ebp),%eax
4000bc6d:	89 10                	mov    %edx,(%eax)
4000bc6f:	8b 55 fc             	mov    -0x4(%ebp),%edx
4000bc72:	8b 45 f8             	mov    -0x8(%ebp),%eax
4000bc75:	89 02                	mov    %eax,(%edx)
4000bc77:	eb 12                	jmp    4000bc8b <llist_insert+0x80>
4000bc79:	8b 45 08             	mov    0x8(%ebp),%eax
4000bc7c:	8b 10                	mov    (%eax),%edx
4000bc7e:	8b 45 f8             	mov    -0x8(%ebp),%eax
4000bc81:	89 10                	mov    %edx,(%eax)
4000bc83:	8b 55 08             	mov    0x8(%ebp),%edx
4000bc86:	8b 45 f8             	mov    -0x8(%ebp),%eax
4000bc89:	89 02                	mov    %eax,(%edx)
4000bc8b:	8b 45 08             	mov    0x8(%ebp),%eax
4000bc8e:	8b 40 04             	mov    0x4(%eax),%eax
4000bc91:	8d 50 01             	lea    0x1(%eax),%edx
4000bc94:	8b 45 08             	mov    0x8(%ebp),%eax
4000bc97:	89 50 04             	mov    %edx,0x4(%eax)
4000bc9a:	8b 45 08             	mov    0x8(%ebp),%eax
4000bc9d:	89 45 ec             	mov    %eax,-0x14(%ebp)
4000bca0:	8b 45 ec             	mov    -0x14(%ebp),%eax
4000bca3:	c9                   	leave  
4000bca4:	c3                   	ret    

4000bca5 <llist_remove>:
4000bca5:	55                   	push   %ebp
4000bca6:	89 e5                	mov    %esp,%ebp
4000bca8:	83 ec 28             	sub    $0x28,%esp
4000bcab:	83 7d 08 00          	cmpl   $0x0,0x8(%ebp)
4000bcaf:	75 0c                	jne    4000bcbd <llist_remove+0x18>
4000bcb1:	c7 45 ec 00 00 00 00 	movl   $0x0,-0x14(%ebp)
4000bcb8:	e9 ab 00 00 00       	jmp    4000bd68 <llist_remove+0xc3>
4000bcbd:	83 7d 0c 00          	cmpl   $0x0,0xc(%ebp)
4000bcc1:	74 58                	je     4000bd1b <llist_remove+0x76>
4000bcc3:	8b 45 0c             	mov    0xc(%ebp),%eax
4000bcc6:	83 e8 01             	sub    $0x1,%eax
4000bcc9:	89 44 24 04          	mov    %eax,0x4(%esp)
4000bccd:	8b 45 08             	mov    0x8(%ebp),%eax
4000bcd0:	89 04 24             	mov    %eax,(%esp)
4000bcd3:	e8 87 fe ff ff       	call   4000bb5f <llist_get_node_at>
4000bcd8:	89 45 fc             	mov    %eax,-0x4(%ebp)
4000bcdb:	83 7d fc 00          	cmpl   $0x0,-0x4(%ebp)
4000bcdf:	74 09                	je     4000bcea <llist_remove+0x45>
4000bce1:	8b 45 fc             	mov    -0x4(%ebp),%eax
4000bce4:	8b 00                	mov    (%eax),%eax
4000bce6:	85 c0                	test   %eax,%eax
4000bce8:	75 09                	jne    4000bcf3 <llist_remove+0x4e>
4000bcea:	c7 45 ec 00 00 00 00 	movl   $0x0,-0x14(%ebp)
4000bcf1:	eb 75                	jmp    4000bd68 <llist_remove+0xc3>
4000bcf3:	8b 45 fc             	mov    -0x4(%ebp),%eax
4000bcf6:	8b 00                	mov    (%eax),%eax
4000bcf8:	89 45 f8             	mov    %eax,-0x8(%ebp)
4000bcfb:	8b 45 f8             	mov    -0x8(%ebp),%eax
4000bcfe:	8b 10                	mov    (%eax),%edx
4000bd00:	8b 45 fc             	mov    -0x4(%ebp),%eax
4000bd03:	89 10                	mov    %edx,(%eax)
4000bd05:	8b 45 f8             	mov    -0x8(%ebp),%eax
4000bd08:	8b 40 04             	mov    0x4(%eax),%eax
4000bd0b:	89 45 f4             	mov    %eax,-0xc(%ebp)
4000bd0e:	8b 45 f8             	mov    -0x8(%ebp),%eax
4000bd11:	89 04 24             	mov    %eax,(%esp)
4000bd14:	e8 ee c3 ff ff       	call   40008107 <free>
4000bd19:	eb 38                	jmp    4000bd53 <llist_remove+0xae>
4000bd1b:	8b 45 08             	mov    0x8(%ebp),%eax
4000bd1e:	8b 00                	mov    (%eax),%eax
4000bd20:	85 c0                	test   %eax,%eax
4000bd22:	75 09                	jne    4000bd2d <llist_remove+0x88>
4000bd24:	c7 45 ec 00 00 00 00 	movl   $0x0,-0x14(%ebp)
4000bd2b:	eb 3b                	jmp    4000bd68 <llist_remove+0xc3>
4000bd2d:	8b 45 08             	mov    0x8(%ebp),%eax
4000bd30:	8b 00                	mov    (%eax),%eax
4000bd32:	89 45 f8             	mov    %eax,-0x8(%ebp)
4000bd35:	8b 45 f8             	mov    -0x8(%ebp),%eax
4000bd38:	8b 10                	mov    (%eax),%edx
4000bd3a:	8b 45 08             	mov    0x8(%ebp),%eax
4000bd3d:	89 10                	mov    %edx,(%eax)
4000bd3f:	8b 45 f8             	mov    -0x8(%ebp),%eax
4000bd42:	8b 40 04             	mov    0x4(%eax),%eax
4000bd45:	89 45 f4             	mov    %eax,-0xc(%ebp)
4000bd48:	8b 45 f8             	mov    -0x8(%ebp),%eax
4000bd4b:	89 04 24             	mov    %eax,(%esp)
4000bd4e:	e8 b4 c3 ff ff       	call   40008107 <free>
4000bd53:	8b 45 08             	mov    0x8(%ebp),%eax
4000bd56:	8b 40 04             	mov    0x4(%eax),%eax
4000bd59:	8d 50 ff             	lea    -0x1(%eax),%edx
4000bd5c:	8b 45 08             	mov    0x8(%ebp),%eax
4000bd5f:	89 50 04             	mov    %edx,0x4(%eax)
4000bd62:	8b 45 f4             	mov    -0xc(%ebp),%eax
4000bd65:	89 45 ec             	mov    %eax,-0x14(%ebp)
4000bd68:	8b 45 ec             	mov    -0x14(%ebp),%eax
4000bd6b:	c9                   	leave  
4000bd6c:	c3                   	ret    

4000bd6d <llist_find>:
4000bd6d:	55                   	push   %ebp
4000bd6e:	89 e5                	mov    %esp,%ebp
4000bd70:	83 ec 1c             	sub    $0x1c,%esp
4000bd73:	c7 45 fc 00 00 00 00 	movl   $0x0,-0x4(%ebp)
4000bd7a:	eb 14                	jmp    4000bd90 <llist_find+0x23>
4000bd7c:	8b 45 f8             	mov    -0x8(%ebp),%eax
4000bd7f:	3b 45 0c             	cmp    0xc(%ebp),%eax
4000bd82:	75 08                	jne    4000bd8c <llist_find+0x1f>
4000bd84:	8b 45 fc             	mov    -0x4(%ebp),%eax
4000bd87:	89 45 ec             	mov    %eax,-0x14(%ebp)
4000bd8a:	eb 26                	jmp    4000bdb2 <llist_find+0x45>
4000bd8c:	83 45 fc 01          	addl   $0x1,-0x4(%ebp)
4000bd90:	8b 45 fc             	mov    -0x4(%ebp),%eax
4000bd93:	89 44 24 04          	mov    %eax,0x4(%esp)
4000bd97:	8b 45 08             	mov    0x8(%ebp),%eax
4000bd9a:	89 04 24             	mov    %eax,(%esp)
4000bd9d:	e8 31 fe ff ff       	call   4000bbd3 <llist_get>
4000bda2:	89 45 f8             	mov    %eax,-0x8(%ebp)
4000bda5:	83 7d f8 00          	cmpl   $0x0,-0x8(%ebp)
4000bda9:	75 d1                	jne    4000bd7c <llist_find+0xf>
4000bdab:	c7 45 ec ff ff ff ff 	movl   $0xffffffff,-0x14(%ebp)
4000bdb2:	8b 45 ec             	mov    -0x14(%ebp),%eax
4000bdb5:	c9                   	leave  
4000bdb6:	c3                   	ret    

4000bdb7 <llist_copy>:
4000bdb7:	55                   	push   %ebp
4000bdb8:	89 e5                	mov    %esp,%ebp
4000bdba:	83 ec 18             	sub    $0x18,%esp
4000bdbd:	e8 5e fc ff ff       	call   4000ba20 <llist_create>
4000bdc2:	89 45 fc             	mov    %eax,-0x4(%ebp)
4000bdc5:	c7 45 f4 00 00 00 00 	movl   $0x0,-0xc(%ebp)
4000bdcc:	eb 16                	jmp    4000bde4 <llist_copy+0x2d>
4000bdce:	8b 45 f8             	mov    -0x8(%ebp),%eax
4000bdd1:	89 44 24 04          	mov    %eax,0x4(%esp)
4000bdd5:	8b 45 fc             	mov    -0x4(%ebp),%eax
4000bdd8:	89 04 24             	mov    %eax,(%esp)
4000bddb:	e8 bb fc ff ff       	call   4000ba9b <llist_push>
4000bde0:	83 45 f4 01          	addl   $0x1,-0xc(%ebp)
4000bde4:	8b 45 f4             	mov    -0xc(%ebp),%eax
4000bde7:	89 44 24 04          	mov    %eax,0x4(%esp)
4000bdeb:	8b 45 08             	mov    0x8(%ebp),%eax
4000bdee:	89 04 24             	mov    %eax,(%esp)
4000bdf1:	e8 dd fd ff ff       	call   4000bbd3 <llist_get>
4000bdf6:	89 45 f8             	mov    %eax,-0x8(%ebp)
4000bdf9:	83 7d f8 00          	cmpl   $0x0,-0x8(%ebp)
4000bdfd:	75 cf                	jne    4000bdce <llist_copy+0x17>
4000bdff:	8b 45 fc             	mov    -0x4(%ebp),%eax
4000be02:	c9                   	leave  
4000be03:	c3                   	ret    

4000be04 <cmos_read>:
4000be04:	55                   	push   %ebp
4000be05:	89 e5                	mov    %esp,%ebp
4000be07:	83 ec 18             	sub    $0x18,%esp
4000be0a:	c7 04 24 70 00 00 00 	movl   $0x70,(%esp)
4000be11:	e8 55 00 00 00       	call   4000be6b <inb>
4000be16:	89 c2                	mov    %eax,%edx
4000be18:	83 e2 80             	and    $0xffffff80,%edx
4000be1b:	8b 45 08             	mov    0x8(%ebp),%eax
4000be1e:	83 e0 7f             	and    $0x7f,%eax
4000be21:	09 d0                	or     %edx,%eax
4000be23:	0f b6 c0             	movzbl %al,%eax
4000be26:	89 44 24 04          	mov    %eax,0x4(%esp)
4000be2a:	c7 04 24 70 00 00 00 	movl   $0x70,(%esp)
4000be31:	e8 17 00 00 00       	call   4000be4d <outb>
4000be36:	c7 04 24 71 00 00 00 	movl   $0x71,(%esp)
4000be3d:	e8 29 00 00 00       	call   4000be6b <inb>
4000be42:	0f b6 c0             	movzbl %al,%eax
4000be45:	89 45 fc             	mov    %eax,-0x4(%ebp)
4000be48:	8b 45 fc             	mov    -0x4(%ebp),%eax
4000be4b:	c9                   	leave  
4000be4c:	c3                   	ret    

4000be4d <outb>:
4000be4d:	55                   	push   %ebp
4000be4e:	89 e5                	mov    %esp,%ebp
4000be50:	83 ec 08             	sub    $0x8,%esp
4000be53:	8b 45 08             	mov    0x8(%ebp),%eax
4000be56:	8b 55 0c             	mov    0xc(%ebp),%edx
4000be59:	66 89 45 fc          	mov    %ax,-0x4(%ebp)
4000be5d:	88 55 f8             	mov    %dl,-0x8(%ebp)
4000be60:	0f b6 45 f8          	movzbl -0x8(%ebp),%eax
4000be64:	0f b7 55 fc          	movzwl -0x4(%ebp),%edx
4000be68:	ee                   	out    %al,(%dx)
4000be69:	c9                   	leave  
4000be6a:	c3                   	ret    

4000be6b <inb>:
4000be6b:	55                   	push   %ebp
4000be6c:	89 e5                	mov    %esp,%ebp
4000be6e:	83 ec 14             	sub    $0x14,%esp
4000be71:	8b 45 08             	mov    0x8(%ebp),%eax
4000be74:	66 89 45 ec          	mov    %ax,-0x14(%ebp)
4000be78:	0f b7 55 ec          	movzwl -0x14(%ebp),%edx
4000be7c:	ec                   	in     (%dx),%al
4000be7d:	88 45 ff             	mov    %al,-0x1(%ebp)
4000be80:	0f b6 45 ff          	movzbl -0x1(%ebp),%eax
4000be84:	c9                   	leave  
4000be85:	c3                   	ret    

4000be86 <cmos_write>:
4000be86:	55                   	push   %ebp
4000be87:	89 e5                	mov    %esp,%ebp
4000be89:	83 ec 08             	sub    $0x8,%esp
4000be8c:	c7 04 24 70 00 00 00 	movl   $0x70,(%esp)
4000be93:	e8 d3 ff ff ff       	call   4000be6b <inb>
4000be98:	89 c2                	mov    %eax,%edx
4000be9a:	83 e2 80             	and    $0xffffff80,%edx
4000be9d:	8b 45 08             	mov    0x8(%ebp),%eax
4000bea0:	83 e0 7f             	and    $0x7f,%eax
4000bea3:	09 d0                	or     %edx,%eax
4000bea5:	0f b6 c0             	movzbl %al,%eax
4000bea8:	89 44 24 04          	mov    %eax,0x4(%esp)
4000beac:	c7 04 24 70 00 00 00 	movl   $0x70,(%esp)
4000beb3:	e8 95 ff ff ff       	call   4000be4d <outb>
4000beb8:	8b 45 0c             	mov    0xc(%ebp),%eax
4000bebb:	0f b6 c0             	movzbl %al,%eax
4000bebe:	89 44 24 04          	mov    %eax,0x4(%esp)
4000bec2:	c7 04 24 71 00 00 00 	movl   $0x71,(%esp)
4000bec9:	e8 7f ff ff ff       	call   4000be4d <outb>
4000bece:	c9                   	leave  
4000becf:	c3                   	ret    

4000bed0 <getlidx_id>:
4000bed0:	55                   	push   %ebp
4000bed1:	89 e5                	mov    %esp,%ebp
4000bed3:	83 ec 28             	sub    $0x28,%esp
4000bed6:	c7 45 fc 00 00 00 00 	movl   $0x0,-0x4(%ebp)
4000bedd:	eb 19                	jmp    4000bef8 <getlidx_id+0x28>
4000bedf:	8b 45 f8             	mov    -0x8(%ebp),%eax
4000bee2:	8b 50 04             	mov    0x4(%eax),%edx
4000bee5:	8b 45 08             	mov    0x8(%ebp),%eax
4000bee8:	39 c2                	cmp    %eax,%edx
4000beea:	75 08                	jne    4000bef4 <getlidx_id+0x24>
4000beec:	8b 45 fc             	mov    -0x4(%ebp),%eax
4000beef:	89 45 ec             	mov    %eax,-0x14(%ebp)
4000bef2:	eb 29                	jmp    4000bf1d <getlidx_id+0x4d>
4000bef4:	83 45 fc 01          	addl   $0x1,-0x4(%ebp)
4000bef8:	8b 45 fc             	mov    -0x4(%ebp),%eax
4000befb:	8b 15 80 14 01 40    	mov    0x40011480,%edx
4000bf01:	89 44 24 04          	mov    %eax,0x4(%esp)
4000bf05:	89 14 24             	mov    %edx,(%esp)
4000bf08:	e8 c6 fc ff ff       	call   4000bbd3 <llist_get>
4000bf0d:	89 45 f8             	mov    %eax,-0x8(%ebp)
4000bf10:	83 7d f8 00          	cmpl   $0x0,-0x8(%ebp)
4000bf14:	75 c9                	jne    4000bedf <getlidx_id+0xf>
4000bf16:	c7 45 ec ff ff ff ff 	movl   $0xffffffff,-0x14(%ebp)
4000bf1d:	8b 45 ec             	mov    -0x14(%ebp),%eax
4000bf20:	c9                   	leave  
4000bf21:	c3                   	ret    

4000bf22 <devfs_read>:
4000bf22:	55                   	push   %ebp
4000bf23:	89 e5                	mov    %esp,%ebp
4000bf25:	83 ec 28             	sub    $0x28,%esp
4000bf28:	8b 45 08             	mov    0x8(%ebp),%eax
4000bf2b:	89 04 24             	mov    %eax,(%esp)
4000bf2e:	e8 9d ff ff ff       	call   4000bed0 <getlidx_id>
4000bf33:	8b 15 80 14 01 40    	mov    0x40011480,%edx
4000bf39:	89 44 24 04          	mov    %eax,0x4(%esp)
4000bf3d:	89 14 24             	mov    %edx,(%esp)
4000bf40:	e8 8e fc ff ff       	call   4000bbd3 <llist_get>
4000bf45:	89 45 fc             	mov    %eax,-0x4(%ebp)
4000bf48:	8b 45 fc             	mov    -0x4(%ebp),%eax
4000bf4b:	8b 40 10             	mov    0x10(%eax),%eax
4000bf4e:	85 c0                	test   %eax,%eax
4000bf50:	74 2b                	je     4000bf7d <devfs_read+0x5b>
4000bf52:	8b 45 fc             	mov    -0x4(%ebp),%eax
4000bf55:	8b 48 10             	mov    0x10(%eax),%ecx
4000bf58:	8b 45 fc             	mov    -0x4(%ebp),%eax
4000bf5b:	8b 50 0c             	mov    0xc(%eax),%edx
4000bf5e:	8b 45 10             	mov    0x10(%ebp),%eax
4000bf61:	89 44 24 0c          	mov    %eax,0xc(%esp)
4000bf65:	8b 45 0c             	mov    0xc(%ebp),%eax
4000bf68:	89 44 24 08          	mov    %eax,0x8(%esp)
4000bf6c:	89 54 24 04          	mov    %edx,0x4(%esp)
4000bf70:	8b 45 fc             	mov    -0x4(%ebp),%eax
4000bf73:	89 04 24             	mov    %eax,(%esp)
4000bf76:	ff d1                	call   *%ecx
4000bf78:	89 45 ec             	mov    %eax,-0x14(%ebp)
4000bf7b:	eb 07                	jmp    4000bf84 <devfs_read+0x62>
4000bf7d:	c7 45 ec c9 ff ff ff 	movl   $0xffffffc9,-0x14(%ebp)
4000bf84:	8b 45 ec             	mov    -0x14(%ebp),%eax
4000bf87:	c9                   	leave  
4000bf88:	c3                   	ret    

4000bf89 <devfs_write>:
4000bf89:	55                   	push   %ebp
4000bf8a:	89 e5                	mov    %esp,%ebp
4000bf8c:	83 ec 28             	sub    $0x28,%esp
4000bf8f:	8b 45 08             	mov    0x8(%ebp),%eax
4000bf92:	89 04 24             	mov    %eax,(%esp)
4000bf95:	e8 36 ff ff ff       	call   4000bed0 <getlidx_id>
4000bf9a:	8b 15 80 14 01 40    	mov    0x40011480,%edx
4000bfa0:	89 44 24 04          	mov    %eax,0x4(%esp)
4000bfa4:	89 14 24             	mov    %edx,(%esp)
4000bfa7:	e8 27 fc ff ff       	call   4000bbd3 <llist_get>
4000bfac:	89 45 fc             	mov    %eax,-0x4(%ebp)
4000bfaf:	8b 45 fc             	mov    -0x4(%ebp),%eax
4000bfb2:	8b 40 14             	mov    0x14(%eax),%eax
4000bfb5:	85 c0                	test   %eax,%eax
4000bfb7:	74 2b                	je     4000bfe4 <devfs_write+0x5b>
4000bfb9:	8b 45 fc             	mov    -0x4(%ebp),%eax
4000bfbc:	8b 48 14             	mov    0x14(%eax),%ecx
4000bfbf:	8b 45 fc             	mov    -0x4(%ebp),%eax
4000bfc2:	8b 50 0c             	mov    0xc(%eax),%edx
4000bfc5:	8b 45 10             	mov    0x10(%ebp),%eax
4000bfc8:	89 44 24 0c          	mov    %eax,0xc(%esp)
4000bfcc:	8b 45 0c             	mov    0xc(%ebp),%eax
4000bfcf:	89 44 24 08          	mov    %eax,0x8(%esp)
4000bfd3:	89 54 24 04          	mov    %edx,0x4(%esp)
4000bfd7:	8b 45 fc             	mov    -0x4(%ebp),%eax
4000bfda:	89 04 24             	mov    %eax,(%esp)
4000bfdd:	ff d1                	call   *%ecx
4000bfdf:	89 45 ec             	mov    %eax,-0x14(%ebp)
4000bfe2:	eb 07                	jmp    4000bfeb <devfs_write+0x62>
4000bfe4:	c7 45 ec c9 ff ff ff 	movl   $0xffffffc9,-0x14(%ebp)
4000bfeb:	8b 45 ec             	mov    -0x14(%ebp),%eax
4000bfee:	c9                   	leave  
4000bfef:	c3                   	ret    

4000bff0 <_devfs_func_create>:
4000bff0:	55                   	push   %ebp
4000bff1:	89 e5                	mov    %esp,%ebp
4000bff3:	83 ec 28             	sub    $0x28,%esp
4000bff6:	8b 45 18             	mov    0x18(%ebp),%eax
4000bff9:	89 44 24 0c          	mov    %eax,0xc(%esp)
4000bffd:	8b 45 08             	mov    0x8(%ebp),%eax
4000c000:	89 44 24 08          	mov    %eax,0x8(%esp)
4000c004:	c7 44 24 04 84 fe 00 	movl   $0x4000fe84,0x4(%esp)
4000c00b:	40 
4000c00c:	8d 45 f8             	lea    -0x8(%ebp),%eax
4000c00f:	89 04 24             	mov    %eax,(%esp)
4000c012:	e8 0d 1a 00 00       	call   4000da24 <asprintf>
4000c017:	8b 55 f8             	mov    -0x8(%ebp),%edx
4000c01a:	8b 45 14             	mov    0x14(%ebp),%eax
4000c01d:	89 44 24 0c          	mov    %eax,0xc(%esp)
4000c021:	8b 45 10             	mov    0x10(%ebp),%eax
4000c024:	89 44 24 08          	mov    %eax,0x8(%esp)
4000c028:	8b 45 0c             	mov    0xc(%ebp),%eax
4000c02b:	89 44 24 04          	mov    %eax,0x4(%esp)
4000c02f:	89 14 24             	mov    %edx,(%esp)
4000c032:	e8 d1 0c 00 00       	call   4000cd08 <rpc_func_create>
4000c037:	89 45 fc             	mov    %eax,-0x4(%ebp)
4000c03a:	8b 45 f8             	mov    -0x8(%ebp),%eax
4000c03d:	89 04 24             	mov    %eax,(%esp)
4000c040:	e8 c2 c0 ff ff       	call   40008107 <free>
4000c045:	8b 45 fc             	mov    -0x4(%ebp),%eax
4000c048:	c9                   	leave  
4000c049:	c3                   	ret    

4000c04a <devfs_init>:
4000c04a:	55                   	push   %ebp
4000c04b:	89 e5                	mov    %esp,%ebp
4000c04d:	83 ec 28             	sub    $0x28,%esp
4000c050:	c7 44 24 04 00 00 00 	movl   $0x0,0x4(%esp)
4000c057:	00 
4000c058:	c7 04 24 28 00 00 00 	movl   $0x28,(%esp)
4000c05f:	e8 1c 18 00 00       	call   4000d880 <syscall_call>
4000c064:	89 45 fc             	mov    %eax,-0x4(%ebp)
4000c067:	e8 b4 f9 ff ff       	call   4000ba20 <llist_create>
4000c06c:	a3 80 14 01 40       	mov    %eax,0x40011480
4000c071:	8b 45 fc             	mov    -0x4(%ebp),%eax
4000c074:	89 44 24 10          	mov    %eax,0x10(%esp)
4000c078:	c7 44 24 0c 0c 00 00 	movl   $0xc,0xc(%esp)
4000c07f:	00 
4000c080:	c7 44 24 08 8a fe 00 	movl   $0x4000fe8a,0x8(%esp)
4000c087:	40 
4000c088:	c7 44 24 04 22 bf 00 	movl   $0x4000bf22,0x4(%esp)
4000c08f:	40 
4000c090:	c7 04 24 8e fe 00 40 	movl   $0x4000fe8e,(%esp)
4000c097:	e8 54 ff ff ff       	call   4000bff0 <_devfs_func_create>
4000c09c:	8b 45 fc             	mov    -0x4(%ebp),%eax
4000c09f:	89 44 24 10          	mov    %eax,0x10(%esp)
4000c0a3:	c7 44 24 0c 0c 00 00 	movl   $0xc,0xc(%esp)
4000c0aa:	00 
4000c0ab:	c7 44 24 08 8a fe 00 	movl   $0x4000fe8a,0x8(%esp)
4000c0b2:	40 
4000c0b3:	c7 44 24 04 89 bf 00 	movl   $0x4000bf89,0x4(%esp)
4000c0ba:	40 
4000c0bb:	c7 04 24 99 fe 00 40 	movl   $0x4000fe99,(%esp)
4000c0c2:	e8 29 ff ff ff       	call   4000bff0 <_devfs_func_create>
4000c0c7:	c9                   	leave  
4000c0c8:	c3                   	ret    

4000c0c9 <devfs_createdev>:
4000c0c9:	55                   	push   %ebp
4000c0ca:	89 e5                	mov    %esp,%ebp
4000c0cc:	83 ec 28             	sub    $0x28,%esp
4000c0cf:	c7 44 24 08 00 00 00 	movl   $0x0,0x8(%esp)
4000c0d6:	00 
4000c0d7:	c7 44 24 04 00 20 00 	movl   $0x2000,0x4(%esp)
4000c0de:	00 
4000c0df:	c7 04 24 00 00 00 00 	movl   $0x0,(%esp)
4000c0e6:	e8 a9 cf ff ff       	call   40009094 <shmget>
4000c0eb:	89 45 f4             	mov    %eax,-0xc(%ebp)
4000c0ee:	83 7d f4 ff          	cmpl   $0xffffffff,-0xc(%ebp)
4000c0f2:	0f 84 d1 00 00 00    	je     4000c1c9 <devfs_createdev+0x100>
4000c0f8:	8b 45 f4             	mov    -0xc(%ebp),%eax
4000c0fb:	89 44 24 0c          	mov    %eax,0xc(%esp)
4000c0ff:	8b 45 08             	mov    0x8(%ebp),%eax
4000c102:	89 44 24 08          	mov    %eax,0x8(%esp)
4000c106:	c7 44 24 04 00 00 00 	movl   $0x0,0x4(%esp)
4000c10d:	00 
4000c10e:	c7 04 24 a5 fe 00 40 	movl   $0x4000fea5,(%esp)
4000c115:	e8 b5 11 00 00       	call   4000d2cf <rpc_call>
4000c11a:	89 45 f8             	mov    %eax,-0x8(%ebp)
4000c11d:	83 7d f8 00          	cmpl   $0x0,-0x8(%ebp)
4000c121:	0f 88 87 00 00 00    	js     4000c1ae <devfs_createdev+0xe5>
4000c127:	c7 04 24 00 00 00 00 	movl   $0x0,(%esp)
4000c12e:	e8 1d bb ff ff       	call   40007c50 <malloc>
4000c133:	89 45 fc             	mov    %eax,-0x4(%ebp)
4000c136:	8b 45 08             	mov    0x8(%ebp),%eax
4000c139:	89 04 24             	mov    %eax,(%esp)
4000c13c:	e8 54 f2 ff ff       	call   4000b395 <strdup>
4000c141:	89 c2                	mov    %eax,%edx
4000c143:	8b 45 fc             	mov    -0x4(%ebp),%eax
4000c146:	89 10                	mov    %edx,(%eax)
4000c148:	8b 55 f8             	mov    -0x8(%ebp),%edx
4000c14b:	8b 45 fc             	mov    -0x4(%ebp),%eax
4000c14e:	89 50 04             	mov    %edx,0x4(%eax)
4000c151:	8b 55 fc             	mov    -0x4(%ebp),%edx
4000c154:	8b 45 f4             	mov    -0xc(%ebp),%eax
4000c157:	89 42 08             	mov    %eax,0x8(%edx)
4000c15a:	c7 44 24 08 00 00 00 	movl   $0x0,0x8(%esp)
4000c161:	00 
4000c162:	c7 44 24 04 00 00 00 	movl   $0x0,0x4(%esp)
4000c169:	00 
4000c16a:	8b 45 f4             	mov    -0xc(%ebp),%eax
4000c16d:	89 04 24             	mov    %eax,(%esp)
4000c170:	e8 db cf ff ff       	call   40009150 <shmat>
4000c175:	89 c2                	mov    %eax,%edx
4000c177:	8b 45 fc             	mov    -0x4(%ebp),%eax
4000c17a:	89 50 0c             	mov    %edx,0xc(%eax)
4000c17d:	8b 45 fc             	mov    -0x4(%ebp),%eax
4000c180:	c7 40 10 00 00 00 00 	movl   $0x0,0x10(%eax)
4000c187:	8b 45 fc             	mov    -0x4(%ebp),%eax
4000c18a:	c7 40 14 00 00 00 00 	movl   $0x0,0x14(%eax)
4000c191:	8b 15 80 14 01 40    	mov    0x40011480,%edx
4000c197:	8b 45 fc             	mov    -0x4(%ebp),%eax
4000c19a:	89 44 24 04          	mov    %eax,0x4(%esp)
4000c19e:	89 14 24             	mov    %edx,(%esp)
4000c1a1:	e8 f5 f8 ff ff       	call   4000ba9b <llist_push>
4000c1a6:	8b 45 fc             	mov    -0x4(%ebp),%eax
4000c1a9:	89 45 ec             	mov    %eax,-0x14(%ebp)
4000c1ac:	eb 22                	jmp    4000c1d0 <devfs_createdev+0x107>
4000c1ae:	c7 44 24 08 00 00 00 	movl   $0x0,0x8(%esp)
4000c1b5:	00 
4000c1b6:	c7 44 24 04 01 00 00 	movl   $0x1,0x4(%esp)
4000c1bd:	00 
4000c1be:	8b 45 f4             	mov    -0xc(%ebp),%eax
4000c1c1:	89 04 24             	mov    %eax,(%esp)
4000c1c4:	e8 7a d0 ff ff       	call   40009243 <shmctl>
4000c1c9:	c7 45 ec 00 00 00 00 	movl   $0x0,-0x14(%ebp)
4000c1d0:	8b 45 ec             	mov    -0x14(%ebp),%eax
4000c1d3:	c9                   	leave  
4000c1d4:	c3                   	ret    

4000c1d5 <devfs_removedev>:
4000c1d5:	55                   	push   %ebp
4000c1d6:	89 e5                	mov    %esp,%ebp
4000c1d8:	83 ec 28             	sub    $0x28,%esp
4000c1db:	8b 45 08             	mov    0x8(%ebp),%eax
4000c1de:	8b 40 04             	mov    0x4(%eax),%eax
4000c1e1:	89 44 24 08          	mov    %eax,0x8(%esp)
4000c1e5:	c7 44 24 04 00 00 00 	movl   $0x0,0x4(%esp)
4000c1ec:	00 
4000c1ed:	c7 04 24 b5 fe 00 40 	movl   $0x4000feb5,(%esp)
4000c1f4:	e8 d6 10 00 00       	call   4000d2cf <rpc_call>
4000c1f9:	89 45 fc             	mov    %eax,-0x4(%ebp)
4000c1fc:	83 7d fc 00          	cmpl   $0x0,-0x4(%ebp)
4000c200:	78 64                	js     4000c266 <devfs_removedev+0x91>
4000c202:	8b 45 08             	mov    0x8(%ebp),%eax
4000c205:	8b 40 04             	mov    0x4(%eax),%eax
4000c208:	89 04 24             	mov    %eax,(%esp)
4000c20b:	e8 c0 fc ff ff       	call   4000bed0 <getlidx_id>
4000c210:	8b 15 80 14 01 40    	mov    0x40011480,%edx
4000c216:	89 44 24 04          	mov    %eax,0x4(%esp)
4000c21a:	89 14 24             	mov    %edx,(%esp)
4000c21d:	e8 83 fa ff ff       	call   4000bca5 <llist_remove>
4000c222:	8b 45 08             	mov    0x8(%ebp),%eax
4000c225:	8b 40 0c             	mov    0xc(%eax),%eax
4000c228:	89 04 24             	mov    %eax,(%esp)
4000c22b:	e8 a3 cf ff ff       	call   400091d3 <shmdt>
4000c230:	8b 45 08             	mov    0x8(%ebp),%eax
4000c233:	8b 40 08             	mov    0x8(%eax),%eax
4000c236:	c7 44 24 08 00 00 00 	movl   $0x0,0x8(%esp)
4000c23d:	00 
4000c23e:	c7 44 24 04 01 00 00 	movl   $0x1,0x4(%esp)
4000c245:	00 
4000c246:	89 04 24             	mov    %eax,(%esp)
4000c249:	e8 f5 cf ff ff       	call   40009243 <shmctl>
4000c24e:	8b 45 08             	mov    0x8(%ebp),%eax
4000c251:	8b 00                	mov    (%eax),%eax
4000c253:	89 04 24             	mov    %eax,(%esp)
4000c256:	e8 ac be ff ff       	call   40008107 <free>
4000c25b:	8b 45 08             	mov    0x8(%ebp),%eax
4000c25e:	89 04 24             	mov    %eax,(%esp)
4000c261:	e8 a1 be ff ff       	call   40008107 <free>
4000c266:	8b 45 fc             	mov    -0x4(%ebp),%eax
4000c269:	c9                   	leave  
4000c26a:	c3                   	ret    
4000c26b:	90                   	nop    

4000c26c <_irq_init>:
4000c26c:	55                   	push   %ebp
4000c26d:	89 e5                	mov    %esp,%ebp
4000c26f:	53                   	push   %ebx
4000c270:	83 ec 14             	sub    $0x14,%esp
4000c273:	c7 45 f8 00 00 00 00 	movl   $0x0,-0x8(%ebp)
4000c27a:	eb 13                	jmp    4000c28f <_irq_init+0x23>
4000c27c:	8b 5d f8             	mov    -0x8(%ebp),%ebx
4000c27f:	e8 9c f7 ff ff       	call   4000ba20 <llist_create>
4000c284:	89 04 9d c0 14 01 40 	mov    %eax,0x400114c0(,%ebx,4)
4000c28b:	83 45 f8 01          	addl   $0x1,-0x8(%ebp)
4000c28f:	83 7d f8 0f          	cmpl   $0xf,-0x8(%ebp)
4000c293:	76 e7                	jbe    4000c27c <_irq_init+0x10>
4000c295:	b8 00 00 00 00       	mov    $0x0,%eax
4000c29a:	83 c4 14             	add    $0x14,%esp
4000c29d:	5b                   	pop    %ebx
4000c29e:	5d                   	pop    %ebp
4000c29f:	c3                   	ret    

4000c2a0 <irq_reghandler>:
4000c2a0:	55                   	push   %ebp
4000c2a1:	89 e5                	mov    %esp,%ebp
4000c2a3:	83 ec 28             	sub    $0x28,%esp
4000c2a6:	83 7d 08 0f          	cmpl   $0xf,0x8(%ebp)
4000c2aa:	0f 87 92 00 00 00    	ja     4000c342 <irq_reghandler+0xa2>
4000c2b0:	8b 45 08             	mov    0x8(%ebp),%eax
4000c2b3:	8b 04 85 c0 14 01 40 	mov    0x400114c0(,%eax,4),%eax
4000c2ba:	89 04 24             	mov    %eax,(%esp)
4000c2bd:	e8 ad f7 ff ff       	call   4000ba6f <llist_size>
4000c2c2:	85 c0                	test   %eax,%eax
4000c2c4:	75 31                	jne    4000c2f7 <irq_reghandler+0x57>
4000c2c6:	c7 44 24 0c 4e ff 00 	movl   $0x4000ff4e,0xc(%esp)
4000c2cd:	40 
4000c2ce:	8b 45 08             	mov    0x8(%ebp),%eax
4000c2d1:	89 44 24 08          	mov    %eax,0x8(%esp)
4000c2d5:	c7 44 24 04 02 00 00 	movl   $0x2,0x4(%esp)
4000c2dc:	00 
4000c2dd:	c7 04 24 49 00 00 00 	movl   $0x49,(%esp)
4000c2e4:	e8 97 15 00 00       	call   4000d880 <syscall_call>
4000c2e9:	83 f8 ff             	cmp    $0xffffffff,%eax
4000c2ec:	75 09                	jne    4000c2f7 <irq_reghandler+0x57>
4000c2ee:	c7 45 ec ff ff ff ff 	movl   $0xffffffff,-0x14(%ebp)
4000c2f5:	eb 52                	jmp    4000c349 <irq_reghandler+0xa9>
4000c2f7:	c7 04 24 0c 00 00 00 	movl   $0xc,(%esp)
4000c2fe:	e8 4d b9 ff ff       	call   40007c50 <malloc>
4000c303:	89 45 fc             	mov    %eax,-0x4(%ebp)
4000c306:	8b 55 fc             	mov    -0x4(%ebp),%edx
4000c309:	8b 45 0c             	mov    0xc(%ebp),%eax
4000c30c:	89 02                	mov    %eax,(%edx)
4000c30e:	8b 55 fc             	mov    -0x4(%ebp),%edx
4000c311:	8b 45 10             	mov    0x10(%ebp),%eax
4000c314:	89 42 04             	mov    %eax,0x4(%edx)
4000c317:	8b 55 fc             	mov    -0x4(%ebp),%edx
4000c31a:	8b 45 14             	mov    0x14(%ebp),%eax
4000c31d:	89 42 08             	mov    %eax,0x8(%edx)
4000c320:	8b 45 08             	mov    0x8(%ebp),%eax
4000c323:	8b 14 85 c0 14 01 40 	mov    0x400114c0(,%eax,4),%edx
4000c32a:	8b 45 fc             	mov    -0x4(%ebp),%eax
4000c32d:	89 44 24 04          	mov    %eax,0x4(%esp)
4000c331:	89 14 24             	mov    %edx,(%esp)
4000c334:	e8 62 f7 ff ff       	call   4000ba9b <llist_push>
4000c339:	c7 45 ec 00 00 00 00 	movl   $0x0,-0x14(%ebp)
4000c340:	eb 07                	jmp    4000c349 <irq_reghandler+0xa9>
4000c342:	c7 45 ec ff ff ff ff 	movl   $0xffffffff,-0x14(%ebp)
4000c349:	8b 45 ec             	mov    -0x14(%ebp),%eax
4000c34c:	c9                   	leave  
4000c34d:	c3                   	ret    

4000c34e <_irq_handler>:
4000c34e:	55                   	push   %ebp
4000c34f:	89 e5                	mov    %esp,%ebp
4000c351:	83 ec 18             	sub    $0x18,%esp
4000c354:	83 7d 08 0f          	cmpl   $0xf,0x8(%ebp)
4000c358:	0f 87 8f 00 00 00    	ja     4000c3ed <_irq_handler+0x9f>
4000c35e:	a1 a0 14 01 40       	mov    0x400114a0,%eax
4000c363:	85 c0                	test   %eax,%eax
4000c365:	0f 85 82 00 00 00    	jne    4000c3ed <_irq_handler+0x9f>
4000c36b:	c7 45 f0 00 00 00 00 	movl   $0x0,-0x10(%ebp)
4000c372:	eb 57                	jmp    4000c3cb <_irq_handler+0x7d>
4000c374:	c7 05 a0 14 01 40 01 	movl   $0x1,0x400114a0
4000c37b:	00 00 00 
4000c37e:	8b 45 f4             	mov    -0xc(%ebp),%eax
4000c381:	8b 40 08             	mov    0x8(%eax),%eax
4000c384:	85 c0                	test   %eax,%eax
4000c386:	74 1f                	je     4000c3a7 <_irq_handler+0x59>
4000c388:	8b 45 f4             	mov    -0xc(%ebp),%eax
4000c38b:	8b 00                	mov    (%eax),%eax
4000c38d:	89 45 f8             	mov    %eax,-0x8(%ebp)
4000c390:	8b 45 f4             	mov    -0xc(%ebp),%eax
4000c393:	8b 40 04             	mov    0x4(%eax),%eax
4000c396:	89 44 24 04          	mov    %eax,0x4(%esp)
4000c39a:	8b 45 08             	mov    0x8(%ebp),%eax
4000c39d:	89 04 24             	mov    %eax,(%esp)
4000c3a0:	8b 45 f8             	mov    -0x8(%ebp),%eax
4000c3a3:	ff d0                	call   *%eax
4000c3a5:	eb 16                	jmp    4000c3bd <_irq_handler+0x6f>
4000c3a7:	8b 45 f4             	mov    -0xc(%ebp),%eax
4000c3aa:	8b 00                	mov    (%eax),%eax
4000c3ac:	89 45 fc             	mov    %eax,-0x4(%ebp)
4000c3af:	8b 45 f4             	mov    -0xc(%ebp),%eax
4000c3b2:	8b 40 04             	mov    0x4(%eax),%eax
4000c3b5:	89 04 24             	mov    %eax,(%esp)
4000c3b8:	8b 45 fc             	mov    -0x4(%ebp),%eax
4000c3bb:	ff d0                	call   *%eax
4000c3bd:	c7 05 a0 14 01 40 00 	movl   $0x0,0x400114a0
4000c3c4:	00 00 00 
4000c3c7:	83 45 f0 01          	addl   $0x1,-0x10(%ebp)
4000c3cb:	8b 45 08             	mov    0x8(%ebp),%eax
4000c3ce:	8b 14 85 c0 14 01 40 	mov    0x400114c0(,%eax,4),%edx
4000c3d5:	8b 45 f0             	mov    -0x10(%ebp),%eax
4000c3d8:	89 44 24 04          	mov    %eax,0x4(%esp)
4000c3dc:	89 14 24             	mov    %edx,(%esp)
4000c3df:	e8 ef f7 ff ff       	call   4000bbd3 <llist_get>
4000c3e4:	89 45 f4             	mov    %eax,-0xc(%ebp)
4000c3e7:	83 7d f4 00          	cmpl   $0x0,-0xc(%ebp)
4000c3eb:	75 87                	jne    4000c374 <_irq_handler+0x26>
4000c3ed:	c9                   	leave  
4000c3ee:	c3                   	ret    

4000c3ef <irq_sleep>:
4000c3ef:	55                   	push   %ebp
4000c3f0:	89 e5                	mov    %esp,%ebp
4000c3f2:	83 ec 18             	sub    $0x18,%esp
4000c3f5:	83 7d 08 0f          	cmpl   $0xf,0x8(%ebp)
4000c3f9:	77 24                	ja     4000c41f <irq_sleep+0x30>
4000c3fb:	8b 45 08             	mov    0x8(%ebp),%eax
4000c3fe:	89 44 24 08          	mov    %eax,0x8(%esp)
4000c402:	c7 44 24 04 01 00 00 	movl   $0x1,0x4(%esp)
4000c409:	00 
4000c40a:	c7 04 24 4a 00 00 00 	movl   $0x4a,(%esp)
4000c411:	e8 6a 14 00 00       	call   4000d880 <syscall_call>
4000c416:	c7 45 fc 00 00 00 00 	movl   $0x0,-0x4(%ebp)
4000c41d:	eb 07                	jmp    4000c426 <irq_sleep+0x37>
4000c41f:	c7 45 fc ff ff ff ff 	movl   $0xffffffff,-0x4(%ebp)
4000c426:	8b 45 fc             	mov    -0x4(%ebp),%eax
4000c429:	c9                   	leave  
4000c42a:	c3                   	ret    
4000c42b:	90                   	nop    

4000c42c <_libmeinos_init>:
4000c42c:	55                   	push   %ebp
4000c42d:	89 e5                	mov    %esp,%ebp
4000c42f:	83 ec 08             	sub    $0x8,%esp
4000c432:	e8 35 fe ff ff       	call   4000c26c <_irq_init>
4000c437:	c9                   	leave  
4000c438:	c3                   	ret    

4000c439 <vfs_mount>:
4000c439:	55                   	push   %ebp
4000c43a:	89 e5                	mov    %esp,%ebp
4000c43c:	83 ec 28             	sub    $0x28,%esp
4000c43f:	8b 45 08             	mov    0x8(%ebp),%eax
4000c442:	89 44 24 08          	mov    %eax,0x8(%esp)
4000c446:	c7 44 24 04 c5 fe 00 	movl   $0x4000fec5,0x4(%esp)
4000c44d:	40 
4000c44e:	8d 45 f8             	lea    -0x8(%ebp),%eax
4000c451:	89 04 24             	mov    %eax,(%esp)
4000c454:	e8 cb 15 00 00       	call   4000da24 <asprintf>
4000c459:	83 7d 10 00          	cmpl   $0x0,0x10(%ebp)
4000c45d:	75 07                	jne    4000c466 <vfs_mount+0x2d>
4000c45f:	c7 45 10 ce fe 00 40 	movl   $0x4000fece,0x10(%ebp)
4000c466:	8b 55 f8             	mov    -0x8(%ebp),%edx
4000c469:	8b 45 14             	mov    0x14(%ebp),%eax
4000c46c:	89 44 24 14          	mov    %eax,0x14(%esp)
4000c470:	8b 45 10             	mov    0x10(%ebp),%eax
4000c473:	89 44 24 10          	mov    %eax,0x10(%esp)
4000c477:	8b 45 0c             	mov    0xc(%ebp),%eax
4000c47a:	89 44 24 0c          	mov    %eax,0xc(%esp)
4000c47e:	8b 45 08             	mov    0x8(%ebp),%eax
4000c481:	89 44 24 08          	mov    %eax,0x8(%esp)
4000c485:	c7 44 24 04 00 00 00 	movl   $0x0,0x4(%esp)
4000c48c:	00 
4000c48d:	89 14 24             	mov    %edx,(%esp)
4000c490:	e8 3a 0e 00 00       	call   4000d2cf <rpc_call>
4000c495:	89 45 fc             	mov    %eax,-0x4(%ebp)
4000c498:	8b 45 f8             	mov    -0x8(%ebp),%eax
4000c49b:	89 04 24             	mov    %eax,(%esp)
4000c49e:	e8 64 bc ff ff       	call   40008107 <free>
4000c4a3:	8b 45 fc             	mov    -0x4(%ebp),%eax
4000c4a6:	c9                   	leave  
4000c4a7:	c3                   	ret    

4000c4a8 <vfs_unmount>:
4000c4a8:	55                   	push   %ebp
4000c4a9:	89 e5                	mov    %esp,%ebp
4000c4ab:	83 ec 28             	sub    $0x28,%esp
4000c4ae:	8b 45 08             	mov    0x8(%ebp),%eax
4000c4b1:	89 44 24 08          	mov    %eax,0x8(%esp)
4000c4b5:	c7 44 24 04 cf fe 00 	movl   $0x4000fecf,0x4(%esp)
4000c4bc:	40 
4000c4bd:	8d 45 f8             	lea    -0x8(%ebp),%eax
4000c4c0:	89 04 24             	mov    %eax,(%esp)
4000c4c3:	e8 5c 15 00 00       	call   4000da24 <asprintf>
4000c4c8:	8b 55 f8             	mov    -0x8(%ebp),%edx
4000c4cb:	8b 45 0c             	mov    0xc(%ebp),%eax
4000c4ce:	89 44 24 0c          	mov    %eax,0xc(%esp)
4000c4d2:	8b 45 08             	mov    0x8(%ebp),%eax
4000c4d5:	89 44 24 08          	mov    %eax,0x8(%esp)
4000c4d9:	c7 44 24 04 00 00 00 	movl   $0x0,0x4(%esp)
4000c4e0:	00 
4000c4e1:	89 14 24             	mov    %edx,(%esp)
4000c4e4:	e8 e6 0d 00 00       	call   4000d2cf <rpc_call>
4000c4e9:	89 45 fc             	mov    %eax,-0x4(%ebp)
4000c4ec:	8b 45 f8             	mov    -0x8(%ebp),%eax
4000c4ef:	89 04 24             	mov    %eax,(%esp)
4000c4f2:	e8 10 bc ff ff       	call   40008107 <free>
4000c4f7:	8b 45 fc             	mov    -0x4(%ebp),%eax
4000c4fa:	c9                   	leave  
4000c4fb:	c3                   	ret    

4000c4fc <path_parse>:
4000c4fc:	55                   	push   %ebp
4000c4fd:	89 e5                	mov    %esp,%ebp
4000c4ff:	83 ec 28             	sub    $0x28,%esp
4000c502:	83 7d 08 00          	cmpl   $0x0,0x8(%ebp)
4000c506:	75 0c                	jne    4000c514 <path_parse+0x18>
4000c508:	c7 45 dc 00 00 00 00 	movl   $0x0,-0x24(%ebp)
4000c50f:	e9 08 01 00 00       	jmp    4000c61c <path_parse+0x120>
4000c514:	c7 45 f0 01 00 00 00 	movl   $0x1,-0x10(%ebp)
4000c51b:	c7 45 ec 00 00 00 00 	movl   $0x0,-0x14(%ebp)
4000c522:	eb 17                	jmp    4000c53b <path_parse+0x3f>
4000c524:	8b 55 ec             	mov    -0x14(%ebp),%edx
4000c527:	8b 45 08             	mov    0x8(%ebp),%eax
4000c52a:	01 d0                	add    %edx,%eax
4000c52c:	0f b6 00             	movzbl (%eax),%eax
4000c52f:	3c 2f                	cmp    $0x2f,%al
4000c531:	75 04                	jne    4000c537 <path_parse+0x3b>
4000c533:	83 45 f0 01          	addl   $0x1,-0x10(%ebp)
4000c537:	83 45 ec 01          	addl   $0x1,-0x14(%ebp)
4000c53b:	8b 55 ec             	mov    -0x14(%ebp),%edx
4000c53e:	8b 45 08             	mov    0x8(%ebp),%eax
4000c541:	01 d0                	add    %edx,%eax
4000c543:	0f b6 00             	movzbl (%eax),%eax
4000c546:	84 c0                	test   %al,%al
4000c548:	75 da                	jne    4000c524 <path_parse+0x28>
4000c54a:	c7 04 24 10 00 00 00 	movl   $0x10,(%esp)
4000c551:	e8 fa b6 ff ff       	call   40007c50 <malloc>
4000c556:	89 45 f4             	mov    %eax,-0xc(%ebp)
4000c559:	8b 55 f4             	mov    -0xc(%ebp),%edx
4000c55c:	8b 45 f0             	mov    -0x10(%ebp),%eax
4000c55f:	89 02                	mov    %eax,(%edx)
4000c561:	8b 45 08             	mov    0x8(%ebp),%eax
4000c564:	89 04 24             	mov    %eax,(%esp)
4000c567:	e8 29 ee ff ff       	call   4000b395 <strdup>
4000c56c:	89 c2                	mov    %eax,%edx
4000c56e:	8b 45 f4             	mov    -0xc(%ebp),%eax
4000c571:	89 50 08             	mov    %edx,0x8(%eax)
4000c574:	8b 45 f0             	mov    -0x10(%ebp),%eax
4000c577:	c1 e0 02             	shl    $0x2,%eax
4000c57a:	89 04 24             	mov    %eax,(%esp)
4000c57d:	e8 ce b6 ff ff       	call   40007c50 <malloc>
4000c582:	89 c2                	mov    %eax,%edx
4000c584:	8b 45 f4             	mov    -0xc(%ebp),%eax
4000c587:	89 50 04             	mov    %edx,0x4(%eax)
4000c58a:	8b 45 08             	mov    0x8(%ebp),%eax
4000c58d:	0f b6 00             	movzbl (%eax),%eax
4000c590:	3c 2f                	cmp    $0x2f,%al
4000c592:	0f 94 c0             	sete   %al
4000c595:	0f b6 d0             	movzbl %al,%edx
4000c598:	8b 45 f4             	mov    -0xc(%ebp),%eax
4000c59b:	89 50 0c             	mov    %edx,0xc(%eax)
4000c59e:	8b 45 f4             	mov    -0xc(%ebp),%eax
4000c5a1:	8b 40 08             	mov    0x8(%eax),%eax
4000c5a4:	89 45 f8             	mov    %eax,-0x8(%ebp)
4000c5a7:	c7 45 fc 00 00 00 00 	movl   $0x0,-0x4(%ebp)
4000c5ae:	c7 45 ec 00 00 00 00 	movl   $0x0,-0x14(%ebp)
4000c5b5:	eb 57                	jmp    4000c60e <path_parse+0x112>
4000c5b7:	83 45 fc 01          	addl   $0x1,-0x4(%ebp)
4000c5bb:	8b 45 f4             	mov    -0xc(%ebp),%eax
4000c5be:	8b 40 08             	mov    0x8(%eax),%eax
4000c5c1:	03 45 fc             	add    -0x4(%ebp),%eax
4000c5c4:	0f b6 00             	movzbl (%eax),%eax
4000c5c7:	3c 2f                	cmp    $0x2f,%al
4000c5c9:	74 10                	je     4000c5db <path_parse+0xdf>
4000c5cb:	8b 45 f4             	mov    -0xc(%ebp),%eax
4000c5ce:	8b 40 08             	mov    0x8(%eax),%eax
4000c5d1:	03 45 fc             	add    -0x4(%ebp),%eax
4000c5d4:	0f b6 00             	movzbl (%eax),%eax
4000c5d7:	84 c0                	test   %al,%al
4000c5d9:	75 dc                	jne    4000c5b7 <path_parse+0xbb>
4000c5db:	8b 45 f4             	mov    -0xc(%ebp),%eax
4000c5de:	8b 50 04             	mov    0x4(%eax),%edx
4000c5e1:	8b 45 ec             	mov    -0x14(%ebp),%eax
4000c5e4:	c1 e0 02             	shl    $0x2,%eax
4000c5e7:	01 c2                	add    %eax,%edx
4000c5e9:	8b 45 f8             	mov    -0x8(%ebp),%eax
4000c5ec:	89 02                	mov    %eax,(%edx)
4000c5ee:	8b 45 f4             	mov    -0xc(%ebp),%eax
4000c5f1:	8b 40 08             	mov    0x8(%eax),%eax
4000c5f4:	03 45 fc             	add    -0x4(%ebp),%eax
4000c5f7:	c6 00 00             	movb   $0x0,(%eax)
4000c5fa:	83 45 fc 01          	addl   $0x1,-0x4(%ebp)
4000c5fe:	8b 45 f4             	mov    -0xc(%ebp),%eax
4000c601:	8b 40 08             	mov    0x8(%eax),%eax
4000c604:	03 45 fc             	add    -0x4(%ebp),%eax
4000c607:	89 45 f8             	mov    %eax,-0x8(%ebp)
4000c60a:	83 45 ec 01          	addl   $0x1,-0x14(%ebp)
4000c60e:	8b 45 ec             	mov    -0x14(%ebp),%eax
4000c611:	3b 45 f0             	cmp    -0x10(%ebp),%eax
4000c614:	72 a5                	jb     4000c5bb <path_parse+0xbf>
4000c616:	8b 45 f4             	mov    -0xc(%ebp),%eax
4000c619:	89 45 dc             	mov    %eax,-0x24(%ebp)
4000c61c:	8b 45 dc             	mov    -0x24(%ebp),%eax
4000c61f:	c9                   	leave  
4000c620:	c3                   	ret    

4000c621 <path_destroy>:
4000c621:	55                   	push   %ebp
4000c622:	89 e5                	mov    %esp,%ebp
4000c624:	83 ec 08             	sub    $0x8,%esp
4000c627:	83 7d 08 00          	cmpl   $0x0,0x8(%ebp)
4000c62b:	74 27                	je     4000c654 <path_destroy+0x33>
4000c62d:	8b 45 08             	mov    0x8(%ebp),%eax
4000c630:	8b 40 04             	mov    0x4(%eax),%eax
4000c633:	89 04 24             	mov    %eax,(%esp)
4000c636:	e8 cc ba ff ff       	call   40008107 <free>
4000c63b:	8b 45 08             	mov    0x8(%ebp),%eax
4000c63e:	8b 40 08             	mov    0x8(%eax),%eax
4000c641:	89 04 24             	mov    %eax,(%esp)
4000c644:	e8 be ba ff ff       	call   40008107 <free>
4000c649:	8b 45 08             	mov    0x8(%ebp),%eax
4000c64c:	89 04 24             	mov    %eax,(%esp)
4000c64f:	e8 b3 ba ff ff       	call   40008107 <free>
4000c654:	c9                   	leave  
4000c655:	c3                   	ret    

4000c656 <path_reject_dots>:
4000c656:	55                   	push   %ebp
4000c657:	89 e5                	mov    %esp,%ebp
4000c659:	83 ec 28             	sub    $0x28,%esp
4000c65c:	83 7d 08 00          	cmpl   $0x0,0x8(%ebp)
4000c660:	0f 84 60 01 00 00    	je     4000c7c6 <path_reject_dots+0x170>
4000c666:	c7 45 f8 00 00 00 00 	movl   $0x0,-0x8(%ebp)
4000c66d:	e9 46 01 00 00       	jmp    4000c7b8 <path_reject_dots+0x162>
4000c672:	8b 45 08             	mov    0x8(%ebp),%eax
4000c675:	8b 50 04             	mov    0x4(%eax),%edx
4000c678:	8b 45 f8             	mov    -0x8(%ebp),%eax
4000c67b:	c1 e0 02             	shl    $0x2,%eax
4000c67e:	8d 04 02             	lea    (%edx,%eax,1),%eax
4000c681:	8b 00                	mov    (%eax),%eax
4000c683:	c7 44 24 04 da fe 00 	movl   $0x4000feda,0x4(%esp)
4000c68a:	40 
4000c68b:	89 04 24             	mov    %eax,(%esp)
4000c68e:	e8 2d ec ff ff       	call   4000b2c0 <strcmp>
4000c693:	85 c0                	test   %eax,%eax
4000c695:	75 45                	jne    4000c6dc <path_reject_dots+0x86>
4000c697:	8b 45 08             	mov    0x8(%ebp),%eax
4000c69a:	8b 50 04             	mov    0x4(%eax),%edx
4000c69d:	8b 45 f8             	mov    -0x8(%ebp),%eax
4000c6a0:	c1 e0 02             	shl    $0x2,%eax
4000c6a3:	8d 04 02             	lea    (%edx,%eax,1),%eax
4000c6a6:	8b 00                	mov    (%eax),%eax
4000c6a8:	89 04 24             	mov    %eax,(%esp)
4000c6ab:	e8 30 ed ff ff       	call   4000b3e0 <strlen>
4000c6b0:	89 c1                	mov    %eax,%ecx
4000c6b2:	8b 45 08             	mov    0x8(%ebp),%eax
4000c6b5:	8b 50 04             	mov    0x4(%eax),%edx
4000c6b8:	8b 45 f8             	mov    -0x8(%ebp),%eax
4000c6bb:	c1 e0 02             	shl    $0x2,%eax
4000c6be:	8d 04 02             	lea    (%edx,%eax,1),%eax
4000c6c1:	8b 00                	mov    (%eax),%eax
4000c6c3:	89 4c 24 08          	mov    %ecx,0x8(%esp)
4000c6c7:	c7 44 24 04 00 00 00 	movl   $0x0,0x4(%esp)
4000c6ce:	00 
4000c6cf:	89 04 24             	mov    %eax,(%esp)
4000c6d2:	e8 2e eb ff ff       	call   4000b205 <memset>
4000c6d7:	e9 d8 00 00 00       	jmp    4000c7b4 <path_reject_dots+0x15e>
4000c6dc:	8b 45 08             	mov    0x8(%ebp),%eax
4000c6df:	8b 50 04             	mov    0x4(%eax),%edx
4000c6e2:	8b 45 f8             	mov    -0x8(%ebp),%eax
4000c6e5:	c1 e0 02             	shl    $0x2,%eax
4000c6e8:	8d 04 02             	lea    (%edx,%eax,1),%eax
4000c6eb:	8b 00                	mov    (%eax),%eax
4000c6ed:	c7 44 24 04 dc fe 00 	movl   $0x4000fedc,0x4(%esp)
4000c6f4:	40 
4000c6f5:	89 04 24             	mov    %eax,(%esp)
4000c6f8:	e8 c3 eb ff ff       	call   4000b2c0 <strcmp>
4000c6fd:	85 c0                	test   %eax,%eax
4000c6ff:	0f 85 af 00 00 00    	jne    4000c7b4 <path_reject_dots+0x15e>
4000c705:	8b 45 08             	mov    0x8(%ebp),%eax
4000c708:	8b 50 04             	mov    0x4(%eax),%edx
4000c70b:	8b 45 f8             	mov    -0x8(%ebp),%eax
4000c70e:	c1 e0 02             	shl    $0x2,%eax
4000c711:	8d 04 02             	lea    (%edx,%eax,1),%eax
4000c714:	8b 00                	mov    (%eax),%eax
4000c716:	89 04 24             	mov    %eax,(%esp)
4000c719:	e8 c2 ec ff ff       	call   4000b3e0 <strlen>
4000c71e:	89 c1                	mov    %eax,%ecx
4000c720:	8b 45 08             	mov    0x8(%ebp),%eax
4000c723:	8b 50 04             	mov    0x4(%eax),%edx
4000c726:	8b 45 f8             	mov    -0x8(%ebp),%eax
4000c729:	c1 e0 02             	shl    $0x2,%eax
4000c72c:	8d 04 02             	lea    (%edx,%eax,1),%eax
4000c72f:	8b 00                	mov    (%eax),%eax
4000c731:	89 4c 24 08          	mov    %ecx,0x8(%esp)
4000c735:	c7 44 24 04 00 00 00 	movl   $0x0,0x4(%esp)
4000c73c:	00 
4000c73d:	89 04 24             	mov    %eax,(%esp)
4000c740:	e8 c0 ea ff ff       	call   4000b205 <memset>
4000c745:	8b 45 f8             	mov    -0x8(%ebp),%eax
4000c748:	83 e8 01             	sub    $0x1,%eax
4000c74b:	89 45 fc             	mov    %eax,-0x4(%ebp)
4000c74e:	eb 5e                	jmp    4000c7ae <path_reject_dots+0x158>
4000c750:	8b 45 08             	mov    0x8(%ebp),%eax
4000c753:	8b 50 04             	mov    0x4(%eax),%edx
4000c756:	8b 45 fc             	mov    -0x4(%ebp),%eax
4000c759:	c1 e0 02             	shl    $0x2,%eax
4000c75c:	8d 04 02             	lea    (%edx,%eax,1),%eax
4000c75f:	8b 00                	mov    (%eax),%eax
4000c761:	0f b6 00             	movzbl (%eax),%eax
4000c764:	84 c0                	test   %al,%al
4000c766:	74 42                	je     4000c7aa <path_reject_dots+0x154>
4000c768:	8b 45 08             	mov    0x8(%ebp),%eax
4000c76b:	8b 50 04             	mov    0x4(%eax),%edx
4000c76e:	8b 45 fc             	mov    -0x4(%ebp),%eax
4000c771:	c1 e0 02             	shl    $0x2,%eax
4000c774:	8d 04 02             	lea    (%edx,%eax,1),%eax
4000c777:	8b 00                	mov    (%eax),%eax
4000c779:	89 04 24             	mov    %eax,(%esp)
4000c77c:	e8 5f ec ff ff       	call   4000b3e0 <strlen>
4000c781:	89 c1                	mov    %eax,%ecx
4000c783:	8b 45 08             	mov    0x8(%ebp),%eax
4000c786:	8b 50 04             	mov    0x4(%eax),%edx
4000c789:	8b 45 fc             	mov    -0x4(%ebp),%eax
4000c78c:	c1 e0 02             	shl    $0x2,%eax
4000c78f:	8d 04 02             	lea    (%edx,%eax,1),%eax
4000c792:	8b 00                	mov    (%eax),%eax
4000c794:	89 4c 24 08          	mov    %ecx,0x8(%esp)
4000c798:	c7 44 24 04 00 00 00 	movl   $0x0,0x4(%esp)
4000c79f:	00 
4000c7a0:	89 04 24             	mov    %eax,(%esp)
4000c7a3:	e8 5d ea ff ff       	call   4000b205 <memset>
4000c7a8:	eb 0a                	jmp    4000c7b4 <path_reject_dots+0x15e>
4000c7aa:	83 6d fc 01          	subl   $0x1,-0x4(%ebp)
4000c7ae:	83 7d fc 00          	cmpl   $0x0,-0x4(%ebp)
4000c7b2:	79 9c                	jns    4000c750 <path_reject_dots+0xfa>
4000c7b4:	83 45 f8 01          	addl   $0x1,-0x8(%ebp)
4000c7b8:	8b 45 08             	mov    0x8(%ebp),%eax
4000c7bb:	8b 00                	mov    (%eax),%eax
4000c7bd:	3b 45 f8             	cmp    -0x8(%ebp),%eax
4000c7c0:	0f 87 ac fe ff ff    	ja     4000c672 <path_reject_dots+0x1c>
4000c7c6:	c9                   	leave  
4000c7c7:	c3                   	ret    

4000c7c8 <path_output>:
4000c7c8:	55                   	push   %ebp
4000c7c9:	89 e5                	mov    %esp,%ebp
4000c7cb:	83 ec 38             	sub    $0x38,%esp
4000c7ce:	83 7d 08 00          	cmpl   $0x0,0x8(%ebp)
4000c7d2:	75 0c                	jne    4000c7e0 <path_output+0x18>
4000c7d4:	c7 45 dc 00 00 00 00 	movl   $0x0,-0x24(%ebp)
4000c7db:	e9 bd 01 00 00       	jmp    4000c99d <path_output+0x1d5>
4000c7e0:	c7 45 ec 00 00 00 00 	movl   $0x0,-0x14(%ebp)
4000c7e7:	c7 45 f0 00 00 00 00 	movl   $0x0,-0x10(%ebp)
4000c7ee:	eb 20                	jmp    4000c810 <path_output+0x48>
4000c7f0:	8b 45 08             	mov    0x8(%ebp),%eax
4000c7f3:	8b 50 04             	mov    0x4(%eax),%edx
4000c7f6:	8b 45 f0             	mov    -0x10(%ebp),%eax
4000c7f9:	c1 e0 02             	shl    $0x2,%eax
4000c7fc:	8d 04 02             	lea    (%edx,%eax,1),%eax
4000c7ff:	8b 00                	mov    (%eax),%eax
4000c801:	0f b6 00             	movzbl (%eax),%eax
4000c804:	84 c0                	test   %al,%al
4000c806:	74 04                	je     4000c80c <path_output+0x44>
4000c808:	83 45 ec 01          	addl   $0x1,-0x14(%ebp)
4000c80c:	83 45 f0 01          	addl   $0x1,-0x10(%ebp)
4000c810:	8b 45 08             	mov    0x8(%ebp),%eax
4000c813:	8b 00                	mov    (%eax),%eax
4000c815:	3b 45 f0             	cmp    -0x10(%ebp),%eax
4000c818:	77 d6                	ja     4000c7f0 <path_output+0x28>
4000c81a:	83 7d ec 00          	cmpl   $0x0,-0x14(%ebp)
4000c81e:	0f 84 4c 01 00 00    	je     4000c970 <path_output+0x1a8>
4000c824:	c7 45 f4 00 00 00 00 	movl   $0x0,-0xc(%ebp)
4000c82b:	83 7d 0c 00          	cmpl   $0x0,0xc(%ebp)
4000c82f:	75 5d                	jne    4000c88e <path_output+0xc6>
4000c831:	8b 45 08             	mov    0x8(%ebp),%eax
4000c834:	8b 10                	mov    (%eax),%edx
4000c836:	8b 45 08             	mov    0x8(%ebp),%eax
4000c839:	8b 40 0c             	mov    0xc(%eax),%eax
4000c83c:	85 c0                	test   %eax,%eax
4000c83e:	0f 95 c0             	setne  %al
4000c841:	0f b6 c0             	movzbl %al,%eax
4000c844:	8d 04 02             	lea    (%edx,%eax,1),%eax
4000c847:	83 c0 01             	add    $0x1,%eax
4000c84a:	89 45 f8             	mov    %eax,-0x8(%ebp)
4000c84d:	c7 45 f0 00 00 00 00 	movl   $0x0,-0x10(%ebp)
4000c854:	eb 20                	jmp    4000c876 <path_output+0xae>
4000c856:	8b 45 08             	mov    0x8(%ebp),%eax
4000c859:	8b 50 04             	mov    0x4(%eax),%edx
4000c85c:	8b 45 f0             	mov    -0x10(%ebp),%eax
4000c85f:	c1 e0 02             	shl    $0x2,%eax
4000c862:	8d 04 02             	lea    (%edx,%eax,1),%eax
4000c865:	8b 00                	mov    (%eax),%eax
4000c867:	89 04 24             	mov    %eax,(%esp)
4000c86a:	e8 71 eb ff ff       	call   4000b3e0 <strlen>
4000c86f:	01 45 f8             	add    %eax,-0x8(%ebp)
4000c872:	83 45 f0 01          	addl   $0x1,-0x10(%ebp)
4000c876:	8b 45 08             	mov    0x8(%ebp),%eax
4000c879:	8b 00                	mov    (%eax),%eax
4000c87b:	3b 45 f0             	cmp    -0x10(%ebp),%eax
4000c87e:	77 d6                	ja     4000c856 <path_output+0x8e>
4000c880:	8b 45 f8             	mov    -0x8(%ebp),%eax
4000c883:	89 04 24             	mov    %eax,(%esp)
4000c886:	e8 c5 b3 ff ff       	call   40007c50 <malloc>
4000c88b:	89 45 0c             	mov    %eax,0xc(%ebp)
4000c88e:	8b 45 08             	mov    0x8(%ebp),%eax
4000c891:	8b 40 0c             	mov    0xc(%eax),%eax
4000c894:	85 c0                	test   %eax,%eax
4000c896:	74 1f                	je     4000c8b7 <path_output+0xef>
4000c898:	8b 45 08             	mov    0x8(%ebp),%eax
4000c89b:	8b 40 04             	mov    0x4(%eax),%eax
4000c89e:	8b 00                	mov    (%eax),%eax
4000c8a0:	0f b6 00             	movzbl (%eax),%eax
4000c8a3:	84 c0                	test   %al,%al
4000c8a5:	74 10                	je     4000c8b7 <path_output+0xef>
4000c8a7:	8b 45 f4             	mov    -0xc(%ebp),%eax
4000c8aa:	8b 55 0c             	mov    0xc(%ebp),%edx
4000c8ad:	8d 04 02             	lea    (%edx,%eax,1),%eax
4000c8b0:	c6 00 2f             	movb   $0x2f,(%eax)
4000c8b3:	83 45 f4 01          	addl   $0x1,-0xc(%ebp)
4000c8b7:	c7 45 f0 00 00 00 00 	movl   $0x0,-0x10(%ebp)
4000c8be:	e9 8b 00 00 00       	jmp    4000c94e <path_output+0x186>
4000c8c3:	8b 45 08             	mov    0x8(%ebp),%eax
4000c8c6:	8b 50 04             	mov    0x4(%eax),%edx
4000c8c9:	8b 45 f0             	mov    -0x10(%ebp),%eax
4000c8cc:	c1 e0 02             	shl    $0x2,%eax
4000c8cf:	8d 04 02             	lea    (%edx,%eax,1),%eax
4000c8d2:	8b 00                	mov    (%eax),%eax
4000c8d4:	89 04 24             	mov    %eax,(%esp)
4000c8d7:	e8 04 eb ff ff       	call   4000b3e0 <strlen>
4000c8dc:	89 45 fc             	mov    %eax,-0x4(%ebp)
4000c8df:	8b 45 08             	mov    0x8(%ebp),%eax
4000c8e2:	8b 50 04             	mov    0x4(%eax),%edx
4000c8e5:	8b 45 f0             	mov    -0x10(%ebp),%eax
4000c8e8:	c1 e0 02             	shl    $0x2,%eax
4000c8eb:	8d 04 02             	lea    (%edx,%eax,1),%eax
4000c8ee:	8b 08                	mov    (%eax),%ecx
4000c8f0:	8b 55 f4             	mov    -0xc(%ebp),%edx
4000c8f3:	8b 45 0c             	mov    0xc(%ebp),%eax
4000c8f6:	8d 14 10             	lea    (%eax,%edx,1),%edx
4000c8f9:	8b 45 fc             	mov    -0x4(%ebp),%eax
4000c8fc:	89 44 24 08          	mov    %eax,0x8(%esp)
4000c900:	89 4c 24 04          	mov    %ecx,0x4(%esp)
4000c904:	89 14 24             	mov    %edx,(%esp)
4000c907:	e8 1c e7 ff ff       	call   4000b028 <memcpy>
4000c90c:	8b 45 fc             	mov    -0x4(%ebp),%eax
4000c90f:	01 45 f4             	add    %eax,-0xc(%ebp)
4000c912:	8b 45 08             	mov    0x8(%ebp),%eax
4000c915:	8b 00                	mov    (%eax),%eax
4000c917:	83 e8 01             	sub    $0x1,%eax
4000c91a:	3b 45 f0             	cmp    -0x10(%ebp),%eax
4000c91d:	76 2b                	jbe    4000c94a <path_output+0x182>
4000c91f:	8b 45 08             	mov    0x8(%ebp),%eax
4000c922:	8b 50 04             	mov    0x4(%eax),%edx
4000c925:	8b 45 f0             	mov    -0x10(%ebp),%eax
4000c928:	83 c0 01             	add    $0x1,%eax
4000c92b:	c1 e0 02             	shl    $0x2,%eax
4000c92e:	8d 04 02             	lea    (%edx,%eax,1),%eax
4000c931:	8b 00                	mov    (%eax),%eax
4000c933:	0f b6 00             	movzbl (%eax),%eax
4000c936:	84 c0                	test   %al,%al
4000c938:	74 10                	je     4000c94a <path_output+0x182>
4000c93a:	8b 45 f4             	mov    -0xc(%ebp),%eax
4000c93d:	8b 55 0c             	mov    0xc(%ebp),%edx
4000c940:	8d 04 02             	lea    (%edx,%eax,1),%eax
4000c943:	c6 00 2f             	movb   $0x2f,(%eax)
4000c946:	83 45 f4 01          	addl   $0x1,-0xc(%ebp)
4000c94a:	83 45 f0 01          	addl   $0x1,-0x10(%ebp)
4000c94e:	8b 45 08             	mov    0x8(%ebp),%eax
4000c951:	8b 00                	mov    (%eax),%eax
4000c953:	3b 45 f0             	cmp    -0x10(%ebp),%eax
4000c956:	0f 87 67 ff ff ff    	ja     4000c8c3 <path_output+0xfb>
4000c95c:	8b 45 f4             	mov    -0xc(%ebp),%eax
4000c95f:	8b 55 0c             	mov    0xc(%ebp),%edx
4000c962:	8d 04 02             	lea    (%edx,%eax,1),%eax
4000c965:	c6 00 00             	movb   $0x0,(%eax)
4000c968:	8b 45 0c             	mov    0xc(%ebp),%eax
4000c96b:	89 45 dc             	mov    %eax,-0x24(%ebp)
4000c96e:	eb 2d                	jmp    4000c99d <path_output+0x1d5>
4000c970:	83 7d 0c 00          	cmpl   $0x0,0xc(%ebp)
4000c974:	75 11                	jne    4000c987 <path_output+0x1bf>
4000c976:	c7 04 24 df fe 00 40 	movl   $0x4000fedf,(%esp)
4000c97d:	e8 13 ea ff ff       	call   4000b395 <strdup>
4000c982:	89 45 dc             	mov    %eax,-0x24(%ebp)
4000c985:	eb 16                	jmp    4000c99d <path_output+0x1d5>
4000c987:	c7 44 24 04 df fe 00 	movl   $0x4000fedf,0x4(%esp)
4000c98e:	40 
4000c98f:	8b 45 0c             	mov    0xc(%ebp),%eax
4000c992:	89 04 24             	mov    %eax,(%esp)
4000c995:	e8 b3 e9 ff ff       	call   4000b34d <strcpy>
4000c99a:	89 45 dc             	mov    %eax,-0x24(%ebp)
4000c99d:	8b 45 dc             	mov    -0x24(%ebp),%eax
4000c9a0:	c9                   	leave  
4000c9a1:	c3                   	ret    

4000c9a2 <path_compare>:
4000c9a2:	55                   	push   %ebp
4000c9a3:	89 e5                	mov    %esp,%ebp
4000c9a5:	83 ec 28             	sub    $0x28,%esp
4000c9a8:	83 7d 08 00          	cmpl   $0x0,0x8(%ebp)
4000c9ac:	74 06                	je     4000c9b4 <path_compare+0x12>
4000c9ae:	83 7d 0c 00          	cmpl   $0x0,0xc(%ebp)
4000c9b2:	75 0c                	jne    4000c9c0 <path_compare+0x1e>
4000c9b4:	c7 45 ec 00 00 00 00 	movl   $0x0,-0x14(%ebp)
4000c9bb:	e9 00 01 00 00       	jmp    4000cac0 <path_compare+0x11e>
4000c9c0:	c7 45 f4 00 00 00 00 	movl   $0x0,-0xc(%ebp)
4000c9c7:	c7 45 f8 00 00 00 00 	movl   $0x0,-0x8(%ebp)
4000c9ce:	c7 45 fc 00 00 00 00 	movl   $0x0,-0x4(%ebp)
4000c9d5:	8b 45 08             	mov    0x8(%ebp),%eax
4000c9d8:	8b 50 0c             	mov    0xc(%eax),%edx
4000c9db:	8b 45 0c             	mov    0xc(%ebp),%eax
4000c9de:	8b 40 0c             	mov    0xc(%eax),%eax
4000c9e1:	39 c2                	cmp    %eax,%edx
4000c9e3:	0f 84 b9 00 00 00    	je     4000caa2 <path_compare+0x100>
4000c9e9:	c7 45 ec 00 00 00 00 	movl   $0x0,-0x14(%ebp)
4000c9f0:	e9 cb 00 00 00       	jmp    4000cac0 <path_compare+0x11e>
4000c9f5:	8b 45 08             	mov    0x8(%ebp),%eax
4000c9f8:	8b 50 04             	mov    0x4(%eax),%edx
4000c9fb:	8b 45 f4             	mov    -0xc(%ebp),%eax
4000c9fe:	c1 e0 02             	shl    $0x2,%eax
4000ca01:	8d 04 02             	lea    (%edx,%eax,1),%eax
4000ca04:	8b 00                	mov    (%eax),%eax
4000ca06:	0f b6 00             	movzbl (%eax),%eax
4000ca09:	84 c0                	test   %al,%al
4000ca0b:	75 09                	jne    4000ca16 <path_compare+0x74>
4000ca0d:	83 45 f4 01          	addl   $0x1,-0xc(%ebp)
4000ca11:	e9 8c 00 00 00       	jmp    4000caa2 <path_compare+0x100>
4000ca16:	8b 45 0c             	mov    0xc(%ebp),%eax
4000ca19:	8b 50 04             	mov    0x4(%eax),%edx
4000ca1c:	8b 45 f8             	mov    -0x8(%ebp),%eax
4000ca1f:	c1 e0 02             	shl    $0x2,%eax
4000ca22:	8d 04 02             	lea    (%edx,%eax,1),%eax
4000ca25:	8b 00                	mov    (%eax),%eax
4000ca27:	0f b6 00             	movzbl (%eax),%eax
4000ca2a:	84 c0                	test   %al,%al
4000ca2c:	75 06                	jne    4000ca34 <path_compare+0x92>
4000ca2e:	83 45 f8 01          	addl   $0x1,-0x8(%ebp)
4000ca32:	eb 6e                	jmp    4000caa2 <path_compare+0x100>
4000ca34:	8b 45 0c             	mov    0xc(%ebp),%eax
4000ca37:	8b 50 04             	mov    0x4(%eax),%edx
4000ca3a:	8b 45 f8             	mov    -0x8(%ebp),%eax
4000ca3d:	c1 e0 02             	shl    $0x2,%eax
4000ca40:	8d 04 02             	lea    (%edx,%eax,1),%eax
4000ca43:	8b 00                	mov    (%eax),%eax
4000ca45:	0f b6 00             	movzbl (%eax),%eax
4000ca48:	84 c0                	test   %al,%al
4000ca4a:	74 4a                	je     4000ca96 <path_compare+0xf4>
4000ca4c:	8b 45 0c             	mov    0xc(%ebp),%eax
4000ca4f:	8b 50 04             	mov    0x4(%eax),%edx
4000ca52:	8b 45 f8             	mov    -0x8(%ebp),%eax
4000ca55:	c1 e0 02             	shl    $0x2,%eax
4000ca58:	8d 04 02             	lea    (%edx,%eax,1),%eax
4000ca5b:	8b 00                	mov    (%eax),%eax
4000ca5d:	0f b6 00             	movzbl (%eax),%eax
4000ca60:	84 c0                	test   %al,%al
4000ca62:	74 32                	je     4000ca96 <path_compare+0xf4>
4000ca64:	8b 45 0c             	mov    0xc(%ebp),%eax
4000ca67:	8b 50 04             	mov    0x4(%eax),%edx
4000ca6a:	8b 45 f8             	mov    -0x8(%ebp),%eax
4000ca6d:	c1 e0 02             	shl    $0x2,%eax
4000ca70:	8d 04 02             	lea    (%edx,%eax,1),%eax
4000ca73:	8b 08                	mov    (%eax),%ecx
4000ca75:	8b 45 08             	mov    0x8(%ebp),%eax
4000ca78:	8b 50 04             	mov    0x4(%eax),%edx
4000ca7b:	8b 45 f4             	mov    -0xc(%ebp),%eax
4000ca7e:	c1 e0 02             	shl    $0x2,%eax
4000ca81:	8d 04 02             	lea    (%edx,%eax,1),%eax
4000ca84:	8b 00                	mov    (%eax),%eax
4000ca86:	89 4c 24 04          	mov    %ecx,0x4(%esp)
4000ca8a:	89 04 24             	mov    %eax,(%esp)
4000ca8d:	e8 2e e8 ff ff       	call   4000b2c0 <strcmp>
4000ca92:	85 c0                	test   %eax,%eax
4000ca94:	75 24                	jne    4000caba <path_compare+0x118>
4000ca96:	83 45 f4 01          	addl   $0x1,-0xc(%ebp)
4000ca9a:	83 45 f8 01          	addl   $0x1,-0x8(%ebp)
4000ca9e:	83 45 fc 01          	addl   $0x1,-0x4(%ebp)
4000caa2:	8b 45 08             	mov    0x8(%ebp),%eax
4000caa5:	8b 00                	mov    (%eax),%eax
4000caa7:	3b 45 f4             	cmp    -0xc(%ebp),%eax
4000caaa:	76 0e                	jbe    4000caba <path_compare+0x118>
4000caac:	8b 45 0c             	mov    0xc(%ebp),%eax
4000caaf:	8b 00                	mov    (%eax),%eax
4000cab1:	3b 45 f8             	cmp    -0x8(%ebp),%eax
4000cab4:	0f 87 3b ff ff ff    	ja     4000c9f5 <path_compare+0x53>
4000caba:	8b 45 fc             	mov    -0x4(%ebp),%eax
4000cabd:	89 45 ec             	mov    %eax,-0x14(%ebp)
4000cac0:	8b 45 ec             	mov    -0x14(%ebp),%eax
4000cac3:	c9                   	leave  
4000cac4:	c3                   	ret    

4000cac5 <path_cat>:
4000cac5:	55                   	push   %ebp
4000cac6:	89 e5                	mov    %esp,%ebp
4000cac8:	83 ec 38             	sub    $0x38,%esp
4000cacb:	83 7d 08 00          	cmpl   $0x0,0x8(%ebp)
4000cacf:	74 06                	je     4000cad7 <path_cat+0x12>
4000cad1:	83 7d 0c 00          	cmpl   $0x0,0xc(%ebp)
4000cad5:	75 0c                	jne    4000cae3 <path_cat+0x1e>
4000cad7:	c7 45 dc 00 00 00 00 	movl   $0x0,-0x24(%ebp)
4000cade:	e9 f2 01 00 00       	jmp    4000ccd5 <path_cat+0x210>
4000cae3:	c7 04 24 10 00 00 00 	movl   $0x10,(%esp)
4000caea:	e8 61 b1 ff ff       	call   40007c50 <malloc>
4000caef:	89 45 ec             	mov    %eax,-0x14(%ebp)
4000caf2:	8b 45 08             	mov    0x8(%ebp),%eax
4000caf5:	8b 50 0c             	mov    0xc(%eax),%edx
4000caf8:	8b 45 ec             	mov    -0x14(%ebp),%eax
4000cafb:	89 50 0c             	mov    %edx,0xc(%eax)
4000cafe:	8b 45 08             	mov    0x8(%ebp),%eax
4000cb01:	8b 10                	mov    (%eax),%edx
4000cb03:	8b 45 0c             	mov    0xc(%ebp),%eax
4000cb06:	8b 00                	mov    (%eax),%eax
4000cb08:	01 c2                	add    %eax,%edx
4000cb0a:	8b 45 ec             	mov    -0x14(%ebp),%eax
4000cb0d:	89 10                	mov    %edx,(%eax)
4000cb0f:	c7 45 f8 00 00 00 00 	movl   $0x0,-0x8(%ebp)
4000cb16:	c7 45 fc 00 00 00 00 	movl   $0x0,-0x4(%ebp)
4000cb1d:	c7 45 f0 00 00 00 00 	movl   $0x0,-0x10(%ebp)
4000cb24:	eb 26                	jmp    4000cb4c <path_cat+0x87>
4000cb26:	8b 45 08             	mov    0x8(%ebp),%eax
4000cb29:	8b 50 04             	mov    0x4(%eax),%edx
4000cb2c:	8b 45 f0             	mov    -0x10(%ebp),%eax
4000cb2f:	c1 e0 02             	shl    $0x2,%eax
4000cb32:	8d 04 02             	lea    (%edx,%eax,1),%eax
4000cb35:	8b 00                	mov    (%eax),%eax
4000cb37:	89 04 24             	mov    %eax,(%esp)
4000cb3a:	e8 a1 e8 ff ff       	call   4000b3e0 <strlen>
4000cb3f:	03 45 f8             	add    -0x8(%ebp),%eax
4000cb42:	83 c0 01             	add    $0x1,%eax
4000cb45:	89 45 f8             	mov    %eax,-0x8(%ebp)
4000cb48:	83 45 f0 01          	addl   $0x1,-0x10(%ebp)
4000cb4c:	8b 45 08             	mov    0x8(%ebp),%eax
4000cb4f:	8b 00                	mov    (%eax),%eax
4000cb51:	3b 45 f0             	cmp    -0x10(%ebp),%eax
4000cb54:	77 d0                	ja     4000cb26 <path_cat+0x61>
4000cb56:	c7 45 f0 00 00 00 00 	movl   $0x0,-0x10(%ebp)
4000cb5d:	eb 26                	jmp    4000cb85 <path_cat+0xc0>
4000cb5f:	8b 45 0c             	mov    0xc(%ebp),%eax
4000cb62:	8b 50 04             	mov    0x4(%eax),%edx
4000cb65:	8b 45 f0             	mov    -0x10(%ebp),%eax
4000cb68:	c1 e0 02             	shl    $0x2,%eax
4000cb6b:	8d 04 02             	lea    (%edx,%eax,1),%eax
4000cb6e:	8b 00                	mov    (%eax),%eax
4000cb70:	89 04 24             	mov    %eax,(%esp)
4000cb73:	e8 68 e8 ff ff       	call   4000b3e0 <strlen>
4000cb78:	03 45 fc             	add    -0x4(%ebp),%eax
4000cb7b:	83 c0 01             	add    $0x1,%eax
4000cb7e:	89 45 fc             	mov    %eax,-0x4(%ebp)
4000cb81:	83 45 f0 01          	addl   $0x1,-0x10(%ebp)
4000cb85:	8b 45 0c             	mov    0xc(%ebp),%eax
4000cb88:	8b 00                	mov    (%eax),%eax
4000cb8a:	3b 45 f0             	cmp    -0x10(%ebp),%eax
4000cb8d:	77 d0                	ja     4000cb5f <path_cat+0x9a>
4000cb8f:	8b 55 fc             	mov    -0x4(%ebp),%edx
4000cb92:	8b 45 f8             	mov    -0x8(%ebp),%eax
4000cb95:	01 d0                	add    %edx,%eax
4000cb97:	89 04 24             	mov    %eax,(%esp)
4000cb9a:	e8 b1 b0 ff ff       	call   40007c50 <malloc>
4000cb9f:	89 c2                	mov    %eax,%edx
4000cba1:	8b 45 ec             	mov    -0x14(%ebp),%eax
4000cba4:	89 50 08             	mov    %edx,0x8(%eax)
4000cba7:	8b 45 ec             	mov    -0x14(%ebp),%eax
4000cbaa:	8b 00                	mov    (%eax),%eax
4000cbac:	c1 e0 02             	shl    $0x2,%eax
4000cbaf:	89 04 24             	mov    %eax,(%esp)
4000cbb2:	e8 99 b0 ff ff       	call   40007c50 <malloc>
4000cbb7:	89 c2                	mov    %eax,%edx
4000cbb9:	8b 45 ec             	mov    -0x14(%ebp),%eax
4000cbbc:	89 50 04             	mov    %edx,0x4(%eax)
4000cbbf:	c7 45 f4 00 00 00 00 	movl   $0x0,-0xc(%ebp)
4000cbc6:	c7 45 f0 00 00 00 00 	movl   $0x0,-0x10(%ebp)
4000cbcd:	eb 6f                	jmp    4000cc3e <path_cat+0x179>
4000cbcf:	8b 45 08             	mov    0x8(%ebp),%eax
4000cbd2:	8b 50 04             	mov    0x4(%eax),%edx
4000cbd5:	8b 45 f0             	mov    -0x10(%ebp),%eax
4000cbd8:	c1 e0 02             	shl    $0x2,%eax
4000cbdb:	8d 04 02             	lea    (%edx,%eax,1),%eax
4000cbde:	8b 10                	mov    (%eax),%edx
4000cbe0:	8b 45 ec             	mov    -0x14(%ebp),%eax
4000cbe3:	8b 40 08             	mov    0x8(%eax),%eax
4000cbe6:	03 45 f4             	add    -0xc(%ebp),%eax
4000cbe9:	89 54 24 04          	mov    %edx,0x4(%esp)
4000cbed:	89 04 24             	mov    %eax,(%esp)
4000cbf0:	e8 58 e7 ff ff       	call   4000b34d <strcpy>
4000cbf5:	8b 45 ec             	mov    -0x14(%ebp),%eax
4000cbf8:	8b 50 04             	mov    0x4(%eax),%edx
4000cbfb:	8b 45 f0             	mov    -0x10(%ebp),%eax
4000cbfe:	c1 e0 02             	shl    $0x2,%eax
4000cc01:	01 c2                	add    %eax,%edx
4000cc03:	8b 45 ec             	mov    -0x14(%ebp),%eax
4000cc06:	8b 40 08             	mov    0x8(%eax),%eax
4000cc09:	03 45 f4             	add    -0xc(%ebp),%eax
4000cc0c:	89 02                	mov    %eax,(%edx)
4000cc0e:	8b 45 08             	mov    0x8(%ebp),%eax
4000cc11:	8b 50 04             	mov    0x4(%eax),%edx
4000cc14:	8b 45 f0             	mov    -0x10(%ebp),%eax
4000cc17:	c1 e0 02             	shl    $0x2,%eax
4000cc1a:	8d 04 02             	lea    (%edx,%eax,1),%eax
4000cc1d:	8b 00                	mov    (%eax),%eax
4000cc1f:	89 04 24             	mov    %eax,(%esp)
4000cc22:	e8 b9 e7 ff ff       	call   4000b3e0 <strlen>
4000cc27:	01 45 f4             	add    %eax,-0xc(%ebp)
4000cc2a:	8b 45 ec             	mov    -0x14(%ebp),%eax
4000cc2d:	8b 40 08             	mov    0x8(%eax),%eax
4000cc30:	03 45 f4             	add    -0xc(%ebp),%eax
4000cc33:	c6 00 00             	movb   $0x0,(%eax)
4000cc36:	83 45 f4 01          	addl   $0x1,-0xc(%ebp)
4000cc3a:	83 45 f0 01          	addl   $0x1,-0x10(%ebp)
4000cc3e:	8b 45 08             	mov    0x8(%ebp),%eax
4000cc41:	8b 00                	mov    (%eax),%eax
4000cc43:	3b 45 f0             	cmp    -0x10(%ebp),%eax
4000cc46:	77 87                	ja     4000cbcf <path_cat+0x10a>
4000cc48:	c7 45 f0 00 00 00 00 	movl   $0x0,-0x10(%ebp)
4000cc4f:	eb 74                	jmp    4000ccc5 <path_cat+0x200>
4000cc51:	8b 45 0c             	mov    0xc(%ebp),%eax
4000cc54:	8b 50 04             	mov    0x4(%eax),%edx
4000cc57:	8b 45 f0             	mov    -0x10(%ebp),%eax
4000cc5a:	c1 e0 02             	shl    $0x2,%eax
4000cc5d:	8d 04 02             	lea    (%edx,%eax,1),%eax
4000cc60:	8b 10                	mov    (%eax),%edx
4000cc62:	8b 45 ec             	mov    -0x14(%ebp),%eax
4000cc65:	8b 40 08             	mov    0x8(%eax),%eax
4000cc68:	03 45 f4             	add    -0xc(%ebp),%eax
4000cc6b:	89 54 24 04          	mov    %edx,0x4(%esp)
4000cc6f:	89 04 24             	mov    %eax,(%esp)
4000cc72:	e8 d6 e6 ff ff       	call   4000b34d <strcpy>
4000cc77:	8b 45 ec             	mov    -0x14(%ebp),%eax
4000cc7a:	8b 50 04             	mov    0x4(%eax),%edx
4000cc7d:	8b 45 08             	mov    0x8(%ebp),%eax
4000cc80:	8b 00                	mov    (%eax),%eax
4000cc82:	03 45 f0             	add    -0x10(%ebp),%eax
4000cc85:	c1 e0 02             	shl    $0x2,%eax
4000cc88:	01 c2                	add    %eax,%edx
4000cc8a:	8b 45 ec             	mov    -0x14(%ebp),%eax
4000cc8d:	8b 40 08             	mov    0x8(%eax),%eax
4000cc90:	03 45 f4             	add    -0xc(%ebp),%eax
4000cc93:	89 02                	mov    %eax,(%edx)
4000cc95:	8b 45 0c             	mov    0xc(%ebp),%eax
4000cc98:	8b 50 04             	mov    0x4(%eax),%edx
4000cc9b:	8b 45 f0             	mov    -0x10(%ebp),%eax
4000cc9e:	c1 e0 02             	shl    $0x2,%eax
4000cca1:	8d 04 02             	lea    (%edx,%eax,1),%eax
4000cca4:	8b 00                	mov    (%eax),%eax
4000cca6:	89 04 24             	mov    %eax,(%esp)
4000cca9:	e8 32 e7 ff ff       	call   4000b3e0 <strlen>
4000ccae:	01 45 f4             	add    %eax,-0xc(%ebp)
4000ccb1:	8b 45 ec             	mov    -0x14(%ebp),%eax
4000ccb4:	8b 40 08             	mov    0x8(%eax),%eax
4000ccb7:	03 45 f4             	add    -0xc(%ebp),%eax
4000ccba:	c6 00 00             	movb   $0x0,(%eax)
4000ccbd:	83 45 f4 01          	addl   $0x1,-0xc(%ebp)
4000ccc1:	83 45 f0 01          	addl   $0x1,-0x10(%ebp)
4000ccc5:	8b 45 0c             	mov    0xc(%ebp),%eax
4000ccc8:	8b 00                	mov    (%eax),%eax
4000ccca:	3b 45 f0             	cmp    -0x10(%ebp),%eax
4000cccd:	77 82                	ja     4000cc51 <path_cat+0x18c>
4000cccf:	8b 45 ec             	mov    -0x14(%ebp),%eax
4000ccd2:	89 45 dc             	mov    %eax,-0x24(%ebp)
4000ccd5:	8b 45 dc             	mov    -0x24(%ebp),%eax
4000ccd8:	c9                   	leave  
4000ccd9:	c3                   	ret    

4000ccda <path_parent>:
4000ccda:	55                   	push   %ebp
4000ccdb:	89 e5                	mov    %esp,%ebp
4000ccdd:	8b 45 08             	mov    0x8(%ebp),%eax
4000cce0:	8b 00                	mov    (%eax),%eax
4000cce2:	85 c0                	test   %eax,%eax
4000cce4:	74 1f                	je     4000cd05 <path_parent+0x2b>
4000cce6:	8b 45 08             	mov    0x8(%ebp),%eax
4000cce9:	8b 48 04             	mov    0x4(%eax),%ecx
4000ccec:	8b 45 08             	mov    0x8(%ebp),%eax
4000ccef:	8b 10                	mov    (%eax),%edx
4000ccf1:	b8 01 00 00 00       	mov    $0x1,%eax
4000ccf6:	29 d0                	sub    %edx,%eax
4000ccf8:	c1 e0 02             	shl    $0x2,%eax
4000ccfb:	f7 d8                	neg    %eax
4000ccfd:	8d 04 01             	lea    (%ecx,%eax,1),%eax
4000cd00:	8b 00                	mov    (%eax),%eax
4000cd02:	c6 00 00             	movb   $0x0,(%eax)
4000cd05:	5d                   	pop    %ebp
4000cd06:	c3                   	ret    
4000cd07:	90                   	nop    

4000cd08 <rpc_func_create>:
4000cd08:	55                   	push   %ebp
4000cd09:	89 e5                	mov    %esp,%ebp
4000cd0b:	83 ec 38             	sub    $0x38,%esp
4000cd0e:	8b 45 14             	mov    0x14(%ebp),%eax
4000cd11:	89 44 24 14          	mov    %eax,0x14(%esp)
4000cd15:	8b 45 10             	mov    0x10(%ebp),%eax
4000cd18:	89 44 24 10          	mov    %eax,0x10(%esp)
4000cd1c:	8b 45 0c             	mov    0xc(%ebp),%eax
4000cd1f:	89 44 24 0c          	mov    %eax,0xc(%esp)
4000cd23:	8b 45 08             	mov    0x8(%ebp),%eax
4000cd26:	89 44 24 08          	mov    %eax,0x8(%esp)
4000cd2a:	c7 44 24 04 04 00 00 	movl   $0x4,0x4(%esp)
4000cd31:	00 
4000cd32:	c7 04 24 21 00 00 00 	movl   $0x21,(%esp)
4000cd39:	e8 42 0b 00 00       	call   4000d880 <syscall_call>
4000cd3e:	89 45 fc             	mov    %eax,-0x4(%ebp)
4000cd41:	83 7d fc 00          	cmpl   $0x0,-0x4(%ebp)
4000cd45:	79 0c                	jns    4000cd53 <rpc_func_create+0x4b>
4000cd47:	8b 45 fc             	mov    -0x4(%ebp),%eax
4000cd4a:	89 c2                	mov    %eax,%edx
4000cd4c:	f7 da                	neg    %edx
4000cd4e:	89 55 ec             	mov    %edx,-0x14(%ebp)
4000cd51:	eb 07                	jmp    4000cd5a <rpc_func_create+0x52>
4000cd53:	c7 45 ec 00 00 00 00 	movl   $0x0,-0x14(%ebp)
4000cd5a:	8b 45 ec             	mov    -0x14(%ebp),%eax
4000cd5d:	a3 44 29 01 40       	mov    %eax,0x40012944
4000cd62:	8b 45 fc             	mov    -0x4(%ebp),%eax
4000cd65:	c1 f8 1f             	sar    $0x1f,%eax
4000cd68:	0b 45 fc             	or     -0x4(%ebp),%eax
4000cd6b:	c9                   	leave  
4000cd6c:	c3                   	ret    

4000cd6d <rpc_func_destroy>:
4000cd6d:	55                   	push   %ebp
4000cd6e:	89 e5                	mov    %esp,%ebp
4000cd70:	83 ec 28             	sub    $0x28,%esp
4000cd73:	8b 45 08             	mov    0x8(%ebp),%eax
4000cd76:	89 44 24 08          	mov    %eax,0x8(%esp)
4000cd7a:	c7 44 24 04 01 00 00 	movl   $0x1,0x4(%esp)
4000cd81:	00 
4000cd82:	c7 04 24 22 00 00 00 	movl   $0x22,(%esp)
4000cd89:	e8 f2 0a 00 00       	call   4000d880 <syscall_call>
4000cd8e:	89 45 fc             	mov    %eax,-0x4(%ebp)
4000cd91:	83 7d fc 00          	cmpl   $0x0,-0x4(%ebp)
4000cd95:	79 0c                	jns    4000cda3 <rpc_func_destroy+0x36>
4000cd97:	8b 45 fc             	mov    -0x4(%ebp),%eax
4000cd9a:	89 c2                	mov    %eax,%edx
4000cd9c:	f7 da                	neg    %edx
4000cd9e:	89 55 ec             	mov    %edx,-0x14(%ebp)
4000cda1:	eb 07                	jmp    4000cdaa <rpc_func_destroy+0x3d>
4000cda3:	c7 45 ec 00 00 00 00 	movl   $0x0,-0x14(%ebp)
4000cdaa:	8b 45 ec             	mov    -0x14(%ebp),%eax
4000cdad:	a3 44 29 01 40       	mov    %eax,0x40012944
4000cdb2:	8b 45 fc             	mov    -0x4(%ebp),%eax
4000cdb5:	c1 f8 1f             	sar    $0x1f,%eax
4000cdb8:	0b 45 fc             	or     -0x4(%ebp),%eax
4000cdbb:	c9                   	leave  
4000cdbc:	c3                   	ret    

4000cdbd <rpc_vcall>:
4000cdbd:	55                   	push   %ebp
4000cdbe:	89 e5                	mov    %esp,%ebp
4000cdc0:	81 ec 68 01 00 00    	sub    $0x168,%esp
4000cdc6:	c7 44 24 24 00 00 00 	movl   $0x0,0x24(%esp)
4000cdcd:	00 
4000cdce:	c7 44 24 20 00 01 00 	movl   $0x100,0x20(%esp)
4000cdd5:	00 
4000cdd6:	8d 85 e8 fe ff ff    	lea    -0x118(%ebp),%eax
4000cddc:	89 44 24 1c          	mov    %eax,0x1c(%esp)
4000cde0:	8d 85 e4 fe ff ff    	lea    -0x11c(%ebp),%eax
4000cde6:	89 44 24 18          	mov    %eax,0x18(%esp)
4000cdea:	c7 44 24 14 00 00 00 	movl   $0x0,0x14(%esp)
4000cdf1:	00 
4000cdf2:	c7 44 24 10 00 00 00 	movl   $0x0,0x10(%esp)
4000cdf9:	00 
4000cdfa:	8b 45 08             	mov    0x8(%ebp),%eax
4000cdfd:	89 44 24 0c          	mov    %eax,0xc(%esp)
4000ce01:	c7 44 24 08 ff ff ff 	movl   $0xffffffff,0x8(%esp)
4000ce08:	ff 
4000ce09:	c7 44 24 04 08 00 00 	movl   $0x8,0x4(%esp)
4000ce10:	00 
4000ce11:	c7 04 24 23 00 00 00 	movl   $0x23,(%esp)
4000ce18:	e8 63 0a 00 00       	call   4000d880 <syscall_call>
4000ce1d:	89 45 f0             	mov    %eax,-0x10(%ebp)
4000ce20:	83 7d f0 00          	cmpl   $0x0,-0x10(%ebp)
4000ce24:	0f 88 89 04 00 00    	js     4000d2b3 <rpc_vcall+0x4f6>
4000ce2a:	8b 85 e4 fe ff ff    	mov    -0x11c(%ebp),%eax
4000ce30:	89 04 24             	mov    %eax,(%esp)
4000ce33:	e8 18 ae ff ff       	call   40007c50 <malloc>
4000ce38:	89 04 24             	mov    %eax,(%esp)
4000ce3b:	e8 24 1d 00 00       	call   4000eb64 <pack_create>
4000ce40:	89 45 f8             	mov    %eax,-0x8(%ebp)
4000ce43:	8d 85 e8 fe ff ff    	lea    -0x118(%ebp),%eax
4000ce49:	89 04 24             	mov    %eax,(%esp)
4000ce4c:	e8 8f e5 ff ff       	call   4000b3e0 <strlen>
4000ce51:	c1 e0 02             	shl    $0x2,%eax
4000ce54:	89 04 24             	mov    %eax,(%esp)
4000ce57:	e8 f4 ad ff ff       	call   40007c50 <malloc>
4000ce5c:	89 45 fc             	mov    %eax,-0x4(%ebp)
4000ce5f:	c7 45 f4 00 00 00 00 	movl   $0x0,-0xc(%ebp)
4000ce66:	e9 b6 01 00 00       	jmp    4000d021 <rpc_vcall+0x264>
4000ce6b:	8b 45 f4             	mov    -0xc(%ebp),%eax
4000ce6e:	c1 e0 02             	shl    $0x2,%eax
4000ce71:	89 c1                	mov    %eax,%ecx
4000ce73:	03 4d fc             	add    -0x4(%ebp),%ecx
4000ce76:	8b 55 10             	mov    0x10(%ebp),%edx
4000ce79:	8d 42 04             	lea    0x4(%edx),%eax
4000ce7c:	89 45 10             	mov    %eax,0x10(%ebp)
4000ce7f:	89 d0                	mov    %edx,%eax
4000ce81:	8b 00                	mov    (%eax),%eax
4000ce83:	89 01                	mov    %eax,(%ecx)
4000ce85:	8b 45 f4             	mov    -0xc(%ebp),%eax
4000ce88:	0f b6 84 05 e8 fe ff 	movzbl -0x118(%ebp,%eax,1),%eax
4000ce8f:	ff 
4000ce90:	3c 62                	cmp    $0x62,%al
4000ce92:	75 26                	jne    4000ceba <rpc_vcall+0xfd>
4000ce94:	8b 45 f8             	mov    -0x8(%ebp),%eax
4000ce97:	8b 00                	mov    (%eax),%eax
4000ce99:	89 c2                	mov    %eax,%edx
4000ce9b:	8b 45 f4             	mov    -0xc(%ebp),%eax
4000ce9e:	c1 e0 02             	shl    $0x2,%eax
4000cea1:	03 45 fc             	add    -0x4(%ebp),%eax
4000cea4:	8b 00                	mov    (%eax),%eax
4000cea6:	88 02                	mov    %al,(%edx)
4000cea8:	8b 45 f8             	mov    -0x8(%ebp),%eax
4000ceab:	8b 00                	mov    (%eax),%eax
4000cead:	8d 50 01             	lea    0x1(%eax),%edx
4000ceb0:	8b 45 f8             	mov    -0x8(%ebp),%eax
4000ceb3:	89 10                	mov    %edx,(%eax)
4000ceb5:	e9 63 01 00 00       	jmp    4000d01d <rpc_vcall+0x260>
4000ceba:	8b 45 f4             	mov    -0xc(%ebp),%eax
4000cebd:	0f b6 84 05 e8 fe ff 	movzbl -0x118(%ebp,%eax,1),%eax
4000cec4:	ff 
4000cec5:	3c 77                	cmp    $0x77,%al
4000cec7:	75 27                	jne    4000cef0 <rpc_vcall+0x133>
4000cec9:	8b 45 f8             	mov    -0x8(%ebp),%eax
4000cecc:	8b 00                	mov    (%eax),%eax
4000cece:	89 c2                	mov    %eax,%edx
4000ced0:	8b 45 f4             	mov    -0xc(%ebp),%eax
4000ced3:	c1 e0 02             	shl    $0x2,%eax
4000ced6:	03 45 fc             	add    -0x4(%ebp),%eax
4000ced9:	8b 00                	mov    (%eax),%eax
4000cedb:	66 89 02             	mov    %ax,(%edx)
4000cede:	8b 45 f8             	mov    -0x8(%ebp),%eax
4000cee1:	8b 00                	mov    (%eax),%eax
4000cee3:	8d 50 02             	lea    0x2(%eax),%edx
4000cee6:	8b 45 f8             	mov    -0x8(%ebp),%eax
4000cee9:	89 10                	mov    %edx,(%eax)
4000ceeb:	e9 2d 01 00 00       	jmp    4000d01d <rpc_vcall+0x260>
4000cef0:	8b 45 f4             	mov    -0xc(%ebp),%eax
4000cef3:	0f b6 84 05 e8 fe ff 	movzbl -0x118(%ebp,%eax,1),%eax
4000cefa:	ff 
4000cefb:	3c 64                	cmp    $0x64,%al
4000cefd:	75 26                	jne    4000cf25 <rpc_vcall+0x168>
4000ceff:	8b 45 f8             	mov    -0x8(%ebp),%eax
4000cf02:	8b 00                	mov    (%eax),%eax
4000cf04:	89 c2                	mov    %eax,%edx
4000cf06:	8b 45 f4             	mov    -0xc(%ebp),%eax
4000cf09:	c1 e0 02             	shl    $0x2,%eax
4000cf0c:	03 45 fc             	add    -0x4(%ebp),%eax
4000cf0f:	8b 00                	mov    (%eax),%eax
4000cf11:	89 02                	mov    %eax,(%edx)
4000cf13:	8b 45 f8             	mov    -0x8(%ebp),%eax
4000cf16:	8b 00                	mov    (%eax),%eax
4000cf18:	8d 50 04             	lea    0x4(%eax),%edx
4000cf1b:	8b 45 f8             	mov    -0x8(%ebp),%eax
4000cf1e:	89 10                	mov    %edx,(%eax)
4000cf20:	e9 f8 00 00 00       	jmp    4000d01d <rpc_vcall+0x260>
4000cf25:	8b 45 f4             	mov    -0xc(%ebp),%eax
4000cf28:	0f b6 84 05 e8 fe ff 	movzbl -0x118(%ebp,%eax,1),%eax
4000cf2f:	ff 
4000cf30:	3c 63                	cmp    $0x63,%al
4000cf32:	75 26                	jne    4000cf5a <rpc_vcall+0x19d>
4000cf34:	8b 45 f8             	mov    -0x8(%ebp),%eax
4000cf37:	8b 00                	mov    (%eax),%eax
4000cf39:	89 c2                	mov    %eax,%edx
4000cf3b:	8b 45 f4             	mov    -0xc(%ebp),%eax
4000cf3e:	c1 e0 02             	shl    $0x2,%eax
4000cf41:	03 45 fc             	add    -0x4(%ebp),%eax
4000cf44:	8b 00                	mov    (%eax),%eax
4000cf46:	88 02                	mov    %al,(%edx)
4000cf48:	8b 45 f8             	mov    -0x8(%ebp),%eax
4000cf4b:	8b 00                	mov    (%eax),%eax
4000cf4d:	8d 50 01             	lea    0x1(%eax),%edx
4000cf50:	8b 45 f8             	mov    -0x8(%ebp),%eax
4000cf53:	89 10                	mov    %edx,(%eax)
4000cf55:	e9 c3 00 00 00       	jmp    4000d01d <rpc_vcall+0x260>
4000cf5a:	8b 45 f4             	mov    -0xc(%ebp),%eax
4000cf5d:	0f b6 84 05 e8 fe ff 	movzbl -0x118(%ebp,%eax,1),%eax
4000cf64:	ff 
4000cf65:	3c 73                	cmp    $0x73,%al
4000cf67:	75 27                	jne    4000cf90 <rpc_vcall+0x1d3>
4000cf69:	8b 45 f8             	mov    -0x8(%ebp),%eax
4000cf6c:	8b 00                	mov    (%eax),%eax
4000cf6e:	89 c2                	mov    %eax,%edx
4000cf70:	8b 45 f4             	mov    -0xc(%ebp),%eax
4000cf73:	c1 e0 02             	shl    $0x2,%eax
4000cf76:	03 45 fc             	add    -0x4(%ebp),%eax
4000cf79:	8b 00                	mov    (%eax),%eax
4000cf7b:	66 89 02             	mov    %ax,(%edx)
4000cf7e:	8b 45 f8             	mov    -0x8(%ebp),%eax
4000cf81:	8b 00                	mov    (%eax),%eax
4000cf83:	8d 50 02             	lea    0x2(%eax),%edx
4000cf86:	8b 45 f8             	mov    -0x8(%ebp),%eax
4000cf89:	89 10                	mov    %edx,(%eax)
4000cf8b:	e9 8d 00 00 00       	jmp    4000d01d <rpc_vcall+0x260>
4000cf90:	8b 45 f4             	mov    -0xc(%ebp),%eax
4000cf93:	0f b6 84 05 e8 fe ff 	movzbl -0x118(%ebp,%eax,1),%eax
4000cf9a:	ff 
4000cf9b:	3c 69                	cmp    $0x69,%al
4000cf9d:	75 23                	jne    4000cfc2 <rpc_vcall+0x205>
4000cf9f:	8b 45 f8             	mov    -0x8(%ebp),%eax
4000cfa2:	8b 00                	mov    (%eax),%eax
4000cfa4:	89 c2                	mov    %eax,%edx
4000cfa6:	8b 45 f4             	mov    -0xc(%ebp),%eax
4000cfa9:	c1 e0 02             	shl    $0x2,%eax
4000cfac:	03 45 fc             	add    -0x4(%ebp),%eax
4000cfaf:	8b 00                	mov    (%eax),%eax
4000cfb1:	89 02                	mov    %eax,(%edx)
4000cfb3:	8b 45 f8             	mov    -0x8(%ebp),%eax
4000cfb6:	8b 00                	mov    (%eax),%eax
4000cfb8:	8d 50 04             	lea    0x4(%eax),%edx
4000cfbb:	8b 45 f8             	mov    -0x8(%ebp),%eax
4000cfbe:	89 10                	mov    %edx,(%eax)
4000cfc0:	eb 5b                	jmp    4000d01d <rpc_vcall+0x260>
4000cfc2:	8b 45 f4             	mov    -0xc(%ebp),%eax
4000cfc5:	0f b6 84 05 e8 fe ff 	movzbl -0x118(%ebp,%eax,1),%eax
4000cfcc:	ff 
4000cfcd:	3c 6c                	cmp    $0x6c,%al
4000cfcf:	75 23                	jne    4000cff4 <rpc_vcall+0x237>
4000cfd1:	8b 45 f8             	mov    -0x8(%ebp),%eax
4000cfd4:	8b 00                	mov    (%eax),%eax
4000cfd6:	89 c2                	mov    %eax,%edx
4000cfd8:	8b 45 f4             	mov    -0xc(%ebp),%eax
4000cfdb:	c1 e0 02             	shl    $0x2,%eax
4000cfde:	03 45 fc             	add    -0x4(%ebp),%eax
4000cfe1:	8b 00                	mov    (%eax),%eax
4000cfe3:	89 02                	mov    %eax,(%edx)
4000cfe5:	8b 45 f8             	mov    -0x8(%ebp),%eax
4000cfe8:	8b 00                	mov    (%eax),%eax
4000cfea:	8d 50 04             	lea    0x4(%eax),%edx
4000cfed:	8b 45 f8             	mov    -0x8(%ebp),%eax
4000cff0:	89 10                	mov    %edx,(%eax)
4000cff2:	eb 29                	jmp    4000d01d <rpc_vcall+0x260>
4000cff4:	8b 45 f4             	mov    -0xc(%ebp),%eax
4000cff7:	0f b6 84 05 e8 fe ff 	movzbl -0x118(%ebp,%eax,1),%eax
4000cffe:	ff 
4000cfff:	3c 24                	cmp    $0x24,%al
4000d001:	75 1a                	jne    4000d01d <rpc_vcall+0x260>
4000d003:	8b 45 f4             	mov    -0xc(%ebp),%eax
4000d006:	c1 e0 02             	shl    $0x2,%eax
4000d009:	03 45 fc             	add    -0x4(%ebp),%eax
4000d00c:	8b 00                	mov    (%eax),%eax
4000d00e:	89 44 24 04          	mov    %eax,0x4(%esp)
4000d012:	8b 45 f8             	mov    -0x8(%ebp),%eax
4000d015:	89 04 24             	mov    %eax,(%esp)
4000d018:	e8 72 1b 00 00       	call   4000eb8f <packstr>
4000d01d:	83 45 f4 01          	addl   $0x1,-0xc(%ebp)
4000d021:	8b 45 f4             	mov    -0xc(%ebp),%eax
4000d024:	0f b6 84 05 e8 fe ff 	movzbl -0x118(%ebp,%eax,1),%eax
4000d02b:	ff 
4000d02c:	84 c0                	test   %al,%al
4000d02e:	0f 85 37 fe ff ff    	jne    4000ce6b <rpc_vcall+0xae>
4000d034:	83 7d 0c 00          	cmpl   $0x0,0xc(%ebp)
4000d038:	74 0e                	je     4000d048 <rpc_vcall+0x28b>
4000d03a:	8b 45 f8             	mov    -0x8(%ebp),%eax
4000d03d:	8b 40 04             	mov    0x4(%eax),%eax
4000d040:	89 85 c8 fe ff ff    	mov    %eax,-0x138(%ebp)
4000d046:	eb 0a                	jmp    4000d052 <rpc_vcall+0x295>
4000d048:	c7 85 c8 fe ff ff 00 	movl   $0x0,-0x138(%ebp)
4000d04f:	00 00 00 
4000d052:	8b 45 f8             	mov    -0x8(%ebp),%eax
4000d055:	8b 50 04             	mov    0x4(%eax),%edx
4000d058:	8d 45 e8             	lea    -0x18(%ebp),%eax
4000d05b:	89 44 24 18          	mov    %eax,0x18(%esp)
4000d05f:	8b 85 c8 fe ff ff    	mov    -0x138(%ebp),%eax
4000d065:	89 44 24 14          	mov    %eax,0x14(%esp)
4000d069:	8d 45 ec             	lea    -0x14(%ebp),%eax
4000d06c:	89 44 24 10          	mov    %eax,0x10(%esp)
4000d070:	89 54 24 0c          	mov    %edx,0xc(%esp)
4000d074:	8b 45 f0             	mov    -0x10(%ebp),%eax
4000d077:	89 44 24 08          	mov    %eax,0x8(%esp)
4000d07b:	c7 44 24 04 05 00 00 	movl   $0x5,0x4(%esp)
4000d082:	00 
4000d083:	c7 04 24 24 00 00 00 	movl   $0x24,(%esp)
4000d08a:	e8 f1 07 00 00       	call   4000d880 <syscall_call>
4000d08f:	85 c0                	test   %eax,%eax
4000d091:	75 07                	jne    4000d09a <rpc_vcall+0x2dd>
4000d093:	c7 45 e8 01 00 00 00 	movl   $0x1,-0x18(%ebp)
4000d09a:	83 7d 0c 00          	cmpl   $0x0,0xc(%ebp)
4000d09e:	0f 84 d6 01 00 00    	je     4000d27a <rpc_vcall+0x4bd>
4000d0a4:	8b 45 f8             	mov    -0x8(%ebp),%eax
4000d0a7:	8b 50 04             	mov    0x4(%eax),%edx
4000d0aa:	8b 45 f8             	mov    -0x8(%ebp),%eax
4000d0ad:	89 10                	mov    %edx,(%eax)
4000d0af:	c7 45 f4 00 00 00 00 	movl   $0x0,-0xc(%ebp)
4000d0b6:	e9 ac 01 00 00       	jmp    4000d267 <rpc_vcall+0x4aa>
4000d0bb:	8b 45 f4             	mov    -0xc(%ebp),%eax
4000d0be:	0f b6 84 05 e8 fe ff 	movzbl -0x118(%ebp,%eax,1),%eax
4000d0c5:	ff 
4000d0c6:	3c 62                	cmp    $0x62,%al
4000d0c8:	75 23                	jne    4000d0ed <rpc_vcall+0x330>
4000d0ca:	8b 45 f8             	mov    -0x8(%ebp),%eax
4000d0cd:	8b 00                	mov    (%eax),%eax
4000d0cf:	0f b6 00             	movzbl (%eax),%eax
4000d0d2:	0f b6 c0             	movzbl %al,%eax
4000d0d5:	89 85 e0 fe ff ff    	mov    %eax,-0x120(%ebp)
4000d0db:	8b 45 f8             	mov    -0x8(%ebp),%eax
4000d0de:	8b 00                	mov    (%eax),%eax
4000d0e0:	8d 50 01             	lea    0x1(%eax),%edx
4000d0e3:	8b 45 f8             	mov    -0x8(%ebp),%eax
4000d0e6:	89 10                	mov    %edx,(%eax)
4000d0e8:	e9 76 01 00 00       	jmp    4000d263 <rpc_vcall+0x4a6>
4000d0ed:	8b 45 f4             	mov    -0xc(%ebp),%eax
4000d0f0:	0f b6 84 05 e8 fe ff 	movzbl -0x118(%ebp,%eax,1),%eax
4000d0f7:	ff 
4000d0f8:	3c 77                	cmp    $0x77,%al
4000d0fa:	75 23                	jne    4000d11f <rpc_vcall+0x362>
4000d0fc:	8b 45 f8             	mov    -0x8(%ebp),%eax
4000d0ff:	8b 00                	mov    (%eax),%eax
4000d101:	0f b7 00             	movzwl (%eax),%eax
4000d104:	0f b7 c0             	movzwl %ax,%eax
4000d107:	89 85 e0 fe ff ff    	mov    %eax,-0x120(%ebp)
4000d10d:	8b 45 f8             	mov    -0x8(%ebp),%eax
4000d110:	8b 00                	mov    (%eax),%eax
4000d112:	8d 50 02             	lea    0x2(%eax),%edx
4000d115:	8b 45 f8             	mov    -0x8(%ebp),%eax
4000d118:	89 10                	mov    %edx,(%eax)
4000d11a:	e9 44 01 00 00       	jmp    4000d263 <rpc_vcall+0x4a6>
4000d11f:	8b 45 f4             	mov    -0xc(%ebp),%eax
4000d122:	0f b6 84 05 e8 fe ff 	movzbl -0x118(%ebp,%eax,1),%eax
4000d129:	ff 
4000d12a:	3c 64                	cmp    $0x64,%al
4000d12c:	75 1f                	jne    4000d14d <rpc_vcall+0x390>
4000d12e:	8b 45 f8             	mov    -0x8(%ebp),%eax
4000d131:	8b 00                	mov    (%eax),%eax
4000d133:	8b 00                	mov    (%eax),%eax
4000d135:	89 85 e0 fe ff ff    	mov    %eax,-0x120(%ebp)
4000d13b:	8b 45 f8             	mov    -0x8(%ebp),%eax
4000d13e:	8b 00                	mov    (%eax),%eax
4000d140:	8d 50 04             	lea    0x4(%eax),%edx
4000d143:	8b 45 f8             	mov    -0x8(%ebp),%eax
4000d146:	89 10                	mov    %edx,(%eax)
4000d148:	e9 16 01 00 00       	jmp    4000d263 <rpc_vcall+0x4a6>
4000d14d:	8b 45 f4             	mov    -0xc(%ebp),%eax
4000d150:	0f b6 84 05 e8 fe ff 	movzbl -0x118(%ebp,%eax,1),%eax
4000d157:	ff 
4000d158:	3c 63                	cmp    $0x63,%al
4000d15a:	75 23                	jne    4000d17f <rpc_vcall+0x3c2>
4000d15c:	8b 45 f8             	mov    -0x8(%ebp),%eax
4000d15f:	8b 00                	mov    (%eax),%eax
4000d161:	0f b6 00             	movzbl (%eax),%eax
4000d164:	0f be c0             	movsbl %al,%eax
4000d167:	89 85 e0 fe ff ff    	mov    %eax,-0x120(%ebp)
4000d16d:	8b 45 f8             	mov    -0x8(%ebp),%eax
4000d170:	8b 00                	mov    (%eax),%eax
4000d172:	8d 50 01             	lea    0x1(%eax),%edx
4000d175:	8b 45 f8             	mov    -0x8(%ebp),%eax
4000d178:	89 10                	mov    %edx,(%eax)
4000d17a:	e9 e4 00 00 00       	jmp    4000d263 <rpc_vcall+0x4a6>
4000d17f:	8b 45 f4             	mov    -0xc(%ebp),%eax
4000d182:	0f b6 84 05 e8 fe ff 	movzbl -0x118(%ebp,%eax,1),%eax
4000d189:	ff 
4000d18a:	3c 73                	cmp    $0x73,%al
4000d18c:	75 21                	jne    4000d1af <rpc_vcall+0x3f2>
4000d18e:	8b 45 f8             	mov    -0x8(%ebp),%eax
4000d191:	8b 00                	mov    (%eax),%eax
4000d193:	0f b7 00             	movzwl (%eax),%eax
4000d196:	98                   	cwtl   
4000d197:	89 85 e0 fe ff ff    	mov    %eax,-0x120(%ebp)
4000d19d:	8b 45 f8             	mov    -0x8(%ebp),%eax
4000d1a0:	8b 00                	mov    (%eax),%eax
4000d1a2:	8d 50 02             	lea    0x2(%eax),%edx
4000d1a5:	8b 45 f8             	mov    -0x8(%ebp),%eax
4000d1a8:	89 10                	mov    %edx,(%eax)
4000d1aa:	e9 b4 00 00 00       	jmp    4000d263 <rpc_vcall+0x4a6>
4000d1af:	8b 45 f4             	mov    -0xc(%ebp),%eax
4000d1b2:	0f b6 84 05 e8 fe ff 	movzbl -0x118(%ebp,%eax,1),%eax
4000d1b9:	ff 
4000d1ba:	3c 69                	cmp    $0x69,%al
4000d1bc:	75 1f                	jne    4000d1dd <rpc_vcall+0x420>
4000d1be:	8b 45 f8             	mov    -0x8(%ebp),%eax
4000d1c1:	8b 00                	mov    (%eax),%eax
4000d1c3:	8b 00                	mov    (%eax),%eax
4000d1c5:	89 85 e0 fe ff ff    	mov    %eax,-0x120(%ebp)
4000d1cb:	8b 45 f8             	mov    -0x8(%ebp),%eax
4000d1ce:	8b 00                	mov    (%eax),%eax
4000d1d0:	8d 50 04             	lea    0x4(%eax),%edx
4000d1d3:	8b 45 f8             	mov    -0x8(%ebp),%eax
4000d1d6:	89 10                	mov    %edx,(%eax)
4000d1d8:	e9 86 00 00 00       	jmp    4000d263 <rpc_vcall+0x4a6>
4000d1dd:	8b 45 f4             	mov    -0xc(%ebp),%eax
4000d1e0:	0f b6 84 05 e8 fe ff 	movzbl -0x118(%ebp,%eax,1),%eax
4000d1e7:	ff 
4000d1e8:	3c 6c                	cmp    $0x6c,%al
4000d1ea:	75 1c                	jne    4000d208 <rpc_vcall+0x44b>
4000d1ec:	8b 45 f8             	mov    -0x8(%ebp),%eax
4000d1ef:	8b 00                	mov    (%eax),%eax
4000d1f1:	8b 00                	mov    (%eax),%eax
4000d1f3:	89 85 e0 fe ff ff    	mov    %eax,-0x120(%ebp)
4000d1f9:	8b 45 f8             	mov    -0x8(%ebp),%eax
4000d1fc:	8b 00                	mov    (%eax),%eax
4000d1fe:	8d 50 04             	lea    0x4(%eax),%edx
4000d201:	8b 45 f8             	mov    -0x8(%ebp),%eax
4000d204:	89 10                	mov    %edx,(%eax)
4000d206:	eb 5b                	jmp    4000d263 <rpc_vcall+0x4a6>
4000d208:	8b 45 f4             	mov    -0xc(%ebp),%eax
4000d20b:	0f b6 84 05 e8 fe ff 	movzbl -0x118(%ebp,%eax,1),%eax
4000d212:	ff 
4000d213:	3c 24                	cmp    $0x24,%al
4000d215:	75 4c                	jne    4000d263 <rpc_vcall+0x4a6>
4000d217:	8d 85 dc fe ff ff    	lea    -0x124(%ebp),%eax
4000d21d:	89 44 24 04          	mov    %eax,0x4(%esp)
4000d221:	8b 45 f8             	mov    -0x8(%ebp),%eax
4000d224:	89 04 24             	mov    %eax,(%esp)
4000d227:	e8 33 1a 00 00       	call   4000ec5f <unpackstr>
4000d22c:	8b 45 f4             	mov    -0xc(%ebp),%eax
4000d22f:	c1 e0 02             	shl    $0x2,%eax
4000d232:	03 45 fc             	add    -0x4(%ebp),%eax
4000d235:	8b 00                	mov    (%eax),%eax
4000d237:	89 04 24             	mov    %eax,(%esp)
4000d23a:	e8 a1 e1 ff ff       	call   4000b3e0 <strlen>
4000d23f:	8d 50 01             	lea    0x1(%eax),%edx
4000d242:	8b 8d dc fe ff ff    	mov    -0x124(%ebp),%ecx
4000d248:	8b 45 f4             	mov    -0xc(%ebp),%eax
4000d24b:	c1 e0 02             	shl    $0x2,%eax
4000d24e:	03 45 fc             	add    -0x4(%ebp),%eax
4000d251:	8b 00                	mov    (%eax),%eax
4000d253:	89 54 24 08          	mov    %edx,0x8(%esp)
4000d257:	89 4c 24 04          	mov    %ecx,0x4(%esp)
4000d25b:	89 04 24             	mov    %eax,(%esp)
4000d25e:	e8 bd e2 ff ff       	call   4000b520 <strncpy>
4000d263:	83 45 f4 01          	addl   $0x1,-0xc(%ebp)
4000d267:	8b 45 f4             	mov    -0xc(%ebp),%eax
4000d26a:	0f b6 84 05 e8 fe ff 	movzbl -0x118(%ebp,%eax,1),%eax
4000d271:	ff 
4000d272:	84 c0                	test   %al,%al
4000d274:	0f 85 41 fe ff ff    	jne    4000d0bb <rpc_vcall+0x2fe>
4000d27a:	c7 05 44 29 01 40 00 	movl   $0x0,0x40012944
4000d281:	00 00 00 
4000d284:	8b 45 fc             	mov    -0x4(%ebp),%eax
4000d287:	89 04 24             	mov    %eax,(%esp)
4000d28a:	e8 78 ae ff ff       	call   40008107 <free>
4000d28f:	8b 45 f8             	mov    -0x8(%ebp),%eax
4000d292:	8b 40 04             	mov    0x4(%eax),%eax
4000d295:	89 04 24             	mov    %eax,(%esp)
4000d298:	e8 6a ae ff ff       	call   40008107 <free>
4000d29d:	8b 45 f8             	mov    -0x8(%ebp),%eax
4000d2a0:	89 04 24             	mov    %eax,(%esp)
4000d2a3:	e8 5f ae ff ff       	call   40008107 <free>
4000d2a8:	8b 45 ec             	mov    -0x14(%ebp),%eax
4000d2ab:	89 85 cc fe ff ff    	mov    %eax,-0x134(%ebp)
4000d2b1:	eb 14                	jmp    4000d2c7 <rpc_vcall+0x50a>
4000d2b3:	c7 05 44 29 01 40 1c 	movl   $0x1c,0x40012944
4000d2ba:	00 00 00 
4000d2bd:	c7 85 cc fe ff ff ff 	movl   $0xffffffff,-0x134(%ebp)
4000d2c4:	ff ff ff 
4000d2c7:	8b 85 cc fe ff ff    	mov    -0x134(%ebp),%eax
4000d2cd:	c9                   	leave  
4000d2ce:	c3                   	ret    

4000d2cf <rpc_call>:
4000d2cf:	55                   	push   %ebp
4000d2d0:	89 e5                	mov    %esp,%ebp
4000d2d2:	83 ec 28             	sub    $0x28,%esp
4000d2d5:	8d 45 10             	lea    0x10(%ebp),%eax
4000d2d8:	89 45 f8             	mov    %eax,-0x8(%ebp)
4000d2db:	8b 45 f8             	mov    -0x8(%ebp),%eax
4000d2de:	89 44 24 08          	mov    %eax,0x8(%esp)
4000d2e2:	8b 45 0c             	mov    0xc(%ebp),%eax
4000d2e5:	89 44 24 04          	mov    %eax,0x4(%esp)
4000d2e9:	8b 45 08             	mov    0x8(%ebp),%eax
4000d2ec:	89 04 24             	mov    %eax,(%esp)
4000d2ef:	e8 c9 fa ff ff       	call   4000cdbd <rpc_vcall>
4000d2f4:	89 45 fc             	mov    %eax,-0x4(%ebp)
4000d2f7:	8b 45 fc             	mov    -0x4(%ebp),%eax
4000d2fa:	c9                   	leave  
4000d2fb:	c3                   	ret    

4000d2fc <rpc_vcallself>:
4000d2fc:	55                   	push   %ebp
4000d2fd:	89 e5                	mov    %esp,%ebp
4000d2ff:	81 ec 58 01 00 00    	sub    $0x158,%esp
4000d305:	c7 44 24 04 00 00 00 	movl   $0x0,0x4(%esp)
4000d30c:	00 
4000d30d:	c7 04 24 28 00 00 00 	movl   $0x28,(%esp)
4000d314:	e8 67 05 00 00       	call   4000d880 <syscall_call>
4000d319:	89 c2                	mov    %eax,%edx
4000d31b:	c7 44 24 24 01 00 00 	movl   $0x1,0x24(%esp)
4000d322:	00 
4000d323:	c7 44 24 20 00 01 00 	movl   $0x100,0x20(%esp)
4000d32a:	00 
4000d32b:	8d 85 ec fe ff ff    	lea    -0x114(%ebp),%eax
4000d331:	89 44 24 1c          	mov    %eax,0x1c(%esp)
4000d335:	c7 44 24 18 00 00 00 	movl   $0x0,0x18(%esp)
4000d33c:	00 
4000d33d:	c7 44 24 14 00 00 00 	movl   $0x0,0x14(%esp)
4000d344:	00 
4000d345:	89 54 24 10          	mov    %edx,0x10(%esp)
4000d349:	8b 45 08             	mov    0x8(%ebp),%eax
4000d34c:	89 44 24 0c          	mov    %eax,0xc(%esp)
4000d350:	c7 44 24 08 ff ff ff 	movl   $0xffffffff,0x8(%esp)
4000d357:	ff 
4000d358:	c7 44 24 04 08 00 00 	movl   $0x8,0x4(%esp)
4000d35f:	00 
4000d360:	c7 04 24 23 00 00 00 	movl   $0x23,(%esp)
4000d367:	e8 14 05 00 00       	call   4000d880 <syscall_call>
4000d36c:	89 45 ec             	mov    %eax,-0x14(%ebp)
4000d36f:	83 7d ec 00          	cmpl   $0x0,-0x14(%ebp)
4000d373:	0f 88 83 00 00 00    	js     4000d3fc <rpc_vcallself+0x100>
4000d379:	8d 85 ec fe ff ff    	lea    -0x114(%ebp),%eax
4000d37f:	89 04 24             	mov    %eax,(%esp)
4000d382:	e8 59 e0 ff ff       	call   4000b3e0 <strlen>
4000d387:	89 45 f4             	mov    %eax,-0xc(%ebp)
4000d38a:	8b 45 f4             	mov    -0xc(%ebp),%eax
4000d38d:	c1 e0 02             	shl    $0x2,%eax
4000d390:	89 04 24             	mov    %eax,(%esp)
4000d393:	e8 b8 a8 ff ff       	call   40007c50 <malloc>
4000d398:	89 45 fc             	mov    %eax,-0x4(%ebp)
4000d39b:	c7 45 f8 00 00 00 00 	movl   $0x0,-0x8(%ebp)
4000d3a2:	eb 1e                	jmp    4000d3c2 <rpc_vcallself+0xc6>
4000d3a4:	8b 45 f8             	mov    -0x8(%ebp),%eax
4000d3a7:	c1 e0 02             	shl    $0x2,%eax
4000d3aa:	89 c1                	mov    %eax,%ecx
4000d3ac:	03 4d fc             	add    -0x4(%ebp),%ecx
4000d3af:	8b 55 14             	mov    0x14(%ebp),%edx
4000d3b2:	8d 42 04             	lea    0x4(%edx),%eax
4000d3b5:	89 45 14             	mov    %eax,0x14(%ebp)
4000d3b8:	89 d0                	mov    %edx,%eax
4000d3ba:	8b 00                	mov    (%eax),%eax
4000d3bc:	89 01                	mov    %eax,(%ecx)
4000d3be:	83 45 f8 01          	addl   $0x1,-0x8(%ebp)
4000d3c2:	8b 45 f8             	mov    -0x8(%ebp),%eax
4000d3c5:	3b 45 f4             	cmp    -0xc(%ebp),%eax
4000d3c8:	72 da                	jb     4000d3a4 <rpc_vcallself+0xa8>
4000d3ca:	8b 45 f4             	mov    -0xc(%ebp),%eax
4000d3cd:	89 44 24 08          	mov    %eax,0x8(%esp)
4000d3d1:	8b 45 fc             	mov    -0x4(%ebp),%eax
4000d3d4:	89 44 24 04          	mov    %eax,0x4(%esp)
4000d3d8:	8b 45 0c             	mov    0xc(%ebp),%eax
4000d3db:	89 04 24             	mov    %eax,(%esp)
4000d3de:	e8 4d 17 00 00       	call   4000eb30 <dyn_call>
4000d3e3:	89 45 f0             	mov    %eax,-0x10(%ebp)
4000d3e6:	8b 45 fc             	mov    -0x4(%ebp),%eax
4000d3e9:	89 04 24             	mov    %eax,(%esp)
4000d3ec:	e8 16 ad ff ff       	call   40008107 <free>
4000d3f1:	8b 45 f0             	mov    -0x10(%ebp),%eax
4000d3f4:	89 85 dc fe ff ff    	mov    %eax,-0x124(%ebp)
4000d3fa:	eb 0a                	jmp    4000d406 <rpc_vcallself+0x10a>
4000d3fc:	c7 85 dc fe ff ff ff 	movl   $0xffffffff,-0x124(%ebp)
4000d403:	ff ff ff 
4000d406:	8b 85 dc fe ff ff    	mov    -0x124(%ebp),%eax
4000d40c:	c9                   	leave  
4000d40d:	c3                   	ret    

4000d40e <rpc_callself>:
4000d40e:	55                   	push   %ebp
4000d40f:	89 e5                	mov    %esp,%ebp
4000d411:	83 ec 28             	sub    $0x28,%esp
4000d414:	8d 45 14             	lea    0x14(%ebp),%eax
4000d417:	89 45 f8             	mov    %eax,-0x8(%ebp)
4000d41a:	8b 45 f8             	mov    -0x8(%ebp),%eax
4000d41d:	89 44 24 0c          	mov    %eax,0xc(%esp)
4000d421:	8b 45 10             	mov    0x10(%ebp),%eax
4000d424:	89 44 24 08          	mov    %eax,0x8(%esp)
4000d428:	8b 45 0c             	mov    0xc(%ebp),%eax
4000d42b:	89 44 24 04          	mov    %eax,0x4(%esp)
4000d42f:	8b 45 08             	mov    0x8(%ebp),%eax
4000d432:	89 04 24             	mov    %eax,(%esp)
4000d435:	e8 c2 fe ff ff       	call   4000d2fc <rpc_vcallself>
4000d43a:	89 45 fc             	mov    %eax,-0x4(%ebp)
4000d43d:	8b 45 fc             	mov    -0x4(%ebp),%eax
4000d440:	c9                   	leave  
4000d441:	c3                   	ret    

4000d442 <rpc_poll>:
4000d442:	55                   	push   %ebp
4000d443:	89 e5                	mov    %esp,%ebp
4000d445:	81 ec 58 01 00 00    	sub    $0x158,%esp
4000d44b:	c7 44 24 04 00 00 00 	movl   $0x0,0x4(%esp)
4000d452:	00 
4000d453:	c7 04 24 28 00 00 00 	movl   $0x28,(%esp)
4000d45a:	e8 21 04 00 00       	call   4000d880 <syscall_call>
4000d45f:	89 c2                	mov    %eax,%edx
4000d461:	c7 44 24 24 01 00 00 	movl   $0x1,0x24(%esp)
4000d468:	00 
4000d469:	c7 44 24 20 00 01 00 	movl   $0x100,0x20(%esp)
4000d470:	00 
4000d471:	8d 85 e8 fe ff ff    	lea    -0x118(%ebp),%eax
4000d477:	89 44 24 1c          	mov    %eax,0x1c(%esp)
4000d47b:	8d 45 e8             	lea    -0x18(%ebp),%eax
4000d47e:	89 44 24 18          	mov    %eax,0x18(%esp)
4000d482:	c7 44 24 14 01 00 00 	movl   $0x1,0x14(%esp)
4000d489:	00 
4000d48a:	89 54 24 10          	mov    %edx,0x10(%esp)
4000d48e:	c7 44 24 0c 00 00 00 	movl   $0x0,0xc(%esp)
4000d495:	00 
4000d496:	8b 45 08             	mov    0x8(%ebp),%eax
4000d499:	89 44 24 08          	mov    %eax,0x8(%esp)
4000d49d:	c7 44 24 04 08 00 00 	movl   $0x8,0x4(%esp)
4000d4a4:	00 
4000d4a5:	c7 04 24 23 00 00 00 	movl   $0x23,(%esp)
4000d4ac:	e8 cf 03 00 00       	call   4000d880 <syscall_call>
4000d4b1:	89 45 08             	mov    %eax,0x8(%ebp)
4000d4b4:	83 7d 08 00          	cmpl   $0x0,0x8(%ebp)
4000d4b8:	0f 88 a8 02 00 00    	js     4000d766 <rpc_poll+0x324>
4000d4be:	8d 85 e8 fe ff ff    	lea    -0x118(%ebp),%eax
4000d4c4:	89 04 24             	mov    %eax,(%esp)
4000d4c7:	e8 14 df ff ff       	call   4000b3e0 <strlen>
4000d4cc:	89 45 ec             	mov    %eax,-0x14(%ebp)
4000d4cf:	8b 45 e8             	mov    -0x18(%ebp),%eax
4000d4d2:	89 04 24             	mov    %eax,(%esp)
4000d4d5:	e8 76 a7 ff ff       	call   40007c50 <malloc>
4000d4da:	89 04 24             	mov    %eax,(%esp)
4000d4dd:	e8 82 16 00 00       	call   4000eb64 <pack_create>
4000d4e2:	89 45 f0             	mov    %eax,-0x10(%ebp)
4000d4e5:	8b 45 f0             	mov    -0x10(%ebp),%eax
4000d4e8:	8b 40 04             	mov    0x4(%eax),%eax
4000d4eb:	c7 44 24 14 2c 29 01 	movl   $0x4001292c,0x14(%esp)
4000d4f2:	40 
4000d4f3:	89 44 24 10          	mov    %eax,0x10(%esp)
4000d4f7:	8d 85 e4 fe ff ff    	lea    -0x11c(%ebp),%eax
4000d4fd:	89 44 24 0c          	mov    %eax,0xc(%esp)
4000d501:	8b 45 08             	mov    0x8(%ebp),%eax
4000d504:	89 44 24 08          	mov    %eax,0x8(%esp)
4000d508:	c7 44 24 04 04 00 00 	movl   $0x4,0x4(%esp)
4000d50f:	00 
4000d510:	c7 04 24 25 00 00 00 	movl   $0x25,(%esp)
4000d517:	e8 64 03 00 00       	call   4000d880 <syscall_call>
4000d51c:	85 c0                	test   %eax,%eax
4000d51e:	0f 85 42 02 00 00    	jne    4000d766 <rpc_poll+0x324>
4000d524:	8b 45 ec             	mov    -0x14(%ebp),%eax
4000d527:	c1 e0 02             	shl    $0x2,%eax
4000d52a:	89 04 24             	mov    %eax,(%esp)
4000d52d:	e8 1e a7 ff ff       	call   40007c50 <malloc>
4000d532:	89 45 f8             	mov    %eax,-0x8(%ebp)
4000d535:	c7 45 fc 00 00 00 00 	movl   $0x0,-0x4(%ebp)
4000d53c:	e9 a9 01 00 00       	jmp    4000d6ea <rpc_poll+0x2a8>
4000d541:	8b 45 fc             	mov    -0x4(%ebp),%eax
4000d544:	0f b6 84 05 e8 fe ff 	movzbl -0x118(%ebp,%eax,1),%eax
4000d54b:	ff 
4000d54c:	3c 62                	cmp    $0x62,%al
4000d54e:	75 2a                	jne    4000d57a <rpc_poll+0x138>
4000d550:	8b 45 fc             	mov    -0x4(%ebp),%eax
4000d553:	c1 e0 02             	shl    $0x2,%eax
4000d556:	89 c2                	mov    %eax,%edx
4000d558:	03 55 f8             	add    -0x8(%ebp),%edx
4000d55b:	8b 45 f0             	mov    -0x10(%ebp),%eax
4000d55e:	8b 00                	mov    (%eax),%eax
4000d560:	0f b6 00             	movzbl (%eax),%eax
4000d563:	0f b6 c0             	movzbl %al,%eax
4000d566:	89 02                	mov    %eax,(%edx)
4000d568:	8b 45 f0             	mov    -0x10(%ebp),%eax
4000d56b:	8b 00                	mov    (%eax),%eax
4000d56d:	8d 50 01             	lea    0x1(%eax),%edx
4000d570:	8b 45 f0             	mov    -0x10(%ebp),%eax
4000d573:	89 10                	mov    %edx,(%eax)
4000d575:	e9 6c 01 00 00       	jmp    4000d6e6 <rpc_poll+0x2a4>
4000d57a:	8b 45 fc             	mov    -0x4(%ebp),%eax
4000d57d:	0f b6 84 05 e8 fe ff 	movzbl -0x118(%ebp,%eax,1),%eax
4000d584:	ff 
4000d585:	3c 77                	cmp    $0x77,%al
4000d587:	75 2a                	jne    4000d5b3 <rpc_poll+0x171>
4000d589:	8b 45 fc             	mov    -0x4(%ebp),%eax
4000d58c:	c1 e0 02             	shl    $0x2,%eax
4000d58f:	89 c2                	mov    %eax,%edx
4000d591:	03 55 f8             	add    -0x8(%ebp),%edx
4000d594:	8b 45 f0             	mov    -0x10(%ebp),%eax
4000d597:	8b 00                	mov    (%eax),%eax
4000d599:	0f b7 00             	movzwl (%eax),%eax
4000d59c:	0f b7 c0             	movzwl %ax,%eax
4000d59f:	89 02                	mov    %eax,(%edx)
4000d5a1:	8b 45 f0             	mov    -0x10(%ebp),%eax
4000d5a4:	8b 00                	mov    (%eax),%eax
4000d5a6:	8d 50 02             	lea    0x2(%eax),%edx
4000d5a9:	8b 45 f0             	mov    -0x10(%ebp),%eax
4000d5ac:	89 10                	mov    %edx,(%eax)
4000d5ae:	e9 33 01 00 00       	jmp    4000d6e6 <rpc_poll+0x2a4>
4000d5b3:	8b 45 fc             	mov    -0x4(%ebp),%eax
4000d5b6:	0f b6 84 05 e8 fe ff 	movzbl -0x118(%ebp,%eax,1),%eax
4000d5bd:	ff 
4000d5be:	3c 64                	cmp    $0x64,%al
4000d5c0:	75 26                	jne    4000d5e8 <rpc_poll+0x1a6>
4000d5c2:	8b 45 fc             	mov    -0x4(%ebp),%eax
4000d5c5:	c1 e0 02             	shl    $0x2,%eax
4000d5c8:	89 c2                	mov    %eax,%edx
4000d5ca:	03 55 f8             	add    -0x8(%ebp),%edx
4000d5cd:	8b 45 f0             	mov    -0x10(%ebp),%eax
4000d5d0:	8b 00                	mov    (%eax),%eax
4000d5d2:	8b 00                	mov    (%eax),%eax
4000d5d4:	89 02                	mov    %eax,(%edx)
4000d5d6:	8b 45 f0             	mov    -0x10(%ebp),%eax
4000d5d9:	8b 00                	mov    (%eax),%eax
4000d5db:	8d 50 04             	lea    0x4(%eax),%edx
4000d5de:	8b 45 f0             	mov    -0x10(%ebp),%eax
4000d5e1:	89 10                	mov    %edx,(%eax)
4000d5e3:	e9 fe 00 00 00       	jmp    4000d6e6 <rpc_poll+0x2a4>
4000d5e8:	8b 45 fc             	mov    -0x4(%ebp),%eax
4000d5eb:	0f b6 84 05 e8 fe ff 	movzbl -0x118(%ebp,%eax,1),%eax
4000d5f2:	ff 
4000d5f3:	3c 63                	cmp    $0x63,%al
4000d5f5:	75 2a                	jne    4000d621 <rpc_poll+0x1df>
4000d5f7:	8b 45 fc             	mov    -0x4(%ebp),%eax
4000d5fa:	c1 e0 02             	shl    $0x2,%eax
4000d5fd:	89 c2                	mov    %eax,%edx
4000d5ff:	03 55 f8             	add    -0x8(%ebp),%edx
4000d602:	8b 45 f0             	mov    -0x10(%ebp),%eax
4000d605:	8b 00                	mov    (%eax),%eax
4000d607:	0f b6 00             	movzbl (%eax),%eax
4000d60a:	0f be c0             	movsbl %al,%eax
4000d60d:	89 02                	mov    %eax,(%edx)
4000d60f:	8b 45 f0             	mov    -0x10(%ebp),%eax
4000d612:	8b 00                	mov    (%eax),%eax
4000d614:	8d 50 01             	lea    0x1(%eax),%edx
4000d617:	8b 45 f0             	mov    -0x10(%ebp),%eax
4000d61a:	89 10                	mov    %edx,(%eax)
4000d61c:	e9 c5 00 00 00       	jmp    4000d6e6 <rpc_poll+0x2a4>
4000d621:	8b 45 fc             	mov    -0x4(%ebp),%eax
4000d624:	0f b6 84 05 e8 fe ff 	movzbl -0x118(%ebp,%eax,1),%eax
4000d62b:	ff 
4000d62c:	3c 73                	cmp    $0x73,%al
4000d62e:	75 28                	jne    4000d658 <rpc_poll+0x216>
4000d630:	8b 45 fc             	mov    -0x4(%ebp),%eax
4000d633:	c1 e0 02             	shl    $0x2,%eax
4000d636:	89 c2                	mov    %eax,%edx
4000d638:	03 55 f8             	add    -0x8(%ebp),%edx
4000d63b:	8b 45 f0             	mov    -0x10(%ebp),%eax
4000d63e:	8b 00                	mov    (%eax),%eax
4000d640:	0f b7 00             	movzwl (%eax),%eax
4000d643:	98                   	cwtl   
4000d644:	89 02                	mov    %eax,(%edx)
4000d646:	8b 45 f0             	mov    -0x10(%ebp),%eax
4000d649:	8b 00                	mov    (%eax),%eax
4000d64b:	8d 50 02             	lea    0x2(%eax),%edx
4000d64e:	8b 45 f0             	mov    -0x10(%ebp),%eax
4000d651:	89 10                	mov    %edx,(%eax)
4000d653:	e9 8e 00 00 00       	jmp    4000d6e6 <rpc_poll+0x2a4>
4000d658:	8b 45 fc             	mov    -0x4(%ebp),%eax
4000d65b:	0f b6 84 05 e8 fe ff 	movzbl -0x118(%ebp,%eax,1),%eax
4000d662:	ff 
4000d663:	3c 69                	cmp    $0x69,%al
4000d665:	75 23                	jne    4000d68a <rpc_poll+0x248>
4000d667:	8b 45 fc             	mov    -0x4(%ebp),%eax
4000d66a:	c1 e0 02             	shl    $0x2,%eax
4000d66d:	89 c2                	mov    %eax,%edx
4000d66f:	03 55 f8             	add    -0x8(%ebp),%edx
4000d672:	8b 45 f0             	mov    -0x10(%ebp),%eax
4000d675:	8b 00                	mov    (%eax),%eax
4000d677:	8b 00                	mov    (%eax),%eax
4000d679:	89 02                	mov    %eax,(%edx)
4000d67b:	8b 45 f0             	mov    -0x10(%ebp),%eax
4000d67e:	8b 00                	mov    (%eax),%eax
4000d680:	8d 50 04             	lea    0x4(%eax),%edx
4000d683:	8b 45 f0             	mov    -0x10(%ebp),%eax
4000d686:	89 10                	mov    %edx,(%eax)
4000d688:	eb 5c                	jmp    4000d6e6 <rpc_poll+0x2a4>
4000d68a:	8b 45 fc             	mov    -0x4(%ebp),%eax
4000d68d:	0f b6 84 05 e8 fe ff 	movzbl -0x118(%ebp,%eax,1),%eax
4000d694:	ff 
4000d695:	3c 6c                	cmp    $0x6c,%al
4000d697:	75 23                	jne    4000d6bc <rpc_poll+0x27a>
4000d699:	8b 45 fc             	mov    -0x4(%ebp),%eax
4000d69c:	c1 e0 02             	shl    $0x2,%eax
4000d69f:	89 c2                	mov    %eax,%edx
4000d6a1:	03 55 f8             	add    -0x8(%ebp),%edx
4000d6a4:	8b 45 f0             	mov    -0x10(%ebp),%eax
4000d6a7:	8b 00                	mov    (%eax),%eax
4000d6a9:	8b 00                	mov    (%eax),%eax
4000d6ab:	89 02                	mov    %eax,(%edx)
4000d6ad:	8b 45 f0             	mov    -0x10(%ebp),%eax
4000d6b0:	8b 00                	mov    (%eax),%eax
4000d6b2:	8d 50 04             	lea    0x4(%eax),%edx
4000d6b5:	8b 45 f0             	mov    -0x10(%ebp),%eax
4000d6b8:	89 10                	mov    %edx,(%eax)
4000d6ba:	eb 2a                	jmp    4000d6e6 <rpc_poll+0x2a4>
4000d6bc:	8b 45 fc             	mov    -0x4(%ebp),%eax
4000d6bf:	0f b6 84 05 e8 fe ff 	movzbl -0x118(%ebp,%eax,1),%eax
4000d6c6:	ff 
4000d6c7:	3c 24                	cmp    $0x24,%al
4000d6c9:	75 1b                	jne    4000d6e6 <rpc_poll+0x2a4>
4000d6cb:	8b 55 f8             	mov    -0x8(%ebp),%edx
4000d6ce:	8b 45 fc             	mov    -0x4(%ebp),%eax
4000d6d1:	c1 e0 02             	shl    $0x2,%eax
4000d6d4:	8d 04 02             	lea    (%edx,%eax,1),%eax
4000d6d7:	89 44 24 04          	mov    %eax,0x4(%esp)
4000d6db:	8b 45 f0             	mov    -0x10(%ebp),%eax
4000d6de:	89 04 24             	mov    %eax,(%esp)
4000d6e1:	e8 79 15 00 00       	call   4000ec5f <unpackstr>
4000d6e6:	83 45 fc 01          	addl   $0x1,-0x4(%ebp)
4000d6ea:	8b 45 fc             	mov    -0x4(%ebp),%eax
4000d6ed:	3b 45 ec             	cmp    -0x14(%ebp),%eax
4000d6f0:	0f 82 4b fe ff ff    	jb     4000d541 <rpc_poll+0xff>
4000d6f6:	8b 95 e4 fe ff ff    	mov    -0x11c(%ebp),%edx
4000d6fc:	8b 45 ec             	mov    -0x14(%ebp),%eax
4000d6ff:	89 44 24 08          	mov    %eax,0x8(%esp)
4000d703:	8b 45 f8             	mov    -0x8(%ebp),%eax
4000d706:	89 44 24 04          	mov    %eax,0x4(%esp)
4000d70a:	89 14 24             	mov    %edx,(%esp)
4000d70d:	e8 1e 14 00 00       	call   4000eb30 <dyn_call>
4000d712:	89 45 f4             	mov    %eax,-0xc(%ebp)
4000d715:	8b 45 f8             	mov    -0x8(%ebp),%eax
4000d718:	89 04 24             	mov    %eax,(%esp)
4000d71b:	e8 e7 a9 ff ff       	call   40008107 <free>
4000d720:	8b 45 f0             	mov    -0x10(%ebp),%eax
4000d723:	8b 40 04             	mov    0x4(%eax),%eax
4000d726:	89 44 24 10          	mov    %eax,0x10(%esp)
4000d72a:	8b 45 f4             	mov    -0xc(%ebp),%eax
4000d72d:	89 44 24 0c          	mov    %eax,0xc(%esp)
4000d731:	8b 45 08             	mov    0x8(%ebp),%eax
4000d734:	89 44 24 08          	mov    %eax,0x8(%esp)
4000d738:	c7 44 24 04 03 00 00 	movl   $0x3,0x4(%esp)
4000d73f:	00 
4000d740:	c7 04 24 26 00 00 00 	movl   $0x26,(%esp)
4000d747:	e8 34 01 00 00       	call   4000d880 <syscall_call>
4000d74c:	85 c0                	test   %eax,%eax
4000d74e:	75 16                	jne    4000d766 <rpc_poll+0x324>
4000d750:	c7 05 44 29 01 40 00 	movl   $0x0,0x40012944
4000d757:	00 00 00 
4000d75a:	c7 85 dc fe ff ff 00 	movl   $0x0,-0x124(%ebp)
4000d761:	00 00 00 
4000d764:	eb 14                	jmp    4000d77a <rpc_poll+0x338>
4000d766:	c7 05 44 29 01 40 1c 	movl   $0x1c,0x40012944
4000d76d:	00 00 00 
4000d770:	c7 85 dc fe ff ff ff 	movl   $0xffffffff,-0x124(%ebp)
4000d777:	ff ff ff 
4000d77a:	8b 85 dc fe ff ff    	mov    -0x124(%ebp),%eax
4000d780:	c9                   	leave  
4000d781:	c3                   	ret    

4000d782 <rpc_mainloop>:
4000d782:	55                   	push   %ebp
4000d783:	89 e5                	mov    %esp,%ebp
4000d785:	83 ec 08             	sub    $0x8,%esp
4000d788:	e8 0d 00 00 00       	call   4000d79a <init_ready>
4000d78d:	8b 45 08             	mov    0x8(%ebp),%eax
4000d790:	89 04 24             	mov    %eax,(%esp)
4000d793:	e8 aa fc ff ff       	call   4000d442 <rpc_poll>
4000d798:	eb f3                	jmp    4000d78d <rpc_mainloop+0xb>

4000d79a <init_ready>:
4000d79a:	55                   	push   %ebp
4000d79b:	89 e5                	mov    %esp,%ebp
4000d79d:	83 ec 08             	sub    $0x8,%esp
4000d7a0:	c7 44 24 04 0a 00 00 	movl   $0xa,0x4(%esp)
4000d7a7:	00 
4000d7a8:	c7 04 24 01 00 00 00 	movl   $0x1,(%esp)
4000d7af:	e8 02 00 00 00       	call   4000d7b6 <kill>
4000d7b4:	c9                   	leave  
4000d7b5:	c3                   	ret    

4000d7b6 <kill>:
4000d7b6:	55                   	push   %ebp
4000d7b7:	89 e5                	mov    %esp,%ebp
4000d7b9:	83 ec 18             	sub    $0x18,%esp
4000d7bc:	8b 45 0c             	mov    0xc(%ebp),%eax
4000d7bf:	89 44 24 0c          	mov    %eax,0xc(%esp)
4000d7c3:	8b 45 08             	mov    0x8(%ebp),%eax
4000d7c6:	89 44 24 08          	mov    %eax,0x8(%esp)
4000d7ca:	c7 44 24 04 02 00 00 	movl   $0x2,0x4(%esp)
4000d7d1:	00 
4000d7d2:	c7 04 24 4c 00 00 00 	movl   $0x4c,(%esp)
4000d7d9:	e8 a2 00 00 00       	call   4000d880 <syscall_call>
4000d7de:	c9                   	leave  
4000d7df:	c3                   	ret    

4000d7e0 <rpc_list>:
4000d7e0:	55                   	push   %ebp
4000d7e1:	89 e5                	mov    %esp,%ebp
4000d7e3:	83 ec 28             	sub    $0x28,%esp
4000d7e6:	e8 35 e2 ff ff       	call   4000ba20 <llist_create>
4000d7eb:	89 45 f0             	mov    %eax,-0x10(%ebp)
4000d7ee:	c7 45 f4 00 00 00 00 	movl   $0x0,-0xc(%ebp)
4000d7f5:	c7 44 24 10 00 00 00 	movl   $0x0,0x10(%esp)
4000d7fc:	00 
4000d7fd:	c7 44 24 0c 00 00 00 	movl   $0x0,0xc(%esp)
4000d804:	00 
4000d805:	8b 45 f4             	mov    -0xc(%ebp),%eax
4000d808:	89 44 24 08          	mov    %eax,0x8(%esp)
4000d80c:	c7 44 24 04 03 00 00 	movl   $0x3,0x4(%esp)
4000d813:	00 
4000d814:	c7 04 24 27 00 00 00 	movl   $0x27,(%esp)
4000d81b:	e8 60 00 00 00       	call   4000d880 <syscall_call>
4000d820:	89 45 f8             	mov    %eax,-0x8(%ebp)
4000d823:	83 7d f8 00          	cmpl   $0x0,-0x8(%ebp)
4000d827:	74 52                	je     4000d87b <rpc_list+0x9b>
4000d829:	8b 45 f8             	mov    -0x8(%ebp),%eax
4000d82c:	89 04 24             	mov    %eax,(%esp)
4000d82f:	e8 1c a4 ff ff       	call   40007c50 <malloc>
4000d834:	89 45 fc             	mov    %eax,-0x4(%ebp)
4000d837:	8b 45 f8             	mov    -0x8(%ebp),%eax
4000d83a:	89 44 24 10          	mov    %eax,0x10(%esp)
4000d83e:	8b 45 fc             	mov    -0x4(%ebp),%eax
4000d841:	89 44 24 0c          	mov    %eax,0xc(%esp)
4000d845:	8b 45 f4             	mov    -0xc(%ebp),%eax
4000d848:	89 44 24 08          	mov    %eax,0x8(%esp)
4000d84c:	c7 44 24 04 03 00 00 	movl   $0x3,0x4(%esp)
4000d853:	00 
4000d854:	c7 04 24 27 00 00 00 	movl   $0x27,(%esp)
4000d85b:	e8 20 00 00 00       	call   4000d880 <syscall_call>
4000d860:	8b 45 fc             	mov    -0x4(%ebp),%eax
4000d863:	89 44 24 04          	mov    %eax,0x4(%esp)
4000d867:	8b 45 f0             	mov    -0x10(%ebp),%eax
4000d86a:	89 04 24             	mov    %eax,(%esp)
4000d86d:	e8 29 e2 ff ff       	call   4000ba9b <llist_push>
4000d872:	83 45 f4 01          	addl   $0x1,-0xc(%ebp)
4000d876:	e9 7a ff ff ff       	jmp    4000d7f5 <rpc_list+0x15>
4000d87b:	8b 45 f0             	mov    -0x10(%ebp),%eax
4000d87e:	c9                   	leave  
4000d87f:	c3                   	ret    

4000d880 <syscall_call>:
4000d880:	55                   	push   %ebp
4000d881:	89 e5                	mov    %esp,%ebp
4000d883:	56                   	push   %esi
4000d884:	53                   	push   %ebx
4000d885:	83 ec 30             	sub    $0x30,%esp
4000d888:	89 e0                	mov    %esp,%eax
4000d88a:	89 45 e4             	mov    %eax,-0x1c(%ebp)
4000d88d:	8b 75 0c             	mov    0xc(%ebp),%esi
4000d890:	89 75 d0             	mov    %esi,-0x30(%ebp)
4000d893:	c7 45 d4 00 00 00 00 	movl   $0x0,-0x2c(%ebp)
4000d89a:	8b 45 d0             	mov    -0x30(%ebp),%eax
4000d89d:	80 e4 ff             	and    $0xff,%ah
4000d8a0:	8b 55 d4             	mov    -0x2c(%ebp),%edx
4000d8a3:	83 e2 0f             	and    $0xf,%edx
4000d8a6:	89 45 d0             	mov    %eax,-0x30(%ebp)
4000d8a9:	89 55 d4             	mov    %edx,-0x2c(%ebp)
4000d8ac:	8b 4d d0             	mov    -0x30(%ebp),%ecx
4000d8af:	8b 5d d4             	mov    -0x2c(%ebp),%ebx
4000d8b2:	0f a4 cb 05          	shld   $0x5,%ecx,%ebx
4000d8b6:	c1 e1 05             	shl    $0x5,%ecx
4000d8b9:	89 c8                	mov    %ecx,%eax
4000d8bb:	80 e4 ff             	and    $0xff,%ah
4000d8be:	89 da                	mov    %ebx,%edx
4000d8c0:	83 e2 0f             	and    $0xf,%edx
4000d8c3:	89 c1                	mov    %eax,%ecx
4000d8c5:	89 d3                	mov    %edx,%ebx
4000d8c7:	89 75 d8             	mov    %esi,-0x28(%ebp)
4000d8ca:	c7 45 dc 00 00 00 00 	movl   $0x0,-0x24(%ebp)
4000d8d1:	8b 45 d8             	mov    -0x28(%ebp),%eax
4000d8d4:	80 e4 ff             	and    $0xff,%ah
4000d8d7:	8b 55 dc             	mov    -0x24(%ebp),%edx
4000d8da:	83 e2 0f             	and    $0xf,%edx
4000d8dd:	89 45 d8             	mov    %eax,-0x28(%ebp)
4000d8e0:	89 55 dc             	mov    %edx,-0x24(%ebp)
4000d8e3:	8b 4d d8             	mov    -0x28(%ebp),%ecx
4000d8e6:	8b 5d dc             	mov    -0x24(%ebp),%ebx
4000d8e9:	0f a4 cb 05          	shld   $0x5,%ecx,%ebx
4000d8ed:	c1 e1 05             	shl    $0x5,%ecx
4000d8f0:	89 c8                	mov    %ecx,%eax
4000d8f2:	80 e4 ff             	and    $0xff,%ah
4000d8f5:	89 da                	mov    %ebx,%edx
4000d8f7:	83 e2 0f             	and    $0xf,%edx
4000d8fa:	89 c1                	mov    %eax,%ecx
4000d8fc:	89 d3                	mov    %edx,%ebx
4000d8fe:	8d 04 b5 00 00 00 00 	lea    0x0(,%esi,4),%eax
4000d905:	83 c0 0f             	add    $0xf,%eax
4000d908:	83 c0 0f             	add    $0xf,%eax
4000d90b:	c1 e8 04             	shr    $0x4,%eax
4000d90e:	c1 e0 04             	shl    $0x4,%eax
4000d911:	29 c4                	sub    %eax,%esp
4000d913:	89 65 e0             	mov    %esp,-0x20(%ebp)
4000d916:	8b 45 e0             	mov    -0x20(%ebp),%eax
4000d919:	83 c0 0f             	add    $0xf,%eax
4000d91c:	c1 e8 04             	shr    $0x4,%eax
4000d91f:	c1 e0 04             	shl    $0x4,%eax
4000d922:	89 45 e0             	mov    %eax,-0x20(%ebp)
4000d925:	8b 45 e0             	mov    -0x20(%ebp),%eax
4000d928:	89 45 ec             	mov    %eax,-0x14(%ebp)
4000d92b:	8d 45 10             	lea    0x10(%ebp),%eax
4000d92e:	89 45 e8             	mov    %eax,-0x18(%ebp)
4000d931:	c7 45 f0 00 00 00 00 	movl   $0x0,-0x10(%ebp)
4000d938:	eb 1a                	jmp    4000d954 <syscall_call+0xd4>
4000d93a:	8b 4d f0             	mov    -0x10(%ebp),%ecx
4000d93d:	8b 55 e8             	mov    -0x18(%ebp),%edx
4000d940:	8d 42 04             	lea    0x4(%edx),%eax
4000d943:	89 45 e8             	mov    %eax,-0x18(%ebp)
4000d946:	89 d0                	mov    %edx,%eax
4000d948:	8b 10                	mov    (%eax),%edx
4000d94a:	8b 45 ec             	mov    -0x14(%ebp),%eax
4000d94d:	89 14 88             	mov    %edx,(%eax,%ecx,4)
4000d950:	83 45 f0 01          	addl   $0x1,-0x10(%ebp)
4000d954:	8b 45 f0             	mov    -0x10(%ebp),%eax
4000d957:	3b 45 0c             	cmp    0xc(%ebp),%eax
4000d95a:	72 de                	jb     4000d93a <syscall_call+0xba>
4000d95c:	8b 45 ec             	mov    -0x14(%ebp),%eax
4000d95f:	50                   	push   %eax
4000d960:	8b 45 08             	mov    0x8(%ebp),%eax
4000d963:	50                   	push   %eax
4000d964:	cd 37                	int    $0x37
4000d966:	89 45 f4             	mov    %eax,-0xc(%ebp)
4000d969:	b8 08 00 00 00       	mov    $0x8,%eax
4000d96e:	01 c4                	add    %eax,%esp
4000d970:	8b 45 f4             	mov    -0xc(%ebp),%eax
4000d973:	8b 65 e4             	mov    -0x1c(%ebp),%esp
4000d976:	8d 65 f8             	lea    -0x8(%ebp),%esp
4000d979:	5b                   	pop    %ebx
4000d97a:	5e                   	pop    %esi
4000d97b:	5d                   	pop    %ebp
4000d97c:	c3                   	ret    
4000d97d:	90                   	nop    
4000d97e:	90                   	nop    
4000d97f:	90                   	nop    

4000d980 <abort>:
4000d980:	55                   	push   %ebp
4000d981:	89 e5                	mov    %esp,%ebp
4000d983:	83 ec 28             	sub    $0x28,%esp
4000d986:	a1 98 29 01 40       	mov    0x40012998,%eax
4000d98b:	89 45 f8             	mov    %eax,-0x8(%ebp)
4000d98e:	c7 44 24 04 00 00 00 	movl   $0x0,0x4(%esp)
4000d995:	00 
4000d996:	c7 04 24 28 00 00 00 	movl   $0x28,(%esp)
4000d99d:	e8 de fe ff ff       	call   4000d880 <syscall_call>
4000d9a2:	89 45 fc             	mov    %eax,-0x4(%ebp)
4000d9a5:	8b 45 fc             	mov    -0x4(%ebp),%eax
4000d9a8:	89 04 24             	mov    %eax,(%esp)
4000d9ab:	e8 30 13 00 00       	call   4000ece0 <getname>
4000d9b0:	89 c2                	mov    %eax,%edx
4000d9b2:	8b 45 fc             	mov    -0x4(%ebp),%eax
4000d9b5:	89 44 24 0c          	mov    %eax,0xc(%esp)
4000d9b9:	89 54 24 08          	mov    %edx,0x8(%esp)
4000d9bd:	c7 44 24 04 e4 fe 00 	movl   $0x4000fee4,0x4(%esp)
4000d9c4:	40 
4000d9c5:	8b 45 f8             	mov    -0x8(%ebp),%eax
4000d9c8:	89 04 24             	mov    %eax,(%esp)
4000d9cb:	e8 64 71 ff ff       	call   40004b34 <fprintf>
4000d9d0:	8b 45 00             	mov    0x0(%ebp),%eax
4000d9d3:	8b 40 04             	mov    0x4(%eax),%eax
4000d9d6:	89 44 24 08          	mov    %eax,0x8(%esp)
4000d9da:	c7 44 24 04 08 ff 00 	movl   $0x4000ff08,0x4(%esp)
4000d9e1:	40 
4000d9e2:	8b 45 f8             	mov    -0x8(%ebp),%eax
4000d9e5:	89 04 24             	mov    %eax,(%esp)
4000d9e8:	e8 47 71 ff ff       	call   40004b34 <fprintf>
4000d9ed:	89 e8                	mov    %ebp,%eax
4000d9ef:	89 44 24 08          	mov    %eax,0x8(%esp)
4000d9f3:	c7 44 24 04 19 ff 00 	movl   $0x4000ff19,0x4(%esp)
4000d9fa:	40 
4000d9fb:	8b 45 f8             	mov    -0x8(%ebp),%eax
4000d9fe:	89 04 24             	mov    %eax,(%esp)
4000da01:	e8 2e 71 ff ff       	call   40004b34 <fprintf>
4000da06:	e8 3b 57 ff ff       	call   40003146 <_close_all_filehandles>
4000da0b:	c7 44 24 04 00 00 00 	movl   $0x0,0x4(%esp)
4000da12:	00 
4000da13:	c7 04 24 35 00 00 00 	movl   $0x35,(%esp)
4000da1a:	e8 61 fe ff ff       	call   4000d880 <syscall_call>
4000da1f:	c9                   	leave  
4000da20:	c3                   	ret    
4000da21:	90                   	nop    
4000da22:	90                   	nop    
4000da23:	90                   	nop    

4000da24 <asprintf>:
4000da24:	55                   	push   %ebp
4000da25:	89 e5                	mov    %esp,%ebp
4000da27:	83 ec 38             	sub    $0x38,%esp
4000da2a:	8d 45 10             	lea    0x10(%ebp),%eax
4000da2d:	89 45 f0             	mov    %eax,-0x10(%ebp)
4000da30:	8b 45 f0             	mov    -0x10(%ebp),%eax
4000da33:	89 45 ec             	mov    %eax,-0x14(%ebp)
4000da36:	8b 45 ec             	mov    -0x14(%ebp),%eax
4000da39:	89 44 24 0c          	mov    %eax,0xc(%esp)
4000da3d:	8b 45 0c             	mov    0xc(%ebp),%eax
4000da40:	89 44 24 08          	mov    %eax,0x8(%esp)
4000da44:	c7 44 24 04 00 00 00 	movl   $0x0,0x4(%esp)
4000da4b:	00 
4000da4c:	c7 04 24 00 00 00 00 	movl   $0x0,(%esp)
4000da53:	e8 a9 c4 ff ff       	call   40009f01 <vsnprintf>
4000da58:	83 c0 01             	add    $0x1,%eax
4000da5b:	89 45 f8             	mov    %eax,-0x8(%ebp)
4000da5e:	8b 45 f8             	mov    -0x8(%ebp),%eax
4000da61:	89 04 24             	mov    %eax,(%esp)
4000da64:	e8 e7 a1 ff ff       	call   40007c50 <malloc>
4000da69:	89 45 fc             	mov    %eax,-0x4(%ebp)
4000da6c:	8b 55 08             	mov    0x8(%ebp),%edx
4000da6f:	8b 45 fc             	mov    -0x4(%ebp),%eax
4000da72:	89 02                	mov    %eax,(%edx)
4000da74:	83 7d fc 00          	cmpl   $0x0,-0x4(%ebp)
4000da78:	75 09                	jne    4000da83 <asprintf+0x5f>
4000da7a:	c7 45 dc ff ff ff ff 	movl   $0xffffffff,-0x24(%ebp)
4000da81:	eb 29                	jmp    4000daac <asprintf+0x88>
4000da83:	8b 45 f0             	mov    -0x10(%ebp),%eax
4000da86:	8b 55 f8             	mov    -0x8(%ebp),%edx
4000da89:	89 44 24 0c          	mov    %eax,0xc(%esp)
4000da8d:	8b 45 0c             	mov    0xc(%ebp),%eax
4000da90:	89 44 24 08          	mov    %eax,0x8(%esp)
4000da94:	89 54 24 04          	mov    %edx,0x4(%esp)
4000da98:	8b 45 fc             	mov    -0x4(%ebp),%eax
4000da9b:	89 04 24             	mov    %eax,(%esp)
4000da9e:	e8 5e c4 ff ff       	call   40009f01 <vsnprintf>
4000daa3:	89 45 f4             	mov    %eax,-0xc(%ebp)
4000daa6:	8b 45 f4             	mov    -0xc(%ebp),%eax
4000daa9:	89 45 dc             	mov    %eax,-0x24(%ebp)
4000daac:	8b 45 dc             	mov    -0x24(%ebp),%eax
4000daaf:	c9                   	leave  
4000dab0:	c3                   	ret    
4000dab1:	90                   	nop    
4000dab2:	90                   	nop    
4000dab3:	90                   	nop    

4000dab4 <env_init>:
4000dab4:	55                   	push   %ebp
4000dab5:	89 e5                	mov    %esp,%ebp
4000dab7:	83 ec 08             	sub    $0x8,%esp
4000daba:	e8 61 df ff ff       	call   4000ba20 <llist_create>
4000dabf:	a3 00 15 01 40       	mov    %eax,0x40011500
4000dac4:	c9                   	leave  
4000dac5:	c3                   	ret    

4000dac6 <_findenv>:
4000dac6:	55                   	push   %ebp
4000dac7:	89 e5                	mov    %esp,%ebp
4000dac9:	83 ec 28             	sub    $0x28,%esp
4000dacc:	83 7d 08 00          	cmpl   $0x0,0x8(%ebp)
4000dad0:	74 71                	je     4000db43 <_findenv+0x7d>
4000dad2:	8b 45 08             	mov    0x8(%ebp),%eax
4000dad5:	89 04 24             	mov    %eax,(%esp)
4000dad8:	e8 03 d9 ff ff       	call   4000b3e0 <strlen>
4000dadd:	85 c0                	test   %eax,%eax
4000dadf:	74 62                	je     4000db43 <_findenv+0x7d>
4000dae1:	c7 44 24 04 3d 00 00 	movl   $0x3d,0x4(%esp)
4000dae8:	00 
4000dae9:	8b 45 08             	mov    0x8(%ebp),%eax
4000daec:	89 04 24             	mov    %eax,(%esp)
4000daef:	e8 6c d7 ff ff       	call   4000b260 <strchr>
4000daf4:	85 c0                	test   %eax,%eax
4000daf6:	75 4b                	jne    4000db43 <_findenv+0x7d>
4000daf8:	c7 45 f8 00 00 00 00 	movl   $0x0,-0x8(%ebp)
4000daff:	eb 24                	jmp    4000db25 <_findenv+0x5f>
4000db01:	8b 45 fc             	mov    -0x4(%ebp),%eax
4000db04:	8b 10                	mov    (%eax),%edx
4000db06:	8b 45 08             	mov    0x8(%ebp),%eax
4000db09:	89 44 24 04          	mov    %eax,0x4(%esp)
4000db0d:	89 14 24             	mov    %edx,(%esp)
4000db10:	e8 ab d7 ff ff       	call   4000b2c0 <strcmp>
4000db15:	85 c0                	test   %eax,%eax
4000db17:	75 08                	jne    4000db21 <_findenv+0x5b>
4000db19:	8b 45 f8             	mov    -0x8(%ebp),%eax
4000db1c:	89 45 ec             	mov    %eax,-0x14(%ebp)
4000db1f:	eb 33                	jmp    4000db54 <_findenv+0x8e>
4000db21:	83 45 f8 01          	addl   $0x1,-0x8(%ebp)
4000db25:	8b 45 f8             	mov    -0x8(%ebp),%eax
4000db28:	8b 15 00 15 01 40    	mov    0x40011500,%edx
4000db2e:	89 44 24 04          	mov    %eax,0x4(%esp)
4000db32:	89 14 24             	mov    %edx,(%esp)
4000db35:	e8 99 e0 ff ff       	call   4000bbd3 <llist_get>
4000db3a:	89 45 fc             	mov    %eax,-0x4(%ebp)
4000db3d:	83 7d fc 00          	cmpl   $0x0,-0x4(%ebp)
4000db41:	75 be                	jne    4000db01 <_findenv+0x3b>
4000db43:	c7 05 44 29 01 40 1c 	movl   $0x1c,0x40012944
4000db4a:	00 00 00 
4000db4d:	c7 45 ec ff ff ff ff 	movl   $0xffffffff,-0x14(%ebp)
4000db54:	8b 45 ec             	mov    -0x14(%ebp),%eax
4000db57:	c9                   	leave  
4000db58:	c3                   	ret    

4000db59 <getenv>:
4000db59:	55                   	push   %ebp
4000db5a:	89 e5                	mov    %esp,%ebp
4000db5c:	83 ec 28             	sub    $0x28,%esp
4000db5f:	8b 45 08             	mov    0x8(%ebp),%eax
4000db62:	89 04 24             	mov    %eax,(%esp)
4000db65:	e8 5c ff ff ff       	call   4000dac6 <_findenv>
4000db6a:	8b 15 00 15 01 40    	mov    0x40011500,%edx
4000db70:	89 44 24 04          	mov    %eax,0x4(%esp)
4000db74:	89 14 24             	mov    %edx,(%esp)
4000db77:	e8 57 e0 ff ff       	call   4000bbd3 <llist_get>
4000db7c:	89 45 fc             	mov    %eax,-0x4(%ebp)
4000db7f:	83 7d fc 00          	cmpl   $0x0,-0x4(%ebp)
4000db83:	75 09                	jne    4000db8e <getenv+0x35>
4000db85:	c7 45 ec 00 00 00 00 	movl   $0x0,-0x14(%ebp)
4000db8c:	eb 09                	jmp    4000db97 <getenv+0x3e>
4000db8e:	8b 45 fc             	mov    -0x4(%ebp),%eax
4000db91:	8b 40 04             	mov    0x4(%eax),%eax
4000db94:	89 45 ec             	mov    %eax,-0x14(%ebp)
4000db97:	8b 45 ec             	mov    -0x14(%ebp),%eax
4000db9a:	c9                   	leave  
4000db9b:	c3                   	ret    

4000db9c <setenv>:
4000db9c:	55                   	push   %ebp
4000db9d:	89 e5                	mov    %esp,%ebp
4000db9f:	83 ec 28             	sub    $0x28,%esp
4000dba2:	8b 45 08             	mov    0x8(%ebp),%eax
4000dba5:	89 04 24             	mov    %eax,(%esp)
4000dba8:	e8 19 ff ff ff       	call   4000dac6 <_findenv>
4000dbad:	8b 15 00 15 01 40    	mov    0x40011500,%edx
4000dbb3:	89 44 24 04          	mov    %eax,0x4(%esp)
4000dbb7:	89 14 24             	mov    %edx,(%esp)
4000dbba:	e8 14 e0 ff ff       	call   4000bbd3 <llist_get>
4000dbbf:	89 45 fc             	mov    %eax,-0x4(%ebp)
4000dbc2:	83 7d fc 00          	cmpl   $0x0,-0x4(%ebp)
4000dbc6:	75 4b                	jne    4000dc13 <setenv+0x77>
4000dbc8:	c7 04 24 08 00 00 00 	movl   $0x8,(%esp)
4000dbcf:	e8 7c a0 ff ff       	call   40007c50 <malloc>
4000dbd4:	89 45 fc             	mov    %eax,-0x4(%ebp)
4000dbd7:	8b 45 08             	mov    0x8(%ebp),%eax
4000dbda:	89 04 24             	mov    %eax,(%esp)
4000dbdd:	e8 b3 d7 ff ff       	call   4000b395 <strdup>
4000dbe2:	89 c2                	mov    %eax,%edx
4000dbe4:	8b 45 fc             	mov    -0x4(%ebp),%eax
4000dbe7:	89 10                	mov    %edx,(%eax)
4000dbe9:	8b 45 0c             	mov    0xc(%ebp),%eax
4000dbec:	89 04 24             	mov    %eax,(%esp)
4000dbef:	e8 a1 d7 ff ff       	call   4000b395 <strdup>
4000dbf4:	89 c2                	mov    %eax,%edx
4000dbf6:	8b 45 fc             	mov    -0x4(%ebp),%eax
4000dbf9:	89 50 04             	mov    %edx,0x4(%eax)
4000dbfc:	8b 15 00 15 01 40    	mov    0x40011500,%edx
4000dc02:	8b 45 fc             	mov    -0x4(%ebp),%eax
4000dc05:	89 44 24 04          	mov    %eax,0x4(%esp)
4000dc09:	89 14 24             	mov    %edx,(%esp)
4000dc0c:	e8 8a de ff ff       	call   4000ba9b <llist_push>
4000dc11:	eb 32                	jmp    4000dc45 <setenv+0xa9>
4000dc13:	83 7d 10 00          	cmpl   $0x0,0x10(%ebp)
4000dc17:	74 23                	je     4000dc3c <setenv+0xa0>
4000dc19:	8b 45 fc             	mov    -0x4(%ebp),%eax
4000dc1c:	8b 40 04             	mov    0x4(%eax),%eax
4000dc1f:	89 04 24             	mov    %eax,(%esp)
4000dc22:	e8 e0 a4 ff ff       	call   40008107 <free>
4000dc27:	8b 45 0c             	mov    0xc(%ebp),%eax
4000dc2a:	89 04 24             	mov    %eax,(%esp)
4000dc2d:	e8 63 d7 ff ff       	call   4000b395 <strdup>
4000dc32:	89 c2                	mov    %eax,%edx
4000dc34:	8b 45 fc             	mov    -0x4(%ebp),%eax
4000dc37:	89 50 04             	mov    %edx,0x4(%eax)
4000dc3a:	eb 09                	jmp    4000dc45 <setenv+0xa9>
4000dc3c:	c7 45 ec ff ff ff ff 	movl   $0xffffffff,-0x14(%ebp)
4000dc43:	eb 07                	jmp    4000dc4c <setenv+0xb0>
4000dc45:	c7 45 ec 00 00 00 00 	movl   $0x0,-0x14(%ebp)
4000dc4c:	8b 45 ec             	mov    -0x14(%ebp),%eax
4000dc4f:	c9                   	leave  
4000dc50:	c3                   	ret    

4000dc51 <unsetenv>:
4000dc51:	55                   	push   %ebp
4000dc52:	89 e5                	mov    %esp,%ebp
4000dc54:	83 ec 28             	sub    $0x28,%esp
4000dc57:	8b 45 08             	mov    0x8(%ebp),%eax
4000dc5a:	89 04 24             	mov    %eax,(%esp)
4000dc5d:	e8 64 fe ff ff       	call   4000dac6 <_findenv>
4000dc62:	89 45 f8             	mov    %eax,-0x8(%ebp)
4000dc65:	83 7d f8 ff          	cmpl   $0xffffffff,-0x8(%ebp)
4000dc69:	74 47                	je     4000dcb2 <unsetenv+0x61>
4000dc6b:	8b 45 f8             	mov    -0x8(%ebp),%eax
4000dc6e:	8b 15 00 15 01 40    	mov    0x40011500,%edx
4000dc74:	89 44 24 04          	mov    %eax,0x4(%esp)
4000dc78:	89 14 24             	mov    %edx,(%esp)
4000dc7b:	e8 25 e0 ff ff       	call   4000bca5 <llist_remove>
4000dc80:	89 45 fc             	mov    %eax,-0x4(%ebp)
4000dc83:	8b 45 fc             	mov    -0x4(%ebp),%eax
4000dc86:	8b 00                	mov    (%eax),%eax
4000dc88:	89 04 24             	mov    %eax,(%esp)
4000dc8b:	e8 77 a4 ff ff       	call   40008107 <free>
4000dc90:	8b 45 fc             	mov    -0x4(%ebp),%eax
4000dc93:	8b 40 04             	mov    0x4(%eax),%eax
4000dc96:	89 04 24             	mov    %eax,(%esp)
4000dc99:	e8 69 a4 ff ff       	call   40008107 <free>
4000dc9e:	8b 45 fc             	mov    -0x4(%ebp),%eax
4000dca1:	89 04 24             	mov    %eax,(%esp)
4000dca4:	e8 5e a4 ff ff       	call   40008107 <free>
4000dca9:	c7 45 ec 00 00 00 00 	movl   $0x0,-0x14(%ebp)
4000dcb0:	eb 11                	jmp    4000dcc3 <unsetenv+0x72>
4000dcb2:	c7 05 44 29 01 40 1c 	movl   $0x1c,0x40012944
4000dcb9:	00 00 00 
4000dcbc:	c7 45 ec ff ff ff ff 	movl   $0xffffffff,-0x14(%ebp)
4000dcc3:	8b 45 ec             	mov    -0x14(%ebp),%eax
4000dcc6:	c9                   	leave  
4000dcc7:	c3                   	ret    

4000dcc8 <pwd_init>:
4000dcc8:	55                   	push   %ebp
4000dcc9:	89 e5                	mov    %esp,%ebp
4000dccb:	83 ec 28             	sub    $0x28,%esp
4000dcce:	c7 04 24 2d ff 00 40 	movl   $0x4000ff2d,(%esp)
4000dcd5:	e8 7f fe ff ff       	call   4000db59 <getenv>
4000dcda:	89 44 24 08          	mov    %eax,0x8(%esp)
4000dcde:	c7 44 24 04 31 ff 00 	movl   $0x4000ff31,0x4(%esp)
4000dce5:	40 
4000dce6:	8d 45 f8             	lea    -0x8(%ebp),%eax
4000dce9:	89 04 24             	mov    %eax,(%esp)
4000dcec:	e8 33 fd ff ff       	call   4000da24 <asprintf>
4000dcf1:	8b 45 f8             	mov    -0x8(%ebp),%eax
4000dcf4:	c7 44 24 04 3f ff 00 	movl   $0x4000ff3f,0x4(%esp)
4000dcfb:	40 
4000dcfc:	89 04 24             	mov    %eax,(%esp)
4000dcff:	e8 17 08 00 00       	call   4000e51b <fopen>
4000dd04:	89 45 fc             	mov    %eax,-0x4(%ebp)
4000dd07:	8b 45 f8             	mov    -0x8(%ebp),%eax
4000dd0a:	89 04 24             	mov    %eax,(%esp)
4000dd0d:	e8 f5 a3 ff ff       	call   40008107 <free>
4000dd12:	8b 45 fc             	mov    -0x4(%ebp),%eax
4000dd15:	89 04 24             	mov    %eax,(%esp)
4000dd18:	e8 46 07 00 00       	call   4000e463 <fclose>
4000dd1d:	c9                   	leave  
4000dd1e:	c3                   	ret    

4000dd1f <getpwnam>:
4000dd1f:	55                   	push   %ebp
4000dd20:	89 e5                	mov    %esp,%ebp
4000dd22:	83 ec 28             	sub    $0x28,%esp
4000dd25:	a1 04 15 01 40       	mov    0x40011504,%eax
4000dd2a:	85 c0                	test   %eax,%eax
4000dd2c:	75 05                	jne    4000dd33 <getpwnam+0x14>
4000dd2e:	e8 95 ff ff ff       	call   4000dcc8 <pwd_init>
4000dd33:	c7 45 f8 00 00 00 00 	movl   $0x0,-0x8(%ebp)
4000dd3a:	eb 24                	jmp    4000dd60 <getpwnam+0x41>
4000dd3c:	8b 45 fc             	mov    -0x4(%ebp),%eax
4000dd3f:	8b 10                	mov    (%eax),%edx
4000dd41:	8b 45 08             	mov    0x8(%ebp),%eax
4000dd44:	89 44 24 04          	mov    %eax,0x4(%esp)
4000dd48:	89 14 24             	mov    %edx,(%esp)
4000dd4b:	e8 70 d5 ff ff       	call   4000b2c0 <strcmp>
4000dd50:	85 c0                	test   %eax,%eax
4000dd52:	75 08                	jne    4000dd5c <getpwnam+0x3d>
4000dd54:	8b 45 fc             	mov    -0x4(%ebp),%eax
4000dd57:	89 45 ec             	mov    %eax,-0x14(%ebp)
4000dd5a:	eb 28                	jmp    4000dd84 <getpwnam+0x65>
4000dd5c:	83 45 f8 01          	addl   $0x1,-0x8(%ebp)
4000dd60:	a1 04 15 01 40       	mov    0x40011504,%eax
4000dd65:	8b 55 f8             	mov    -0x8(%ebp),%edx
4000dd68:	89 54 24 04          	mov    %edx,0x4(%esp)
4000dd6c:	89 04 24             	mov    %eax,(%esp)
4000dd6f:	e8 5f de ff ff       	call   4000bbd3 <llist_get>
4000dd74:	89 45 fc             	mov    %eax,-0x4(%ebp)
4000dd77:	83 7d fc 00          	cmpl   $0x0,-0x4(%ebp)
4000dd7b:	75 bf                	jne    4000dd3c <getpwnam+0x1d>
4000dd7d:	c7 45 ec 00 00 00 00 	movl   $0x0,-0x14(%ebp)
4000dd84:	8b 45 ec             	mov    -0x14(%ebp),%eax
4000dd87:	c9                   	leave  
4000dd88:	c3                   	ret    

4000dd89 <getpwuid>:
4000dd89:	55                   	push   %ebp
4000dd8a:	89 e5                	mov    %esp,%ebp
4000dd8c:	83 ec 28             	sub    $0x28,%esp
4000dd8f:	a1 04 15 01 40       	mov    0x40011504,%eax
4000dd94:	85 c0                	test   %eax,%eax
4000dd96:	75 05                	jne    4000dd9d <getpwuid+0x14>
4000dd98:	e8 2b ff ff ff       	call   4000dcc8 <pwd_init>
4000dd9d:	c7 45 f8 00 00 00 00 	movl   $0x0,-0x8(%ebp)
4000dda4:	eb 17                	jmp    4000ddbd <getpwuid+0x34>
4000dda6:	8b 45 fc             	mov    -0x4(%ebp),%eax
4000dda9:	8b 40 04             	mov    0x4(%eax),%eax
4000ddac:	3b 45 08             	cmp    0x8(%ebp),%eax
4000ddaf:	75 08                	jne    4000ddb9 <getpwuid+0x30>
4000ddb1:	8b 45 fc             	mov    -0x4(%ebp),%eax
4000ddb4:	89 45 ec             	mov    %eax,-0x14(%ebp)
4000ddb7:	eb 28                	jmp    4000dde1 <getpwuid+0x58>
4000ddb9:	83 45 f8 01          	addl   $0x1,-0x8(%ebp)
4000ddbd:	a1 04 15 01 40       	mov    0x40011504,%eax
4000ddc2:	8b 55 f8             	mov    -0x8(%ebp),%edx
4000ddc5:	89 54 24 04          	mov    %edx,0x4(%esp)
4000ddc9:	89 04 24             	mov    %eax,(%esp)
4000ddcc:	e8 02 de ff ff       	call   4000bbd3 <llist_get>
4000ddd1:	89 45 fc             	mov    %eax,-0x4(%ebp)
4000ddd4:	83 7d fc 00          	cmpl   $0x0,-0x4(%ebp)
4000ddd8:	75 cc                	jne    4000dda6 <getpwuid+0x1d>
4000ddda:	c7 45 ec 00 00 00 00 	movl   $0x0,-0x14(%ebp)
4000dde1:	8b 45 ec             	mov    -0x14(%ebp),%eax
4000dde4:	c9                   	leave  
4000dde5:	c3                   	ret    

4000dde6 <getpwent>:
4000dde6:	55                   	push   %ebp
4000dde7:	89 e5                	mov    %esp,%ebp
4000dde9:	83 ec 08             	sub    $0x8,%esp
4000ddec:	a1 08 15 01 40       	mov    0x40011508,%eax
4000ddf1:	89 c2                	mov    %eax,%edx
4000ddf3:	83 c0 01             	add    $0x1,%eax
4000ddf6:	a3 08 15 01 40       	mov    %eax,0x40011508
4000ddfb:	a1 04 15 01 40       	mov    0x40011504,%eax
4000de00:	89 54 24 04          	mov    %edx,0x4(%esp)
4000de04:	89 04 24             	mov    %eax,(%esp)
4000de07:	e8 c7 dd ff ff       	call   4000bbd3 <llist_get>
4000de0c:	c9                   	leave  
4000de0d:	c3                   	ret    

4000de0e <setpwent>:
4000de0e:	55                   	push   %ebp
4000de0f:	89 e5                	mov    %esp,%ebp
4000de11:	c7 05 08 15 01 40 00 	movl   $0x0,0x40011508
4000de18:	00 00 00 
4000de1b:	5d                   	pop    %ebp
4000de1c:	c3                   	ret    
4000de1d:	90                   	nop    
4000de1e:	90                   	nop    
4000de1f:	90                   	nop    

4000de20 <signal_create>:
4000de20:	55                   	push   %ebp
4000de21:	89 e5                	mov    %esp,%ebp
4000de23:	8b 45 08             	mov    0x8(%ebp),%eax
4000de26:	89 c2                	mov    %eax,%edx
4000de28:	c1 e2 04             	shl    $0x4,%edx
4000de2b:	8b 45 0c             	mov    0xc(%ebp),%eax
4000de2e:	89 82 20 15 01 40    	mov    %eax,0x40011520(%edx)
4000de34:	8b 45 08             	mov    0x8(%ebp),%eax
4000de37:	89 c2                	mov    %eax,%edx
4000de39:	c1 e2 04             	shl    $0x4,%edx
4000de3c:	8b 45 0c             	mov    0xc(%ebp),%eax
4000de3f:	89 82 24 15 01 40    	mov    %eax,0x40011524(%edx)
4000de45:	5d                   	pop    %ebp
4000de46:	c3                   	ret    

4000de47 <_signal_handler>:
4000de47:	55                   	push   %ebp
4000de48:	89 e5                	mov    %esp,%ebp
4000de4a:	83 ec 08             	sub    $0x8,%esp
4000de4d:	83 7d 08 3f          	cmpl   $0x3f,0x8(%ebp)
4000de51:	7f 4e                	jg     4000dea1 <_signal_handler+0x5a>
4000de53:	8b 45 08             	mov    0x8(%ebp),%eax
4000de56:	c1 e0 04             	shl    $0x4,%eax
4000de59:	8b 80 24 15 01 40    	mov    0x40011524(%eax),%eax
4000de5f:	85 c0                	test   %eax,%eax
4000de61:	74 3e                	je     4000dea1 <_signal_handler+0x5a>
4000de63:	8b 45 08             	mov    0x8(%ebp),%eax
4000de66:	c1 e0 04             	shl    $0x4,%eax
4000de69:	8b 90 24 15 01 40    	mov    0x40011524(%eax),%edx
4000de6f:	8b 45 08             	mov    0x8(%ebp),%eax
4000de72:	89 04 24             	mov    %eax,(%esp)
4000de75:	ff d2                	call   *%edx
4000de77:	8b 45 08             	mov    0x8(%ebp),%eax
4000de7a:	c1 e0 04             	shl    $0x4,%eax
4000de7d:	8b 80 2c 15 01 40    	mov    0x4001152c(%eax),%eax
4000de83:	85 c0                	test   %eax,%eax
4000de85:	74 1a                	je     4000dea1 <_signal_handler+0x5a>
4000de87:	8b 4d 08             	mov    0x8(%ebp),%ecx
4000de8a:	8b 45 08             	mov    0x8(%ebp),%eax
4000de8d:	c1 e0 04             	shl    $0x4,%eax
4000de90:	8b 90 20 15 01 40    	mov    0x40011520(%eax),%edx
4000de96:	89 c8                	mov    %ecx,%eax
4000de98:	c1 e0 04             	shl    $0x4,%eax
4000de9b:	89 90 24 15 01 40    	mov    %edx,0x40011524(%eax)
4000dea1:	c9                   	leave  
4000dea2:	c3                   	ret    

4000dea3 <_signal_dfl_ignore>:
4000dea3:	55                   	push   %ebp
4000dea4:	89 e5                	mov    %esp,%ebp
4000dea6:	5d                   	pop    %ebp
4000dea7:	c3                   	ret    

4000dea8 <signal_dfl_term>:
4000dea8:	55                   	push   %ebp
4000dea9:	89 e5                	mov    %esp,%ebp
4000deab:	83 ec 08             	sub    $0x8,%esp
4000deae:	c7 04 24 01 00 00 00 	movl   $0x1,(%esp)
4000deb5:	e8 06 b6 ff ff       	call   400094c0 <_Exit>
4000deba:	c9                   	leave  
4000debb:	c3                   	ret    

4000debc <signal_dfl_abort>:
4000debc:	55                   	push   %ebp
4000debd:	89 e5                	mov    %esp,%ebp
4000debf:	83 ec 08             	sub    $0x8,%esp
4000dec2:	e8 b9 fa ff ff       	call   4000d980 <abort>
4000dec7:	c9                   	leave  
4000dec8:	c3                   	ret    

4000dec9 <signal_dfl_cont>:
4000dec9:	55                   	push   %ebp
4000deca:	89 e5                	mov    %esp,%ebp
4000decc:	5d                   	pop    %ebp
4000decd:	c3                   	ret    

4000dece <signal_dfl_stop>:
4000dece:	55                   	push   %ebp
4000decf:	89 e5                	mov    %esp,%ebp
4000ded1:	83 ec 08             	sub    $0x8,%esp
4000ded4:	c7 44 24 04 00 00 00 	movl   $0x0,0x4(%esp)
4000dedb:	00 
4000dedc:	c7 04 24 36 00 00 00 	movl   $0x36,(%esp)
4000dee3:	e8 98 f9 ff ff       	call   4000d880 <syscall_call>
4000dee8:	c9                   	leave  
4000dee9:	c3                   	ret    

4000deea <_signal_init>:
4000deea:	55                   	push   %ebp
4000deeb:	89 e5                	mov    %esp,%ebp
4000deed:	83 ec 18             	sub    $0x18,%esp
4000def0:	c7 44 24 08 00 04 00 	movl   $0x400,0x8(%esp)
4000def7:	00 
4000def8:	c7 44 24 04 00 00 00 	movl   $0x0,0x4(%esp)
4000deff:	00 
4000df00:	c7 04 24 20 15 01 40 	movl   $0x40011520,(%esp)
4000df07:	e8 f9 d2 ff ff       	call   4000b205 <memset>
4000df0c:	c7 44 24 08 74 ff 00 	movl   $0x4000ff74,0x8(%esp)
4000df13:	40 
4000df14:	c7 44 24 04 01 00 00 	movl   $0x1,0x4(%esp)
4000df1b:	00 
4000df1c:	c7 04 24 4b 00 00 00 	movl   $0x4b,(%esp)
4000df23:	e8 58 f9 ff ff       	call   4000d880 <syscall_call>
4000df28:	c7 44 24 04 bc de 00 	movl   $0x4000debc,0x4(%esp)
4000df2f:	40 
4000df30:	c7 04 24 06 00 00 00 	movl   $0x6,(%esp)
4000df37:	e8 e4 fe ff ff       	call   4000de20 <signal_create>
4000df3c:	c7 44 24 04 a8 de 00 	movl   $0x4000dea8,0x4(%esp)
4000df43:	40 
4000df44:	c7 04 24 0e 00 00 00 	movl   $0xe,(%esp)
4000df4b:	e8 d0 fe ff ff       	call   4000de20 <signal_create>
4000df50:	c7 44 24 04 bc de 00 	movl   $0x4000debc,0x4(%esp)
4000df57:	40 
4000df58:	c7 04 24 07 00 00 00 	movl   $0x7,(%esp)
4000df5f:	e8 bc fe ff ff       	call   4000de20 <signal_create>
4000df64:	c7 44 24 04 a3 de 00 	movl   $0x4000dea3,0x4(%esp)
4000df6b:	40 
4000df6c:	c7 04 24 11 00 00 00 	movl   $0x11,(%esp)
4000df73:	e8 a8 fe ff ff       	call   4000de20 <signal_create>
4000df78:	c7 44 24 04 c9 de 00 	movl   $0x4000dec9,0x4(%esp)
4000df7f:	40 
4000df80:	c7 04 24 12 00 00 00 	movl   $0x12,(%esp)
4000df87:	e8 94 fe ff ff       	call   4000de20 <signal_create>
4000df8c:	c7 44 24 04 bc de 00 	movl   $0x4000debc,0x4(%esp)
4000df93:	40 
4000df94:	c7 04 24 08 00 00 00 	movl   $0x8,(%esp)
4000df9b:	e8 80 fe ff ff       	call   4000de20 <signal_create>
4000dfa0:	c7 44 24 04 a8 de 00 	movl   $0x4000dea8,0x4(%esp)
4000dfa7:	40 
4000dfa8:	c7 04 24 01 00 00 00 	movl   $0x1,(%esp)
4000dfaf:	e8 6c fe ff ff       	call   4000de20 <signal_create>
4000dfb4:	c7 44 24 04 bc de 00 	movl   $0x4000debc,0x4(%esp)
4000dfbb:	40 
4000dfbc:	c7 04 24 04 00 00 00 	movl   $0x4,(%esp)
4000dfc3:	e8 58 fe ff ff       	call   4000de20 <signal_create>
4000dfc8:	c7 44 24 04 a8 de 00 	movl   $0x4000dea8,0x4(%esp)
4000dfcf:	40 
4000dfd0:	c7 04 24 02 00 00 00 	movl   $0x2,(%esp)
4000dfd7:	e8 44 fe ff ff       	call   4000de20 <signal_create>
4000dfdc:	c7 44 24 04 a8 de 00 	movl   $0x4000dea8,0x4(%esp)
4000dfe3:	40 
4000dfe4:	c7 04 24 09 00 00 00 	movl   $0x9,(%esp)
4000dfeb:	e8 30 fe ff ff       	call   4000de20 <signal_create>
4000dff0:	c7 44 24 04 a8 de 00 	movl   $0x4000dea8,0x4(%esp)
4000dff7:	40 
4000dff8:	c7 04 24 0d 00 00 00 	movl   $0xd,(%esp)
4000dfff:	e8 1c fe ff ff       	call   4000de20 <signal_create>
4000e004:	c7 44 24 04 bc de 00 	movl   $0x4000debc,0x4(%esp)
4000e00b:	40 
4000e00c:	c7 04 24 03 00 00 00 	movl   $0x3,(%esp)
4000e013:	e8 08 fe ff ff       	call   4000de20 <signal_create>
4000e018:	c7 44 24 04 bc de 00 	movl   $0x4000debc,0x4(%esp)
4000e01f:	40 
4000e020:	c7 04 24 0b 00 00 00 	movl   $0xb,(%esp)
4000e027:	e8 f4 fd ff ff       	call   4000de20 <signal_create>
4000e02c:	c7 44 24 04 ce de 00 	movl   $0x4000dece,0x4(%esp)
4000e033:	40 
4000e034:	c7 04 24 13 00 00 00 	movl   $0x13,(%esp)
4000e03b:	e8 e0 fd ff ff       	call   4000de20 <signal_create>
4000e040:	c7 44 24 04 a8 de 00 	movl   $0x4000dea8,0x4(%esp)
4000e047:	40 
4000e048:	c7 04 24 0f 00 00 00 	movl   $0xf,(%esp)
4000e04f:	e8 cc fd ff ff       	call   4000de20 <signal_create>
4000e054:	c7 44 24 04 ce de 00 	movl   $0x4000dece,0x4(%esp)
4000e05b:	40 
4000e05c:	c7 04 24 14 00 00 00 	movl   $0x14,(%esp)
4000e063:	e8 b8 fd ff ff       	call   4000de20 <signal_create>
4000e068:	c7 44 24 04 ce de 00 	movl   $0x4000dece,0x4(%esp)
4000e06f:	40 
4000e070:	c7 04 24 15 00 00 00 	movl   $0x15,(%esp)
4000e077:	e8 a4 fd ff ff       	call   4000de20 <signal_create>
4000e07c:	c7 44 24 04 ce de 00 	movl   $0x4000dece,0x4(%esp)
4000e083:	40 
4000e084:	c7 04 24 16 00 00 00 	movl   $0x16,(%esp)
4000e08b:	e8 90 fd ff ff       	call   4000de20 <signal_create>
4000e090:	c7 44 24 04 a8 de 00 	movl   $0x4000dea8,0x4(%esp)
4000e097:	40 
4000e098:	c7 04 24 0a 00 00 00 	movl   $0xa,(%esp)
4000e09f:	e8 7c fd ff ff       	call   4000de20 <signal_create>
4000e0a4:	c7 44 24 04 a8 de 00 	movl   $0x4000dea8,0x4(%esp)
4000e0ab:	40 
4000e0ac:	c7 04 24 0c 00 00 00 	movl   $0xc,(%esp)
4000e0b3:	e8 68 fd ff ff       	call   4000de20 <signal_create>
4000e0b8:	c7 44 24 04 a8 de 00 	movl   $0x4000dea8,0x4(%esp)
4000e0bf:	40 
4000e0c0:	c7 04 24 1b 00 00 00 	movl   $0x1b,(%esp)
4000e0c7:	e8 54 fd ff ff       	call   4000de20 <signal_create>
4000e0cc:	c7 44 24 04 bc de 00 	movl   $0x4000debc,0x4(%esp)
4000e0d3:	40 
4000e0d4:	c7 04 24 1f 00 00 00 	movl   $0x1f,(%esp)
4000e0db:	e8 40 fd ff ff       	call   4000de20 <signal_create>
4000e0e0:	c7 44 24 04 bc de 00 	movl   $0x4000debc,0x4(%esp)
4000e0e7:	40 
4000e0e8:	c7 04 24 05 00 00 00 	movl   $0x5,(%esp)
4000e0ef:	e8 2c fd ff ff       	call   4000de20 <signal_create>
4000e0f4:	c7 44 24 04 a3 de 00 	movl   $0x4000dea3,0x4(%esp)
4000e0fb:	40 
4000e0fc:	c7 04 24 17 00 00 00 	movl   $0x17,(%esp)
4000e103:	e8 18 fd ff ff       	call   4000de20 <signal_create>
4000e108:	c7 44 24 04 bc de 00 	movl   $0x4000debc,0x4(%esp)
4000e10f:	40 
4000e110:	c7 04 24 18 00 00 00 	movl   $0x18,(%esp)
4000e117:	e8 04 fd ff ff       	call   4000de20 <signal_create>
4000e11c:	c7 44 24 04 bc de 00 	movl   $0x4000debc,0x4(%esp)
4000e123:	40 
4000e124:	c7 04 24 19 00 00 00 	movl   $0x19,(%esp)
4000e12b:	e8 f0 fc ff ff       	call   4000de20 <signal_create>
4000e130:	c9                   	leave  
4000e131:	c3                   	ret    

4000e132 <signal>:
4000e132:	55                   	push   %ebp
4000e133:	89 e5                	mov    %esp,%ebp
4000e135:	83 7d 08 3f          	cmpl   $0x3f,0x8(%ebp)
4000e139:	7f 4f                	jg     4000e18a <signal+0x58>
4000e13b:	83 7d 08 09          	cmpl   $0x9,0x8(%ebp)
4000e13f:	74 49                	je     4000e18a <signal+0x58>
4000e141:	83 7d 08 13          	cmpl   $0x13,0x8(%ebp)
4000e145:	74 43                	je     4000e18a <signal+0x58>
4000e147:	83 7d 0c 00          	cmpl   $0x0,0xc(%ebp)
4000e14b:	75 1c                	jne    4000e169 <signal+0x37>
4000e14d:	8b 4d 08             	mov    0x8(%ebp),%ecx
4000e150:	8b 45 08             	mov    0x8(%ebp),%eax
4000e153:	c1 e0 04             	shl    $0x4,%eax
4000e156:	8b 90 20 15 01 40    	mov    0x40011520(%eax),%edx
4000e15c:	89 c8                	mov    %ecx,%eax
4000e15e:	c1 e0 04             	shl    $0x4,%eax
4000e161:	89 90 24 15 01 40    	mov    %edx,0x40011524(%eax)
4000e167:	eb 11                	jmp    4000e17a <signal+0x48>
4000e169:	8b 45 08             	mov    0x8(%ebp),%eax
4000e16c:	89 c2                	mov    %eax,%edx
4000e16e:	c1 e2 04             	shl    $0x4,%edx
4000e171:	8b 45 0c             	mov    0xc(%ebp),%eax
4000e174:	89 82 24 15 01 40    	mov    %eax,0x40011524(%edx)
4000e17a:	8b 45 08             	mov    0x8(%ebp),%eax
4000e17d:	c1 e0 04             	shl    $0x4,%eax
4000e180:	c7 80 2c 15 01 40 00 	movl   $0x0,0x4001152c(%eax)
4000e187:	00 00 00 
4000e18a:	8b 45 08             	mov    0x8(%ebp),%eax
4000e18d:	c1 e0 04             	shl    $0x4,%eax
4000e190:	8b 80 24 15 01 40    	mov    0x40011524(%eax),%eax
4000e196:	5d                   	pop    %ebp
4000e197:	c3                   	ret    

4000e198 <sysv_signal>:
4000e198:	55                   	push   %ebp
4000e199:	89 e5                	mov    %esp,%ebp
4000e19b:	83 7d 08 3f          	cmpl   $0x3f,0x8(%ebp)
4000e19f:	7f 4f                	jg     4000e1f0 <sysv_signal+0x58>
4000e1a1:	83 7d 08 09          	cmpl   $0x9,0x8(%ebp)
4000e1a5:	74 49                	je     4000e1f0 <sysv_signal+0x58>
4000e1a7:	83 7d 08 13          	cmpl   $0x13,0x8(%ebp)
4000e1ab:	74 43                	je     4000e1f0 <sysv_signal+0x58>
4000e1ad:	83 7d 0c 00          	cmpl   $0x0,0xc(%ebp)
4000e1b1:	75 1c                	jne    4000e1cf <sysv_signal+0x37>
4000e1b3:	8b 4d 08             	mov    0x8(%ebp),%ecx
4000e1b6:	8b 45 08             	mov    0x8(%ebp),%eax
4000e1b9:	c1 e0 04             	shl    $0x4,%eax
4000e1bc:	8b 90 20 15 01 40    	mov    0x40011520(%eax),%edx
4000e1c2:	89 c8                	mov    %ecx,%eax
4000e1c4:	c1 e0 04             	shl    $0x4,%eax
4000e1c7:	89 90 24 15 01 40    	mov    %edx,0x40011524(%eax)
4000e1cd:	eb 11                	jmp    4000e1e0 <sysv_signal+0x48>
4000e1cf:	8b 45 08             	mov    0x8(%ebp),%eax
4000e1d2:	89 c2                	mov    %eax,%edx
4000e1d4:	c1 e2 04             	shl    $0x4,%edx
4000e1d7:	8b 45 0c             	mov    0xc(%ebp),%eax
4000e1da:	89 82 24 15 01 40    	mov    %eax,0x40011524(%edx)
4000e1e0:	8b 45 08             	mov    0x8(%ebp),%eax
4000e1e3:	c1 e0 04             	shl    $0x4,%eax
4000e1e6:	c7 80 2c 15 01 40 01 	movl   $0x1,0x4001152c(%eax)
4000e1ed:	00 00 00 
4000e1f0:	8b 45 08             	mov    0x8(%ebp),%eax
4000e1f3:	c1 e0 04             	shl    $0x4,%eax
4000e1f6:	8b 80 24 15 01 40    	mov    0x40011524(%eax),%eax
4000e1fc:	5d                   	pop    %ebp
4000e1fd:	c3                   	ret    
4000e1fe:	90                   	nop    
4000e1ff:	90                   	nop    

4000e200 <create_stream>:
4000e200:	55                   	push   %ebp
4000e201:	89 e5                	mov    %esp,%ebp
4000e203:	83 ec 18             	sub    $0x18,%esp
4000e206:	c7 04 24 1c 00 00 00 	movl   $0x1c,(%esp)
4000e20d:	e8 3e 9a ff ff       	call   40007c50 <malloc>
4000e212:	89 45 fc             	mov    %eax,-0x4(%ebp)
4000e215:	8b 55 fc             	mov    -0x4(%ebp),%edx
4000e218:	8b 45 08             	mov    0x8(%ebp),%eax
4000e21b:	89 02                	mov    %eax,(%edx)
4000e21d:	8b 55 fc             	mov    -0x4(%ebp),%edx
4000e220:	8b 45 0c             	mov    0xc(%ebp),%eax
4000e223:	89 42 08             	mov    %eax,0x8(%edx)
4000e226:	8b 45 fc             	mov    -0x4(%ebp),%eax
4000e229:	c7 40 04 00 00 00 00 	movl   $0x0,0x4(%eax)
4000e230:	8b 45 fc             	mov    -0x4(%ebp),%eax
4000e233:	c7 40 0c 00 00 00 00 	movl   $0x0,0xc(%eax)
4000e23a:	c7 04 24 00 08 00 00 	movl   $0x800,(%esp)
4000e241:	e8 0a 9a ff ff       	call   40007c50 <malloc>
4000e246:	89 c2                	mov    %eax,%edx
4000e248:	8b 45 fc             	mov    -0x4(%ebp),%eax
4000e24b:	89 50 10             	mov    %edx,0x10(%eax)
4000e24e:	8b 45 fc             	mov    -0x4(%ebp),%eax
4000e251:	8b 50 10             	mov    0x10(%eax),%edx
4000e254:	8b 45 fc             	mov    -0x4(%ebp),%eax
4000e257:	89 50 14             	mov    %edx,0x14(%eax)
4000e25a:	8b 45 fc             	mov    -0x4(%ebp),%eax
4000e25d:	c7 40 18 01 00 00 00 	movl   $0x1,0x18(%eax)
4000e264:	8b 45 fc             	mov    -0x4(%ebp),%eax
4000e267:	c9                   	leave  
4000e268:	c3                   	ret    

4000e269 <stdio_exit>:
4000e269:	55                   	push   %ebp
4000e26a:	89 e5                	mov    %esp,%ebp
4000e26c:	83 ec 08             	sub    $0x8,%esp
4000e26f:	a1 40 29 01 40       	mov    0x40012940,%eax
4000e274:	89 04 24             	mov    %eax,(%esp)
4000e277:	e8 ff 02 00 00       	call   4000e57b <fflush>
4000e27c:	a1 98 29 01 40       	mov    0x40012998,%eax
4000e281:	89 04 24             	mov    %eax,(%esp)
4000e284:	e8 f2 02 00 00       	call   4000e57b <fflush>
4000e289:	a1 94 29 01 40       	mov    0x40012994,%eax
4000e28e:	89 04 24             	mov    %eax,(%esp)
4000e291:	e8 cd 01 00 00       	call   4000e463 <fclose>
4000e296:	a1 40 29 01 40       	mov    0x40012940,%eax
4000e29b:	89 04 24             	mov    %eax,(%esp)
4000e29e:	e8 c0 01 00 00       	call   4000e463 <fclose>
4000e2a3:	a1 98 29 01 40       	mov    0x40012998,%eax
4000e2a8:	89 04 24             	mov    %eax,(%esp)
4000e2ab:	e8 b3 01 00 00       	call   4000e463 <fclose>
4000e2b0:	c9                   	leave  
4000e2b1:	c3                   	ret    

4000e2b2 <stdio_init>:
4000e2b2:	55                   	push   %ebp
4000e2b3:	89 e5                	mov    %esp,%ebp
4000e2b5:	83 ec 08             	sub    $0x8,%esp
4000e2b8:	c7 44 24 04 01 00 00 	movl   $0x1,0x4(%esp)
4000e2bf:	00 
4000e2c0:	c7 04 24 00 00 00 00 	movl   $0x0,(%esp)
4000e2c7:	e8 34 ff ff ff       	call   4000e200 <create_stream>
4000e2cc:	a3 94 29 01 40       	mov    %eax,0x40012994
4000e2d1:	c7 44 24 04 02 00 00 	movl   $0x2,0x4(%esp)
4000e2d8:	00 
4000e2d9:	c7 04 24 01 00 00 00 	movl   $0x1,(%esp)
4000e2e0:	e8 1b ff ff ff       	call   4000e200 <create_stream>
4000e2e5:	a3 40 29 01 40       	mov    %eax,0x40012940
4000e2ea:	c7 44 24 04 02 00 00 	movl   $0x2,0x4(%esp)
4000e2f1:	00 
4000e2f2:	c7 04 24 02 00 00 00 	movl   $0x2,(%esp)
4000e2f9:	e8 02 ff ff ff       	call   4000e200 <create_stream>
4000e2fe:	a3 98 29 01 40       	mov    %eax,0x40012998
4000e303:	b8 69 e2 00 40       	mov    $0x4000e269,%eax
4000e308:	89 04 24             	mov    %eax,(%esp)
4000e30b:	e8 d8 b1 ff ff       	call   400094e8 <atexit>
4000e310:	c9                   	leave  
4000e311:	c3                   	ret    

4000e312 <oflag_str2num>:
4000e312:	55                   	push   %ebp
4000e313:	89 e5                	mov    %esp,%ebp
4000e315:	83 ec 10             	sub    $0x10,%esp
4000e318:	8b 45 08             	mov    0x8(%ebp),%eax
4000e31b:	0f b6 00             	movzbl (%eax),%eax
4000e31e:	3c 72                	cmp    $0x72,%al
4000e320:	75 09                	jne    4000e32b <oflag_str2num+0x19>
4000e322:	c7 45 fc 01 00 00 00 	movl   $0x1,-0x4(%ebp)
4000e329:	eb 2d                	jmp    4000e358 <oflag_str2num+0x46>
4000e32b:	8b 45 08             	mov    0x8(%ebp),%eax
4000e32e:	0f b6 00             	movzbl (%eax),%eax
4000e331:	3c 77                	cmp    $0x77,%al
4000e333:	75 09                	jne    4000e33e <oflag_str2num+0x2c>
4000e335:	c7 45 fc 26 00 00 00 	movl   $0x26,-0x4(%ebp)
4000e33c:	eb 1a                	jmp    4000e358 <oflag_str2num+0x46>
4000e33e:	8b 45 08             	mov    0x8(%ebp),%eax
4000e341:	0f b6 00             	movzbl (%eax),%eax
4000e344:	3c 61                	cmp    $0x61,%al
4000e346:	75 09                	jne    4000e351 <oflag_str2num+0x3f>
4000e348:	c7 45 fc 64 00 00 00 	movl   $0x64,-0x4(%ebp)
4000e34f:	eb 07                	jmp    4000e358 <oflag_str2num+0x46>
4000e351:	c7 45 fc ff ff ff ff 	movl   $0xffffffff,-0x4(%ebp)
4000e358:	8b 45 08             	mov    0x8(%ebp),%eax
4000e35b:	83 c0 01             	add    $0x1,%eax
4000e35e:	0f b6 00             	movzbl (%eax),%eax
4000e361:	3c 2b                	cmp    $0x2b,%al
4000e363:	75 0a                	jne    4000e36f <oflag_str2num+0x5d>
4000e365:	83 7d fc ff          	cmpl   $0xffffffff,-0x4(%ebp)
4000e369:	74 04                	je     4000e36f <oflag_str2num+0x5d>
4000e36b:	83 4d fc 03          	orl    $0x3,-0x4(%ebp)
4000e36f:	8b 45 fc             	mov    -0x4(%ebp),%eax
4000e372:	c9                   	leave  
4000e373:	c3                   	ret    

4000e374 <tmpnam>:
4000e374:	55                   	push   %ebp
4000e375:	89 e5                	mov    %esp,%ebp
4000e377:	83 ec 28             	sub    $0x28,%esp
4000e37a:	83 7d 08 00          	cmpl   $0x0,0x8(%ebp)
4000e37e:	75 21                	jne    4000e3a1 <tmpnam+0x2d>
4000e380:	c7 44 24 08 00 04 00 	movl   $0x400,0x8(%esp)
4000e387:	00 
4000e388:	c7 44 24 04 00 00 00 	movl   $0x0,0x4(%esp)
4000e38f:	00 
4000e390:	c7 04 24 20 19 01 40 	movl   $0x40011920,(%esp)
4000e397:	e8 69 ce ff ff       	call   4000b205 <memset>
4000e39c:	89 45 ec             	mov    %eax,-0x14(%ebp)
4000e39f:	eb 06                	jmp    4000e3a7 <tmpnam+0x33>
4000e3a1:	8b 45 08             	mov    0x8(%ebp),%eax
4000e3a4:	89 45 ec             	mov    %eax,-0x14(%ebp)
4000e3a7:	8b 45 ec             	mov    -0x14(%ebp),%eax
4000e3aa:	89 45 fc             	mov    %eax,-0x4(%ebp)
4000e3ad:	a1 20 29 01 40       	mov    0x40012920,%eax
4000e3b2:	89 c2                	mov    %eax,%edx
4000e3b4:	83 c0 01             	add    $0x1,%eax
4000e3b7:	a3 20 29 01 40       	mov    %eax,0x40012920
4000e3bc:	89 54 24 10          	mov    %edx,0x10(%esp)
4000e3c0:	c7 44 24 0c 41 ff 00 	movl   $0x4000ff41,0xc(%esp)
4000e3c7:	40 
4000e3c8:	c7 44 24 08 46 ff 00 	movl   $0x4000ff46,0x8(%esp)
4000e3cf:	40 
4000e3d0:	c7 44 24 04 00 04 00 	movl   $0x400,0x4(%esp)
4000e3d7:	00 
4000e3d8:	8b 45 fc             	mov    -0x4(%ebp),%eax
4000e3db:	89 04 24             	mov    %eax,(%esp)
4000e3de:	e8 6d 09 00 00       	call   4000ed50 <snprintf>
4000e3e3:	8b 45 fc             	mov    -0x4(%ebp),%eax
4000e3e6:	c9                   	leave  
4000e3e7:	c3                   	ret    

4000e3e8 <clearerr>:
4000e3e8:	55                   	push   %ebp
4000e3e9:	89 e5                	mov    %esp,%ebp
4000e3eb:	8b 45 08             	mov    0x8(%ebp),%eax
4000e3ee:	c7 40 04 00 00 00 00 	movl   $0x0,0x4(%eax)
4000e3f5:	5d                   	pop    %ebp
4000e3f6:	c3                   	ret    

4000e3f7 <feof>:
4000e3f7:	55                   	push   %ebp
4000e3f8:	89 e5                	mov    %esp,%ebp
4000e3fa:	83 ec 04             	sub    $0x4,%esp
4000e3fd:	83 7d 08 00          	cmpl   $0x0,0x8(%ebp)
4000e401:	74 14                	je     4000e417 <feof+0x20>
4000e403:	8b 45 08             	mov    0x8(%ebp),%eax
4000e406:	8b 00                	mov    (%eax),%eax
4000e408:	85 c0                	test   %eax,%eax
4000e40a:	78 0b                	js     4000e417 <feof+0x20>
4000e40c:	8b 45 08             	mov    0x8(%ebp),%eax
4000e40f:	8b 40 0c             	mov    0xc(%eax),%eax
4000e412:	89 45 fc             	mov    %eax,-0x4(%ebp)
4000e415:	eb 11                	jmp    4000e428 <feof+0x31>
4000e417:	c7 05 44 29 01 40 08 	movl   $0x8,0x40012944
4000e41e:	00 00 00 
4000e421:	c7 45 fc 00 00 00 00 	movl   $0x0,-0x4(%ebp)
4000e428:	8b 45 fc             	mov    -0x4(%ebp),%eax
4000e42b:	c9                   	leave  
4000e42c:	c3                   	ret    

4000e42d <ferror>:
4000e42d:	55                   	push   %ebp
4000e42e:	89 e5                	mov    %esp,%ebp
4000e430:	83 ec 04             	sub    $0x4,%esp
4000e433:	83 7d 08 00          	cmpl   $0x0,0x8(%ebp)
4000e437:	74 14                	je     4000e44d <ferror+0x20>
4000e439:	8b 45 08             	mov    0x8(%ebp),%eax
4000e43c:	8b 00                	mov    (%eax),%eax
4000e43e:	85 c0                	test   %eax,%eax
4000e440:	78 0b                	js     4000e44d <ferror+0x20>
4000e442:	8b 45 08             	mov    0x8(%ebp),%eax
4000e445:	8b 40 04             	mov    0x4(%eax),%eax
4000e448:	89 45 fc             	mov    %eax,-0x4(%ebp)
4000e44b:	eb 11                	jmp    4000e45e <ferror+0x31>
4000e44d:	c7 05 44 29 01 40 08 	movl   $0x8,0x40012944
4000e454:	00 00 00 
4000e457:	c7 45 fc 00 00 00 00 	movl   $0x0,-0x4(%ebp)
4000e45e:	8b 45 fc             	mov    -0x4(%ebp),%eax
4000e461:	c9                   	leave  
4000e462:	c3                   	ret    

4000e463 <fclose>:
4000e463:	55                   	push   %ebp
4000e464:	89 e5                	mov    %esp,%ebp
4000e466:	83 ec 08             	sub    $0x8,%esp
4000e469:	83 7d 08 00          	cmpl   $0x0,0x8(%ebp)
4000e46d:	74 44                	je     4000e4b3 <fclose+0x50>
4000e46f:	8b 45 08             	mov    0x8(%ebp),%eax
4000e472:	8b 00                	mov    (%eax),%eax
4000e474:	85 c0                	test   %eax,%eax
4000e476:	78 3b                	js     4000e4b3 <fclose+0x50>
4000e478:	8b 45 08             	mov    0x8(%ebp),%eax
4000e47b:	89 04 24             	mov    %eax,(%esp)
4000e47e:	e8 f8 00 00 00       	call   4000e57b <fflush>
4000e483:	85 c0                	test   %eax,%eax
4000e485:	75 36                	jne    4000e4bd <fclose+0x5a>
4000e487:	8b 45 08             	mov    0x8(%ebp),%eax
4000e48a:	8b 00                	mov    (%eax),%eax
4000e48c:	89 04 24             	mov    %eax,(%esp)
4000e48f:	e8 35 4d ff ff       	call   400031c9 <close>
4000e494:	85 c0                	test   %eax,%eax
4000e496:	75 25                	jne    4000e4bd <fclose+0x5a>
4000e498:	8b 45 08             	mov    0x8(%ebp),%eax
4000e49b:	8b 40 10             	mov    0x10(%eax),%eax
4000e49e:	89 04 24             	mov    %eax,(%esp)
4000e4a1:	e8 61 9c ff ff       	call   40008107 <free>
4000e4a6:	8b 45 08             	mov    0x8(%ebp),%eax
4000e4a9:	89 04 24             	mov    %eax,(%esp)
4000e4ac:	e8 56 9c ff ff       	call   40008107 <free>
4000e4b1:	eb 0a                	jmp    4000e4bd <fclose+0x5a>
4000e4b3:	c7 05 44 29 01 40 08 	movl   $0x8,0x40012944
4000e4ba:	00 00 00 
4000e4bd:	b8 ff ff ff ff       	mov    $0xffffffff,%eax
4000e4c2:	c9                   	leave  
4000e4c3:	c3                   	ret    

4000e4c4 <fdopen>:
4000e4c4:	55                   	push   %ebp
4000e4c5:	89 e5                	mov    %esp,%ebp
4000e4c7:	83 ec 08             	sub    $0x8,%esp
4000e4ca:	8b 45 0c             	mov    0xc(%ebp),%eax
4000e4cd:	89 04 24             	mov    %eax,(%esp)
4000e4d0:	e8 3d fe ff ff       	call   4000e312 <oflag_str2num>
4000e4d5:	89 44 24 04          	mov    %eax,0x4(%esp)
4000e4d9:	8b 45 08             	mov    0x8(%ebp),%eax
4000e4dc:	89 04 24             	mov    %eax,(%esp)
4000e4df:	e8 1c fd ff ff       	call   4000e200 <create_stream>
4000e4e4:	c9                   	leave  
4000e4e5:	c3                   	ret    

4000e4e6 <fileno>:
4000e4e6:	55                   	push   %ebp
4000e4e7:	89 e5                	mov    %esp,%ebp
4000e4e9:	83 ec 04             	sub    $0x4,%esp
4000e4ec:	83 7d 08 00          	cmpl   $0x0,0x8(%ebp)
4000e4f0:	74 13                	je     4000e505 <fileno+0x1f>
4000e4f2:	8b 45 08             	mov    0x8(%ebp),%eax
4000e4f5:	8b 00                	mov    (%eax),%eax
4000e4f7:	85 c0                	test   %eax,%eax
4000e4f9:	78 0a                	js     4000e505 <fileno+0x1f>
4000e4fb:	8b 45 08             	mov    0x8(%ebp),%eax
4000e4fe:	8b 00                	mov    (%eax),%eax
4000e500:	89 45 fc             	mov    %eax,-0x4(%ebp)
4000e503:	eb 11                	jmp    4000e516 <fileno+0x30>
4000e505:	c7 05 44 29 01 40 08 	movl   $0x8,0x40012944
4000e50c:	00 00 00 
4000e50f:	c7 45 fc 00 00 00 00 	movl   $0x0,-0x4(%ebp)
4000e516:	8b 45 fc             	mov    -0x4(%ebp),%eax
4000e519:	c9                   	leave  
4000e51a:	c3                   	ret    

4000e51b <fopen>:
4000e51b:	55                   	push   %ebp
4000e51c:	89 e5                	mov    %esp,%ebp
4000e51e:	83 ec 28             	sub    $0x28,%esp
4000e521:	8b 45 0c             	mov    0xc(%ebp),%eax
4000e524:	89 04 24             	mov    %eax,(%esp)
4000e527:	e8 e6 fd ff ff       	call   4000e312 <oflag_str2num>
4000e52c:	89 45 f8             	mov    %eax,-0x8(%ebp)
4000e52f:	83 7d f8 00          	cmpl   $0x0,-0x8(%ebp)
4000e533:	7e 3a                	jle    4000e56f <fopen+0x54>
4000e535:	c7 44 24 08 ff 01 00 	movl   $0x1ff,0x8(%esp)
4000e53c:	00 
4000e53d:	8b 45 f8             	mov    -0x8(%ebp),%eax
4000e540:	89 44 24 04          	mov    %eax,0x4(%esp)
4000e544:	8b 45 08             	mov    0x8(%ebp),%eax
4000e547:	89 04 24             	mov    %eax,(%esp)
4000e54a:	e8 d3 49 ff ff       	call   40002f22 <open>
4000e54f:	89 45 fc             	mov    %eax,-0x4(%ebp)
4000e552:	83 7d fc 00          	cmpl   $0x0,-0x4(%ebp)
4000e556:	78 17                	js     4000e56f <fopen+0x54>
4000e558:	8b 45 f8             	mov    -0x8(%ebp),%eax
4000e55b:	89 44 24 04          	mov    %eax,0x4(%esp)
4000e55f:	8b 45 fc             	mov    -0x4(%ebp),%eax
4000e562:	89 04 24             	mov    %eax,(%esp)
4000e565:	e8 96 fc ff ff       	call   4000e200 <create_stream>
4000e56a:	89 45 ec             	mov    %eax,-0x14(%ebp)
4000e56d:	eb 07                	jmp    4000e576 <fopen+0x5b>
4000e56f:	c7 45 ec 00 00 00 00 	movl   $0x0,-0x14(%ebp)
4000e576:	8b 45 ec             	mov    -0x14(%ebp),%eax
4000e579:	c9                   	leave  
4000e57a:	c3                   	ret    

4000e57b <fflush>:
4000e57b:	55                   	push   %ebp
4000e57c:	89 e5                	mov    %esp,%ebp
4000e57e:	83 ec 28             	sub    $0x28,%esp
4000e581:	8b 45 08             	mov    0x8(%ebp),%eax
4000e584:	8b 40 18             	mov    0x18(%eax),%eax
4000e587:	85 c0                	test   %eax,%eax
4000e589:	74 78                	je     4000e603 <fflush+0x88>
4000e58b:	8b 45 08             	mov    0x8(%ebp),%eax
4000e58e:	8b 40 14             	mov    0x14(%eax),%eax
4000e591:	89 c2                	mov    %eax,%edx
4000e593:	8b 45 08             	mov    0x8(%ebp),%eax
4000e596:	8b 40 10             	mov    0x10(%eax),%eax
4000e599:	89 d1                	mov    %edx,%ecx
4000e59b:	29 c1                	sub    %eax,%ecx
4000e59d:	89 c8                	mov    %ecx,%eax
4000e59f:	89 c2                	mov    %eax,%edx
4000e5a1:	8b 45 08             	mov    0x8(%ebp),%eax
4000e5a4:	8b 48 10             	mov    0x10(%eax),%ecx
4000e5a7:	8b 45 08             	mov    0x8(%ebp),%eax
4000e5aa:	8b 00                	mov    (%eax),%eax
4000e5ac:	89 54 24 08          	mov    %edx,0x8(%esp)
4000e5b0:	89 4c 24 04          	mov    %ecx,0x4(%esp)
4000e5b4:	89 04 24             	mov    %eax,(%esp)
4000e5b7:	e8 c2 50 ff ff       	call   4000367e <write>
4000e5bc:	89 45 fc             	mov    %eax,-0x4(%ebp)
4000e5bf:	83 7d fc 00          	cmpl   $0x0,-0x4(%ebp)
4000e5c3:	7e 2a                	jle    4000e5ef <fflush+0x74>
4000e5c5:	8b 45 08             	mov    0x8(%ebp),%eax
4000e5c8:	8b 40 14             	mov    0x14(%eax),%eax
4000e5cb:	89 c2                	mov    %eax,%edx
4000e5cd:	8b 45 08             	mov    0x8(%ebp),%eax
4000e5d0:	8b 40 10             	mov    0x10(%eax),%eax
4000e5d3:	89 d1                	mov    %edx,%ecx
4000e5d5:	29 c1                	sub    %eax,%ecx
4000e5d7:	89 c8                	mov    %ecx,%eax
4000e5d9:	3b 45 fc             	cmp    -0x4(%ebp),%eax
4000e5dc:	7e 11                	jle    4000e5ef <fflush+0x74>
4000e5de:	8b 45 08             	mov    0x8(%ebp),%eax
4000e5e1:	c7 40 0c 01 00 00 00 	movl   $0x1,0xc(%eax)
4000e5e8:	c7 45 fc ff ff ff ff 	movl   $0xffffffff,-0x4(%ebp)
4000e5ef:	8b 45 08             	mov    0x8(%ebp),%eax
4000e5f2:	8b 50 10             	mov    0x10(%eax),%edx
4000e5f5:	8b 45 08             	mov    0x8(%ebp),%eax
4000e5f8:	89 50 14             	mov    %edx,0x14(%eax)
4000e5fb:	8b 45 fc             	mov    -0x4(%ebp),%eax
4000e5fe:	89 45 ec             	mov    %eax,-0x14(%ebp)
4000e601:	eb 07                	jmp    4000e60a <fflush+0x8f>
4000e603:	c7 45 ec 00 00 00 00 	movl   $0x0,-0x14(%ebp)
4000e60a:	8b 45 ec             	mov    -0x14(%ebp),%eax
4000e60d:	c9                   	leave  
4000e60e:	c3                   	ret    

4000e60f <puts>:
4000e60f:	55                   	push   %ebp
4000e610:	89 e5                	mov    %esp,%ebp
4000e612:	83 ec 18             	sub    $0x18,%esp
4000e615:	a1 40 29 01 40       	mov    0x40012940,%eax
4000e61a:	89 44 24 04          	mov    %eax,0x4(%esp)
4000e61e:	8b 45 08             	mov    0x8(%ebp),%eax
4000e621:	89 04 24             	mov    %eax,(%esp)
4000e624:	e8 1e 00 00 00       	call   4000e647 <fputs>
4000e629:	89 45 fc             	mov    %eax,-0x4(%ebp)
4000e62c:	83 7d fc 00          	cmpl   $0x0,-0x4(%ebp)
4000e630:	7e 10                	jle    4000e642 <puts+0x33>
4000e632:	c7 04 24 0a 00 00 00 	movl   $0xa,(%esp)
4000e639:	e8 34 00 00 00       	call   4000e672 <putchar>
4000e63e:	83 45 fc 01          	addl   $0x1,-0x4(%ebp)
4000e642:	8b 45 fc             	mov    -0x4(%ebp),%eax
4000e645:	c9                   	leave  
4000e646:	c3                   	ret    

4000e647 <fputs>:
4000e647:	55                   	push   %ebp
4000e648:	89 e5                	mov    %esp,%ebp
4000e64a:	83 ec 18             	sub    $0x18,%esp
4000e64d:	8b 45 08             	mov    0x8(%ebp),%eax
4000e650:	89 04 24             	mov    %eax,(%esp)
4000e653:	e8 88 cd ff ff       	call   4000b3e0 <strlen>
4000e658:	89 c2                	mov    %eax,%edx
4000e65a:	8b 45 0c             	mov    0xc(%ebp),%eax
4000e65d:	89 44 24 08          	mov    %eax,0x8(%esp)
4000e661:	89 54 24 04          	mov    %edx,0x4(%esp)
4000e665:	8b 45 08             	mov    0x8(%ebp),%eax
4000e668:	89 04 24             	mov    %eax,(%esp)
4000e66b:	e8 5d 00 00 00       	call   4000e6cd <_fwrite>
4000e670:	c9                   	leave  
4000e671:	c3                   	ret    

4000e672 <putchar>:
4000e672:	55                   	push   %ebp
4000e673:	89 e5                	mov    %esp,%ebp
4000e675:	83 ec 08             	sub    $0x8,%esp
4000e678:	a1 40 29 01 40       	mov    0x40012940,%eax
4000e67d:	89 44 24 04          	mov    %eax,0x4(%esp)
4000e681:	8b 45 08             	mov    0x8(%ebp),%eax
4000e684:	89 04 24             	mov    %eax,(%esp)
4000e687:	e8 02 00 00 00       	call   4000e68e <fputc>
4000e68c:	c9                   	leave  
4000e68d:	c3                   	ret    

4000e68e <fputc>:
4000e68e:	55                   	push   %ebp
4000e68f:	89 e5                	mov    %esp,%ebp
4000e691:	83 ec 28             	sub    $0x28,%esp
4000e694:	8b 45 08             	mov    0x8(%ebp),%eax
4000e697:	88 45 ff             	mov    %al,-0x1(%ebp)
4000e69a:	8b 45 0c             	mov    0xc(%ebp),%eax
4000e69d:	89 44 24 08          	mov    %eax,0x8(%esp)
4000e6a1:	c7 44 24 04 01 00 00 	movl   $0x1,0x4(%esp)
4000e6a8:	00 
4000e6a9:	8d 45 ff             	lea    -0x1(%ebp),%eax
4000e6ac:	89 04 24             	mov    %eax,(%esp)
4000e6af:	e8 19 00 00 00       	call   4000e6cd <_fwrite>
4000e6b4:	83 f8 01             	cmp    $0x1,%eax
4000e6b7:	75 08                	jne    4000e6c1 <fputc+0x33>
4000e6b9:	8b 45 08             	mov    0x8(%ebp),%eax
4000e6bc:	89 45 ec             	mov    %eax,-0x14(%ebp)
4000e6bf:	eb 07                	jmp    4000e6c8 <fputc+0x3a>
4000e6c1:	c7 45 ec ff ff ff ff 	movl   $0xffffffff,-0x14(%ebp)
4000e6c8:	8b 45 ec             	mov    -0x14(%ebp),%eax
4000e6cb:	c9                   	leave  
4000e6cc:	c3                   	ret    

4000e6cd <_fwrite>:
4000e6cd:	55                   	push   %ebp
4000e6ce:	89 e5                	mov    %esp,%ebp
4000e6d0:	83 ec 28             	sub    $0x28,%esp
4000e6d3:	83 7d 0c 00          	cmpl   $0x0,0xc(%ebp)
4000e6d7:	75 0c                	jne    4000e6e5 <_fwrite+0x18>
4000e6d9:	c7 45 ec 00 00 00 00 	movl   $0x0,-0x14(%ebp)
4000e6e0:	e9 3c 01 00 00       	jmp    4000e821 <_fwrite+0x154>
4000e6e5:	83 7d 10 00          	cmpl   $0x0,0x10(%ebp)
4000e6e9:	0f 84 21 01 00 00    	je     4000e810 <_fwrite+0x143>
4000e6ef:	8b 45 10             	mov    0x10(%ebp),%eax
4000e6f2:	8b 00                	mov    (%eax),%eax
4000e6f4:	85 c0                	test   %eax,%eax
4000e6f6:	0f 88 14 01 00 00    	js     4000e810 <_fwrite+0x143>
4000e6fc:	8b 45 10             	mov    0x10(%ebp),%eax
4000e6ff:	8b 40 08             	mov    0x8(%eax),%eax
4000e702:	83 e0 02             	and    $0x2,%eax
4000e705:	85 c0                	test   %eax,%eax
4000e707:	0f 84 f0 00 00 00    	je     4000e7fd <_fwrite+0x130>
4000e70d:	8b 45 10             	mov    0x10(%ebp),%eax
4000e710:	8b 40 18             	mov    0x18(%eax),%eax
4000e713:	85 c0                	test   %eax,%eax
4000e715:	0f 84 93 00 00 00    	je     4000e7ae <_fwrite+0xe1>
4000e71b:	8b 45 10             	mov    0x10(%ebp),%eax
4000e71e:	8b 40 14             	mov    0x14(%eax),%eax
4000e721:	89 c2                	mov    %eax,%edx
4000e723:	03 55 0c             	add    0xc(%ebp),%edx
4000e726:	8b 45 10             	mov    0x10(%ebp),%eax
4000e729:	8b 40 10             	mov    0x10(%eax),%eax
4000e72c:	05 00 08 00 00       	add    $0x800,%eax
4000e731:	39 c2                	cmp    %eax,%edx
4000e733:	76 0b                	jbe    4000e740 <_fwrite+0x73>
4000e735:	8b 45 10             	mov    0x10(%ebp),%eax
4000e738:	89 04 24             	mov    %eax,(%esp)
4000e73b:	e8 3b fe ff ff       	call   4000e57b <fflush>
4000e740:	81 7d 0c 00 08 00 00 	cmpl   $0x800,0xc(%ebp)
4000e747:	76 07                	jbe    4000e750 <_fwrite+0x83>
4000e749:	c7 45 0c 00 08 00 00 	movl   $0x800,0xc(%ebp)
4000e750:	8b 45 10             	mov    0x10(%ebp),%eax
4000e753:	8b 50 14             	mov    0x14(%eax),%edx
4000e756:	8b 45 0c             	mov    0xc(%ebp),%eax
4000e759:	89 44 24 08          	mov    %eax,0x8(%esp)
4000e75d:	8b 45 08             	mov    0x8(%ebp),%eax
4000e760:	89 44 24 04          	mov    %eax,0x4(%esp)
4000e764:	89 14 24             	mov    %edx,(%esp)
4000e767:	e8 bc c8 ff ff       	call   4000b028 <memcpy>
4000e76c:	8b 45 10             	mov    0x10(%ebp),%eax
4000e76f:	8b 40 14             	mov    0x14(%eax),%eax
4000e772:	89 c2                	mov    %eax,%edx
4000e774:	03 55 0c             	add    0xc(%ebp),%edx
4000e777:	8b 45 10             	mov    0x10(%ebp),%eax
4000e77a:	89 50 14             	mov    %edx,0x14(%eax)
4000e77d:	8b 45 0c             	mov    0xc(%ebp),%eax
4000e780:	89 44 24 08          	mov    %eax,0x8(%esp)
4000e784:	c7 44 24 04 0a 00 00 	movl   $0xa,0x4(%esp)
4000e78b:	00 
4000e78c:	8b 45 08             	mov    0x8(%ebp),%eax
4000e78f:	89 04 24             	mov    %eax,(%esp)
4000e792:	e8 41 c7 ff ff       	call   4000aed8 <memchr>
4000e797:	85 c0                	test   %eax,%eax
4000e799:	74 0b                	je     4000e7a6 <_fwrite+0xd9>
4000e79b:	8b 45 10             	mov    0x10(%ebp),%eax
4000e79e:	89 04 24             	mov    %eax,(%esp)
4000e7a1:	e8 d5 fd ff ff       	call   4000e57b <fflush>
4000e7a6:	8b 45 0c             	mov    0xc(%ebp),%eax
4000e7a9:	89 45 ec             	mov    %eax,-0x14(%ebp)
4000e7ac:	eb 73                	jmp    4000e821 <_fwrite+0x154>
4000e7ae:	8b 45 10             	mov    0x10(%ebp),%eax
4000e7b1:	8b 10                	mov    (%eax),%edx
4000e7b3:	8b 45 0c             	mov    0xc(%ebp),%eax
4000e7b6:	89 44 24 08          	mov    %eax,0x8(%esp)
4000e7ba:	8b 45 08             	mov    0x8(%ebp),%eax
4000e7bd:	89 44 24 04          	mov    %eax,0x4(%esp)
4000e7c1:	89 14 24             	mov    %edx,(%esp)
4000e7c4:	e8 b5 4e ff ff       	call   4000367e <write>
4000e7c9:	89 45 fc             	mov    %eax,-0x4(%ebp)
4000e7cc:	83 7d fc 00          	cmpl   $0x0,-0x4(%ebp)
4000e7d0:	7e 23                	jle    4000e7f5 <_fwrite+0x128>
4000e7d2:	8b 45 10             	mov    0x10(%ebp),%eax
4000e7d5:	8b 40 14             	mov    0x14(%eax),%eax
4000e7d8:	89 c2                	mov    %eax,%edx
4000e7da:	8b 45 10             	mov    0x10(%ebp),%eax
4000e7dd:	8b 40 10             	mov    0x10(%eax),%eax
4000e7e0:	89 d1                	mov    %edx,%ecx
4000e7e2:	29 c1                	sub    %eax,%ecx
4000e7e4:	89 c8                	mov    %ecx,%eax
4000e7e6:	3b 45 fc             	cmp    -0x4(%ebp),%eax
4000e7e9:	7e 0a                	jle    4000e7f5 <_fwrite+0x128>
4000e7eb:	8b 45 10             	mov    0x10(%ebp),%eax
4000e7ee:	c7 40 0c 01 00 00 00 	movl   $0x1,0xc(%eax)
4000e7f5:	8b 45 fc             	mov    -0x4(%ebp),%eax
4000e7f8:	89 45 ec             	mov    %eax,-0x14(%ebp)
4000e7fb:	eb 24                	jmp    4000e821 <_fwrite+0x154>
4000e7fd:	8b 45 10             	mov    0x10(%ebp),%eax
4000e800:	c7 40 0c 01 00 00 00 	movl   $0x1,0xc(%eax)
4000e807:	c7 45 ec 00 00 00 00 	movl   $0x0,-0x14(%ebp)
4000e80e:	eb 11                	jmp    4000e821 <_fwrite+0x154>
4000e810:	c7 05 44 29 01 40 08 	movl   $0x8,0x40012944
4000e817:	00 00 00 
4000e81a:	c7 45 ec ff ff ff ff 	movl   $0xffffffff,-0x14(%ebp)
4000e821:	8b 45 ec             	mov    -0x14(%ebp),%eax
4000e824:	c9                   	leave  
4000e825:	c3                   	ret    

4000e826 <fgets>:
4000e826:	55                   	push   %ebp
4000e827:	89 e5                	mov    %esp,%ebp
4000e829:	83 ec 18             	sub    $0x18,%esp
4000e82c:	83 7d 10 00          	cmpl   $0x0,0x10(%ebp)
4000e830:	0f 84 8f 00 00 00    	je     4000e8c5 <fgets+0x9f>
4000e836:	8b 45 10             	mov    0x10(%ebp),%eax
4000e839:	8b 00                	mov    (%eax),%eax
4000e83b:	85 c0                	test   %eax,%eax
4000e83d:	0f 88 82 00 00 00    	js     4000e8c5 <fgets+0x9f>
4000e843:	c7 45 f8 00 00 00 00 	movl   $0x0,-0x8(%ebp)
4000e84a:	eb 5d                	jmp    4000e8a9 <fgets+0x83>
4000e84c:	8b 45 10             	mov    0x10(%ebp),%eax
4000e84f:	89 04 24             	mov    %eax,(%esp)
4000e852:	e8 84 00 00 00       	call   4000e8db <fgetc>
4000e857:	89 45 fc             	mov    %eax,-0x4(%ebp)
4000e85a:	83 7d fc ff          	cmpl   $0xffffffff,-0x4(%ebp)
4000e85e:	74 54                	je     4000e8b4 <fgets+0x8e>
4000e860:	8b 45 f8             	mov    -0x8(%ebp),%eax
4000e863:	89 c2                	mov    %eax,%edx
4000e865:	03 55 08             	add    0x8(%ebp),%edx
4000e868:	8b 45 fc             	mov    -0x4(%ebp),%eax
4000e86b:	88 02                	mov    %al,(%edx)
4000e86d:	a1 44 29 01 40       	mov    0x40012944,%eax
4000e872:	85 c0                	test   %eax,%eax
4000e874:	7e 15                	jle    4000e88b <fgets+0x65>
4000e876:	8b 15 44 29 01 40    	mov    0x40012944,%edx
4000e87c:	8b 45 10             	mov    0x10(%ebp),%eax
4000e87f:	89 50 04             	mov    %edx,0x4(%eax)
4000e882:	c7 45 ec 00 00 00 00 	movl   $0x0,-0x14(%ebp)
4000e889:	eb 4b                	jmp    4000e8d6 <fgets+0xb0>
4000e88b:	8b 45 f8             	mov    -0x8(%ebp),%eax
4000e88e:	03 45 08             	add    0x8(%ebp),%eax
4000e891:	0f b6 00             	movzbl (%eax),%eax
4000e894:	84 c0                	test   %al,%al
4000e896:	74 1c                	je     4000e8b4 <fgets+0x8e>
4000e898:	8b 45 f8             	mov    -0x8(%ebp),%eax
4000e89b:	03 45 08             	add    0x8(%ebp),%eax
4000e89e:	0f b6 00             	movzbl (%eax),%eax
4000e8a1:	3c 0a                	cmp    $0xa,%al
4000e8a3:	74 0f                	je     4000e8b4 <fgets+0x8e>
4000e8a5:	83 45 f8 01          	addl   $0x1,-0x8(%ebp)
4000e8a9:	8b 45 0c             	mov    0xc(%ebp),%eax
4000e8ac:	83 e8 01             	sub    $0x1,%eax
4000e8af:	3b 45 f8             	cmp    -0x8(%ebp),%eax
4000e8b2:	7f 98                	jg     4000e84c <fgets+0x26>
4000e8b4:	8b 45 f8             	mov    -0x8(%ebp),%eax
4000e8b7:	03 45 08             	add    0x8(%ebp),%eax
4000e8ba:	c6 00 00             	movb   $0x0,(%eax)
4000e8bd:	8b 45 08             	mov    0x8(%ebp),%eax
4000e8c0:	89 45 ec             	mov    %eax,-0x14(%ebp)
4000e8c3:	eb 11                	jmp    4000e8d6 <fgets+0xb0>
4000e8c5:	c7 05 44 29 01 40 08 	movl   $0x8,0x40012944
4000e8cc:	00 00 00 
4000e8cf:	c7 45 ec 00 00 00 00 	movl   $0x0,-0x14(%ebp)
4000e8d6:	8b 45 ec             	mov    -0x14(%ebp),%eax
4000e8d9:	c9                   	leave  
4000e8da:	c3                   	ret    

4000e8db <fgetc>:
4000e8db:	55                   	push   %ebp
4000e8dc:	89 e5                	mov    %esp,%ebp
4000e8de:	83 ec 28             	sub    $0x28,%esp
4000e8e1:	c6 45 ff ff          	movb   $0xff,-0x1(%ebp)
4000e8e5:	8b 45 08             	mov    0x8(%ebp),%eax
4000e8e8:	89 44 24 08          	mov    %eax,0x8(%esp)
4000e8ec:	c7 44 24 04 01 00 00 	movl   $0x1,0x4(%esp)
4000e8f3:	00 
4000e8f4:	8d 45 ff             	lea    -0x1(%ebp),%eax
4000e8f7:	89 04 24             	mov    %eax,(%esp)
4000e8fa:	e8 1b 00 00 00       	call   4000e91a <_fread>
4000e8ff:	0f b6 45 ff          	movzbl -0x1(%ebp),%eax
4000e903:	3c ff                	cmp    $0xff,%al
4000e905:	75 0a                	jne    4000e911 <fgetc+0x36>
4000e907:	8b 45 08             	mov    0x8(%ebp),%eax
4000e90a:	c7 40 0c 01 00 00 00 	movl   $0x1,0xc(%eax)
4000e911:	0f b6 45 ff          	movzbl -0x1(%ebp),%eax
4000e915:	0f be c0             	movsbl %al,%eax
4000e918:	c9                   	leave  
4000e919:	c3                   	ret    

4000e91a <_fread>:
4000e91a:	55                   	push   %ebp
4000e91b:	89 e5                	mov    %esp,%ebp
4000e91d:	83 ec 28             	sub    $0x28,%esp
4000e920:	83 7d 10 00          	cmpl   $0x0,0x10(%ebp)
4000e924:	74 50                	je     4000e976 <_fread+0x5c>
4000e926:	8b 45 10             	mov    0x10(%ebp),%eax
4000e929:	8b 00                	mov    (%eax),%eax
4000e92b:	85 c0                	test   %eax,%eax
4000e92d:	78 47                	js     4000e976 <_fread+0x5c>
4000e92f:	8b 45 10             	mov    0x10(%ebp),%eax
4000e932:	8b 10                	mov    (%eax),%edx
4000e934:	8b 45 0c             	mov    0xc(%ebp),%eax
4000e937:	89 44 24 08          	mov    %eax,0x8(%esp)
4000e93b:	8b 45 08             	mov    0x8(%ebp),%eax
4000e93e:	89 44 24 04          	mov    %eax,0x4(%esp)
4000e942:	89 14 24             	mov    %edx,(%esp)
4000e945:	e8 ba 4b ff ff       	call   40003504 <read>
4000e94a:	89 45 fc             	mov    %eax,-0x4(%ebp)
4000e94d:	83 7d fc 00          	cmpl   $0x0,-0x4(%ebp)
4000e951:	7e 1a                	jle    4000e96d <_fread+0x53>
4000e953:	8b 45 fc             	mov    -0x4(%ebp),%eax
4000e956:	3b 45 0c             	cmp    0xc(%ebp),%eax
4000e959:	73 0a                	jae    4000e965 <_fread+0x4b>
4000e95b:	8b 45 10             	mov    0x10(%ebp),%eax
4000e95e:	c7 40 0c 01 00 00 00 	movl   $0x1,0xc(%eax)
4000e965:	8b 45 fc             	mov    -0x4(%ebp),%eax
4000e968:	89 45 ec             	mov    %eax,-0x14(%ebp)
4000e96b:	eb 1a                	jmp    4000e987 <_fread+0x6d>
4000e96d:	c7 45 ec ff ff ff ff 	movl   $0xffffffff,-0x14(%ebp)
4000e974:	eb 11                	jmp    4000e987 <_fread+0x6d>
4000e976:	c7 05 44 29 01 40 08 	movl   $0x8,0x40012944
4000e97d:	00 00 00 
4000e980:	c7 45 ec ff ff ff ff 	movl   $0xffffffff,-0x14(%ebp)
4000e987:	8b 45 ec             	mov    -0x14(%ebp),%eax
4000e98a:	c9                   	leave  
4000e98b:	c3                   	ret    

4000e98c <fgetpos>:
4000e98c:	55                   	push   %ebp
4000e98d:	89 e5                	mov    %esp,%ebp
4000e98f:	83 ec 08             	sub    $0x8,%esp
4000e992:	83 7d 08 00          	cmpl   $0x0,0x8(%ebp)
4000e996:	74 24                	je     4000e9bc <fgetpos+0x30>
4000e998:	8b 45 08             	mov    0x8(%ebp),%eax
4000e99b:	8b 00                	mov    (%eax),%eax
4000e99d:	85 c0                	test   %eax,%eax
4000e99f:	78 1b                	js     4000e9bc <fgetpos+0x30>
4000e9a1:	8b 45 08             	mov    0x8(%ebp),%eax
4000e9a4:	89 04 24             	mov    %eax,(%esp)
4000e9a7:	e8 26 00 00 00       	call   4000e9d2 <ftello>
4000e9ac:	89 c2                	mov    %eax,%edx
4000e9ae:	8b 45 0c             	mov    0xc(%ebp),%eax
4000e9b1:	89 10                	mov    %edx,(%eax)
4000e9b3:	c7 45 fc 00 00 00 00 	movl   $0x0,-0x4(%ebp)
4000e9ba:	eb 11                	jmp    4000e9cd <fgetpos+0x41>
4000e9bc:	c7 05 44 29 01 40 08 	movl   $0x8,0x40012944
4000e9c3:	00 00 00 
4000e9c6:	c7 45 fc ff ff ff ff 	movl   $0xffffffff,-0x4(%ebp)
4000e9cd:	8b 45 fc             	mov    -0x4(%ebp),%eax
4000e9d0:	c9                   	leave  
4000e9d1:	c3                   	ret    

4000e9d2 <ftello>:
4000e9d2:	55                   	push   %ebp
4000e9d3:	89 e5                	mov    %esp,%ebp
4000e9d5:	83 ec 18             	sub    $0x18,%esp
4000e9d8:	8b 45 08             	mov    0x8(%ebp),%eax
4000e9db:	8b 00                	mov    (%eax),%eax
4000e9dd:	c7 44 24 08 01 00 00 	movl   $0x1,0x8(%esp)
4000e9e4:	00 
4000e9e5:	c7 44 24 04 00 00 00 	movl   $0x0,0x4(%esp)
4000e9ec:	00 
4000e9ed:	89 04 24             	mov    %eax,(%esp)
4000e9f0:	e8 7b 4d ff ff       	call   40003770 <lseek>
4000e9f5:	c9                   	leave  
4000e9f6:	c3                   	ret    

4000e9f7 <fsetpos>:
4000e9f7:	55                   	push   %ebp
4000e9f8:	89 e5                	mov    %esp,%ebp
4000e9fa:	83 ec 18             	sub    $0x18,%esp
4000e9fd:	83 7d 08 00          	cmpl   $0x0,0x8(%ebp)
4000ea01:	74 2e                	je     4000ea31 <fsetpos+0x3a>
4000ea03:	8b 45 08             	mov    0x8(%ebp),%eax
4000ea06:	8b 00                	mov    (%eax),%eax
4000ea08:	85 c0                	test   %eax,%eax
4000ea0a:	78 25                	js     4000ea31 <fsetpos+0x3a>
4000ea0c:	8b 45 0c             	mov    0xc(%ebp),%eax
4000ea0f:	8b 00                	mov    (%eax),%eax
4000ea11:	c7 44 24 08 00 00 00 	movl   $0x0,0x8(%esp)
4000ea18:	00 
4000ea19:	89 44 24 04          	mov    %eax,0x4(%esp)
4000ea1d:	8b 45 08             	mov    0x8(%ebp),%eax
4000ea20:	89 04 24             	mov    %eax,(%esp)
4000ea23:	e8 1f 00 00 00       	call   4000ea47 <fseeko>
4000ea28:	c7 45 fc 00 00 00 00 	movl   $0x0,-0x4(%ebp)
4000ea2f:	eb 11                	jmp    4000ea42 <fsetpos+0x4b>
4000ea31:	c7 05 44 29 01 40 08 	movl   $0x8,0x40012944
4000ea38:	00 00 00 
4000ea3b:	c7 45 fc ff ff ff ff 	movl   $0xffffffff,-0x4(%ebp)
4000ea42:	8b 45 fc             	mov    -0x4(%ebp),%eax
4000ea45:	c9                   	leave  
4000ea46:	c3                   	ret    

4000ea47 <fseeko>:
4000ea47:	55                   	push   %ebp
4000ea48:	89 e5                	mov    %esp,%ebp
4000ea4a:	83 ec 18             	sub    $0x18,%esp
4000ea4d:	8b 45 08             	mov    0x8(%ebp),%eax
4000ea50:	89 04 24             	mov    %eax,(%esp)
4000ea53:	e8 23 fb ff ff       	call   4000e57b <fflush>
4000ea58:	8b 45 08             	mov    0x8(%ebp),%eax
4000ea5b:	8b 10                	mov    (%eax),%edx
4000ea5d:	8b 45 10             	mov    0x10(%ebp),%eax
4000ea60:	89 44 24 08          	mov    %eax,0x8(%esp)
4000ea64:	8b 45 0c             	mov    0xc(%ebp),%eax
4000ea67:	89 44 24 04          	mov    %eax,0x4(%esp)
4000ea6b:	89 14 24             	mov    %edx,(%esp)
4000ea6e:	e8 fd 4c ff ff       	call   40003770 <lseek>
4000ea73:	3b 45 0c             	cmp    0xc(%ebp),%eax
4000ea76:	75 09                	jne    4000ea81 <fseeko+0x3a>
4000ea78:	c7 45 fc 00 00 00 00 	movl   $0x0,-0x4(%ebp)
4000ea7f:	eb 07                	jmp    4000ea88 <fseeko+0x41>
4000ea81:	c7 45 fc ff ff ff ff 	movl   $0xffffffff,-0x4(%ebp)
4000ea88:	8b 45 fc             	mov    -0x4(%ebp),%eax
4000ea8b:	c9                   	leave  
4000ea8c:	c3                   	ret    

4000ea8d <freopen>:
4000ea8d:	55                   	push   %ebp
4000ea8e:	89 e5                	mov    %esp,%ebp
4000ea90:	83 ec 18             	sub    $0x18,%esp
4000ea93:	83 7d 10 00          	cmpl   $0x0,0x10(%ebp)
4000ea97:	74 6c                	je     4000eb05 <freopen+0x78>
4000ea99:	8b 45 10             	mov    0x10(%ebp),%eax
4000ea9c:	8b 00                	mov    (%eax),%eax
4000ea9e:	85 c0                	test   %eax,%eax
4000eaa0:	78 63                	js     4000eb05 <freopen+0x78>
4000eaa2:	8b 45 10             	mov    0x10(%ebp),%eax
4000eaa5:	89 04 24             	mov    %eax,(%esp)
4000eaa8:	e8 ce fa ff ff       	call   4000e57b <fflush>
4000eaad:	8b 45 10             	mov    0x10(%ebp),%eax
4000eab0:	8b 00                	mov    (%eax),%eax
4000eab2:	89 04 24             	mov    %eax,(%esp)
4000eab5:	e8 0f 47 ff ff       	call   400031c9 <close>
4000eaba:	8b 45 0c             	mov    0xc(%ebp),%eax
4000eabd:	89 04 24             	mov    %eax,(%esp)
4000eac0:	e8 4d f8 ff ff       	call   4000e312 <oflag_str2num>
4000eac5:	89 c2                	mov    %eax,%edx
4000eac7:	8b 45 10             	mov    0x10(%ebp),%eax
4000eaca:	89 50 08             	mov    %edx,0x8(%eax)
4000eacd:	8b 45 10             	mov    0x10(%ebp),%eax
4000ead0:	c7 40 0c 00 00 00 00 	movl   $0x0,0xc(%eax)
4000ead7:	8b 45 10             	mov    0x10(%ebp),%eax
4000eada:	c7 40 04 00 00 00 00 	movl   $0x0,0x4(%eax)
4000eae1:	8b 45 10             	mov    0x10(%ebp),%eax
4000eae4:	8b 40 08             	mov    0x8(%eax),%eax
4000eae7:	89 44 24 04          	mov    %eax,0x4(%esp)
4000eaeb:	8b 45 08             	mov    0x8(%ebp),%eax
4000eaee:	89 04 24             	mov    %eax,(%esp)
4000eaf1:	e8 2c 44 ff ff       	call   40002f22 <open>
4000eaf6:	89 c2                	mov    %eax,%edx
4000eaf8:	8b 45 10             	mov    0x10(%ebp),%eax
4000eafb:	89 10                	mov    %edx,(%eax)
4000eafd:	8b 45 10             	mov    0x10(%ebp),%eax
4000eb00:	89 45 fc             	mov    %eax,-0x4(%ebp)
4000eb03:	eb 11                	jmp    4000eb16 <freopen+0x89>
4000eb05:	c7 05 44 29 01 40 08 	movl   $0x8,0x40012944
4000eb0c:	00 00 00 
4000eb0f:	c7 45 fc 00 00 00 00 	movl   $0x0,-0x4(%ebp)
4000eb16:	8b 45 fc             	mov    -0x4(%ebp),%eax
4000eb19:	c9                   	leave  
4000eb1a:	c3                   	ret    

4000eb1b <fscanf>:
4000eb1b:	55                   	push   %ebp
4000eb1c:	89 e5                	mov    %esp,%ebp
4000eb1e:	b8 00 00 00 00       	mov    $0x0,%eax
4000eb23:	5d                   	pop    %ebp
4000eb24:	c3                   	ret    

4000eb25 <ungetc>:
4000eb25:	55                   	push   %ebp
4000eb26:	89 e5                	mov    %esp,%ebp
4000eb28:	b8 00 00 00 00       	mov    $0x0,%eax
4000eb2d:	5d                   	pop    %ebp
4000eb2e:	c3                   	ret    
4000eb2f:	90                   	nop    

4000eb30 <dyn_call>:
4000eb30:	55                   	push   %ebp
4000eb31:	53                   	push   %ebx
4000eb32:	89 e5                	mov    %esp,%ebp
4000eb34:	8b 45 0c             	mov    0xc(%ebp),%eax
4000eb37:	8b 5d 10             	mov    0x10(%ebp),%ebx
4000eb3a:	8b 55 14             	mov    0x14(%ebp),%edx
4000eb3d:	50                   	push   %eax
4000eb3e:	52                   	push   %edx
4000eb3f:	b8 04 00 00 00       	mov    $0x4,%eax
4000eb44:	f7 e2                	mul    %edx
4000eb46:	01 c3                	add    %eax,%ebx
4000eb48:	5a                   	pop    %edx
4000eb49:	58                   	pop    %eax
4000eb4a:	09 d2                	or     %edx,%edx
4000eb4c:	74 0c                	je     4000eb5a <dyn_call.lpe>
4000eb4e:	89 d1                	mov    %edx,%ecx

4000eb50 <dyn_call.lpb>:
4000eb50:	81 eb 04 00 00 00    	sub    $0x4,%ebx
4000eb56:	ff 33                	pushl  (%ebx)
4000eb58:	e2 f6                	loop   4000eb50 <dyn_call.lpb>

4000eb5a <dyn_call.lpe>:
4000eb5a:	ff d0                	call   *%eax
4000eb5c:	89 ec                	mov    %ebp,%esp
4000eb5e:	5b                   	pop    %ebx
4000eb5f:	5d                   	pop    %ebp
4000eb60:	c3                   	ret    
4000eb61:	90                   	nop    
4000eb62:	90                   	nop    
4000eb63:	90                   	nop    

4000eb64 <pack_create>:
4000eb64:	55                   	push   %ebp
4000eb65:	89 e5                	mov    %esp,%ebp
4000eb67:	83 ec 18             	sub    $0x18,%esp
4000eb6a:	c7 04 24 08 00 00 00 	movl   $0x8,(%esp)
4000eb71:	e8 da 90 ff ff       	call   40007c50 <malloc>
4000eb76:	89 45 fc             	mov    %eax,-0x4(%ebp)
4000eb79:	8b 55 fc             	mov    -0x4(%ebp),%edx
4000eb7c:	8b 45 08             	mov    0x8(%ebp),%eax
4000eb7f:	89 42 04             	mov    %eax,0x4(%edx)
4000eb82:	8b 55 fc             	mov    -0x4(%ebp),%edx
4000eb85:	8b 45 08             	mov    0x8(%ebp),%eax
4000eb88:	89 02                	mov    %eax,(%edx)
4000eb8a:	8b 45 fc             	mov    -0x4(%ebp),%eax
4000eb8d:	c9                   	leave  
4000eb8e:	c3                   	ret    

4000eb8f <packstr>:
4000eb8f:	55                   	push   %ebp
4000eb90:	89 e5                	mov    %esp,%ebp
4000eb92:	53                   	push   %ebx
4000eb93:	83 ec 14             	sub    $0x14,%esp
4000eb96:	8b 45 08             	mov    0x8(%ebp),%eax
4000eb99:	8b 00                	mov    (%eax),%eax
4000eb9b:	89 c2                	mov    %eax,%edx
4000eb9d:	8b 45 0c             	mov    0xc(%ebp),%eax
4000eba0:	89 44 24 04          	mov    %eax,0x4(%esp)
4000eba4:	89 14 24             	mov    %edx,(%esp)
4000eba7:	e8 a1 c7 ff ff       	call   4000b34d <strcpy>
4000ebac:	8b 45 08             	mov    0x8(%ebp),%eax
4000ebaf:	8b 18                	mov    (%eax),%ebx
4000ebb1:	8b 45 0c             	mov    0xc(%ebp),%eax
4000ebb4:	89 04 24             	mov    %eax,(%esp)
4000ebb7:	e8 24 c8 ff ff       	call   4000b3e0 <strlen>
4000ebbc:	83 c0 01             	add    $0x1,%eax
4000ebbf:	8d 14 03             	lea    (%ebx,%eax,1),%edx
4000ebc2:	8b 45 08             	mov    0x8(%ebp),%eax
4000ebc5:	89 10                	mov    %edx,(%eax)
4000ebc7:	83 c4 14             	add    $0x14,%esp
4000ebca:	5b                   	pop    %ebx
4000ebcb:	5d                   	pop    %ebp
4000ebcc:	c3                   	ret    

4000ebcd <packnstr>:
4000ebcd:	55                   	push   %ebp
4000ebce:	89 e5                	mov    %esp,%ebp
4000ebd0:	53                   	push   %ebx
4000ebd1:	83 ec 14             	sub    $0x14,%esp
4000ebd4:	8b 45 08             	mov    0x8(%ebp),%eax
4000ebd7:	8b 00                	mov    (%eax),%eax
4000ebd9:	89 c2                	mov    %eax,%edx
4000ebdb:	8b 45 10             	mov    0x10(%ebp),%eax
4000ebde:	89 44 24 08          	mov    %eax,0x8(%esp)
4000ebe2:	8b 45 0c             	mov    0xc(%ebp),%eax
4000ebe5:	89 44 24 04          	mov    %eax,0x4(%esp)
4000ebe9:	89 14 24             	mov    %edx,(%esp)
4000ebec:	e8 2f c9 ff ff       	call   4000b520 <strncpy>
4000ebf1:	8b 45 08             	mov    0x8(%ebp),%eax
4000ebf4:	8b 18                	mov    (%eax),%ebx
4000ebf6:	8b 45 08             	mov    0x8(%ebp),%eax
4000ebf9:	8b 00                	mov    (%eax),%eax
4000ebfb:	89 04 24             	mov    %eax,(%esp)
4000ebfe:	e8 dd c7 ff ff       	call   4000b3e0 <strlen>
4000ec03:	83 c0 01             	add    $0x1,%eax
4000ec06:	8d 14 03             	lea    (%ebx,%eax,1),%edx
4000ec09:	8b 45 08             	mov    0x8(%ebp),%eax
4000ec0c:	89 10                	mov    %edx,(%eax)
4000ec0e:	83 c4 14             	add    $0x14,%esp
4000ec11:	5b                   	pop    %ebx
4000ec12:	5d                   	pop    %ebp
4000ec13:	c3                   	ret    

4000ec14 <packdata>:
4000ec14:	55                   	push   %ebp
4000ec15:	89 e5                	mov    %esp,%ebp
4000ec17:	83 ec 18             	sub    $0x18,%esp
4000ec1a:	8b 45 08             	mov    0x8(%ebp),%eax
4000ec1d:	8b 00                	mov    (%eax),%eax
4000ec1f:	89 c2                	mov    %eax,%edx
4000ec21:	8b 45 10             	mov    0x10(%ebp),%eax
4000ec24:	89 02                	mov    %eax,(%edx)
4000ec26:	8b 45 08             	mov    0x8(%ebp),%eax
4000ec29:	8b 00                	mov    (%eax),%eax
4000ec2b:	8d 50 04             	lea    0x4(%eax),%edx
4000ec2e:	8b 45 08             	mov    0x8(%ebp),%eax
4000ec31:	89 10                	mov    %edx,(%eax)
4000ec33:	8b 45 08             	mov    0x8(%ebp),%eax
4000ec36:	8b 10                	mov    (%eax),%edx
4000ec38:	8b 45 10             	mov    0x10(%ebp),%eax
4000ec3b:	89 44 24 08          	mov    %eax,0x8(%esp)
4000ec3f:	8b 45 0c             	mov    0xc(%ebp),%eax
4000ec42:	89 44 24 04          	mov    %eax,0x4(%esp)
4000ec46:	89 14 24             	mov    %edx,(%esp)
4000ec49:	e8 da c3 ff ff       	call   4000b028 <memcpy>
4000ec4e:	8b 45 08             	mov    0x8(%ebp),%eax
4000ec51:	8b 00                	mov    (%eax),%eax
4000ec53:	89 c2                	mov    %eax,%edx
4000ec55:	03 55 10             	add    0x10(%ebp),%edx
4000ec58:	8b 45 08             	mov    0x8(%ebp),%eax
4000ec5b:	89 10                	mov    %edx,(%eax)
4000ec5d:	c9                   	leave  
4000ec5e:	c3                   	ret    

4000ec5f <unpackstr>:
4000ec5f:	55                   	push   %ebp
4000ec60:	89 e5                	mov    %esp,%ebp
4000ec62:	53                   	push   %ebx
4000ec63:	83 ec 04             	sub    $0x4,%esp
4000ec66:	8b 45 08             	mov    0x8(%ebp),%eax
4000ec69:	8b 00                	mov    (%eax),%eax
4000ec6b:	89 c2                	mov    %eax,%edx
4000ec6d:	8b 45 0c             	mov    0xc(%ebp),%eax
4000ec70:	89 10                	mov    %edx,(%eax)
4000ec72:	8b 45 08             	mov    0x8(%ebp),%eax
4000ec75:	8b 18                	mov    (%eax),%ebx
4000ec77:	8b 45 08             	mov    0x8(%ebp),%eax
4000ec7a:	8b 00                	mov    (%eax),%eax
4000ec7c:	89 04 24             	mov    %eax,(%esp)
4000ec7f:	e8 5c c7 ff ff       	call   4000b3e0 <strlen>
4000ec84:	83 c0 01             	add    $0x1,%eax
4000ec87:	8d 14 03             	lea    (%ebx,%eax,1),%edx
4000ec8a:	8b 45 08             	mov    0x8(%ebp),%eax
4000ec8d:	89 10                	mov    %edx,(%eax)
4000ec8f:	83 c4 04             	add    $0x4,%esp
4000ec92:	5b                   	pop    %ebx
4000ec93:	5d                   	pop    %ebp
4000ec94:	c3                   	ret    

4000ec95 <unpackdata>:
4000ec95:	55                   	push   %ebp
4000ec96:	89 e5                	mov    %esp,%ebp
4000ec98:	83 ec 28             	sub    $0x28,%esp
4000ec9b:	8b 45 08             	mov    0x8(%ebp),%eax
4000ec9e:	8b 00                	mov    (%eax),%eax
4000eca0:	8b 00                	mov    (%eax),%eax
4000eca2:	89 45 fc             	mov    %eax,-0x4(%ebp)
4000eca5:	8b 45 08             	mov    0x8(%ebp),%eax
4000eca8:	8b 00                	mov    (%eax),%eax
4000ecaa:	8d 50 04             	lea    0x4(%eax),%edx
4000ecad:	8b 45 08             	mov    0x8(%ebp),%eax
4000ecb0:	89 10                	mov    %edx,(%eax)
4000ecb2:	8b 55 fc             	mov    -0x4(%ebp),%edx
4000ecb5:	8b 45 08             	mov    0x8(%ebp),%eax
4000ecb8:	8b 00                	mov    (%eax),%eax
4000ecba:	89 54 24 08          	mov    %edx,0x8(%esp)
4000ecbe:	89 44 24 04          	mov    %eax,0x4(%esp)
4000ecc2:	8b 45 0c             	mov    0xc(%ebp),%eax
4000ecc5:	89 04 24             	mov    %eax,(%esp)
4000ecc8:	e8 5b c3 ff ff       	call   4000b028 <memcpy>
4000eccd:	8b 45 08             	mov    0x8(%ebp),%eax
4000ecd0:	8b 10                	mov    (%eax),%edx
4000ecd2:	8b 45 fc             	mov    -0x4(%ebp),%eax
4000ecd5:	01 c2                	add    %eax,%edx
4000ecd7:	8b 45 08             	mov    0x8(%ebp),%eax
4000ecda:	89 10                	mov    %edx,(%eax)
4000ecdc:	c9                   	leave  
4000ecdd:	c3                   	ret    
4000ecde:	90                   	nop    
4000ecdf:	90                   	nop    

4000ece0 <getname>:
4000ece0:	55                   	push   %ebp
4000ece1:	89 e5                	mov    %esp,%ebp
4000ece3:	83 ec 28             	sub    $0x28,%esp
4000ece6:	c7 44 24 10 00 00 00 	movl   $0x0,0x10(%esp)
4000eced:	00 
4000ecee:	c7 44 24 0c 00 00 00 	movl   $0x0,0xc(%esp)
4000ecf5:	00 
4000ecf6:	8b 45 08             	mov    0x8(%ebp),%eax
4000ecf9:	89 44 24 08          	mov    %eax,0x8(%esp)
4000ecfd:	c7 44 24 04 03 00 00 	movl   $0x3,0x4(%esp)
4000ed04:	00 
4000ed05:	c7 04 24 2f 00 00 00 	movl   $0x2f,(%esp)
4000ed0c:	e8 6f eb ff ff       	call   4000d880 <syscall_call>
4000ed11:	89 45 f8             	mov    %eax,-0x8(%ebp)
4000ed14:	8b 45 f8             	mov    -0x8(%ebp),%eax
4000ed17:	89 04 24             	mov    %eax,(%esp)
4000ed1a:	e8 31 8f ff ff       	call   40007c50 <malloc>
4000ed1f:	89 45 fc             	mov    %eax,-0x4(%ebp)
4000ed22:	8b 45 f8             	mov    -0x8(%ebp),%eax
4000ed25:	89 44 24 10          	mov    %eax,0x10(%esp)
4000ed29:	8b 45 fc             	mov    -0x4(%ebp),%eax
4000ed2c:	89 44 24 0c          	mov    %eax,0xc(%esp)
4000ed30:	8b 45 08             	mov    0x8(%ebp),%eax
4000ed33:	89 44 24 08          	mov    %eax,0x8(%esp)
4000ed37:	c7 44 24 04 03 00 00 	movl   $0x3,0x4(%esp)
4000ed3e:	00 
4000ed3f:	c7 04 24 2f 00 00 00 	movl   $0x2f,(%esp)
4000ed46:	e8 35 eb ff ff       	call   4000d880 <syscall_call>
4000ed4b:	8b 45 fc             	mov    -0x4(%ebp),%eax
4000ed4e:	c9                   	leave  
4000ed4f:	c3                   	ret    

4000ed50 <snprintf>:
4000ed50:	55                   	push   %ebp
4000ed51:	89 e5                	mov    %esp,%ebp
4000ed53:	83 ec 28             	sub    $0x28,%esp
4000ed56:	8d 45 14             	lea    0x14(%ebp),%eax
4000ed59:	89 45 f8             	mov    %eax,-0x8(%ebp)
4000ed5c:	8b 45 f8             	mov    -0x8(%ebp),%eax
4000ed5f:	89 44 24 0c          	mov    %eax,0xc(%esp)
4000ed63:	8b 45 10             	mov    0x10(%ebp),%eax
4000ed66:	89 44 24 08          	mov    %eax,0x8(%esp)
4000ed6a:	8b 45 0c             	mov    0xc(%ebp),%eax
4000ed6d:	89 44 24 04          	mov    %eax,0x4(%esp)
4000ed71:	8b 45 08             	mov    0x8(%ebp),%eax
4000ed74:	89 04 24             	mov    %eax,(%esp)
4000ed77:	e8 85 b1 ff ff       	call   40009f01 <vsnprintf>
4000ed7c:	89 45 fc             	mov    %eax,-0x4(%ebp)
4000ed7f:	8b 45 fc             	mov    -0x4(%ebp),%eax
4000ed82:	c9                   	leave  
4000ed83:	c3                   	ret    
4000ed84:	90                   	nop    
4000ed85:	90                   	nop    
4000ed86:	90                   	nop    
4000ed87:	90                   	nop    
4000ed88:	90                   	nop    
4000ed89:	90                   	nop    
4000ed8a:	90                   	nop    
4000ed8b:	90                   	nop    
4000ed8c:	90                   	nop    
4000ed8d:	90                   	nop    
4000ed8e:	90                   	nop    
4000ed8f:	90                   	nop    

4000ed90 <__udivdi3>:
#endif

#ifdef L_udivdi3
UDWtype
__udivdi3 (UDWtype n, UDWtype d)
{
4000ed90:	55                   	push   %ebp
4000ed91:	89 e5                	mov    %esp,%ebp
4000ed93:	57                   	push   %edi
4000ed94:	56                   	push   %esi
4000ed95:	83 ec 20             	sub    $0x20,%esp
4000ed98:	c7 45 e0 00 00 00 00 	movl   $0x0,-0x20(%ebp)
4000ed9f:	8b 45 10             	mov    0x10(%ebp),%eax
4000eda2:	8b 55 14             	mov    0x14(%ebp),%edx
  DWunion rr;
  UWtype d0, d1, n0, n1, n2;
  UWtype q0, q1;
  UWtype b, bm;

  d0 = dd.s.low;
4000eda5:	89 45 f4             	mov    %eax,-0xc(%ebp)
4000eda8:	89 c1                	mov    %eax,%ecx
  d1 = dd.s.high;
  n0 = nn.s.low;
4000edaa:	8b 45 08             	mov    0x8(%ebp),%eax
4000edad:	c7 45 e4 00 00 00 00 	movl   $0x0,-0x1c(%ebp)
  UWtype d0, d1, n0, n1, n2;
  UWtype q0, q1;
  UWtype b, bm;

  d0 = dd.s.low;
  d1 = dd.s.high;
4000edb4:	89 d7                	mov    %edx,%edi
  n0 = nn.s.low;
4000edb6:	89 45 ec             	mov    %eax,-0x14(%ebp)
  n1 = nn.s.high;
4000edb9:	8b 75 0c             	mov    0xc(%ebp),%esi

#if !UDIV_NEEDS_NORMALIZATION
  if (d1 == 0)
4000edbc:	85 d2                	test   %edx,%edx
4000edbe:	75 30                	jne    4000edf0 <__udivdi3+0x60>
    {
      if (d0 > n1)
4000edc0:	39 f1                	cmp    %esi,%ecx
4000edc2:	0f 86 a8 00 00 00    	jbe    4000ee70 <__udivdi3+0xe0>
	{
	  /* 0q = nn / 0D */

	  udiv_qrnnd (q0, n0, n1, n0, d0);
4000edc8:	89 f2                	mov    %esi,%edx
4000edca:	f7 f1                	div    %ecx
4000edcc:	89 c1                	mov    %eax,%ecx
4000edce:	31 c0                	xor    %eax,%eax
		}
	    }
	}
    }

  const DWunion ww = {{.low = q0, .high = q1}};
4000edd0:	89 4d e0             	mov    %ecx,-0x20(%ebp)
4000edd3:	89 45 e4             	mov    %eax,-0x1c(%ebp)
#ifdef L_udivdi3
UDWtype
__udivdi3 (UDWtype n, UDWtype d)
{
  return __udivmoddi4 (n, d, (UDWtype *) 0);
}
4000edd6:	8b 45 e0             	mov    -0x20(%ebp),%eax
4000edd9:	8b 55 e4             	mov    -0x1c(%ebp),%edx
4000eddc:	83 c4 20             	add    $0x20,%esp
4000eddf:	5e                   	pop    %esi
4000ede0:	5f                   	pop    %edi
4000ede1:	5d                   	pop    %ebp
4000ede2:	c3                   	ret    
4000ede3:	8d b6 00 00 00 00    	lea    0x0(%esi),%esi
4000ede9:	8d bc 27 00 00 00 00 	lea    0x0(%edi),%edi
    }
#endif /* UDIV_NEEDS_NORMALIZATION */

  else
    {
      if (d1 > n1)
4000edf0:	39 f2                	cmp    %esi,%edx
4000edf2:	0f 87 b8 00 00 00    	ja     4000eeb0 <__udivdi3+0x120>
	}
      else
	{
	  /* 0q = NN / dd */

	  count_leading_zeros (bm, d1);
4000edf8:	0f bd c2             	bsr    %edx,%eax
	  if (bm == 0)
4000edfb:	83 f0 1f             	xor    $0x1f,%eax
4000edfe:	89 45 e8             	mov    %eax,-0x18(%ebp)
4000ee01:	0f 84 99 00 00 00    	je     4000eea0 <__udivdi3+0x110>
	      UWtype m1, m0;
	      /* Normalize.  */

	      b = W_TYPE_SIZE - bm;

	      d1 = (d1 << bm) | (d0 >> b);
4000ee07:	8b 55 e8             	mov    -0x18(%ebp),%edx
4000ee0a:	b8 20 00 00 00       	mov    $0x20,%eax
4000ee0f:	29 d0                	sub    %edx,%eax
4000ee11:	8b 55 f4             	mov    -0xc(%ebp),%edx
4000ee14:	89 45 f0             	mov    %eax,-0x10(%ebp)
4000ee17:	89 f8                	mov    %edi,%eax
4000ee19:	8a 4d f0             	mov    -0x10(%ebp),%cl
	      d0 = d0 << bm;
4000ee1c:	8b 7d f4             	mov    -0xc(%ebp),%edi
	      UWtype m1, m0;
	      /* Normalize.  */

	      b = W_TYPE_SIZE - bm;

	      d1 = (d1 << bm) | (d0 >> b);
4000ee1f:	d3 ea                	shr    %cl,%edx
4000ee21:	8a 4d e8             	mov    -0x18(%ebp),%cl
4000ee24:	d3 e0                	shl    %cl,%eax
4000ee26:	09 c2                	or     %eax,%edx
	      d0 = d0 << bm;
	      n2 = n1 >> b;
	      n1 = (n1 << bm) | (n0 >> b);
4000ee28:	8b 45 ec             	mov    -0x14(%ebp),%eax
	      /* Normalize.  */

	      b = W_TYPE_SIZE - bm;

	      d1 = (d1 << bm) | (d0 >> b);
	      d0 = d0 << bm;
4000ee2b:	d3 e7                	shl    %cl,%edi
	      n2 = n1 >> b;
	      n1 = (n1 << bm) | (n0 >> b);
4000ee2d:	8a 4d f0             	mov    -0x10(%ebp),%cl
	      UWtype m1, m0;
	      /* Normalize.  */

	      b = W_TYPE_SIZE - bm;

	      d1 = (d1 << bm) | (d0 >> b);
4000ee30:	89 55 dc             	mov    %edx,-0x24(%ebp)
	      d0 = d0 << bm;
	      n2 = n1 >> b;
	      n1 = (n1 << bm) | (n0 >> b);
4000ee33:	d3 e8                	shr    %cl,%eax
4000ee35:	89 f2                	mov    %esi,%edx
4000ee37:	8a 4d e8             	mov    -0x18(%ebp),%cl
4000ee3a:	d3 e2                	shl    %cl,%edx
	      n0 = n0 << bm;

	      udiv_qrnnd (q0, n1, n2, n1, d1);
4000ee3c:	8a 4d f0             	mov    -0x10(%ebp),%cl
	      b = W_TYPE_SIZE - bm;

	      d1 = (d1 << bm) | (d0 >> b);
	      d0 = d0 << bm;
	      n2 = n1 >> b;
	      n1 = (n1 << bm) | (n0 >> b);
4000ee3f:	09 d0                	or     %edx,%eax
	      n0 = n0 << bm;

	      udiv_qrnnd (q0, n1, n2, n1, d1);
4000ee41:	d3 ee                	shr    %cl,%esi
4000ee43:	89 f2                	mov    %esi,%edx
4000ee45:	89 75 d8             	mov    %esi,-0x28(%ebp)
4000ee48:	f7 75 dc             	divl   -0x24(%ebp)
4000ee4b:	89 d1                	mov    %edx,%ecx
4000ee4d:	89 45 d8             	mov    %eax,-0x28(%ebp)
	      umul_ppmm (m1, m0, q0, d0);
4000ee50:	f7 e7                	mul    %edi
4000ee52:	89 c6                	mov    %eax,%esi

	      if (m1 > n1 || (m1 == n1 && m0 > n0))
4000ee54:	39 d1                	cmp    %edx,%ecx
4000ee56:	0f 82 7c 00 00 00    	jb     4000eed8 <__udivdi3+0x148>
4000ee5c:	39 ca                	cmp    %ecx,%edx
4000ee5e:	74 6c                	je     4000eecc <__udivdi3+0x13c>
4000ee60:	8b 4d d8             	mov    -0x28(%ebp),%ecx
4000ee63:	31 c0                	xor    %eax,%eax
4000ee65:	e9 66 ff ff ff       	jmp    4000edd0 <__udivdi3+0x40>
4000ee6a:	8d b6 00 00 00 00    	lea    0x0(%esi),%esi
	}
      else
	{
	  /* qq = NN / 0d */

	  if (d0 == 0)
4000ee70:	8b 45 f4             	mov    -0xc(%ebp),%eax
4000ee73:	85 c0                	test   %eax,%eax
4000ee75:	75 0c                	jne    4000ee83 <__udivdi3+0xf3>
	    d0 = 1 / d0;	/* Divide intentionally by zero.  */
4000ee77:	b8 01 00 00 00       	mov    $0x1,%eax
4000ee7c:	31 d2                	xor    %edx,%edx
4000ee7e:	f7 75 f4             	divl   -0xc(%ebp)
4000ee81:	89 c1                	mov    %eax,%ecx

	  udiv_qrnnd (q1, n1, 0, n1, d0);
4000ee83:	89 f0                	mov    %esi,%eax
4000ee85:	89 fa                	mov    %edi,%edx
4000ee87:	f7 f1                	div    %ecx
4000ee89:	89 c6                	mov    %eax,%esi
	  udiv_qrnnd (q0, n0, n1, n0, d0);
4000ee8b:	8b 45 ec             	mov    -0x14(%ebp),%eax
4000ee8e:	f7 f1                	div    %ecx
4000ee90:	89 c1                	mov    %eax,%ecx
4000ee92:	89 f0                	mov    %esi,%eax
4000ee94:	e9 37 ff ff ff       	jmp    4000edd0 <__udivdi3+0x40>
4000ee99:	8d b4 26 00 00 00 00 	lea    0x0(%esi),%esi

		 This special case is necessary, not an optimization.  */

	      /* The condition on the next line takes advantage of that
		 n1 >= d1 (true due to program flow).  */
	      if (n1 > d1 || n0 >= d0)
4000eea0:	39 d6                	cmp    %edx,%esi
4000eea2:	77 1c                	ja     4000eec0 <__udivdi3+0x130>
4000eea4:	8b 55 f4             	mov    -0xc(%ebp),%edx
4000eea7:	39 55 ec             	cmp    %edx,-0x14(%ebp)
4000eeaa:	73 14                	jae    4000eec0 <__udivdi3+0x130>
4000eeac:	8d 74 26 00          	lea    0x0(%esi),%esi
	      umul_ppmm (m1, m0, q0, d0);

	      if (m1 > n1 || (m1 == n1 && m0 > n0))
		{
		  q0--;
		  sub_ddmmss (m1, m0, m1, m0, d1, d0);
4000eeb0:	31 c9                	xor    %ecx,%ecx
4000eeb2:	31 c0                	xor    %eax,%eax
4000eeb4:	e9 17 ff ff ff       	jmp    4000edd0 <__udivdi3+0x40>
4000eeb9:	8d b4 26 00 00 00 00 	lea    0x0(%esi),%esi
	      /* The condition on the next line takes advantage of that
		 n1 >= d1 (true due to program flow).  */
	      if (n1 > d1 || n0 >= d0)
		{
		  q0 = 1;
		  sub_ddmmss (n1, n0, n1, n0, d1, d0);
4000eec0:	b9 01 00 00 00       	mov    $0x1,%ecx
4000eec5:	31 c0                	xor    %eax,%eax
4000eec7:	e9 04 ff ff ff       	jmp    4000edd0 <__udivdi3+0x40>
	      n0 = n0 << bm;

	      udiv_qrnnd (q0, n1, n2, n1, d1);
	      umul_ppmm (m1, m0, q0, d0);

	      if (m1 > n1 || (m1 == n1 && m0 > n0))
4000eecc:	8b 45 ec             	mov    -0x14(%ebp),%eax
4000eecf:	8a 4d e8             	mov    -0x18(%ebp),%cl
4000eed2:	d3 e0                	shl    %cl,%eax
4000eed4:	39 c6                	cmp    %eax,%esi
4000eed6:	76 88                	jbe    4000ee60 <__udivdi3+0xd0>
		{
		  q0--;
		  sub_ddmmss (m1, m0, m1, m0, d1, d0);
4000eed8:	8b 4d d8             	mov    -0x28(%ebp),%ecx
4000eedb:	31 c0                	xor    %eax,%eax
4000eedd:	49                   	dec    %ecx
4000eede:	e9 ed fe ff ff       	jmp    4000edd0 <__udivdi3+0x40>
4000eee3:	90                   	nop    
4000eee4:	90                   	nop    
4000eee5:	90                   	nop    
4000eee6:	90                   	nop    
4000eee7:	90                   	nop    
4000eee8:	90                   	nop    
4000eee9:	90                   	nop    
4000eeea:	90                   	nop    
4000eeeb:	90                   	nop    
4000eeec:	90                   	nop    
4000eeed:	90                   	nop    
4000eeee:	90                   	nop    
4000eeef:	90                   	nop    

4000eef0 <__umoddi3>:
#endif

#ifdef L_umoddi3
UDWtype
__umoddi3 (UDWtype u, UDWtype v)
{
4000eef0:	55                   	push   %ebp
4000eef1:	89 e5                	mov    %esp,%ebp
4000eef3:	57                   	push   %edi
4000eef4:	56                   	push   %esi
4000eef5:	83 ec 30             	sub    $0x30,%esp
4000eef8:	c7 45 d0 00 00 00 00 	movl   $0x0,-0x30(%ebp)
4000eeff:	8b 55 14             	mov    0x14(%ebp),%edx
4000ef02:	8b 45 10             	mov    0x10(%ebp),%eax
  UWtype d0, d1, n0, n1, n2;
  UWtype q0, q1;
  UWtype b, bm;

  d0 = dd.s.low;
  d1 = dd.s.high;
4000ef05:	89 55 e8             	mov    %edx,-0x18(%ebp)
#endif

#ifdef L_umoddi3
UDWtype
__umoddi3 (UDWtype u, UDWtype v)
{
4000ef08:	8b 75 08             	mov    0x8(%ebp),%esi
4000ef0b:	8b 7d 0c             	mov    0xc(%ebp),%edi
  DWunion rr;
  UWtype d0, d1, n0, n1, n2;
  UWtype q0, q1;
  UWtype b, bm;

  d0 = dd.s.low;
4000ef0e:	89 45 ec             	mov    %eax,-0x14(%ebp)
4000ef11:	89 c1                	mov    %eax,%ecx
  d1 = dd.s.high;
  n0 = nn.s.low;
  n1 = nn.s.high;

#if !UDIV_NEEDS_NORMALIZATION
  if (d1 == 0)
4000ef13:	8b 45 e8             	mov    -0x18(%ebp),%eax
4000ef16:	c7 45 d4 00 00 00 00 	movl   $0x0,-0x2c(%ebp)
  UWtype q0, q1;
  UWtype b, bm;

  d0 = dd.s.low;
  d1 = dd.s.high;
  n0 = nn.s.low;
4000ef1d:	89 75 e4             	mov    %esi,-0x1c(%ebp)
4000ef20:	89 75 f0             	mov    %esi,-0x10(%ebp)
  n1 = nn.s.high;
4000ef23:	89 7d e0             	mov    %edi,-0x20(%ebp)
4000ef26:	89 fa                	mov    %edi,%edx

#if !UDIV_NEEDS_NORMALIZATION
  if (d1 == 0)
4000ef28:	85 c0                	test   %eax,%eax
4000ef2a:	75 14                	jne    4000ef40 <__umoddi3+0x50>
    {
      if (d0 > n1)
4000ef2c:	39 f9                	cmp    %edi,%ecx
4000ef2e:	76 60                	jbe    4000ef90 <__umoddi3+0xa0>
	{
	  /* 0q = nn / 0D */

	  udiv_qrnnd (q0, n0, n1, n0, d0);
4000ef30:	89 f0                	mov    %esi,%eax
4000ef32:	f7 f1                	div    %ecx
	  /* Remainder in n0.  */
	}

      if (rp != 0)
	{
	  rr.s.low = n0;
4000ef34:	89 55 d0             	mov    %edx,-0x30(%ebp)
	  rr.s.high = 0;
4000ef37:	c7 45 d4 00 00 00 00 	movl   $0x0,-0x2c(%ebp)
4000ef3e:	eb 10                	jmp    4000ef50 <__umoddi3+0x60>
    }
#endif /* UDIV_NEEDS_NORMALIZATION */

  else
    {
      if (d1 > n1)
4000ef40:	8b 4d e0             	mov    -0x20(%ebp),%ecx
4000ef43:	39 4d e8             	cmp    %ecx,-0x18(%ebp)
4000ef46:	76 18                	jbe    4000ef60 <__umoddi3+0x70>
	  q1 = 0;

	  /* Remainder in n1n0.  */
	  if (rp != 0)
	    {
	      rr.s.low = n0;
4000ef48:	89 75 d0             	mov    %esi,-0x30(%ebp)
	      rr.s.high = n1;
4000ef4b:	89 7d d4             	mov    %edi,-0x2c(%ebp)
4000ef4e:	66 90                	xchg   %ax,%ax
  UDWtype w;

  (void) __udivmoddi4 (u, v, &w);

  return w;
}
4000ef50:	8b 45 d0             	mov    -0x30(%ebp),%eax
4000ef53:	8b 55 d4             	mov    -0x2c(%ebp),%edx
4000ef56:	83 c4 30             	add    $0x30,%esp
4000ef59:	5e                   	pop    %esi
4000ef5a:	5f                   	pop    %edi
4000ef5b:	5d                   	pop    %ebp
4000ef5c:	c3                   	ret    
4000ef5d:	8d 76 00             	lea    0x0(%esi),%esi
	}
      else
	{
	  /* 0q = NN / dd */

	  count_leading_zeros (bm, d1);
4000ef60:	0f bd 45 e8          	bsr    -0x18(%ebp),%eax
	  if (bm == 0)
4000ef64:	83 f0 1f             	xor    $0x1f,%eax
4000ef67:	89 45 d8             	mov    %eax,-0x28(%ebp)
4000ef6a:	75 54                	jne    4000efc0 <__umoddi3+0xd0>

		 This special case is necessary, not an optimization.  */

	      /* The condition on the next line takes advantage of that
		 n1 >= d1 (true due to program flow).  */
	      if (n1 > d1 || n0 >= d0)
4000ef6c:	8b 45 e8             	mov    -0x18(%ebp),%eax
4000ef6f:	39 45 e0             	cmp    %eax,-0x20(%ebp)
4000ef72:	0f 87 d6 00 00 00    	ja     4000f04e <__umoddi3+0x15e>
4000ef78:	8b 4d ec             	mov    -0x14(%ebp),%ecx
4000ef7b:	39 4d e4             	cmp    %ecx,-0x1c(%ebp)
4000ef7e:	0f 83 ca 00 00 00    	jae    4000f04e <__umoddi3+0x15e>

	      q1 = 0;

	      if (rp != 0)
		{
		  rr.s.low = n0;
4000ef84:	8b 4d f0             	mov    -0x10(%ebp),%ecx
		  rr.s.high = n1;
4000ef87:	89 55 d4             	mov    %edx,-0x2c(%ebp)

	      q1 = 0;

	      if (rp != 0)
		{
		  rr.s.low = n0;
4000ef8a:	89 4d d0             	mov    %ecx,-0x30(%ebp)
4000ef8d:	eb c1                	jmp    4000ef50 <__umoddi3+0x60>
4000ef8f:	90                   	nop    
	}
      else
	{
	  /* qq = NN / 0d */

	  if (d0 == 0)
4000ef90:	8b 75 ec             	mov    -0x14(%ebp),%esi
4000ef93:	85 f6                	test   %esi,%esi
4000ef95:	75 0c                	jne    4000efa3 <__umoddi3+0xb3>
	    d0 = 1 / d0;	/* Divide intentionally by zero.  */
4000ef97:	b8 01 00 00 00       	mov    $0x1,%eax
4000ef9c:	31 d2                	xor    %edx,%edx
4000ef9e:	f7 75 ec             	divl   -0x14(%ebp)
4000efa1:	89 c1                	mov    %eax,%ecx

	  udiv_qrnnd (q1, n1, 0, n1, d0);
4000efa3:	8b 45 e0             	mov    -0x20(%ebp),%eax
4000efa6:	8b 55 e8             	mov    -0x18(%ebp),%edx
4000efa9:	f7 f1                	div    %ecx
	  udiv_qrnnd (q0, n0, n1, n0, d0);
4000efab:	8b 45 e4             	mov    -0x1c(%ebp),%eax
4000efae:	f7 f1                	div    %ecx
4000efb0:	eb 82                	jmp    4000ef34 <__umoddi3+0x44>
4000efb2:	8d b4 26 00 00 00 00 	lea    0x0(%esi),%esi
4000efb9:	8d bc 27 00 00 00 00 	lea    0x0(%edi),%edi
	      UWtype m1, m0;
	      /* Normalize.  */

	      b = W_TYPE_SIZE - bm;

	      d1 = (d1 << bm) | (d0 >> b);
4000efc0:	8b 55 d8             	mov    -0x28(%ebp),%edx
4000efc3:	b8 20 00 00 00       	mov    $0x20,%eax
4000efc8:	29 d0                	sub    %edx,%eax
4000efca:	8b 55 ec             	mov    -0x14(%ebp),%edx
4000efcd:	89 45 dc             	mov    %eax,-0x24(%ebp)
4000efd0:	8b 45 e8             	mov    -0x18(%ebp),%eax
4000efd3:	8a 4d dc             	mov    -0x24(%ebp),%cl
	      d0 = d0 << bm;
4000efd6:	8b 75 ec             	mov    -0x14(%ebp),%esi
	      UWtype m1, m0;
	      /* Normalize.  */

	      b = W_TYPE_SIZE - bm;

	      d1 = (d1 << bm) | (d0 >> b);
4000efd9:	d3 ea                	shr    %cl,%edx
4000efdb:	8a 4d d8             	mov    -0x28(%ebp),%cl
	      d0 = d0 << bm;
	      n2 = n1 >> b;
	      n1 = (n1 << bm) | (n0 >> b);
	      n0 = n0 << bm;
4000efde:	8b 7d e4             	mov    -0x1c(%ebp),%edi
	      UWtype m1, m0;
	      /* Normalize.  */

	      b = W_TYPE_SIZE - bm;

	      d1 = (d1 << bm) | (d0 >> b);
4000efe1:	d3 e0                	shl    %cl,%eax
4000efe3:	09 c2                	or     %eax,%edx
	      d0 = d0 << bm;
	      n2 = n1 >> b;
	      n1 = (n1 << bm) | (n0 >> b);
4000efe5:	8b 45 e4             	mov    -0x1c(%ebp),%eax
	      /* Normalize.  */

	      b = W_TYPE_SIZE - bm;

	      d1 = (d1 << bm) | (d0 >> b);
	      d0 = d0 << bm;
4000efe8:	d3 e6                	shl    %cl,%esi
	      n2 = n1 >> b;
	      n1 = (n1 << bm) | (n0 >> b);
4000efea:	8a 4d dc             	mov    -0x24(%ebp),%cl
	      UWtype m1, m0;
	      /* Normalize.  */

	      b = W_TYPE_SIZE - bm;

	      d1 = (d1 << bm) | (d0 >> b);
4000efed:	89 55 f4             	mov    %edx,-0xc(%ebp)
	      d0 = d0 << bm;
	      n2 = n1 >> b;
	      n1 = (n1 << bm) | (n0 >> b);
4000eff0:	d3 e8                	shr    %cl,%eax
4000eff2:	8b 55 e0             	mov    -0x20(%ebp),%edx
4000eff5:	8a 4d d8             	mov    -0x28(%ebp),%cl
4000eff8:	d3 e2                	shl    %cl,%edx
4000effa:	09 d0                	or     %edx,%eax
	      n0 = n0 << bm;

	      udiv_qrnnd (q0, n1, n2, n1, d1);
4000effc:	8b 55 e0             	mov    -0x20(%ebp),%edx

	      d1 = (d1 << bm) | (d0 >> b);
	      d0 = d0 << bm;
	      n2 = n1 >> b;
	      n1 = (n1 << bm) | (n0 >> b);
	      n0 = n0 << bm;
4000efff:	d3 e7                	shl    %cl,%edi

	      udiv_qrnnd (q0, n1, n2, n1, d1);
4000f001:	8a 4d dc             	mov    -0x24(%ebp),%cl
4000f004:	d3 ea                	shr    %cl,%edx
4000f006:	f7 75 f4             	divl   -0xc(%ebp)
4000f009:	89 55 cc             	mov    %edx,-0x34(%ebp)
	      umul_ppmm (m1, m0, q0, d0);
4000f00c:	f7 e6                	mul    %esi

	      if (m1 > n1 || (m1 == n1 && m0 > n0))
4000f00e:	39 55 cc             	cmp    %edx,-0x34(%ebp)
4000f011:	72 53                	jb     4000f066 <__umoddi3+0x176>
4000f013:	3b 55 cc             	cmp    -0x34(%ebp),%edx
4000f016:	74 4a                	je     4000f062 <__umoddi3+0x172>
4000f018:	90                   	nop    
4000f019:	8d b4 26 00 00 00 00 	lea    0x0(%esi),%esi
	      q1 = 0;

	      /* Remainder in (n1n0 - m1m0) >> bm.  */
	      if (rp != 0)
		{
		  sub_ddmmss (n1, n0, n1, n0, m1, m0);
4000f020:	8b 4d cc             	mov    -0x34(%ebp),%ecx
4000f023:	29 c7                	sub    %eax,%edi
4000f025:	19 d1                	sbb    %edx,%ecx
4000f027:	89 4d cc             	mov    %ecx,-0x34(%ebp)
		  rr.s.low = (n1 << b) | (n0 >> bm);
4000f02a:	89 fa                	mov    %edi,%edx
4000f02c:	8a 4d d8             	mov    -0x28(%ebp),%cl
4000f02f:	8b 45 cc             	mov    -0x34(%ebp),%eax
4000f032:	d3 ea                	shr    %cl,%edx
4000f034:	8a 4d dc             	mov    -0x24(%ebp),%cl
4000f037:	d3 e0                	shl    %cl,%eax
4000f039:	09 c2                	or     %eax,%edx
		  rr.s.high = n1 >> bm;
4000f03b:	8a 4d d8             	mov    -0x28(%ebp),%cl
4000f03e:	8b 45 cc             	mov    -0x34(%ebp),%eax

	      /* Remainder in (n1n0 - m1m0) >> bm.  */
	      if (rp != 0)
		{
		  sub_ddmmss (n1, n0, n1, n0, m1, m0);
		  rr.s.low = (n1 << b) | (n0 >> bm);
4000f041:	89 55 d0             	mov    %edx,-0x30(%ebp)
		  rr.s.high = n1 >> bm;
4000f044:	d3 e8                	shr    %cl,%eax
4000f046:	89 45 d4             	mov    %eax,-0x2c(%ebp)
4000f049:	e9 02 ff ff ff       	jmp    4000ef50 <__umoddi3+0x60>
	      /* The condition on the next line takes advantage of that
		 n1 >= d1 (true due to program flow).  */
	      if (n1 > d1 || n0 >= d0)
		{
		  q0 = 1;
		  sub_ddmmss (n1, n0, n1, n0, d1, d0);
4000f04e:	8b 55 e0             	mov    -0x20(%ebp),%edx
4000f051:	8b 45 e4             	mov    -0x1c(%ebp),%eax
4000f054:	2b 45 ec             	sub    -0x14(%ebp),%eax
4000f057:	1b 55 e8             	sbb    -0x18(%ebp),%edx
4000f05a:	89 45 f0             	mov    %eax,-0x10(%ebp)
4000f05d:	e9 22 ff ff ff       	jmp    4000ef84 <__umoddi3+0x94>
	      n0 = n0 << bm;

	      udiv_qrnnd (q0, n1, n2, n1, d1);
	      umul_ppmm (m1, m0, q0, d0);

	      if (m1 > n1 || (m1 == n1 && m0 > n0))
4000f062:	39 f8                	cmp    %edi,%eax
4000f064:	76 ba                	jbe    4000f020 <__umoddi3+0x130>
		{
		  q0--;
		  sub_ddmmss (m1, m0, m1, m0, d1, d0);
4000f066:	29 f0                	sub    %esi,%eax
4000f068:	1b 55 f4             	sbb    -0xc(%ebp),%edx
4000f06b:	eb b3                	jmp    4000f020 <__umoddi3+0x130>
4000f06d:	90                   	nop    
4000f06e:	90                   	nop    
4000f06f:	90                   	nop    

4000f070 <__do_global_ctors_aux>:
4000f070:	55                   	push   %ebp
4000f071:	89 e5                	mov    %esp,%ebp
4000f073:	56                   	push   %esi
4000f074:	53                   	push   %ebx
4000f075:	e8 00 00 00 00       	call   4000f07a <__do_global_ctors_aux+0xa>
4000f07a:	5b                   	pop    %ebx
4000f07b:	81 c3 b6 1f 00 00    	add    $0x1fb6,%ebx
4000f081:	8d 83 e4 ff ff ff    	lea    -0x1c(%ebx),%eax
4000f087:	8d 50 fc             	lea    -0x4(%eax),%edx
4000f08a:	8b 40 fc             	mov    -0x4(%eax),%eax
4000f08d:	83 f8 ff             	cmp    $0xffffffff,%eax
4000f090:	74 1b                	je     4000f0ad <__do_global_ctors_aux+0x3d>
4000f092:	89 d6                	mov    %edx,%esi
4000f094:	8d b6 00 00 00 00    	lea    0x0(%esi),%esi
4000f09a:	8d bf 00 00 00 00    	lea    0x0(%edi),%edi
4000f0a0:	ff d0                	call   *%eax
4000f0a2:	8b 46 fc             	mov    -0x4(%esi),%eax
4000f0a5:	83 ee 04             	sub    $0x4,%esi
4000f0a8:	83 f8 ff             	cmp    $0xffffffff,%eax
4000f0ab:	75 f3                	jne    4000f0a0 <__do_global_ctors_aux+0x30>
4000f0ad:	5b                   	pop    %ebx
4000f0ae:	5e                   	pop    %esi
4000f0af:	5d                   	pop    %ebp
4000f0b0:	c3                   	ret    
Disassembly of section .fini:

4000f0b1 <.fini>:
4000f0b1:	e8 5a 21 ff ff       	call   40001210 <__do_global_dtors_aux>
